 universalDAQTest2

 Timestamp is 5dc0d15b (Tue Nov  5 09:33:15 2019)

 Preferred load address is 00400000

 Start         Length     Name                   Class
 0001:00000000 00000aa0H .text$di                CODE
 0001:00000aa0 0005f100H .text$mn                CODE
 0001:0005fba0 0000ac60H .text$x                 CODE
 0001:0006a800 000005bdH .text$yd                CODE
 0002:00000000 000015d0H .idata$5                DATA
 0002:000015d0 00000004H .00cfg                  DATA
 0002:000015d4 00000004H .CRT$XCA                DATA
 0002:000015d8 00000004H .CRT$XCAA               DATA
 0002:000015dc 000000bcH .CRT$XCU                DATA
 0002:00001698 00000004H .CRT$XCZ                DATA
 0002:0000169c 00000004H .CRT$XIA                DATA
 0002:000016a0 00000004H .CRT$XIAA               DATA
 0002:000016a4 00000004H .CRT$XIAC               DATA
 0002:000016a8 00000004H .CRT$XIC                DATA
 0002:000016ac 00000004H .CRT$XIZ                DATA
 0002:000016b0 00000004H .CRT$XLA                DATA
 0002:000016b4 00000004H .CRT$XLZ                DATA
 0002:000016b8 00000004H .CRT$XPA                DATA
 0002:000016bc 00000004H .CRT$XPZ                DATA
 0002:000016c0 00000004H .CRT$XTA                DATA
 0002:000016c4 0000000cH .CRT$XTZ                DATA
 0002:000016c8 00000000H .gfids$y                DATA
 0002:000016d0 000334ecH .rdata                  DATA
 0002:00034bbc 00000018H .rdata$T                DATA
 0002:00034bd4 00001d3cH .rdata$r                DATA
 0002:00036910 00000438H .rdata$sxdata           DATA
 0002:00036d48 000003e4H .rdata$zzzdbg           DATA
 0002:0003712c 00000004H .rtc$IAA                DATA
 0002:00037130 00000004H .rtc$IZZ                DATA
 0002:00037134 00000004H .rtc$TAA                DATA
 0002:00037138 00000004H .rtc$TZZ                DATA
 0002:0003713c 00000004H .tls                    DATA
 0002:00037140 00000004H .tls$                   DATA
 0002:00037144 00000004H .tls$ZZZ                DATA
 0002:00037148 0000967cH .xdata$x                DATA
 0002:000407c4 00000000H .edata                  DATA
 0002:000407c4 0000017cH .idata$2                DATA
 0002:00040940 00000014H .idata$3                DATA
 0002:00040954 000015d0H .idata$4                DATA
 0002:00041f24 0000f008H .idata$6                DATA
 0003:00000000 000004f0H .data                   DATA
 0003:000004f0 00000b28H .data$r                 DATA
 0003:00001018 000004c8H .bss                    DATA
 0004:00000000 00000060H .rsrc$01                DATA
 0004:00000060 00000280H .rsrc$02                DATA

  Address         Publics by Value              Rva+Base       Lib:Object

 0000:00000000       ___guard_fids_table        00000000     <absolute>
 0000:00000000       ___volatile_metadata       00000000     <absolute>
 0000:00000000       ___guard_fids_count        00000000     <absolute>
 0000:00000000       ___enclave_config          00000000     <absolute>
 0000:00000000       ___hybrid_code_map_count   00000000     <absolute>
 0000:00000000       ___AbsoluteZero            00000000     <absolute>
 0000:00000000       ___guard_iat_count         00000000     <absolute>
 0000:00000000       ___guard_longjmp_table     00000000     <absolute>
 0000:00000000       ___guard_longjmp_count     00000000     <absolute>
 0000:00000000       ___guard_iat_table         00000000     <absolute>
 0000:00000000       ___dynamic_value_reloc_table 00000000     <absolute>
 0000:00000000       ___hybrid_auxiliary_iat    00000000     <absolute>
 0000:00000000       ___hybrid_code_map         00000000     <absolute>
 0000:0000002c       __tls_array                0000002c     <absolute>
 0000:00000100       ___guard_flags             00000100     <absolute>
 0000:0000010e       ___safe_se_handler_count   0000010e     <absolute>
 0000:00000000       ___ImageBase               00400000     <linker-defined>
 0001:00000aa0       ??0?$QList@M@@QAE@ABV0@@Z  00401aa0 f i tcpdataanalysis.obj
 0001:00000aa0       ??0?$QList@E@@QAE@ABV0@@Z  00401aa0 f i moc_tcpclient.obj
 0001:00000aa0       ??0?$QList@PAVQAction@@@@QAE@ABV0@@Z 00401aa0 f i mainwindow.obj
 0001:00000aa0       ??0?$QList@H@@QAE@ABV0@@Z  00401aa0 f i mysave.obj
 0001:00000aa0       ??0?$QList@_N@@QAE@ABV0@@Z 00401aa0 f i tcpdataanalysis.obj
 0001:00000b50       ??1?$QList@PAVbaseForm2@@@@QAE@XZ 00401b50 f i maintab.obj
 0001:00000b50       ??1?$QList@M@@QAE@XZ       00401b50 f i tcpdataanalysis.obj
 0001:00000b50       ??1?$QList@PAVQDoubleSpinBox@@@@QAE@XZ 00401b50 f i alertchjunyue.obj
 0001:00000b50       ??1?$QList@PAVQAction@@@@QAE@XZ 00401b50 f i daqinfo.obj
 0001:00000b50       ??1?$QList@PAVQWidget@@@@QAE@XZ 00401b50 f i maintab.obj
 0001:00000b50       ??1?$QList@PAVQDockWidget@@@@QAE@XZ 00401b50 f i mainwindow.obj
 0001:00000b50       ??1?$QList@E@@QAE@XZ       00401b50 f i tcpclient.obj
 0001:00000b50       ??1?$QList@H@@QAE@XZ       00401b50 f i mysave.obj
 0001:00000b50       ??1?$QList@PAVvirbValue@@@@QAE@XZ 00401b50 f i maintab.obj
 0001:00000b50       ??1?$QList@_N@@QAE@XZ      00401b50 f i tcpdataanalysis.obj
 0001:00000b50       ??1?$QList@PAVQAbstractButton@@@@QAE@XZ 00401b50 f i maintab.obj
 0001:00000bb0       ??1?$QList@VQString@@@@QAE@XZ 00401bb0 f i mysave.obj
 0001:00000c40       ??1?$QVector@N@@QAE@XZ     00401c40 f i mysave.obj
 0001:00000c70       ??H@YA?BVQString@@ABV0@PBD@Z 00401c70 f i mysave.obj
 0001:00000d00       ??_EQFile@@UAEPAXI@Z       00401d00 f i mysave.obj
 0001:00000da0       ??_EQTextStream@@UAEPAXI@Z 00401da0 f i mysave.obj
 0001:00000da0       ??_GQTextStream@@UAEPAXI@Z 00401da0 f i mysave.obj
 0001:00000dd0       ??_TQFile@@QAEXXZ          00401dd0 f i mysave.obj
 0001:00000df0       ?append@?$QList@H@@QAEXABH@Z 00401df0 f i mysave.obj
 0001:00000df0       ?append@?$QList@M@@QAEXABM@Z 00401df0 f i tcpdataanalysis.obj
 0001:00000df0       ?append@?$QList@PAVQDoubleSpinBox@@@@QAEXABQAVQDoubleSpinBox@@@Z 00401df0 f i alertchjunyue.obj
 0001:00000df0       ?append@?$QList@PAVQFile@@@@QAEXABQAVQFile@@@Z 00401df0 f i mysave.obj
 0001:00000df0       ?append@?$QList@PAVvirbValue@@@@QAEXABQAVvirbValue@@@Z 00401df0 f i tcpdataanalysis.obj
 0001:00000df0       ?append@?$QList@PAVQDockWidget@@@@QAEXABQAVQDockWidget@@@Z 00401df0 f i mainwindow.obj
 0001:00000df0       ?append@?$QList@PAVQTextStream@@@@QAEXABQAVQTextStream@@@Z 00401df0 f i mysave.obj
 0001:00000df0       ?append@?$QList@PAVQAction@@@@QAEXABQAVQAction@@@Z 00401df0 f i daqinfo.obj
 0001:00000df0       ?append@?$QList@PAVWifiSingleChannel@@@@QAEXABQAVWifiSingleChannel@@@Z 00401df0 f i tcpdataanalysis.obj
 0001:00000df0       ?append@?$QList@PAVQWidget@@@@QAEXABQAVQWidget@@@Z 00401df0 f i maintab.obj
 0001:00000ea0       ?append@?$QList@VQString@@@@QAEXABVQString@@@Z 00401ea0 f i mysave.obj
 0001:00000f60       ?clear@?$QList@M@@QAEXXZ   00401f60 f i tcpdataanalysis.obj
 0001:00000f60       ?clear@?$QList@E@@QAEXXZ   00401f60 f i tcpclient.obj
 0001:00000f60       ?clear@?$QList@PAVQTextStream@@@@QAEXXZ 00401f60 f i mysave.obj
 0001:00000f60       ?clear@?$QList@PAVWifiSingleChannel@@@@QAEXXZ 00401f60 f i tcpdataanalysis.obj
 0001:00001000       ?detach_helper@?$QList@VQString@@@@AAEXH@Z 00402000 f i mysave.obj
 0001:000010f0       ?detach_helper_grow@?$QList@E@@AAEPAUNode@1@HH@Z 004020f0 f i tcpdataanalysis.obj
 0001:000010f0       ?detach_helper_grow@?$QList@G@@AAEPAUNode@1@HH@Z 004020f0 f i tcpdataanalysis.obj
 0001:000010f0       ?detach_helper_grow@?$QList@PAVQAction@@@@AAEPAUNode@1@HH@Z 004020f0 f i daqinfo.obj
 0001:000010f0       ?detach_helper_grow@?$QList@PAVQWidget@@@@AAEPAUNode@1@HH@Z 004020f0 f i maintab.obj
 0001:000010f0       ?detach_helper_grow@?$QList@_N@@AAEPAUNode@1@HH@Z 004020f0 f i tcpdataanalysis.obj
 0001:000010f0       ?detach_helper_grow@?$QList@PAVQDockWidget@@@@AAEPAUNode@1@HH@Z 004020f0 f i mainwindow.obj
 0001:000010f0       ?detach_helper_grow@?$QList@PAVQDoubleSpinBox@@@@AAEPAUNode@1@HH@Z 004020f0 f i alertchjunyue.obj
 0001:000010f0       ?detach_helper_grow@?$QList@H@@AAEPAUNode@1@HH@Z 004020f0 f i mysave.obj
 0001:000010f0       ?detach_helper_grow@?$QList@PAVQTextStream@@@@AAEPAUNode@1@HH@Z 004020f0 f i mysave.obj
 0001:000010f0       ?detach_helper_grow@?$QList@PAVQFile@@@@AAEPAUNode@1@HH@Z 004020f0 f i mysave.obj
 0001:000010f0       ?detach_helper_grow@?$QList@PAVWifiSingleChannel@@@@AAEPAUNode@1@HH@Z 004020f0 f i tcpdataanalysis.obj
 0001:000010f0       ?detach_helper_grow@?$QList@M@@AAEPAUNode@1@HH@Z 004020f0 f i tcpdataanalysis.obj
 0001:000010f0       ?detach_helper_grow@?$QList@PAVvirbValue@@@@AAEPAUNode@1@HH@Z 004020f0 f i tcpdataanalysis.obj
 0001:00001220       ?detach_helper_grow@?$QList@VQString@@@@AAEPAUNode@1@HH@Z 00402220 f i mysave.obj
 0001:00001380       ?node_copy@?$QList@PAVQDoubleSpinBox@@@@AAEXPAUNode@1@00@Z 00402380 f i alertchjunyue.obj
 0001:00001380       ?node_copy@?$QList@PAVQWidget@@@@AAEXPAUNode@1@00@Z 00402380 f i maintab.obj
 0001:00001380       ?node_copy@?$QList@PAVvirbValue@@@@AAEXPAUNode@1@00@Z 00402380 f i tcpdataanalysis.obj
 0001:00001380       ?node_copy@?$QList@PAVQFile@@@@AAEXPAUNode@1@00@Z 00402380 f i mysave.obj
 0001:00001380       ?node_copy@?$QList@H@@AAEXPAUNode@1@00@Z 00402380 f i mysave.obj
 0001:00001380       ?node_copy@?$QList@E@@AAEXPAUNode@1@00@Z 00402380 f i tcpdataanalysis.obj
 0001:00001380       ?node_copy@?$QList@M@@AAEXPAUNode@1@00@Z 00402380 f i tcpdataanalysis.obj
 0001:00001380       ?node_copy@?$QList@PAVQTextStream@@@@AAEXPAUNode@1@00@Z 00402380 f i mysave.obj
 0001:00001380       ?node_copy@?$QList@_N@@AAEXPAUNode@1@00@Z 00402380 f i tcpdataanalysis.obj
 0001:00001380       ?node_copy@?$QList@PAVWifiSingleChannel@@@@AAEXPAUNode@1@00@Z 00402380 f i tcpdataanalysis.obj
 0001:00001380       ?node_copy@?$QList@G@@AAEXPAUNode@1@00@Z 00402380 f i tcpdataanalysis.obj
 0001:00001380       ?node_copy@?$QList@PAVQDockWidget@@@@AAEXPAUNode@1@00@Z 00402380 f i mainwindow.obj
 0001:00001380       ?node_copy@?$QList@PAVQAction@@@@AAEXPAUNode@1@00@Z 00402380 f i daqinfo.obj
 0001:00001380       ?node_copy@?$QList@PAVbaseForm2@@@@AAEXPAUNode@1@00@Z 00402380 f i maintab.obj
 0001:000013b0       ?node_copy@?$QList@VQString@@@@AAEXPAUNode@1@00@Z 004023b0 f i mysave.obj
 0001:000013e0       ?node_destruct@?$QList@M@@AAEXPAUNode@1@0@Z 004023e0 f i tcpdataanalysis.obj
 0001:000013e0       ?node_destruct@?$QList@PAVvirbValue@@@@AAEXPAUNode@1@0@Z 004023e0 f i tcpdataanalysis.obj
 0001:000013e0       ?node_destruct@?$QList@_N@@AAEXPAUNode@1@0@Z 004023e0 f i tcpdataanalysis.obj
 0001:000013e0       ?node_destruct@?$QList@PAVQAction@@@@AAEXPAUNode@1@0@Z 004023e0 f i daqinfo.obj
 0001:000013e0       ?node_destruct@?$QList@PAVQTextStream@@@@AAEXPAUNode@1@0@Z 004023e0 f i mysave.obj
 0001:000013e0       ?node_destruct@?$QList@PAVQFile@@@@AAEXPAUNode@1@0@Z 004023e0 f i mysave.obj
 0001:000013e0       ?node_destruct@?$QList@E@@AAEXPAUNode@1@0@Z 004023e0 f i tcpdataanalysis.obj
 0001:000013e0       ?node_destruct@?$QList@PAVQDockWidget@@@@AAEXPAUNode@1@0@Z 004023e0 f i mainwindow.obj
 0001:000013e0       ?node_destruct@?$QList@H@@AAEXPAUNode@1@0@Z 004023e0 f i mysave.obj
 0001:000013e0       ?node_destruct@?$QList@PAVWifiSingleChannel@@@@AAEXPAUNode@1@0@Z 004023e0 f i tcpdataanalysis.obj
 0001:000013e0       ?node_destruct@?$QList@PAVQWidget@@@@AAEXPAUNode@1@0@Z 004023e0 f i maintab.obj
 0001:000013e0       ?updateWave@daqInfo@@QAEXPAV?$QVector@N@@H@Z 004023e0 f i daqinfo.obj
 0001:000013e0       ?node_destruct@?$QList@PAVQDoubleSpinBox@@@@AAEXPAUNode@1@0@Z 004023e0 f i alertchjunyue.obj
 0001:000013e0       ?node_destruct@?$QList@G@@AAEXPAUNode@1@0@Z 004023e0 f i tcpdataanalysis.obj
 0001:000013f0       ?node_destruct@?$QList@M@@AAEXPAUNode@1@@Z 004023f0 f i tcpdataanalysis.obj
 0001:000013f0       ?node_destruct@?$QList@G@@AAEXPAUNode@1@@Z 004023f0 f i tcpdataanalysis.obj
 0001:000013f0       ?node_destruct@?$QList@PAVQAction@@@@AAEXPAUNode@1@@Z 004023f0 f i daqinfo.obj
 0001:000013f0       ?node_destruct@?$QList@PAVQTextStream@@@@AAEXPAUNode@1@@Z 004023f0 f i mysave.obj
 0001:000013f0       ?node_destruct@?$QList@E@@AAEXPAUNode@1@@Z 004023f0 f i tcpdataanalysis.obj
 0001:000013f0       ?node_destruct@?$QList@PAVQFile@@@@AAEXPAUNode@1@@Z 004023f0 f i mysave.obj
 0001:000013f0       ?node_destruct@?$QList@_N@@AAEXPAUNode@1@@Z 004023f0 f i tcpdataanalysis.obj
 0001:000013f0       ?node_destruct@?$QList@PAVQDoubleSpinBox@@@@AAEXPAUNode@1@@Z 004023f0 f i alertchjunyue.obj
 0001:000013f0       ?node_destruct@?$QList@PAVQDockWidget@@@@AAEXPAUNode@1@@Z 004023f0 f i mainwindow.obj
 0001:000013f0       ?node_destruct@?$QList@H@@AAEXPAUNode@1@@Z 004023f0 f i mysave.obj
 0001:000013f0       ?node_destruct@?$QList@PAVWifiSingleChannel@@@@AAEXPAUNode@1@@Z 004023f0 f i tcpdataanalysis.obj
 0001:000013f0       ?node_destruct@?$QList@PAVvirbValue@@@@AAEXPAUNode@1@@Z 004023f0 f i tcpdataanalysis.obj
 0001:000013f0       ?node_destruct@?$QList@PAVQWidget@@@@AAEXPAUNode@1@@Z 004023f0 f i maintab.obj
 0001:00001400       ?node_destruct@?$QList@VQString@@@@AAEXPAUNode@1@0@Z 00402400 f i mysave.obj
 0001:00001430       ?node_destruct@?$QList@VQString@@@@AAEXPAUNode@1@@Z 00402430 f i mysave.obj
 0001:00001440       ?saveData@mySave@@QAEXHPAV?$QVector@N@@@Z 00402440 f   mysave.obj
 0001:00001770       ?saveData@mySave@@QAEXPAV?$QVector@N@@@Z 00402770 f   mysave.obj
 0001:00001870       ?saveData@mySave@@QAEXVQByteArray@@HPAV?$QVector@N@@@Z 00402870 f   mysave.obj
 0001:00001d10       ?setEnabledch@mySave@@QAEXG@Z 00402d10 f   mysave.obj
 0001:00001e00       ?setFsMode@mySave@@QAEXH@Z 00402e00 f   mysave.obj
 0001:00001e20       ?setName@mySave@@QAEXVQString@@PAHHH@Z 00402e20 f   mysave.obj
 0001:000021f0       ?setName@mySave@@QAEXVQString@@V?$QList@H@@@Z 004031f0 f   mysave.obj
 0001:000025d0       ?setName@mySave@@QAEXXZ    004035d0 f   mysave.obj
 0001:00002980       ?setSave@mySave@@QAEX_N@Z  00403980 f   mysave.obj
 0001:00002990       ?setType@mySave@@QAEXVQString@@HH@Z 00403990 f   mysave.obj
 0001:000029c0       ?startSave@mySave@@QAEXXZ  004039c0 f   mysave.obj
 0001:00002a00       ?stopSave@mySave@@QAEXXZ   00403a00 f   mysave.obj
 0001:00002ab0       ??0MySocket@@QAE@HPAVQObject@@@Z 00403ab0 f   mysocket.obj
 0001:00002c70       ??_GMySocket@@UAEPAXI@Z    00403c70 f i mysocket.obj
 0001:00002c70       ??_EMySocket@@UAEPAXI@Z    00403c70 f i mysocket.obj
 0001:00002d40       ?recvData@MySocket@@QAEXXZ 00403d40 f   mysocket.obj
 0001:00002e20       ?sendHeartBeat@MySocket@@AAEXXZ 00403e20 f   mysocket.obj
 0001:00002ed0       ?sendMsg@MySocket@@QAEXVQByteArray@@H@Z 00403ed0 f   mysocket.obj
 0001:00002f70       ?stop@MySocket@@QAEXXZ     00403f70 f   mysocket.obj
 0001:00002f90       ??0?$QVector@N@@QAE@XZ     00403f90 f i tcpdataanalysis.obj
 0001:00002fa0       ??0tcpDataAnalysis@@QAE@PAVQObject@@@Z 00403fa0 f   tcpdataanalysis.obj
 0001:000033a0       ??1WifiChParas@@UAE@XZ     004043a0 f i tcpdataanalysis.obj
 0001:00003410       ??1WifiFsParas@@UAE@XZ     00404410 f i tcpdataanalysis.obj
 0001:00003420       ??1netParas@@UAE@XZ        00404420 f i moc_daqinfo.obj
 0001:00003420       ??1WifiNetParas@@UAE@XZ    00404420 f i tcpdataanalysis.obj
 0001:00003450       ??1tcpDataAnalysis@@UAE@XZ 00404450 f   tcpdataanalysis.obj
 0001:000037a0       ??1wifiCharacterTest@@QAE@XZ 004047a0 f i tcpdataanalysis.obj
 0001:000037b0       ??8@YA_NABVQByteArray@@0@Z 004047b0 f i tcpdataanalysis.obj
 0001:00003870       ??H@YA?BVQString@@ABV0@0@Z 00404870 f i tcpdataanalysis.obj
 0001:000038e0       ??H@YA?BVQString@@PBDABV0@@Z 004048e0 f i tcpdataanalysis.obj
 0001:00003950       ??_E?$QVector@N@@QAEPAXI@Z 00404950 f i tcpdataanalysis.obj
 0001:00003a20       ??_G?$QVector@N@@QAEPAXI@Z 00404a20 f i tcpdataanalysis.obj
 0001:00003a70       ??_GtcpDataAnalysis@@UAEPAXI@Z 00404a70 f i tcpdataanalysis.obj
 0001:00003a70       ??_EtcpDataAnalysis@@UAEPAXI@Z 00404a70 f i tcpdataanalysis.obj
 0001:00003aa0       ?append@?$QList@E@@QAEXABE@Z 00404aa0 f i tcpdataanalysis.obj
 0001:00003aa0       ?append@?$QList@_N@@QAEXAB_N@Z 00404aa0 f i tcpdataanalysis.obj
 0001:00003b50       ?append@?$QList@G@@QAEXABG@Z 00404b50 f i tcpdataanalysis.obj
 0001:00003c00       ?append@?$QVector@N@@QAEX$$QAN@Z 00404c00 f i tcpdataanalysis.obj
 0001:00003c70       ?append@?$QVector@N@@QAEXABN@Z 00404c70 f i tcpdataanalysis.obj
 0001:00003d20       ?calCharacter2@tcpDataAnalysis@@AAEXVQByteArray@@HPAV?$QVector@N@@H@Z 00404d20 f   tcpdataanalysis.obj
 0001:00004200       ?data@?$QVector@N@@QAEPANXZ 00405200 f i tcpdataanalysis.obj
 0001:00004260       ?dealPacket@tcpDataAnalysis@@QAEXXZ 00405260 f   tcpdataanalysis.obj
 0001:000096e0       ?deallocate@?$QTypedArrayData@N@@SAXPAUQArrayData@@@Z 0040a6e0 f i tcpdataanalysis.obj
 0001:00009700       ?detach_helper@?$QList@M@@AAEXH@Z 0040a700 f i characterform.obj
 0001:00009700       ?detach_helper@?$QList@PAVQWidget@@@@AAEXH@Z 0040a700 f i maintab.obj
 0001:00009700       ?detach_helper@?$QList@H@@AAEXH@Z 0040a700 f i tcpserver.obj
 0001:00009700       ?detach_helper@?$QList@G@@AAEXH@Z 0040a700 f i tcpdataanalysis.obj
 0001:00009700       ?detach_helper@?$QList@_N@@AAEXH@Z 0040a700 f i characterform.obj
 0001:00009700       ?detach_helper@?$QList@PAVbaseForm2@@@@AAEXH@Z 0040a700 f i maintab.obj
 0001:00009700       ?detach_helper@?$QList@E@@AAEXH@Z 0040a700 f i tcpdataanalysis.obj
 0001:000097d0       ?reallocData@?$QVector@N@@AAEXHHV?$QFlags@W4AllocationOption@QArrayData@@@@@Z 0040a7d0 f i tcpdataanalysis.obj
 0001:00009970       ?recvData@tcpDataAnalysis@@QAEXVQString@@VQByteArray@@@Z 0040a970 f   tcpdataanalysis.obj
 0001:00009b30       ?reset30@tcpDataAnalysis@@QAEXH@Z 0040ab30 f   tcpdataanalysis.obj
 0001:00009b40       ?sendDataImmediately@tcpDataAnalysis@@AAEXXZ 0040ab40 f   tcpdataanalysis.obj
 0001:00009bc0       ?sendSingleImmediately@tcpDataAnalysis@@AAEXXZ 0040abc0 f   tcpdataanalysis.obj
 0001:00009c00       ?widgetReady@tcpDataAnalysis@@QAEXVQString@@@Z 0040ac00 f   tcpdataanalysis.obj
 0001:00009c30       ??$atImpl@V?$QList@E@@@QSequentialIterableImpl@QtMetaTypePrivate@@SAPBXPBXH@Z 0040ac30 f i moc_tcpclient.obj
 0001:00009c30       ??$atImpl@V?$QList@H@@@QSequentialIterableImpl@QtMetaTypePrivate@@SAPBXPBXH@Z 0040ac30 f i tcpserver.obj
 0001:00009c30       ??$atImpl@V?$QList@_N@@@QSequentialIterableImpl@QtMetaTypePrivate@@SAPBXPBXH@Z 0040ac30 f i daqinfo.obj
 0001:00009c30       ??$atImpl@V?$QList@M@@@QSequentialIterableImpl@QtMetaTypePrivate@@SAPBXPBXH@Z 0040ac30 f i daqinfo.obj
 0001:00009c50       ??$atImpl@V?$QList@N@@@QSequentialIterableImpl@QtMetaTypePrivate@@SAPBXPBXH@Z 0040ac50 f i tcpserver.obj
 0001:00009c70       ??$getImpl@V?$QList@_N@@@QSequentialIterableImpl@QtMetaTypePrivate@@SA?AUVariantData@1@PBQAXHI@Z 0040ac70 f i daqinfo.obj
 0001:00009c70       ??$getImpl@V?$QList@E@@@QSequentialIterableImpl@QtMetaTypePrivate@@SA?AUVariantData@1@PBQAXHI@Z 0040ac70 f i moc_tcpclient.obj
 0001:00009c70       ??$getImpl@V?$QList@M@@@QSequentialIterableImpl@QtMetaTypePrivate@@SA?AUVariantData@1@PBQAXHI@Z 0040ac70 f i daqinfo.obj
 0001:00009c70       ??$getImpl@V?$QList@H@@@QSequentialIterableImpl@QtMetaTypePrivate@@SA?AUVariantData@1@PBQAXHI@Z 0040ac70 f i tcpserver.obj
 0001:00009c90       ??$getImpl@V?$QList@N@@@QSequentialIterableImpl@QtMetaTypePrivate@@SA?AUVariantData@1@PBQAXHI@Z 0040ac90 f i tcpserver.obj
 0001:00009cb0       ??$moveToBeginImpl@V?$QList@H@@@QSequentialIterableImpl@QtMetaTypePrivate@@SAXPBXPAPAX@Z 0040acb0 f i tcpserver.obj
 0001:00009cb0       ??$moveToBeginImpl@V?$QList@M@@@QSequentialIterableImpl@QtMetaTypePrivate@@SAXPBXPAPAX@Z 0040acb0 f i daqinfo.obj
 0001:00009cb0       ??$moveToBeginImpl@V?$QList@E@@@QSequentialIterableImpl@QtMetaTypePrivate@@SAXPBXPAPAX@Z 0040acb0 f i moc_tcpclient.obj
 0001:00009cb0       ??$moveToBeginImpl@V?$QList@N@@@QSequentialIterableImpl@QtMetaTypePrivate@@SAXPBXPAPAX@Z 0040acb0 f i tcpserver.obj
 0001:00009cb0       ??$moveToBeginImpl@V?$QList@_N@@@QSequentialIterableImpl@QtMetaTypePrivate@@SAXPBXPAPAX@Z 0040acb0 f i daqinfo.obj
 0001:00009ce0       ??$moveToEndImpl@V?$QList@M@@@QSequentialIterableImpl@QtMetaTypePrivate@@SAXPBXPAPAX@Z 0040ace0 f i daqinfo.obj
 0001:00009ce0       ??$moveToEndImpl@V?$QList@E@@@QSequentialIterableImpl@QtMetaTypePrivate@@SAXPBXPAPAX@Z 0040ace0 f i moc_tcpclient.obj
 0001:00009ce0       ??$moveToEndImpl@V?$QList@H@@@QSequentialIterableImpl@QtMetaTypePrivate@@SAXPBXPAPAX@Z 0040ace0 f i tcpserver.obj
 0001:00009ce0       ??$moveToEndImpl@V?$QList@N@@@QSequentialIterableImpl@QtMetaTypePrivate@@SAXPBXPAPAX@Z 0040ace0 f i tcpserver.obj
 0001:00009ce0       ??$moveToEndImpl@V?$QList@_N@@@QSequentialIterableImpl@QtMetaTypePrivate@@SAXPBXPAPAX@Z 0040ace0 f i daqinfo.obj
 0001:00009d10       ??$setValue@PAVWifiChParas@@@QVariant@@QAEXABQAVWifiChParas@@@Z 0040ad10 f i tcpserver.obj
 0001:00009da0       ??$setValue@PAVWifiFsParas@@@QVariant@@QAEXABQAVWifiFsParas@@@Z 0040ada0 f i tcpserver.obj
 0001:00009e30       ??$sizeImpl@V?$QList@M@@@QSequentialIterableImpl@QtMetaTypePrivate@@SAHPBX@Z 0040ae30 f i daqinfo.obj
 0001:00009e30       ??$sizeImpl@V?$QList@H@@@QSequentialIterableImpl@QtMetaTypePrivate@@SAHPBX@Z 0040ae30 f i tcpserver.obj
 0001:00009e30       ??$sizeImpl@V?$QList@N@@@QSequentialIterableImpl@QtMetaTypePrivate@@SAHPBX@Z 0040ae30 f i tcpserver.obj
 0001:00009e30       ??$sizeImpl@V?$QList@_N@@@QSequentialIterableImpl@QtMetaTypePrivate@@SAHPBX@Z 0040ae30 f i daqinfo.obj
 0001:00009e30       ??$sizeImpl@V?$QList@E@@@QSequentialIterableImpl@QtMetaTypePrivate@@SAHPBX@Z 0040ae30 f i moc_tcpclient.obj
 0001:00009e40       ??0?$QList@N@@QAE@ABV0@@Z  0040ae40 f i tcpserver.obj
 0001:00009ef0       ??0?$QList@VQString@@@@QAE@ABV0@@Z 0040aef0 f i tcpserver.obj
 0001:00009fb0       ??0?$QList@VQVariant@@@@QAE@ABV0@@Z 0040afb0 f i tcpserver.obj
 0001:0000a060       ??0QSequentialIterableImpl@QtMetaTypePrivate@@QAE@XZ 0040b060 f i tcpserver.obj
 0001:0000a0d0       ??0tcpServer@@QAE@PAVQObject@@@Z 0040b0d0 f   tcpserver.obj
 0001:0000a100       ??1?$QList@N@@QAE@XZ       0040b100 f i tcpserver.obj
 0001:0000a190       ??1?$QList@VQVariant@@@@QAE@XZ 0040b190 f i tcpserver.obj
 0001:0000a210       ??1?$QForeachContainer@V?$QList@VQString@@@@@QtPrivate@@QAE@XZ 0040b210 f i qhttpresponse.obj
 0001:0000a210       ??1QStringList@@QAE@XZ     0040b210 f i tcpserver.obj
 0001:0000a220       ??1tcpServer@@UAE@XZ       0040b220 f   tcpserver.obj
 0001:0000a330       ??A?$QMap@VQString@@VQVariant@@@@QAEAAVQVariant@@ABVQString@@@Z 0040b330 f i tcpserver.obj
 0001:0000a3c0       ??_GQString@@QAEPAXI@Z     0040b3c0 f i tcpserver.obj
 0001:0000a3f0       ??_GQVariant@@QAEPAXI@Z    0040b3f0 f i tcpserver.obj
 0001:0000a420       ??_GtcpServer@@UAEPAXI@Z   0040b420 f i tcpserver.obj
 0001:0000a420       ??_EtcpServer@@UAEPAXI@Z   0040b420 f i tcpserver.obj
 0001:0000a540       ?Construct@?$QMetaTypeFunctionHelper@PAVWifiFsParas@@$00@QtMetaTypePrivate@@SAPAXPAXPBX@Z 0040b540 f i tcpserver.obj
 0001:0000a540       ?Construct@?$QMetaTypeFunctionHelper@PAVWifiChParas@@$00@QtMetaTypePrivate@@SAPAXPAXPBX@Z 0040b540 f i tcpserver.obj
 0001:0000a540       ?Construct@?$QMetaTypeFunctionHelper@PAVQThread@@$00@QtMetaTypePrivate@@SAPAXPAXPBX@Z 0040b540 f i qasyntcpserver.obj
 0001:0000a540       ?Construct@?$QMetaTypeFunctionHelper@W4SocketState@QAbstractSocket@@$00@QtMetaTypePrivate@@SAPAXPAXPBX@Z 0040b540 f i wsclient.obj
 0001:0000a540       ?Construct@?$QMetaTypeFunctionHelper@PAVQAction@@$00@QtMetaTypePrivate@@SAPAXPAXPBX@Z 0040b540 f i moc_customplot.obj
 0001:0000a540       ?Construct@?$QMetaTypeFunctionHelper@PAVWifiApParas@@$00@QtMetaTypePrivate@@SAPAXPAXPBX@Z 0040b540 f i daqinfo.obj
 0001:0000a540       ?Construct@?$QMetaTypeFunctionHelper@PAVWifiNetParas@@$00@QtMetaTypePrivate@@SAPAXPAXPBX@Z 0040b540 f i daqinfo.obj
 0001:0000a560       ?Construct@?$QMetaTypeFunctionHelper@V?$QList@M@@$00@QtMetaTypePrivate@@SAPAXPAXPBX@Z 0040b560 f i daqinfo.obj
 0001:0000a560       ?Construct@?$QMetaTypeFunctionHelper@V?$QList@E@@$00@QtMetaTypePrivate@@SAPAXPAXPBX@Z 0040b560 f i moc_tcpclient.obj
 0001:0000a560       ?Construct@?$QMetaTypeFunctionHelper@V?$QList@_N@@$00@QtMetaTypePrivate@@SAPAXPAXPBX@Z 0040b560 f i daqinfo.obj
 0001:0000a560       ?Construct@?$QMetaTypeFunctionHelper@V?$QList@H@@$00@QtMetaTypePrivate@@SAPAXPAXPBX@Z 0040b560 f i tcpserver.obj
 0001:0000a580       ?Construct@?$QMetaTypeFunctionHelper@V?$QList@N@@$00@QtMetaTypePrivate@@SAPAXPAXPBX@Z 0040b580 f i tcpserver.obj
 0001:0000a5a0       ?Construct@?$QMetaTypeFunctionHelper@VQSequentialIterableImpl@QtMetaTypePrivate@@$00@QtMetaTypePrivate@@SAPAXPAXPBX@Z 0040b5a0 f i tcpserver.obj
 0001:0000a5e0       ?qt_static_metacall@QHttpHandler@@CAXPAVQObject@@W4Call@QMetaObject@@HPAPAX@Z 0040b5e0 f i moc_httphandler.obj
 0001:0000a5e0       ?qt_static_metacall@singleAlertJunyue@@CAXPAVQObject@@W4Call@QMetaObject@@HPAPAX@Z 0040b5e0 f i moc_structs.obj
 0001:0000a5e0       ?Destruct@?$QMetaTypeFunctionHelper@PAVQAction@@$00@QtMetaTypePrivate@@SAXPAX@Z 0040b5e0 f i moc_customplot.obj
 0001:0000a5e0       ?Destruct@?$QMetaTypeFunctionHelper@VQSequentialIterableImpl@QtMetaTypePrivate@@$00@QtMetaTypePrivate@@SAXPAX@Z 0040b5e0 f i tcpserver.obj
 0001:0000a5e0       ?qt_static_metacall@WifiChParas@@CAXPAVQObject@@W4Call@QMetaObject@@HPAPAX@Z 0040b5e0 f i moc_wifichparas.obj
 0001:0000a5e0       ?qt_static_metacall@waveDataModel@@CAXPAVQObject@@W4Call@QMetaObject@@HPAPAX@Z 0040b5e0 f i moc_wavedatamodel.obj
 0001:0000a5e0       ?qt_static_metacall@alertChJunyue@@CAXPAVQObject@@W4Call@QMetaObject@@HPAPAX@Z 0040b5e0 f i moc_alertchjunyue.obj
 0001:0000a5e0       ?qt_static_metacall@WifiNetParas@@CAXPAVQObject@@W4Call@QMetaObject@@HPAPAX@Z 0040b5e0 f i moc_wifinetparas.obj
 0001:0000a5e0       ?qt_static_metacall@StaticFileController@@CAXPAVQObject@@W4Call@QMetaObject@@HPAPAX@Z 0040b5e0 f i moc_staticfilecontroller.obj
 0001:0000a5e0       ?sendOver@tcpServerThread@@AAEXXZ 0040b5e0 f i tcpserverthread.obj
 0001:0000a5e0       ?Destruct@?$QMetaTypeFunctionHelper@PAVQThread@@$00@QtMetaTypePrivate@@SAXPAX@Z 0040b5e0 f i qasyntcpserver.obj
 0001:0000a5e0       ?deleteNode2@?$QHash@PAVQThread@@I@@CAXPAUNode@QHashData@@@Z 0040b5e0 f i threadhandle.obj
 0001:0000a5e0       ?Destruct@?$QMetaTypeFunctionHelper@W4SocketState@QAbstractSocket@@$00@QtMetaTypePrivate@@SAXPAX@Z 0040b5e0 f i wsclient.obj
 0001:0000a5e0       __initialize_invalid_parameter_handler 0040b5e0 f i MSVCRT:invalid_parameter_handler.obj
 0001:0000a5e0       ?qt_static_metacall@chParas@@CAXPAVQObject@@W4Call@QMetaObject@@HPAPAX@Z 0040b5e0 f i moc_structs.obj
 0001:0000a5e0       ?qt_static_metacall@apParas@@CAXPAVQObject@@W4Call@QMetaObject@@HPAPAX@Z 0040b5e0 f i moc_structs.obj
 0001:0000a5e0       @_guard_check_icall_nop@4  0040b5e0 f i MSVCRT:guard_support.obj
 0001:0000a5e0       ?qt_static_metacall@fsParas@@CAXPAVQObject@@W4Call@QMetaObject@@HPAPAX@Z 0040b5e0 f i moc_structs.obj
 0001:0000a5e0       ?deleteNode2@?$QHash@HPAVQTcpSocket@@@@CAXPAUNode@QHashData@@@Z 0040b5e0 f i qasyntcpserver.obj
 0001:0000a5e0       ?qt_static_metacall@WifiFsParas@@CAXPAVQObject@@W4Call@QMetaObject@@HPAPAX@Z 0040b5e0 f i moc_wififsparas.obj
 0001:0000a5e0       ?Destruct@?$QMetaTypeFunctionHelper@PAVWifiApParas@@$00@QtMetaTypePrivate@@SAXPAX@Z 0040b5e0 f i daqinfo.obj
 0001:0000a5e0       ?selectFirmware@daqInfo@@QAEXXZ 0040b5e0 f i daqinfo.obj
 0001:0000a5e0       __initialize_denormal_control 0040b5e0 f i MSVCRT:denormal_control.obj
 0001:0000a5e0       ?Destruct@?$QMetaTypeFunctionHelper@PAVWifiChParas@@$00@QtMetaTypePrivate@@SAXPAX@Z 0040b5e0 f i tcpserver.obj
 0001:0000a5e0       ?setQObjectShared@ExternalRefCountData@QtSharedPointer@@QAAXZZ 0040b5e0 f i qasynhttpsocket.obj
 0001:0000a5e0       ?enableSharedFromThis@?$QSharedPointer@VQWaitCondition@@@@AAAXZZ 0040b5e0 f i qasynhttpsocket.obj
 0001:0000a5e0       ?qt_static_metacall@chControlAFD@@CAXPAVQObject@@W4Call@QMetaObject@@HPAPAX@Z 0040b5e0 f i moc_chcontrolafd.obj
 0001:0000a5e0       ?destroy@?$IteratorOwner@PBN@QtMetaTypePrivate@@SAXPAPAX@Z 0040b5e0 f i moc_customplot.obj
 0001:0000a5e0       ?Destruct@?$QMetaTypeFunctionHelper@PAVWifiNetParas@@$00@QtMetaTypePrivate@@SAXPAX@Z 0040b5e0 f i daqinfo.obj
 0001:0000a5e0       ?on_btnApplyTcp_2_clicked@mainTab@@AAEXXZ 0040b5e0 f i maintab.obj
 0001:0000a5e0       ?Destruct@?$QMetaTypeFunctionHelper@PAVWifiFsParas@@$00@QtMetaTypePrivate@@SAXPAX@Z 0040b5e0 f i tcpserver.obj
 0001:0000a5e0       ?qt_static_metacall@WifiApParas@@CAXPAVQObject@@W4Call@QMetaObject@@HPAPAX@Z 0040b5e0 f i moc_wifiapparas.obj
 0001:0000a5e0       ?qt_static_metacall@netParas@@CAXPAVQObject@@W4Call@QMetaObject@@HPAPAX@Z 0040b5e0 f i moc_structs.obj
 0001:0000a5f0       ?Destruct@?$QMetaTypeFunctionHelper@V?$QList@_N@@$00@QtMetaTypePrivate@@SAXPAX@Z 0040b5f0 f i daqinfo.obj
 0001:0000a5f0       ?Destruct@?$QMetaTypeFunctionHelper@V?$QList@E@@$00@QtMetaTypePrivate@@SAXPAX@Z 0040b5f0 f i moc_tcpclient.obj
 0001:0000a5f0       ?Destruct@?$QMetaTypeFunctionHelper@V?$QList@H@@$00@QtMetaTypePrivate@@SAXPAX@Z 0040b5f0 f i tcpserver.obj
 0001:0000a5f0       ?Destruct@?$QMetaTypeFunctionHelper@V?$QList@M@@$00@QtMetaTypePrivate@@SAXPAX@Z 0040b5f0 f i daqinfo.obj
 0001:0000a660       ?Destruct@?$QMetaTypeFunctionHelper@V?$QList@N@@$00@QtMetaTypePrivate@@SAXPAX@Z 0040b660 f i tcpserver.obj
 0001:0000a670       ?advance@?$IteratorOwnerCommon@Vconst_iterator@?$QList@H@@@QtMetaTypePrivate@@SAXPAPAXH@Z 0040b670 f i tcpserver.obj
 0001:0000a670       ?advance@?$IteratorOwnerCommon@Vconst_iterator@?$QList@N@@@QtMetaTypePrivate@@SAXPAPAXH@Z 0040b670 f i tcpserver.obj
 0001:0000a670       ?advance@?$IteratorOwnerCommon@Vconst_iterator@?$QList@E@@@QtMetaTypePrivate@@SAXPAPAXH@Z 0040b670 f i moc_tcpclient.obj
 0001:0000a670       ?advance@?$IteratorOwnerCommon@Vconst_iterator@?$QList@M@@@QtMetaTypePrivate@@SAXPAPAXH@Z 0040b670 f i daqinfo.obj
 0001:0000a670       ?advance@?$IteratorOwnerCommon@Vconst_iterator@?$QList@_N@@@QtMetaTypePrivate@@SAXPAPAXH@Z 0040b670 f i daqinfo.obj
 0001:0000a680       ?append@?$QList@VQVariant@@@@QAEXABVQVariant@@@Z 0040b680 f i tcpserver.obj
 0001:0000a740       ?assign@?$IteratorOwnerCommon@Vconst_iterator@?$QList@N@@@QtMetaTypePrivate@@SAXPAPAXPBQAX@Z 0040b740 f i tcpserver.obj
 0001:0000a740       ?assign@?$IteratorOwnerCommon@Vconst_iterator@?$QList@_N@@@QtMetaTypePrivate@@SAXPAPAXPBQAX@Z 0040b740 f i daqinfo.obj
 0001:0000a740       ?assign@?$IteratorOwnerCommon@Vconst_iterator@?$QList@M@@@QtMetaTypePrivate@@SAXPAPAXPBQAX@Z 0040b740 f i daqinfo.obj
 0001:0000a740       ?assign@?$IteratorOwnerCommon@Vconst_iterator@?$QList@E@@@QtMetaTypePrivate@@SAXPAPAXPBQAX@Z 0040b740 f i moc_tcpclient.obj
 0001:0000a740       ?assign@?$IteratorOwnerCommon@Vconst_iterator@?$QList@H@@@QtMetaTypePrivate@@SAXPAPAXPBQAX@Z 0040b740 f i tcpserver.obj
 0001:0000a760       ?changeChParas@tcpServer@@QAEXVQString@@PAVWifiChParas@@@Z 0040b760 f   tcpserver.obj
 0001:0000a8a0       ?changeFsParas@tcpServer@@QAEXVQString@@PAVWifiFsParas@@@Z 0040b8a0 f   tcpserver.obj
 0001:0000aa20       ?commandSent@tcpServer@@QAEXVQStringList@@@Z 0040ba20 f   tcpserver.obj
 0001:0000aba0       ?commandsToSend@tcpServer@@QAEXVQString@@@Z 0040bba0 f   tcpserver.obj
 0001:0000af50       ?convert@?$ConverterFunctor@V?$QList@H@@VQSequentialIterableImpl@QtMetaTypePrivate@@U?$QSequentialIterableConvertFunctor@V?$QList@H@@@3@@QtPrivate@@SA_NPBUAbstractConverterFunction@2@PBXPAX@Z 0040bf50 f i tcpserver.obj
 0001:0000afc0       ?convert@?$ConverterFunctor@V?$QList@N@@VQSequentialIterableImpl@QtMetaTypePrivate@@U?$QSequentialIterableConvertFunctor@V?$QList@N@@@3@@QtPrivate@@SA_NPBUAbstractConverterFunction@2@PBXPAX@Z 0040bfc0 f i tcpserver.obj
 0001:0000b030       ?copy@?$QMapNode@VQString@@VQVariant@@@@QBEPAU1@PAU?$QMapData@VQString@@VQVariant@@@@@Z 0040c030 f i tcpserver.obj
 0001:0000b0c0       ?createNode@?$QMapData@VQString@@VQVariant@@@@QAEPAU?$QMapNode@VQString@@VQVariant@@@@ABVQString@@ABVQVariant@@PAU2@_N@Z 0040c0c0 f i tcpserver.obj
 0001:0000b170       ?createWidget@tcpServer@@AAEXHVQString@@0@Z 0040c170 f   tcpserver.obj
 0001:0000b2b0       ?destroy@?$IteratorOwnerCommon@Vconst_iterator@?$QList@M@@@QtMetaTypePrivate@@SAXPAPAX@Z 0040c2b0 f i daqinfo.obj
 0001:0000b2b0       ?destroy@?$IteratorOwnerCommon@Vconst_iterator@?$QList@N@@@QtMetaTypePrivate@@SAXPAPAX@Z 0040c2b0 f i tcpserver.obj
 0001:0000b2b0       ?destroy@?$IteratorOwnerCommon@Vconst_iterator@?$QList@E@@@QtMetaTypePrivate@@SAXPAPAX@Z 0040c2b0 f i moc_tcpclient.obj
 0001:0000b2b0       ?destroy@?$IteratorOwnerCommon@Vconst_iterator@?$QList@H@@@QtMetaTypePrivate@@SAXPAPAX@Z 0040c2b0 f i tcpserver.obj
 0001:0000b2b0       ?destroy@?$IteratorOwnerCommon@Vconst_iterator@?$QList@_N@@@QtMetaTypePrivate@@SAXPAPAX@Z 0040c2b0 f i daqinfo.obj
 0001:0000b2d0       ?destroySubTree@?$QMapNode@VQString@@VQVariant@@@@QAEXXZ 0040c2d0 f i tcpserver.obj
 0001:0000b310       ?detach@?$QMap@VQString@@VQVariant@@@@QAEXXZ 0040c310 f i tcpserver.obj
 0001:0000b3a0       ?detach_helper_grow@?$QList@VQVariant@@@@AAEPAUNode@1@HH@Z 0040c3a0 f i tcpserver.obj
 0001:0000b4f0       ?equal@?$IteratorOwnerCommon@Vconst_iterator@?$QList@H@@@QtMetaTypePrivate@@SA_NPBQAX0@Z 0040c4f0 f i tcpserver.obj
 0001:0000b4f0       ?equal@?$IteratorOwnerCommon@Vconst_iterator@?$QList@_N@@@QtMetaTypePrivate@@SA_NPBQAX0@Z 0040c4f0 f i daqinfo.obj
 0001:0000b4f0       ?equal@?$IteratorOwnerCommon@Vconst_iterator@?$QList@E@@@QtMetaTypePrivate@@SA_NPBQAX0@Z 0040c4f0 f i moc_tcpclient.obj
 0001:0000b4f0       ?equal@?$IteratorOwnerCommon@Vconst_iterator@?$QList@N@@@QtMetaTypePrivate@@SA_NPBQAX0@Z 0040c4f0 f i tcpserver.obj
 0001:0000b4f0       ?equal@?$IteratorOwnerCommon@Vconst_iterator@?$QList@M@@@QtMetaTypePrivate@@SA_NPBQAX0@Z 0040c4f0 f i daqinfo.obj
 0001:0000b510       ?findNode@?$QMapData@VQString@@H@@QBEPAU?$QMapNode@VQString@@H@@ABVQString@@@Z 0040c510 f i maintab.obj
 0001:0000b510       ?findNode@?$QMapData@VQString@@VQVariant@@@@QBEPAU?$QMapNode@VQString@@VQVariant@@@@ABVQString@@@Z 0040c510 f i tcpserver.obj
 0001:0000b570       ?incomingConnection@tcpServer@@EAEXH@Z 0040c570 f   tcpserver.obj
 0001:0000bba0       ?insert@?$QMap@VQString@@VQVariant@@@@QAE?AViterator@1@ABVQString@@ABVQVariant@@@Z 0040cba0 f i tcpserver.obj
 0001:0000bc60       ?node_copy@?$QList@N@@AAEXPAUNode@1@00@Z 0040cc60 f i tcpserver.obj
 0001:0000bd10       ?node_copy@?$QList@VQVariant@@@@AAEXPAUNode@1@00@Z 0040cd10 f i tcpserver.obj
 0001:0000bdc0       ?node_destruct@?$QList@VQVariant@@@@AAEXPAUNode@1@0@Z 0040cdc0 f i tcpserver.obj
 0001:0000be00       ?qt_metatype_id@?$QMetaTypeId2@PAVWifiChParas@@@@SAHXZ 0040ce00 f i tcpserver.obj
 0001:0000bf20       ?qt_metatype_id@?$QMetaTypeId2@PAVWifiFsParas@@@@SAHXZ 0040cf20 f i tcpserver.obj
 0001:0000c040       ?qt_metatype_id@?$QMetaTypeId2@V?$QList@H@@@@SAHXZ 0040d040 f i tcpserver.obj
 0001:0000c220       ?qt_metatype_id@?$QMetaTypeId2@V?$QList@N@@@@SAHXZ 0040d220 f i tcpserver.obj
 0001:0000c400       ?qt_metatype_id@?$QMetaTypeId2@VQSequentialIterableImpl@QtMetaTypePrivate@@@@SAHXZ 0040d400 f i tcpserver.obj
 0001:0000c4e0       ?setAlertSpanJunyue@tcpServer@@QAEXVQString@@HH@Z 0040d4e0 f   tcpserver.obj
 0001:0000c760       ?setAlerts@tcpServer@@QAEXVQString@@V?$QList@N@@@Z 0040d760 f   tcpserver.obj
 0001:0000c8b0       ?showDisconnection@tcpServer@@AAEXHVQString@@@Z 0040d8b0 f   tcpserver.obj
 0001:0000ca30       ?startListen@tcpServer@@QAEXVQString@@G@Z 0040da30 f   tcpserver.obj
 0001:0000cb10       ??0tcpServerThread@@QAE@HPAVQObject@@@Z 0040db10 f   tcpserverthread.obj
 0001:0000cfb0       ??1?$QMap@VQString@@VQVariant@@@@QAE@XZ 0040dfb0 f i tcpserverthread.obj
 0001:0000d030       ??1tcpServerThread@@UAE@XZ 0040e030 f   tcpserverthread.obj
 0001:0000d2d0       ??_EtcpServerThread@@UAEPAXI@Z 0040e2d0 f i tcpserverthread.obj
 0001:0000d2d0       ??_GtcpServerThread@@UAEPAXI@Z 0040e2d0 f i tcpserverthread.obj
 0001:0000d300       ?aboutToStart@tcpServerThread@@QAEXVQString@@_N@Z 0040e300 f   tcpserverthread.obj
 0001:0000d390       ?adjustADC@tcpServerThread@@QAEXVQString@@H@Z 0040e390 f   tcpserverthread.obj
 0001:0000d4f0       ?adjustTime@tcpServerThread@@QAEXXZ 0040e4f0 f   tcpserverthread.obj
 0001:0000d720       ?append@?$QList@N@@QAEXABN@Z 0040e720 f i tcpserverthread.obj
 0001:0000d7c0       ?applyNewNet@tcpServerThread@@QAEXVQString@@@Z 0040e7c0 f   tcpserverthread.obj
 0001:0000d840       ?changeTCPServer@tcpServerThread@@QAEXVQString@@0H0@Z 0040e840 f   tcpserverthread.obj
 0001:0000d9b0       ?dealloc@?$QList@N@@AAEXPAUData@QListData@@@Z 0040e9b0 f i tcpserverthread.obj
 0001:0000da00       ?delDaq@tcpServerThread@@QAEXVQString@@@Z 0040ea00 f   tcpserverthread.obj
 0001:0000daa0       ?detach_helper_grow@?$QList@N@@AAEPAUNode@1@HH@Z 0040eaa0 f i tcpserverthread.obj
 0001:0000dbd0       ?disconnectToHost@tcpServerThread@@QAEXXZ 0040ebd0 f   tcpserverthread.obj
 0001:0000dbf0       ?finishUpdate@tcpServerThread@@QAEXXZ 0040ebf0 f   tcpserverthread.obj
 0001:0000dd00       ?impl@?$QSlotObject@P8wsClient@@AEXXZU?$List@$$V@QtPrivate@@X@QtPrivate@@CAXHPAVQSlotObjectBase@2@PAVQObject@@PAPAXPA_N@Z 0040ed00 f i wsclient.obj
 0001:0000dd00       ?impl@?$QSlotObject@P8tcpServerThread@@AEXXZU?$List@$$V@QtPrivate@@X@QtPrivate@@CAXHPAVQSlotObjectBase@2@PAVQObject@@PAPAXPA_N@Z 0040ed00 f i tcpserverthread.obj
 0001:0000dd00       ?impl@?$QSlotObject@P8QAbstractSocket@@AEXXZU?$List@$$V@QtPrivate@@X@QtPrivate@@CAXHPAVQSlotObjectBase@2@PAVQObject@@PAPAXPA_N@Z 0040ed00 f i qasyntcpserver.obj
 0001:0000dd00       ?impl@?$QSlotObject@P8QObject@@AEXXZU?$List@$$V@QtPrivate@@X@QtPrivate@@CAXHPAVQSlotObjectBase@2@PAVQObject@@PAPAXPA_N@Z 0040ed00 f i daqinfo.obj
 0001:0000dd50       ?metaType@?$QVariantValueHelper@V?$QList@H@@@QtPrivate@@SA?AV?$QList@H@@ABVQVariant@@@Z 0040ed50 f i tcpserverthread.obj
 0001:0000de40       ?node_destruct@?$QList@N@@AAEXPAUNode@1@0@Z 0040ee40 f i tcpserverthread.obj
 0001:0000de70       ?queryAP@tcpServerThread@@QAEXXZ 0040ee70 f   tcpserverthread.obj
 0001:0000dea0       ?queryAlertJunyue@tcpServerThread@@QAEXXZ 0040eea0 f   tcpserverthread.obj
 0001:0000dfb0       ?queryAlertRules@tcpServerThread@@QAEXXZ 0040efb0 f   tcpserverthread.obj
 0001:0000e070       ?queryAlertSpan@tcpServerThread@@QAEXXZ 0040f070 f   tcpserverthread.obj
 0001:0000e120       ?queryChParas@tcpServerThread@@QAEXXZ 0040f120 f   tcpserverthread.obj
 0001:0000e1c0       ?queryChStatus@tcpServerThread@@QAEXXZ 0040f1c0 f   tcpserverthread.obj
 0001:0000e260       ?queryFirmwareVer@tcpServerThread@@QAEXXZ 0040f260 f   tcpserverthread.obj
 0001:0000e300       ?queryFsMode@tcpServerThread@@QAEXXZ 0040f300 f   tcpserverthread.obj
 0001:0000e3a0       ?queryFsParas@tcpServerThread@@QAEXXZ 0040f3a0 f   tcpserverthread.obj
 0001:0000e440       ?queryNet@tcpServerThread@@QAEXXZ 0040f440 f   tcpserverthread.obj
 0001:0000e470       ?queryPowerMode@tcpServerThread@@QAEXXZ 0040f470 f   tcpserverthread.obj
 0001:0000e490       ?querySN@tcpServerThread@@QAEXXZ 0040f490 f   tcpserverthread.obj
 0001:0000e4c0       ?queryTCP@tcpServerThread@@QAEXXZ 0040f4c0 f   tcpserverthread.obj
 0001:0000e4f0       ?queryType@tcpServerThread@@QAEXXZ 0040f4f0 f   tcpserverthread.obj
 0001:0000e520       ?readSN@tcpServerThread@@AAEXHVQString@@0@Z 0040f520 f   tcpserverthread.obj
 0001:0000e760       ?recErrorInfo@tcpServerThread@@AAEXVQString@@@Z 0040f760 f   tcpserverthread.obj
 0001:0000e7c0       ?requireData@tcpServerThread@@QAEXH@Z 0040f7c0 f   tcpserverthread.obj
 0001:0000e8f0       ?run@tcpServerThread@@UAEXXZ 0040f8f0 f   tcpserverthread.obj
 0001:0000ef00       ?sendCommands@tcpServerThread@@QAEXVQString@@VQStringList@@V?$QList@VQVariant@@@@@Z 0040ff00 f   tcpserverthread.obj
 0001:0000f3d0       ?sendData@tcpServerThread@@AAEXVQByteArray@@@Z 004103d0 f   tcpserverthread.obj
 0001:0000f470       ?sendData@tcpServerThread@@AAEXVQByteArray@@H@Z 00410470 f   tcpserverthread.obj
 0001:0000f500       ?sendFirmData@tcpServerThread@@QAEXXZ 00410500 f   tcpserverthread.obj
 0001:0000f6e0       ?sendOver2@tcpServerThread@@AAEXXZ 004106e0 f   tcpserverthread.obj
 0001:0000f700       ?setAP@tcpServerThread@@QAEXVQString@@PAVWifiApParas@@@Z 00410700 f   tcpserverthread.obj
 0001:0000f870       ?setAlertJunyue@tcpServerThread@@QAEXVQString@@V?$QList@N@@@Z 00410870 f   tcpserverthread.obj
 0001:0000fb40       ?setAlertRule@tcpServerThread@@QAEXVQByteArray@@@Z 00410b40 f   tcpserverthread.obj
 0001:0000fc20       ?setAlertSpanJunyue@tcpServerThread@@QAEXVQString@@HH@Z 00410c20 f   tcpserverthread.obj
 0001:0000fdb0       ?setChParas@tcpServerThread@@QAEXVQString@@PAVWifiChParas@@@Z 00410db0 f   tcpserverthread.obj
 0001:00010090       ?setChStatus@tcpServerThread@@QAEXVQString@@G@Z 00411090 f   tcpserverthread.obj
 0001:00010190       ?setFsMode@tcpServerThread@@QAEXVQString@@H@Z 00411190 f   tcpserverthread.obj
 0001:00010280       ?setHeartSpan@tcpServerThread@@QAEXVQString@@H_N@Z 00411280 f   tcpserverthread.obj
 0001:00010350       ?setNetParas@tcpServerThread@@QAEXVQString@@PAVWifiNetParas@@@Z 00411350 f   tcpserverthread.obj
 0001:000104e0       ?setPowerMode@tcpServerThread@@QAEXVQString@@EEEE@Z 004114e0 f   tcpserverthread.obj
 0001:00010640       ?setSN@tcpServerThread@@QAEXVQString@@0@Z 00411640 f   tcpserverthread.obj
 0001:00010830       ?setTCPserver@tcpServerThread@@QAEXVQString@@H@Z 00411830 f   tcpserverthread.obj
 0001:00010970       ?setfsParas@tcpServerThread@@QAEXVQString@@PAVWifiFsParas@@@Z 00411970 f   tcpserverthread.obj
 0001:00010ba0       ?startNow@tcpServerThread@@QAEXXZ 00411ba0 f   tcpserverthread.obj
 0001:00010e00       ?stopByMe@tcpServerThread@@QAEXXZ 00411e00 f   tcpserverthread.obj
 0001:00010e80       ?stopNow@tcpServerThread@@QAEXXZ 00411e80 f   tcpserverthread.obj
 0001:00010eb0       ?sum@tcpServerThread@@AAEEVQByteArray@@@Z 00411eb0 f   tcpserverthread.obj
 0001:00010f70       ?tempGainAdjust@tcpServerThread@@QAEXVQString@@@Z 00411f70 f   tcpserverthread.obj
 0001:00011060       ?tempZeroAdjust@tcpServerThread@@QAEXVQString@@@Z 00412060 f   tcpserverthread.obj
 0001:00011150       ?updateFirmware@tcpServerThread@@QAEXVQString@@@Z 00412150 f   tcpserverthread.obj
 0001:00011320       ??0virbValue@@QAE@XZ       00412320 f   virbvalue.obj
 0001:00011340       ??0WifiApParas@@QAE@PAVQObject@@@Z 00412340 f   wifiapparas.obj
 0001:000113e0       ??1WifiApParas@@UAE@XZ     004123e0 f   wifiapparas.obj
 0001:00011410       ??_EWifiApParas@@UAEPAXI@Z 00412410 f i wifiapparas.obj
 0001:00011410       ??_GWifiApParas@@UAEPAXI@Z 00412410 f i wifiapparas.obj
 0001:00011460       ??0wifiCharacterTest@@QAE@XZ 00412460 f   wificharactertest.obj
 0001:00011480       ??0WifiChParas@@QAE@PAVQObject@@@Z 00412480 f   wifichparas.obj
 0001:00011550       ??_EWifiChParas@@UAEPAXI@Z 00412550 f i wifichparas.obj
 0001:00011550       ??_GWifiChParas@@UAEPAXI@Z 00412550 f i wifichparas.obj
 0001:000115e0       ??0WifiFsParas@@QAE@PAVQObject@@@Z 004125e0 f   wififsparas.obj
 0001:00011620       ??_GWifiFsParas@@UAEPAXI@Z 00412620 f i wififsparas.obj
 0001:00011620       ??_EWifiFsParas@@UAEPAXI@Z 00412620 f i wififsparas.obj
 0001:00011650       ??0WifiNetParas@@QAE@PAVQObject@@@Z 00412650 f   wifinetparas.obj
 0001:000116f0       ??_EWifiNetParas@@UAEPAXI@Z 004126f0 f i wifinetparas.obj
 0001:000116f0       ??_GWifiNetParas@@UAEPAXI@Z 004126f0 f i wifinetparas.obj
 0001:000116f0       ??_EnetParas@@UAEPAXI@Z    004126f0 f i moc_daqinfo.obj
 0001:000116f0       ??_GnetParas@@UAEPAXI@Z    004126f0 f i moc_daqinfo.obj
 0001:00011730       ??0WifiSingleChannel@@QAE@XZ 00412730 f   wifisinglechannel.obj
 0001:00011750       ??0alertChJunyue@@QAE@PAVQWidget@@@Z 00412750 f   alertchjunyue.obj
 0001:0001181b       ??_EQDoubleSpinBox@@W7AEPAXI@Z 0041281b f i alertchjunyue.obj
 0001:00011823       ??_EQHBoxLayout@@W7AEPAXI@Z 00412823 f i alertchjunyue.obj
 0001:0001182b       ??_EQLabel@@W7AEPAXI@Z     0041282b f i alertchjunyue.obj
 0001:00011833       ??_EalertChJunyue@@W7AEPAXI@Z 00412833 f i alertchjunyue.obj
 0001:00011840       ??_GQDoubleSpinBox@@UAEPAXI@Z 00412840 f i alertchjunyue.obj
 0001:00011840       ??_EQDoubleSpinBox@@UAEPAXI@Z 00412840 f i alertchjunyue.obj
 0001:00011870       ??_GQHBoxLayout@@UAEPAXI@Z 00412870 f i alertchjunyue.obj
 0001:00011870       ??_EQHBoxLayout@@UAEPAXI@Z 00412870 f i alertchjunyue.obj
 0001:000118a0       ??_GQLabel@@UAEPAXI@Z      004128a0 f i alertchjunyue.obj
 0001:000118a0       ??_EQLabel@@UAEPAXI@Z      004128a0 f i alertchjunyue.obj
 0001:000118d0       ??_EalertChJunyue@@UAEPAXI@Z 004128d0 f i alertchjunyue.obj
 0001:000118d0       ??_GalertChJunyue@@UAEPAXI@Z 004128d0 f i alertchjunyue.obj
 0001:00011970       ?getValues@alertChJunyue@@QBE?AV?$QList@N@@XZ 00412970 f   alertchjunyue.obj
 0001:00011a40       ?setupUi@Ui_alertChJunyue@@QAEXPAVQWidget@@@Z 00412a40 f i alertchjunyue.obj
 0001:000121a0       ?updateName@chControlAFD@@QAEXVQString@@@Z 004131a0 f   chcontrolafd.obj
 0001:000121a0       ?updateName@alertChJunyue@@QAEXVQString@@@Z 004131a0 f   alertchjunyue.obj
 0001:00012200       ?updateParas@alertChJunyue@@QAEXV?$QList@N@@@Z 00413200 f   alertchjunyue.obj
 0001:00012310       ??0apDialog@@QAE@PAVQWidget@@@Z 00413310 f   apdialog.obj
 0001:000123d0       ??1apDialog@@UAE@XZ        004133d0 f   apdialog.obj
 0001:000123fe       ??_EQGridLayout@@W7AEPAXI@Z 004133fe f i apdialog.obj
 0001:00012406       ??_EQLineEdit@@W7AEPAXI@Z  00413406 f i apdialog.obj
 0001:0001240e       ??_EQPushButton@@W7AEPAXI@Z 0041340e f i apdialog.obj
 0001:00012416       ??_EQVBoxLayout@@W7AEPAXI@Z 00413416 f i apdialog.obj
 0001:0001241e       ??_EQWidget@@W7AEPAXI@Z    0041341e f i apdialog.obj
 0001:00012426       ??_EapDialog@@W7AEPAXI@Z   00413426 f i apdialog.obj
 0001:00012430       ??_EQGridLayout@@UAEPAXI@Z 00413430 f i apdialog.obj
 0001:00012430       ??_GQGridLayout@@UAEPAXI@Z 00413430 f i apdialog.obj
 0001:00012460       ??_GQLineEdit@@UAEPAXI@Z   00413460 f i apdialog.obj
 0001:00012460       ??_EQLineEdit@@UAEPAXI@Z   00413460 f i apdialog.obj
 0001:00012490       ??_EQPushButton@@UAEPAXI@Z 00413490 f i apdialog.obj
 0001:00012490       ??_GQPushButton@@UAEPAXI@Z 00413490 f i apdialog.obj
 0001:000124c0       ??_EQSpacerItem@@UAEPAXI@Z 004134c0 f i apdialog.obj
 0001:000124c0       ??_GQSpacerItem@@UAEPAXI@Z 004134c0 f i apdialog.obj
 0001:000124f0       ??_EQVBoxLayout@@UAEPAXI@Z 004134f0 f i apdialog.obj
 0001:000124f0       ??_GQVBoxLayout@@UAEPAXI@Z 004134f0 f i apdialog.obj
 0001:00012520       ??_GQWidget@@UAEPAXI@Z     00413520 f i apdialog.obj
 0001:00012520       ??_EQWidget@@UAEPAXI@Z     00413520 f i apdialog.obj
 0001:00012550       ??_EapDialog@@UAEPAXI@Z    00413550 f i apdialog.obj
 0001:00012550       ??_GapDialog@@UAEPAXI@Z    00413550 f i apdialog.obj
 0001:000125a0       ?on_btnCancel_clicked@apDialog@@AAEXXZ 004135a0 f   apdialog.obj
 0001:000125b0       ?on_btnOK_clicked@apDialog@@AAEXXZ 004135b0 f   apdialog.obj
 0001:00012640       ?retranslateUi@Ui_apDialog@@QAEXPAVQDialog@@@Z 00413640 f i apdialog.obj
 0001:00012880       ?setupUi@Ui_apDialog@@QAEXPAVQDialog@@@Z 00413880 f i apdialog.obj
 0001:00013010       ?updateAP@apDialog@@QAEXPAVWifiApParas@@@Z 00414010 f   apdialog.obj
 0001:00013040       ??0?$QVector@N@@QAE@ABV0@@Z 00414040 f i baseform2.obj
 0001:00013110       ??0baseForm2@@QAE@HHVQString@@PAVQWidget@@@Z 00414110 f   baseform2.obj
 0001:000132c8       ??_EbaseForm2@@W7AEPAXI@Z  004142c8 f i baseform2.obj
 0001:000132d0       ??_EbaseForm2@@UAEPAXI@Z   004142d0 f i baseform2.obj
 0001:000132d0       ??_GbaseForm2@@UAEPAXI@Z   004142d0 f i baseform2.obj
 0001:00013320       ?closeEvent@baseForm2@@MAEXPAVQCloseEvent@@@Z 00414320 f   baseform2.obj
 0001:00013350       ?setCh@baseForm2@@QAEXH@Z  00414350 f   baseform2.obj
 0001:000133f0       ?setSN@baseForm2@@QAEXVQString@@@Z 004143f0 f   baseform2.obj
 0001:000134f0       ?setupUi@Ui_baseForm2@@QAEXPAVQDialog@@@Z 004144f0 f i baseform2.obj
 0001:00013920       ?updateAutoWave@baseForm2@@QAEXHVQByteArray@@PAV?$QVector@N@@@Z 00414920 f   baseform2.obj
 0001:00013a60       ?updateWave@baseForm2@@QAEXPAV?$QVector@N@@@Z 00414a60 f   baseform2.obj
 0001:00013d10       ??0characterForm@@QAE@HHVQString@@PAVQWidget@@@Z 00414d10 f   characterform.obj
 0001:0001421a       ??_EQTableWidget@@W7AEPAXI@Z 0041521a f i characterform.obj
 0001:00014230       ??_EQTableWidgetItem@@UAEPAXI@Z 00415230 f i characterform.obj
 0001:000142d1       ??_EcharacterForm@@W7AEPAXI@Z 004152d1 f i characterform.obj
 0001:000142e0       ??_EQTableWidget@@UAEPAXI@Z 004152e0 f i characterform.obj
 0001:000142e0       ??_GQTableWidget@@UAEPAXI@Z 004152e0 f i characterform.obj
 0001:00014310       ??_GcharacterForm@@UAEPAXI@Z 00415310 f i characterform.obj
 0001:00014310       ??_EcharacterForm@@UAEPAXI@Z 00415310 f i characterform.obj
 0001:000143c0       ??_TQTableWidgetItem@@QAEXXZ 004153c0 f i characterform.obj
 0001:000143e0       ?setSN@characterForm@@QAEXVQString@@@Z 004153e0 f   characterform.obj
 0001:00014490       ?setType@characterForm@@QAEXH@Z 00415490 f   characterform.obj
 0001:00014960       ?setupUi@Ui_characterForm@@QAEXPAVQDialog@@@Z 00415960 f i characterform.obj
 0001:00015000       ?updateCharacterJunyue@characterForm@@QAEXVQString@@V?$QList@M@@V?$QList@_N@@@Z 00416000 f   characterform.obj
 0001:00015710       ?updateTemp@characterForm@@QAEXPANH@Z 00416710 f   characterform.obj
 0001:00015780       ?updateVirb@characterForm@@QAEXPAV?$QList@PAVvirbValue@@@@@Z 00416780 f   characterform.obj
 0001:00015930       ??0chControlAFD@@QAE@PAVQWidget@@@Z 00416930 f   chcontrolafd.obj
 0001:000159d1       ??_EQCheckBox@@W7AEPAXI@Z  004169d1 f i chcontrolafd.obj
 0001:000159d9       ??_EQComboBox@@W7AEPAXI@Z  004169d9 f i chcontrolafd.obj
 0001:000159e1       ??_EchControlAFD@@W7AEPAXI@Z 004169e1 f i chcontrolafd.obj
 0001:000159f0       ??_GQCheckBox@@UAEPAXI@Z   004169f0 f i chcontrolafd.obj
 0001:000159f0       ??_EQCheckBox@@UAEPAXI@Z   004169f0 f i chcontrolafd.obj
 0001:00015a20       ??_EQComboBox@@UAEPAXI@Z   00416a20 f i chcontrolafd.obj
 0001:00015a20       ??_GQComboBox@@UAEPAXI@Z   00416a20 f i chcontrolafd.obj
 0001:00015a50       ??_GchControlAFD@@UAEPAXI@Z 00416a50 f i chcontrolafd.obj
 0001:00015a50       ??_EchControlAFD@@UAEPAXI@Z 00416a50 f i chcontrolafd.obj
 0001:00015a90       ?getParas@chControlAFD@@QAEXPAVWifiSingleChannel@@@Z 00416a90 f   chcontrolafd.obj
 0001:00015b30       ?getValidate@chControlAFD@@QAE_NXZ 00416b30 f   chcontrolafd.obj
 0001:00015b40       ?retranslateUi@Ui_chControlAFD@@QAEXPAVQWidget@@@Z 00416b40 f i chcontrolafd.obj
 0001:00015e50       ?setupUi@Ui_chControlAFD@@QAEXPAVQWidget@@@Z 00416e50 f i chcontrolafd.obj
 0001:000167e0       ?updateParas@chControlAFD@@QAEXPAVWifiSingleChannel@@@Z 004177e0 f   chcontrolafd.obj
 0001:000168a0       ?updateValidate@chControlAFD@@QAEX_N@Z 004178a0 f   chcontrolafd.obj
 0001:000168b0       ??$connect@P8QAction@@AEX_N@ZP8daqInfo@@AEXXZ@QObject@@SA?AVConnection@QMetaObject@@PBVQAction@@P83@AEX_N@ZPBVdaqInfo@@P84@AEXXZW4ConnectionType@Qt@@@Z 004178b0 f i daqinfo.obj
 0001:00016970       ??$connect@P8settingWifiJunyue@@AEXVQString@@@ZP8daqInfo@@AEX0@Z@QObject@@SA?AVConnection@QMetaObject@@PBVsettingWifiJunyue@@P83@AEXVQString@@@ZPBVdaqInfo@@P85@AEX1@ZW4ConnectionType@Qt@@@Z 00417970 f i daqinfo.obj
 0001:00016a30       ??0daqInfo@@QAE@_NPAVQWidget@@@Z 00417a30 f   daqinfo.obj
 0001:0001764a       ??_EQMenu@@W7AEPAXI@Z      0041864a f i daqinfo.obj
 0001:00017652       ??_EdaqInfo@@W7AEPAXI@Z    00418652 f i daqinfo.obj
 0001:00017660       ??_EQAction@@UAEPAXI@Z     00418660 f i daqinfo.obj
 0001:00017660       ??_GQAction@@UAEPAXI@Z     00418660 f i daqinfo.obj
 0001:00017690       ??_EQMenu@@UAEPAXI@Z       00418690 f i daqinfo.obj
 0001:00017690       ??_GQMenu@@UAEPAXI@Z       00418690 f i daqinfo.obj
 0001:000176c0       ??_GQThread@@UAEPAXI@Z     004186c0 f i daqinfo.obj
 0001:000176c0       ??_EQThread@@UAEPAXI@Z     004186c0 f i daqinfo.obj
 0001:000176f0       ??_GdaqInfo@@UAEPAXI@Z     004186f0 f i daqinfo.obj
 0001:000176f0       ??_EdaqInfo@@UAEPAXI@Z     004186f0 f i daqinfo.obj
 0001:00017800       ?changeLabelJunyue@daqInfo@@QAEXVQString@@00@Z 00418800 f   daqinfo.obj
 0001:00017890       ?changeTcpAvilablity@daqInfo@@QAEX_N@Z 00418890 f   daqinfo.obj
 0001:000178a0       ?contextMenuEvent@daqInfo@@MAEXPAVQContextMenuEvent@@@Z 004188a0 f   daqinfo.obj
 0001:000178d0       ?convert@?$ConverterFunctor@V?$QList@M@@VQSequentialIterableImpl@QtMetaTypePrivate@@U?$QSequentialIterableConvertFunctor@V?$QList@M@@@3@@QtPrivate@@SA_NPBUAbstractConverterFunction@2@PBXPAX@Z 004188d0 f i daqinfo.obj
 0001:00017940       ?convert@?$ConverterFunctor@V?$QList@_N@@VQSequentialIterableImpl@QtMetaTypePrivate@@U?$QSequentialIterableConvertFunctor@V?$QList@_N@@@3@@QtPrivate@@SA_NPBUAbstractConverterFunction@2@PBXPAX@Z 00418940 f i daqinfo.obj
 0001:000179b0       ?getAddress@daqInfo@@QBE?AVQString@@XZ 004189b0 f   daqinfo.obj
 0001:000179d0       ?getModel@daqInfo@@QBE?AVQString@@XZ 004189d0 f   daqinfo.obj
 0001:000179f0       ?getSN@daqInfo@@QBE?AVQString@@XZ 004189f0 f   daqinfo.obj
 0001:00017a10       ?getVersion@daqInfo@@QBE?AVQString@@XZ 00418a10 f   daqinfo.obj
 0001:00017a30       ?impl@?$QSlotObject@P8daqInfo@@AEXVQString@@00@ZU?$List@VQString@@V1@V1@@QtPrivate@@X@QtPrivate@@CAXHPAVQSlotObjectBase@2@PAVQObject@@PAPAXPA_N@Z 00418a30 f i daqinfo.obj
 0001:00017af0       ?impl@?$QSlotObject@P8mainTab@@AEXVQString@@0@ZU?$List@VQString@@V1@@QtPrivate@@X@QtPrivate@@CAXHPAVQSlotObjectBase@2@PAVQObject@@PAPAXPA_N@Z 00418af0 f i maintab.obj
 0001:00017af0       ?impl@?$QSlotObject@P8CMainWindow@@AEXVQString@@0@ZU?$List@VQString@@V1@@QtPrivate@@X@QtPrivate@@CAXHPAVQSlotObjectBase@2@PAVQObject@@PAPAXPA_N@Z 00418af0 f i main.obj
 0001:00017af0       ?impl@?$QSlotObject@P8daqInfo@@AEXVQString@@0@ZU?$List@VQString@@V1@@QtPrivate@@X@QtPrivate@@CAXHPAVQSlotObjectBase@2@PAVQObject@@PAPAXPA_N@Z 00418af0 f i daqinfo.obj
 0001:00017ba0       ?impl@?$QSlotObject@P8CMainWindow@@AEXVQString@@0H0@ZU?$List@VQString@@V1@HV1@@QtPrivate@@X@QtPrivate@@CAXHPAVQSlotObjectBase@2@PAVQObject@@PAPAXPA_N@Z 00418ba0 f i mainwindow.obj
 0001:00017ba0       ?impl@?$QSlotObject@P8mainTab@@AEXVQString@@0H0@ZU?$List@VQString@@V1@HV1@@QtPrivate@@X@QtPrivate@@CAXHPAVQSlotObjectBase@2@PAVQObject@@PAPAXPA_N@Z 00418ba0 f i maintab.obj
 0001:00017ba0       ?impl@?$QSlotObject@P8daqInfo@@AEXVQString@@0H0@ZU?$List@VQString@@V1@HV1@@QtPrivate@@X@QtPrivate@@CAXHPAVQSlotObjectBase@2@PAVQObject@@PAPAXPA_N@Z 00418ba0 f i daqinfo.obj
 0001:00017c60       ?impl@?$QSlotObject@P8mainTab@@AEXVQString@@@ZU?$List@VQString@@@QtPrivate@@X@QtPrivate@@CAXHPAVQSlotObjectBase@2@PAVQObject@@PAPAXPA_N@Z 00418c60 f i maintab.obj
 0001:00017c60       ?impl@?$QSlotObject@P8daqInfo@@AEXVQString@@@ZU?$List@VQString@@@QtPrivate@@X@QtPrivate@@CAXHPAVQSlotObjectBase@2@PAVQObject@@PAPAXPA_N@Z 00418c60 f i daqinfo.obj
 0001:00017c60       ?impl@?$QSlotObject@P8CMainWindow@@AEXVQString@@@ZU?$List@VQString@@@QtPrivate@@X@QtPrivate@@CAXHPAVQSlotObjectBase@2@PAVQObject@@PAPAXPA_N@Z 00418c60 f i main.obj
 0001:00017d00       ?impl@?$QSlotObject@P8daqInfo@@AEXVQString@@EEEE@ZU?$List@VQString@@EEEE@QtPrivate@@X@QtPrivate@@CAXHPAVQSlotObjectBase@2@PAVQObject@@PAPAXPA_N@Z 00418d00 f i daqinfo.obj
 0001:00017d00       ?impl@?$QSlotObject@P8CMainWindow@@AEXVQString@@EEEE@ZU?$List@VQString@@EEEE@QtPrivate@@X@QtPrivate@@CAXHPAVQSlotObjectBase@2@PAVQObject@@PAPAXPA_N@Z 00418d00 f i main.obj
 0001:00017d00       ?impl@?$QSlotObject@P8mainTab@@AEXVQString@@EEEE@ZU?$List@VQString@@EEEE@QtPrivate@@X@QtPrivate@@CAXHPAVQSlotObjectBase@2@PAVQObject@@PAPAXPA_N@Z 00418d00 f i maintab.obj
 0001:00017dc0       ?impl@?$QSlotObject@P8CMainWindow@@AEXVQString@@G@ZU?$List@VQString@@G@QtPrivate@@X@QtPrivate@@CAXHPAVQSlotObjectBase@2@PAVQObject@@PAPAXPA_N@Z 00418dc0 f i main.obj
 0001:00017dc0       ?impl@?$QSlotObject@P8mainTab@@AEXVQString@@G@ZU?$List@VQString@@G@QtPrivate@@X@QtPrivate@@CAXHPAVQSlotObjectBase@2@PAVQObject@@PAPAXPA_N@Z 00418dc0 f i maintab.obj
 0001:00017dc0       ?impl@?$QSlotObject@P8daqInfo@@AEXVQString@@G@ZU?$List@VQString@@G@QtPrivate@@X@QtPrivate@@CAXHPAVQSlotObjectBase@2@PAVQObject@@PAPAXPA_N@Z 00418dc0 f i daqinfo.obj
 0001:00017e60       ?impl@?$QSlotObject@P8mainTab@@AEXVQString@@H@ZU?$List@VQString@@H@QtPrivate@@X@QtPrivate@@CAXHPAVQSlotObjectBase@2@PAVQObject@@PAPAXPA_N@Z 00418e60 f i maintab.obj
 0001:00017e60       ?impl@?$QSlotObject@P8daqInfo@@AEXVQString@@PAVWifiChParas@@@ZU?$List@VQString@@PAVWifiChParas@@@QtPrivate@@X@QtPrivate@@CAXHPAVQSlotObjectBase@2@PAVQObject@@PAPAXPA_N@Z 00418e60 f i daqinfo.obj
 0001:00017e60       ?impl@?$QSlotObject@P8CMainWindow@@AEXVQString@@PAVWifiChParas@@@ZU?$List@VQString@@PAVWifiChParas@@@QtPrivate@@X@QtPrivate@@CAXHPAVQSlotObjectBase@2@PAVQObject@@PAPAXPA_N@Z 00418e60 f i main.obj
 0001:00017e60       ?impl@?$QSlotObject@P8CMainWindow@@AEXVQString@@PAVWifiNetParas@@@ZU?$List@VQString@@PAVWifiNetParas@@@QtPrivate@@X@QtPrivate@@CAXHPAVQSlotObjectBase@2@PAVQObject@@PAPAXPA_N@Z 00418e60 f i main.obj
 0001:00017e60       ?impl@?$QSlotObject@P8daqInfo@@AEXVQString@@PAVWifiFsParas@@@ZU?$List@VQString@@PAVWifiFsParas@@@QtPrivate@@X@QtPrivate@@CAXHPAVQSlotObjectBase@2@PAVQObject@@PAPAXPA_N@Z 00418e60 f i daqinfo.obj
 0001:00017e60       ?impl@?$QSlotObject@P8mainTab@@AEXVQString@@PAVWifiChParas@@@ZU?$List@VQString@@PAVWifiChParas@@@QtPrivate@@X@QtPrivate@@CAXHPAVQSlotObjectBase@2@PAVQObject@@PAPAXPA_N@Z 00418e60 f i maintab.obj
 0001:00017e60       ?impl@?$QSlotObject@P8daqInfo@@AEXVQString@@H@ZU?$List@VQString@@H@QtPrivate@@X@QtPrivate@@CAXHPAVQSlotObjectBase@2@PAVQObject@@PAPAXPA_N@Z 00418e60 f i daqinfo.obj
 0001:00017e60       ?impl@?$QSlotObject@P8CMainWindow@@AEXVQString@@PAVWifiFsParas@@@ZU?$List@VQString@@PAVWifiFsParas@@@QtPrivate@@X@QtPrivate@@CAXHPAVQSlotObjectBase@2@PAVQObject@@PAPAXPA_N@Z 00418e60 f i main.obj
 0001:00017e60       ?impl@?$QSlotObject@P8mainTab@@AEXVQString@@PAVWifiFsParas@@@ZU?$List@VQString@@PAVWifiFsParas@@@QtPrivate@@X@QtPrivate@@CAXHPAVQSlotObjectBase@2@PAVQObject@@PAPAXPA_N@Z 00418e60 f i maintab.obj
 0001:00017e60       ?impl@?$QSlotObject@P8CMainWindow@@AEXVQString@@PAVWifiApParas@@@ZU?$List@VQString@@PAVWifiApParas@@@QtPrivate@@X@QtPrivate@@CAXHPAVQSlotObjectBase@2@PAVQObject@@PAPAXPA_N@Z 00418e60 f i main.obj
 0001:00017e60       ?impl@?$QSlotObject@P8CMainWindow@@AEXVQString@@PAV?$QList@PAVvirbValue@@@@@ZU?$List@VQString@@PAV?$QList@PAVvirbValue@@@@@QtPrivate@@X@QtPrivate@@CAXHPAVQSlotObjectBase@2@PAVQObject@@PAPAXPA_N@Z 00418e60 f i main.obj
 0001:00017e60       ?impl@?$QSlotObject@P8mainTab@@AEXVQString@@PAVWifiApParas@@@ZU?$List@VQString@@PAVWifiApParas@@@QtPrivate@@X@QtPrivate@@CAXHPAVQSlotObjectBase@2@PAVQObject@@PAPAXPA_N@Z 00418e60 f i maintab.obj
 0001:00017e60       ?impl@?$QSlotObject@P8mainTab@@AEXVQString@@PAV?$QVector@N@@@ZU?$List@VQString@@PAV?$QVector@N@@@QtPrivate@@X@QtPrivate@@CAXHPAVQSlotObjectBase@2@PAVQObject@@PAPAXPA_N@Z 00418e60 f i mainwindow.obj
 0001:00017e60       ?impl@?$QSlotObject@P8daqInfo@@AEXVQString@@PAVWifiNetParas@@@ZU?$List@VQString@@PAVWifiNetParas@@@QtPrivate@@X@QtPrivate@@CAXHPAVQSlotObjectBase@2@PAVQObject@@PAPAXPA_N@Z 00418e60 f i daqinfo.obj
 0001:00017e60       ?impl@?$QSlotObject@P8mainTab@@AEXVQString@@PAVWifiNetParas@@@ZU?$List@VQString@@PAVWifiNetParas@@@QtPrivate@@X@QtPrivate@@CAXHPAVQSlotObjectBase@2@PAVQObject@@PAPAXPA_N@Z 00418e60 f i maintab.obj
 0001:00017e60       ?impl@?$QSlotObject@P8CMainWindow@@AEXVQString@@H@ZU?$List@VQString@@H@QtPrivate@@X@QtPrivate@@CAXHPAVQSlotObjectBase@2@PAVQObject@@PAPAXPA_N@Z 00418e60 f i main.obj
 0001:00017e60       ?impl@?$QSlotObject@P8mainTab@@AEXVQString@@PAV?$QList@PAVvirbValue@@@@@ZU?$List@VQString@@PAV?$QList@PAVvirbValue@@@@@QtPrivate@@X@QtPrivate@@CAXHPAVQSlotObjectBase@2@PAVQObject@@PAPAXPA_N@Z 00418e60 f i mainwindow.obj
 0001:00017e60       ?impl@?$QSlotObject@P8CMainWindow@@AEXVQString@@PAV?$QVector@N@@@ZU?$List@VQString@@PAV?$QVector@N@@@QtPrivate@@X@QtPrivate@@CAXHPAVQSlotObjectBase@2@PAVQObject@@PAPAXPA_N@Z 00418e60 f i main.obj
 0001:00017e60       ?impl@?$QSlotObject@P8daqInfo@@AEXVQString@@PAVWifiApParas@@@ZU?$List@VQString@@PAVWifiApParas@@@QtPrivate@@X@QtPrivate@@CAXHPAVQSlotObjectBase@2@PAVQObject@@PAPAXPA_N@Z 00418e60 f i daqinfo.obj
 0001:00017f00       ?impl@?$QSlotObject@P8mainTab@@AEXVQString@@PANH@ZU?$List@VQString@@PANH@QtPrivate@@X@QtPrivate@@CAXHPAVQSlotObjectBase@2@PAVQObject@@PAPAXPA_N@Z 00418f00 f i mainwindow.obj
 0001:00017f00       ?impl@?$QSlotObject@P8CMainWindow@@AEXVQString@@HH@ZU?$List@VQString@@HH@QtPrivate@@X@QtPrivate@@CAXHPAVQSlotObjectBase@2@PAVQObject@@PAPAXPA_N@Z 00418f00 f i main.obj
 0001:00017f00       ?impl@?$QSlotObject@P8CMainWindow@@AEXVQString@@PANH@ZU?$List@VQString@@PANH@QtPrivate@@X@QtPrivate@@CAXHPAVQSlotObjectBase@2@PAVQObject@@PAPAXPA_N@Z 00418f00 f i main.obj
 0001:00017f00       ?impl@?$QSlotObject@P8daqInfo@@AEXVQString@@HH@ZU?$List@VQString@@HH@QtPrivate@@X@QtPrivate@@CAXHPAVQSlotObjectBase@2@PAVQObject@@PAPAXPA_N@Z 00418f00 f i daqinfo.obj
 0001:00017f00       ?impl@?$QSlotObject@P8mainTab@@AEXVQString@@HH@ZU?$List@VQString@@HH@QtPrivate@@X@QtPrivate@@CAXHPAVQSlotObjectBase@2@PAVQObject@@PAPAXPA_N@Z 00418f00 f i maintab.obj
 0001:00017fa0       ?impl@?$QSlotObject@P8daqInfo@@AEXVQString@@H_N@ZU?$List@VQString@@H_N@QtPrivate@@X@QtPrivate@@CAXHPAVQSlotObjectBase@2@PAVQObject@@PAPAXPA_N@Z 00418fa0 f i daqinfo.obj
 0001:00017fa0       ?impl@?$QSlotObject@P8mainTab@@AEXVQString@@H_N@ZU?$List@VQString@@H_N@QtPrivate@@X@QtPrivate@@CAXHPAVQSlotObjectBase@2@PAVQObject@@PAPAXPA_N@Z 00418fa0 f i maintab.obj
 0001:00017fa0       ?impl@?$QSlotObject@P8CMainWindow@@AEXVQString@@H_N@ZU?$List@VQString@@H_N@QtPrivate@@X@QtPrivate@@CAXHPAVQSlotObjectBase@2@PAVQObject@@PAPAXPA_N@Z 00418fa0 f i mainwindow.obj
 0001:00018040       ?impl@?$QSlotObject@P8daqInfo@@AEXVQString@@V?$QList@N@@@ZU?$List@VQString@@V?$QList@N@@@QtPrivate@@X@QtPrivate@@CAXHPAVQSlotObjectBase@2@PAVQObject@@PAPAXPA_N@Z 00419040 f i daqinfo.obj
 0001:00018040       ?impl@?$QSlotObject@P8CMainWindow@@AEXVQString@@V?$QList@N@@@ZU?$List@VQString@@V?$QList@N@@@QtPrivate@@X@QtPrivate@@CAXHPAVQSlotObjectBase@2@PAVQObject@@PAPAXPA_N@Z 00419040 f i mainwindow.obj
 0001:00018040       ?impl@?$QSlotObject@P8mainTab@@AEXVQString@@V?$QList@N@@@ZU?$List@VQString@@V?$QList@N@@@QtPrivate@@X@QtPrivate@@CAXHPAVQSlotObjectBase@2@PAVQObject@@PAPAXPA_N@Z 00419040 f i maintab.obj
 0001:000180f0       ?impl@?$QSlotObject@P8CMainWindow@@AEXXZU?$List@$$V@QtPrivate@@X@QtPrivate@@CAXHPAVQSlotObjectBase@2@PAVQObject@@PAPAXPA_N@Z 004190f0 f i mainwindow.obj
 0001:000180f0       ?impl@?$QSlotObject@P8mainTab@@AEXXZU?$List@$$V@QtPrivate@@X@QtPrivate@@CAXHPAVQSlotObjectBase@2@PAVQObject@@PAPAXPA_N@Z 004190f0 f i maintab.obj
 0001:000180f0       ?impl@?$QSlotObject@P8daqInfo@@AEXXZU?$List@$$V@QtPrivate@@X@QtPrivate@@CAXHPAVQSlotObjectBase@2@PAVQObject@@PAPAXPA_N@Z 004190f0 f i daqinfo.obj
 0001:00018160       ?impl@?$QSlotObject@P8tcpClient@@AEXVQString@@0V?$QList@M@@V?$QList@_N@@@ZU?$List@VQString@@V1@V?$QList@M@@V?$QList@_N@@@QtPrivate@@X@QtPrivate@@CAXHPAVQSlotObjectBase@2@PAVQObject@@PAPAXPA_N@Z 00419160 f i daqinfo.obj
 0001:00018250       ?impl@?$QSlotObject@P8tcpServer@@AEXVQString@@PAVWifiNetParas@@@ZU?$List@VQString@@PAVWifiNetParas@@@QtPrivate@@X@QtPrivate@@CAXHPAVQSlotObjectBase@2@PAVQObject@@PAPAXPA_N@Z 00419250 f i main.obj
 0001:00018250       ?impl@?$QSlotObject@P8tcpServer@@AEXVQString@@PAVWifiChParas@@@ZU?$List@VQString@@PAVWifiChParas@@@QtPrivate@@X@QtPrivate@@CAXHPAVQSlotObjectBase@2@PAVQObject@@PAPAXPA_N@Z 00419250 f i main.obj
 0001:00018250       ?impl@?$QSlotObject@P8tcpServer@@AEXVQString@@PAVWifiApParas@@@ZU?$List@VQString@@PAVWifiApParas@@@QtPrivate@@X@QtPrivate@@CAXHPAVQSlotObjectBase@2@PAVQObject@@PAPAXPA_N@Z 00419250 f i main.obj
 0001:00018250       ?impl@?$QSlotObject@P8tcpClient@@AEXVQString@@H@ZU?$List@VQString@@H@QtPrivate@@X@QtPrivate@@CAXHPAVQSlotObjectBase@2@PAVQObject@@PAPAXPA_N@Z 00419250 f i daqinfo.obj
 0001:00018250       ?impl@?$QSlotObject@P8tcpServer@@AEXVQString@@PAVWifiFsParas@@@ZU?$List@VQString@@PAVWifiFsParas@@@QtPrivate@@X@QtPrivate@@CAXHPAVQSlotObjectBase@2@PAVQObject@@PAPAXPA_N@Z 00419250 f i main.obj
 0001:00018250       ?impl@?$QSlotObject@P8tcpServer@@AEXVQString@@H@ZU?$List@VQString@@H@QtPrivate@@X@QtPrivate@@CAXHPAVQSlotObjectBase@2@PAVQObject@@PAPAXPA_N@Z 00419250 f i main.obj
 0001:000182c0       ?impl@?$QSlotObject@P8tcpClient@@AEXVQString@@VQByteArray@@HPAV?$QVector@N@@@ZU?$List@VQString@@VQByteArray@@HPAV?$QVector@N@@@QtPrivate@@X@QtPrivate@@CAXHPAVQSlotObjectBase@2@PAVQObject@@PAPAXPA_N@Z 004192c0 f i daqinfo.obj
 0001:00018340       ?mouseReleaseEvent@daqInfo@@MAEXPAVQMouseEvent@@@Z 00419340 f   daqinfo.obj
 0001:00018350       ?qt_metatype_id@?$QMetaTypeId2@V?$QList@M@@@@SAHXZ 00419350 f i daqinfo.obj
 0001:00018530       ?qt_metatype_id@?$QMetaTypeId2@V?$QList@_N@@@@SAHXZ 00419530 f i daqinfo.obj
 0001:00018710       ?retranslateUi@Ui_daqInfo@@QAEXPAVQWidget@@@Z 00419710 f i daqinfo.obj
 0001:00018bf0       ?setAddress@daqInfo@@QAEXVQString@@@Z 00419bf0 f   daqinfo.obj
 0001:00018c10       ?setModel@daqInfo@@QAEXVQString@@@Z 00419c10 f   daqinfo.obj
 0001:00018cb0       ?setSN@daqInfo@@QAEXVQString@@@Z 00419cb0 f   daqinfo.obj
 0001:00018d60       ?setVersion@daqInfo@@QAEXVQString@@@Z 00419d60 f   daqinfo.obj
 0001:00018dd0       ?setupUi@Ui_daqInfo@@QAEXPAVQWidget@@@Z 00419dd0 f i daqinfo.obj
 0001:00019e80       ?showSettings@daqInfo@@QAEXXZ 0041ae80 f   daqinfo.obj
 0001:00019ea0       ?startStop@daqInfo@@AAEXXZ 0041aea0 f   daqinfo.obj
 0001:00019fa0       ?updateAPName@daqInfo@@QAEXVQString@@@Z 0041afa0 f   daqinfo.obj
 0001:0001a000       ?updateAlertJunyue@daqInfo@@QAEXV?$QList@M@@@Z 0041b000 f   daqinfo.obj
 0001:0001a090       ?updateAlertTimeSpan@daqInfo@@QAEXHH@Z 0041b090 f   daqinfo.obj
 0001:0001a0a0       ?updateAutoSpanFromWs@daqInfo@@QAEXH@Z 0041b0a0 f   daqinfo.obj
 0001:0001a0b0       ?updateAutoWave@daqInfo@@QAEXHVQByteArray@@PAV?$QVector@N@@@Z 0041b0b0 f   daqinfo.obj
 0001:0001a170       ?updateChParas@daqInfo@@QAEXPAVWifiChParas@@@Z 0041b170 f   daqinfo.obj
 0001:0001a180       ?updateChStatus@daqInfo@@QAEXG@Z 0041b180 f   daqinfo.obj
 0001:0001a190       ?updateChannelFSFromWs@daqInfo@@QAEXV?$QList@N@@@Z 0041b190 f   daqinfo.obj
 0001:0001a1f0       ?updateCharacters@daqInfo@@QAEXV?$QVector@N@@@Z 0041b1f0 f   daqinfo.obj
 0001:0001a230       ?updateCharactersJunyue@daqInfo@@QAEXVQString@@V?$QList@M@@V?$QList@_N@@@Z 0041b230 f   daqinfo.obj
 0001:0001a360       ?updateFsMode@daqInfo@@QAEXH@Z 0041b360 f   daqinfo.obj
 0001:0001a370       ?updateFsParas@daqInfo@@QAEXPAVWifiFsParas@@@Z 0041b370 f   daqinfo.obj
 0001:0001a380       ?updateInfo@daqInfo@@QAEXXZ 0041b380 f   daqinfo.obj
 0001:0001a3c0       ?updateNetParas@daqInfo@@QAEXPAVWifiNetParas@@@Z 0041b3c0 f   daqinfo.obj
 0001:0001a3d0       ?updatePowerMode2@daqInfo@@QAEXEEEE@Z 0041b3d0 f   daqinfo.obj
 0001:0001a3e0       ?updatePowerMode@daqInfo@@QAEXEEE@Z 0041b3e0 f   daqinfo.obj
 0001:0001a3f0       ?updateStatus@daqInfo@@QAEXH@Z 0041b3f0 f   daqinfo.obj
 0001:0001a460       ?updateTCPserver@daqInfo@@QAEXVQString@@H@Z 0041b460 f   daqinfo.obj
 0001:0001a4c0       ?updateTemperature@daqInfo@@QAEXPANH@Z 0041b4c0 f   daqinfo.obj
 0001:0001a6f0       ?updateVib@daqInfo@@QAEXPAV?$QList@PAVvirbValue@@@@@Z 0041b6f0 f   daqinfo.obj
 0001:0001a700       ?updateWave@daqInfo@@QAEXPAV?$QVector@N@@@Z 0041b700 f   daqinfo.obj
 0001:0001a710       ?viewAutoWave@daqInfo@@QAEXXZ 0041b710 f   daqinfo.obj
 0001:0001a730       ?viewCharacter@daqInfo@@QAEXXZ 0041b730 f   daqinfo.obj
 0001:0001a750       ?viewWave@daqInfo@@QAEXXZ  0041b750 f   daqinfo.obj
 0001:0001a910       _http_parser_execute       0041b910 f   http_parser.obj
 0001:0001cd00       _http_parser_init          0041dd00 f   http_parser.obj
 0001:0001cd50       _http_parser_parse_url     0041dd50 f   http_parser.obj
 0001:0001cff0       _http_should_keep_alive    0041dff0 f   http_parser.obj
 0001:0001d2c0       ??$?0VQWaitCondition@@P6AXPAV0@@Z@?$QSharedPointer@VQWaitCondition@@@@QAE@PAVQWaitCondition@@P6AX0@Z@Z 0041e2c0 f i qasynhttpsocket.obj
 0001:0001d320       ??0?$QSharedPointer@VQWaitCondition@@@@QAE@ABV0@@Z 0041e320 f i qasynhttpsocket.obj
 0001:0001d350       ??0QAsynHttpSocket@@QAE@HPAVQObject@@@Z 0041e350 f   qasynhttpsocket.obj
 0001:0001d570       ??1?$QHash@VQString@@V1@@@QAE@XZ 0041e570 f i qasynhttpsocket.obj
 0001:0001d5d0       ??1?$QSharedPointer@VQWaitCondition@@@@QAE@XZ 0041e5d0 f i qasynhttpsocket.obj
 0001:0001d640       ??1QAsynHttpSocket@@UAE@XZ 0041e640 f   qasynhttpsocket.obj
 0001:0001d810       ??4?$QSharedPointer@VQWaitCondition@@@@QAEAAV0@$$QAV0@@Z 0041e810 f i qasynhttpsocket.obj
 0001:0001d8a0       ??A?$QHash@VQString@@V1@@@QAEAAVQString@@ABV1@@Z 0041e8a0 f i qasynhttpsocket.obj
 0001:0001d9b0       ??_GQAsynHttpSocket@@UAEPAXI@Z 0041e9b0 f i qasynhttpsocket.obj
 0001:0001d9b0       ??_EQAsynHttpSocket@@UAEPAXI@Z 0041e9b0 f i qasynhttpsocket.obj
 0001:0001d9d0       ?addSN@QAsynHttpSocket@@AAEXVQString@@@Z 0041e9d0 f   qasynhttpsocket.obj
 0001:0001d9d0       ?delSN@QAsynHttpSocket@@AAEXVQString@@@Z 0041e9d0 f   qasynhttpsocket.obj
 0001:0001d9e0       ?clear@?$QSharedPointer@VQWaitCondition@@@@QAEXXZ 0041e9e0 f i qasynhttpsocket.obj
 0001:0001da60       ?contains@?$QList@VQString@@@@QBE_NABVQString@@@Z 0041ea60 f i qasynhttpsocket.obj
 0001:0001dab0       ?createUrl@@YA?AVQUrl@@PBDABUhttp_parser_url@@@Z 0041eab0 f   qasynhttpsocket.obj
 0001:0001de40       ?delCondition@@YAXPAVQWaitCondition@@@Z 0041ee40 f   qasynhttpsocket.obj
 0001:0001de60       ?deleteNode2@?$QHash@VQString@@V1@@@CAXPAUNode@QHashData@@@Z 0041ee60 f i qasynhttpsocket.obj
 0001:0001de80       ?deleter@?$ExternalRefCountWithCustomDeleter@VQWaitCondition@@P6AXPAV1@@Z@QtSharedPointer@@SAXPAUExternalRefCountData@2@@Z 0041ee80 f i qasynhttpsocket.obj
 0001:0001de90       ?detach@?$QHash@VQString@@V1@@@QAEXXZ 0041ee90 f i qasynhttpsocket.obj
 0001:0001def0       ?detach_helper@?$QHash@VQString@@V1@@@AAEXXZ 0041eef0 f i qasynhttpsocket.obj
 0001:0001df40       ?doBody@QAsynHttpSocket@@CAHPAUhttp_parser@@PBDI@Z 0041ef40 f   qasynhttpsocket.obj
 0001:0001dfd0       __get_startup_thread_locale_mode 0041efd0 f   MSVCRT:thread_locale.obj
 0001:0001dfd0       __get_startup_new_mode     0041efd0 f   MSVCRT:new_mode.obj
 0001:0001dfd0       __get_startup_commit_mode  0041efd0 f   MSVCRT:commit_mode.obj
 0001:0001dfd0       ___scrt_exe_initialize_mta 0041efd0 f   MSVCRT:utility_desktop.obj
 0001:0001dfd0       ___scrt_stub_for_initialize_mta 0041efd0 f   MSVCRT:utility_desktop.obj
 0001:0001dfd0       ?doChunkComplete@QAsynHttpSocket@@CAHPAUhttp_parser@@@Z 0041efd0 f   qasynhttpsocket.obj
 0001:0001dfd0       ?doChunkHeader@QAsynHttpSocket@@CAHPAUhttp_parser@@@Z 0041efd0 f   qasynhttpsocket.obj
 0001:0001dfd0       ___scrt_initialize_winrt   0041efd0 f   MSVCRT:utility_desktop.obj
 0001:0001dfd0       __matherr                  0041efd0 f   MSVCRT:matherr.obj
 0001:0001dfe0       ?doDisconnected@QAsynHttpSocket@@AAEXXZ 0041efe0 f   qasynhttpsocket.obj
 0001:0001e0c0       ?doHeaderField@QAsynHttpSocket@@CAHPAUhttp_parser@@PBDI@Z 0041f0c0 f   qasynhttpsocket.obj
 0001:0001e1c0       ?doHeaderValue@QAsynHttpSocket@@CAHPAUhttp_parser@@PBDI@Z 0041f1c0 f   qasynhttpsocket.obj
 0001:0001e230       ?doHeadersComplete@QAsynHttpSocket@@CAHPAUhttp_parser@@@Z 0041f230 f   qasynhttpsocket.obj
 0001:0001e2a0       ?doMessageBegin@QAsynHttpSocket@@CAHPAUhttp_parser@@@Z 0041f2a0 f   qasynhttpsocket.obj
 0001:0001e370       ?doMessageComplete@QAsynHttpSocket@@CAHPAUhttp_parser@@@Z 0041f370 f   qasynhttpsocket.obj
 0001:0001e650       ?doParseRequest@QAsynHttpSocket@@AAEXXZ 0041f650 f   qasynhttpsocket.obj
 0001:0001e740       ?doStatus@QAsynHttpSocket@@CAHPAUhttp_parser@@PBDI@Z 0041f740 f   qasynhttpsocket.obj
 0001:0001e760       ?doUpdateWriteCount@QAsynHttpSocket@@AAEX_J@Z 0041f760 f   qasynhttpsocket.obj
 0001:0001e830       ?doUrl@QAsynHttpSocket@@CAHPAUhttp_parser@@PBDI@Z 0041f830 f   qasynhttpsocket.obj
 0001:0001e850       ?duplicateNode@?$QHash@VQString@@V1@@@CAXPAUNode@QHashData@@PAX@Z 0041f850 f i qasynhttpsocket.obj
 0001:0001e890       ?findNode@?$QHash@VQString@@V1@@@ABEPAPAU?$QHashNode@VQString@@V1@@@ABVQString@@I@Z 0041f890 f i qasynhttpsocket.obj
 0001:0001e930       ?handleRequest@QAsynHttpSocket@@AAEXPAVQHttpRequest@@PAVQHttpResponse@@@Z 0041f930 f   qasynhttpsocket.obj
 0001:00021460       ?waitForBytesWritten@QAsynHttpSocket@@QAEXXZ 00422460 f   qasynhttpsocket.obj
 0001:00021470       ?write@QAsynHttpSocket@@QAEXABVQByteArray@@@Z 00422470 f   qasynhttpsocket.obj
 0001:00021490       ??0QAsynTcpServer@@QAE@PAVQObject@@H@Z 00422490 f   qasyntcpserver.obj
 0001:00021510       ??1QAsynTcpServer@@UAE@XZ  00422510 f   qasyntcpserver.obj
 0001:0002162f       ??_9QAbstractSocket@@$BHI@AE 0042262f f i qasyntcpserver.obj
 0001:00021640       ??_EQAsynTcpServer@@UAEPAXI@Z 00422640 f i qasyntcpserver.obj
 0001:00021640       ??_GQAsynTcpServer@@UAEPAXI@Z 00422640 f i qasyntcpserver.obj
 0001:00021770       ?detach@?$QHash@PAVQThread@@I@@QAEXXZ 00422770 f i threadhandle.obj
 0001:00021770       ?detach@?$QHash@HPAVQTcpSocket@@@@QAEXXZ 00422770 f i qasyntcpserver.obj
 0001:000217d0       ?duplicateNode@?$QHash@HPAVQTcpSocket@@@@CAXPAUNode@QHashData@@PAX@Z 004227d0 f i qasyntcpserver.obj
 0001:000217d0       ?duplicateNode@?$QHash@PAVQThread@@I@@CAXPAUNode@QHashData@@PAX@Z 004227d0 f i threadhandle.obj
 0001:00021800       ?findNode@?$QHash@PAVQThread@@I@@ABEPAPAU?$QHashNode@PAVQThread@@I@@ABQAVQThread@@I@Z 00422800 f i threadhandle.obj
 0001:00021800       ?findNode@?$QHash@HPAVQTcpSocket@@@@ABEPAPAU?$QHashNode@HPAVQTcpSocket@@@@ABHI@Z 00422800 f i qasyntcpserver.obj
 0001:00021800       ?findNode@?$QHash@HVQString@@@@ABEPAPAU?$QHashNode@HVQString@@@@ABHI@Z 00422800 f i qhttpresponse.obj
 0001:00021850       ?impl@?$QSlotObject@P8QAsynTcpServer@@AEXHABVQString@@GPAVQThread@@@ZU?$List@HABVQString@@GPAVQThread@@@QtPrivate@@X@QtPrivate@@CAXHPAVQSlotObjectBase@2@PAVQObject@@PAPAXPA_N@Z 00422850 f i qasyntcpserver.obj
 0001:000218c0       ?incomingConnection@QAsynTcpServer@@MAEXH@Z 004228c0 f   qasyntcpserver.obj
 0001:00021b50       ?sockDisConnectSlot@QAsynTcpServer@@IAEXHABVQString@@GPAVQThread@@@Z 00422b50 f   qasyntcpserver.obj
 0001:00021b50       ?sockDisConnectSlot@QHttpServer@@IAEXHABVQString@@GPAVQThread@@@Z 00422b50 f   qhttpserver.obj
 0001:00021be0       ??0QAsynTcpSocket@@QAE@HPAVQObject@@@Z 00422be0 f   qasyntcpsocket.obj
 0001:00021cc0       ??_EQAsynTcpSocket@@UAEPAXI@Z 00422cc0 f i qasyntcpsocket.obj
 0001:00021cc0       ??_GQAsynTcpSocket@@UAEPAXI@Z 00422cc0 f i qasyntcpsocket.obj
 0001:00021cf0       ?doDisconnected@QAsynTcpSocket@@AAEXXZ 00422cf0 f   qasyntcpsocket.obj
 0001:00021d90       ?doUpdateWriteCount@QAsynTcpSocket@@AAEX_J@Z 00422d90 f   qasyntcpsocket.obj
 0001:00021de0       ??0QHttpRequest@@AAE@PAVQAsynHttpSocket@@PAVQObject@@@Z 00422de0 f   qhttprequest.obj
 0001:00021ea0       ??_EQHttpRequest@@UAEPAXI@Z 00422ea0 f i qhttprequest.obj
 0001:00021ea0       ??_GQHttpRequest@@UAEPAXI@Z 00422ea0 f i qhttprequest.obj
 0001:00021f90       ?appendBody@QHttpRequest@@AAEXABVQByteArray@@@Z 00422f90 f   qhttprequest.obj
 0001:00021fa0       ?headers@QHttpRequest@@QBEABV?$QHash@VQString@@V1@@@XZ 00422fa0 f   qhttprequest.obj
 0001:00021fb0       ?httpVersion@QHttpRequest@@QBEABVQString@@XZ 00422fb0 f   qhttprequest.obj
 0001:00021fc0       ?method@QHttpRequest@@QBE?AW4HttpMethod@1@XZ 00422fc0 f   qhttprequest.obj
 0001:00021fd0       ?path@QHttpRequest@@QBE?BVQString@@XZ 00422fd0 f   qhttprequest.obj
 0001:00021ff0       ?remoteAddress@QHttpRequest@@QBEABVQString@@XZ 00422ff0 f   qhttprequest.obj
 0001:00022000       ?remotePort@QHttpRequest@@QBEGXZ 00423000 f   qhttprequest.obj
 0001:00022010       ?url@QHttpRequest@@QBEABVQUrl@@XZ 00423010 f   qhttprequest.obj
 0001:00022020       ??0QHttpResponse@@AAE@PAVQAsynHttpSocket@@@Z 00423020 f   qhttpresponse.obj
 0001:00022d40       ??A?$QHash@HVQString@@@@QAEAAVQString@@ABH@Z 00423d40 f i qhttpresponse.obj
 0001:00022e40       ??_EQHttpResponse@@UAEPAXI@Z 00423e40 f i qhttpresponse.obj
 0001:00022e40       ??_GQHttpResponse@@UAEPAXI@Z 00423e40 f i qhttpresponse.obj
 0001:00022ed0       ?connectionClosed@QHttpResponse@@AAEXXZ 00423ed0 f   qhttpresponse.obj
 0001:00022f60       ?deleteNode2@?$QHash@HVQString@@@@CAXPAUNode@QHashData@@@Z 00423f60 f i qhttpresponse.obj
 0001:00022f70       ?detach@?$QHash@HVQString@@@@QAEXXZ 00423f70 f i qhttpresponse.obj
 0001:00022fd0       ?duplicateNode@?$QHash@HVQString@@@@CAXPAUNode@QHashData@@PAX@Z 00423fd0 f i qhttpresponse.obj
 0001:00023000       ?end@QHttpResponse@@QAEXABVQByteArray@@@Z 00424000 f   qhttpresponse.obj
 0001:000230f0       ?flush@QHttpResponse@@QAEXXZ 004240f0 f   qhttpresponse.obj
 0001:00023100       ?insert@?$QHash@HVQString@@@@QAE?AViterator@1@ABHABVQString@@@Z 00424100 f i qhttpresponse.obj
 0001:000231b0       ?setHeader@QHttpResponse@@QAEXABVQString@@0@Z 004241b0 f   qhttpresponse.obj
 0001:00023250       ?waitForBytesWritten@QHttpResponse@@QAEXXZ 00424250 f   qhttpresponse.obj
 0001:00023260       ?write@QHttpResponse@@QAEXABVQByteArray@@@Z 00424260 f   qhttpresponse.obj
 0001:00023340       ?writeHead@QHttpResponse@@QAEXH@Z 00424340 f   qhttpresponse.obj
 0001:00023580       ?writeHead@QHttpResponse@@QAEXW4StatusCode@1@@Z 00424580 f   qhttpresponse.obj
 0001:00023590       ?writeHeader@QHttpResponse@@AAEXPBDABVQString@@@Z 00424590 f   qhttpresponse.obj
 0001:000237c0       ?writeHeaders@QHttpResponse@@AAEXXZ 004247c0 f   qhttpresponse.obj
 0001:00023da0       ??0QHttpServer@@QAE@PAVQObject@@H@Z 00424da0 f   qhttpserver.obj
 0001:00023dd0       ??1QHttpServer@@UAE@XZ     00424dd0 f   qhttpserver.obj
 0001:00023de0       ??_EQHttpServer@@UAEPAXI@Z 00424de0 f i qhttpserver.obj
 0001:00023de0       ??_GQHttpServer@@UAEPAXI@Z 00424de0 f i qhttpserver.obj
 0001:00023e10       ?addSN@QHttpServer@@QAEXVQString@@@Z 00424e10 f   qhttpserver.obj
 0001:00023e60       ?delSN@QHttpServer@@QAEXVQString@@@Z 00424e60 f   qhttpserver.obj
 0001:00023fc0       ?handleRequest@QHttpServer@@AAEXPAVQHttpRequest@@PAVQHttpResponse@@@Z 00424fc0 f   qhttpserver.obj
 0001:000241f0       ?incomingConnection@QHttpServer@@MAEXH@Z 004251f0 f   qhttpserver.obj
 0001:00024480       ?startListen@QHttpServer@@QAEXVQString@@G@Z 00425480 f   qhttpserver.obj
 0001:00024530       ?clear@ThreadHandle@@QAEXXZ 00425530 f   threadhandle.obj
 0001:00024590       ?getClass@ThreadHandle@@SAAAV1@XZ 00425590 f   threadhandle.obj
 0001:000245f0       ?getThread@ThreadHandle@@QAEPAVQThread@@XZ 004255f0 f   threadhandle.obj
 0001:000247b0       ?initThreadType@ThreadHandle@@QAEXW4ThreadType@1@I@Z 004257b0 f   threadhandle.obj
 0001:000249d0       ?insert@?$QHash@PAVQThread@@I@@QAE?AViterator@1@ABQAVQThread@@ABI@Z 004259d0 f i threadhandle.obj
 0001:00024a70       ?removeThread@ThreadHandle@@QAEXPAVQThread@@@Z 00425a70 f   threadhandle.obj
 0001:00024b70       ?ApplicationCrashHandler@@YGJPAU_EXCEPTION_POINTERS@@@Z 00425b70 f   main.obj
 0001:00024dc0       ?MyDummySetUnhandledExceptionFilter@@YGP6GJPAU_EXCEPTION_POINTERS@@@ZP6GJ0@Z@Z 00425dc0 f   main.obj
 0001:00024e20       ?impl@?$QSlotObject@P8CMainWindow@@AEXHVQString@@0@ZU?$List@HVQString@@V1@@QtPrivate@@X@QtPrivate@@CAXHPAVQSlotObjectBase@2@PAVQObject@@PAPAXPA_N@Z 00425e20 f i main.obj
 0001:00024e20       ?impl@?$QSlotObject@P8mainTab@@AEXHVQString@@0@ZU?$List@HVQString@@V1@@QtPrivate@@X@QtPrivate@@CAXHPAVQSlotObjectBase@2@PAVQObject@@PAPAXPA_N@Z 00425e20 f i mainwindow.obj
 0001:00024ed0       ?impl@?$QSlotObject@P8mainTab@@AEXHVQString@@@ZU?$List@HVQString@@@QtPrivate@@X@QtPrivate@@CAXHPAVQSlotObjectBase@2@PAVQObject@@PAPAXPA_N@Z 00425ed0 f i mainwindow.obj
 0001:00024ed0       ?impl@?$QSlotObject@P8CMainWindow@@AEXHVQString@@@ZU?$List@HVQString@@@QtPrivate@@X@QtPrivate@@CAXHPAVQSlotObjectBase@2@PAVQObject@@PAPAXPA_N@Z 00425ed0 f i main.obj
 0001:00024f70       ?impl@?$QSlotObject@P8CMainWindow@@AEXVQString@@0H@ZU?$List@VQString@@V1@H@QtPrivate@@X@QtPrivate@@CAXHPAVQSlotObjectBase@2@PAVQObject@@PAPAXPA_N@Z 00425f70 f i main.obj
 0001:00024f70       ?impl@?$QSlotObject@P8mainTab@@AEXVQString@@0H@ZU?$List@VQString@@V1@H@QtPrivate@@X@QtPrivate@@CAXHPAVQSlotObjectBase@2@PAVQObject@@PAPAXPA_N@Z 00425f70 f i mainwindow.obj
 0001:00025020       ?impl@?$QSlotObject@P8CMainWindow@@AEXVQString@@0V?$QList@M@@V?$QList@_N@@@ZU?$List@VQString@@V1@V?$QList@M@@V?$QList@_N@@@QtPrivate@@X@QtPrivate@@CAXHPAVQSlotObjectBase@2@PAVQObject@@PAPAXPA_N@Z 00426020 f i main.obj
 0001:00025020       ?impl@?$QSlotObject@P8mainTab@@AEXVQString@@0V?$QList@M@@V?$QList@_N@@@ZU?$List@VQString@@V1@V?$QList@M@@V?$QList@_N@@@QtPrivate@@X@QtPrivate@@CAXHPAVQSlotObjectBase@2@PAVQObject@@PAPAXPA_N@Z 00426020 f i mainwindow.obj
 0001:00025140       ?impl@?$QSlotObject@P8mainTab@@AEXVQString@@EEE@ZU?$List@VQString@@EEE@QtPrivate@@X@QtPrivate@@CAXHPAVQSlotObjectBase@2@PAVQObject@@PAPAXPA_N@Z 00426140 f i mainwindow.obj
 0001:00025140       ?impl@?$QSlotObject@P8CMainWindow@@AEXVQString@@EEE@ZU?$List@VQString@@EEE@QtPrivate@@X@QtPrivate@@CAXHPAVQSlotObjectBase@2@PAVQObject@@PAPAXPA_N@Z 00426140 f i main.obj
 0001:000251f0       ?impl@?$QSlotObject@P8mainTab@@AEXVQString@@V?$QList@M@@@ZU?$List@VQString@@V?$QList@M@@@QtPrivate@@X@QtPrivate@@CAXHPAVQSlotObjectBase@2@PAVQObject@@PAPAXPA_N@Z 004261f0 f i mainwindow.obj
 0001:000251f0       ?impl@?$QSlotObject@P8CMainWindow@@AEXVQString@@V?$QList@M@@@ZU?$List@VQString@@V?$QList@M@@@QtPrivate@@X@QtPrivate@@CAXHPAVQSlotObjectBase@2@PAVQObject@@PAPAXPA_N@Z 004261f0 f i main.obj
 0001:000252a0       ?impl@?$QSlotObject@P8CMainWindow@@AEXVQString@@VQByteArray@@HPAV?$QVector@N@@@ZU?$List@VQString@@VQByteArray@@HPAV?$QVector@N@@@QtPrivate@@X@QtPrivate@@CAXHPAVQSlotObjectBase@2@PAVQObject@@PAPAXPA_N@Z 004262a0 f i main.obj
 0001:000252a0       ?impl@?$QSlotObject@P8mainTab@@AEXVQString@@VQByteArray@@HPAV?$QVector@N@@@ZU?$List@VQString@@VQByteArray@@HPAV?$QVector@N@@@QtPrivate@@X@QtPrivate@@CAXHPAVQSlotObjectBase@2@PAVQObject@@PAPAXPA_N@Z 004262a0 f i mainwindow.obj
 0001:00025360       ?impl@?$QSlotObject@P8QHttpServer@@AEXVQString@@G@ZU?$List@VQString@@G@QtPrivate@@X@QtPrivate@@CAXHPAVQSlotObjectBase@2@PAVQObject@@PAPAXPA_N@Z 00426360 f i main.obj
 0001:00025360       ?impl@?$QSlotObject@P8tcpServer@@AEXVQString@@G@ZU?$List@VQString@@G@QtPrivate@@X@QtPrivate@@CAXHPAVQSlotObjectBase@2@PAVQObject@@PAPAXPA_N@Z 00426360 f i main.obj
 0001:000253d0       ?impl@?$QSlotObject@P8tcpServer@@AEXVQString@@0@ZU?$List@VQString@@V1@@QtPrivate@@X@QtPrivate@@CAXHPAVQSlotObjectBase@2@PAVQObject@@PAPAXPA_N@Z 004263d0 f i main.obj
 0001:00025440       ?impl@?$QSlotObject@P8tcpServer@@AEXVQString@@0H0@ZU?$List@VQString@@V1@HV1@@QtPrivate@@X@QtPrivate@@CAXHPAVQSlotObjectBase@2@PAVQObject@@PAPAXPA_N@Z 00426440 f i main.obj
 0001:000254d0       ?impl@?$QSlotObject@P8wsClient@@AEXVQString@@@ZU?$List@VQString@@@QtPrivate@@X@QtPrivate@@CAXHPAVQSlotObjectBase@2@PAVQObject@@PAPAXPA_N@Z 004264d0 f i mainwindow.obj
 0001:000254d0       ?impl@?$QSlotObject@P8tcpServer@@AEXVQString@@@ZU?$List@VQString@@@QtPrivate@@X@QtPrivate@@CAXHPAVQSlotObjectBase@2@PAVQObject@@PAPAXPA_N@Z 004264d0 f i main.obj
 0001:000254d0       ?impl@?$QSlotObject@P8wsClient@@AEXVQString@@@ZU?$List@ABVQString@@@QtPrivate@@X@QtPrivate@@CAXHPAVQSlotObjectBase@2@PAVQObject@@PAPAXPA_N@Z 004264d0 f i wsclient.obj
 0001:00025530       ?impl@?$QSlotObject@P8tcpServer@@AEXVQString@@EEEE@ZU?$List@VQString@@EEEE@QtPrivate@@X@QtPrivate@@CAXHPAVQSlotObjectBase@2@PAVQObject@@PAPAXPA_N@Z 00426530 f i main.obj
 0001:000255b0       ?impl@?$QSlotObject@P8tcpServer@@AEXVQString@@HH@ZU?$List@VQString@@HH@QtPrivate@@X@QtPrivate@@CAXHPAVQSlotObjectBase@2@PAVQObject@@PAPAXPA_N@Z 004265b0 f i main.obj
 0001:00025620       ?impl@?$QSlotObject@P8tcpServer@@AEXVQString@@H_N@ZU?$List@VQString@@H_N@QtPrivate@@X@QtPrivate@@CAXHPAVQSlotObjectBase@2@PAVQObject@@PAPAXPA_N@Z 00426620 f i main.obj
 0001:00025690       ?impl@?$QSlotObject@P8tcpServer@@AEXVQString@@V?$QList@N@@@ZU?$List@VQString@@V?$QList@N@@@QtPrivate@@X@QtPrivate@@CAXHPAVQSlotObjectBase@2@PAVQObject@@PAPAXPA_N@Z 00426690 f i main.obj
 0001:00025700       ?impl@?$QSlotObject@P8tcpServer@@AEXVQString@@_N@ZU?$List@VQString@@_N@QtPrivate@@X@QtPrivate@@CAXHPAVQSlotObjectBase@2@PAVQObject@@PAPAXPA_N@Z 00426700 f i main.obj
 0001:00025770       ?myMessageOutput@@YAXW4QtMsgType@@ABVQMessageLogContext@@ABVQString@@@Z 00426770 f   main.obj
 0001:00025b40       _main                      00426b40 f   main.obj
 0001:00026ea0       ??$connect@P8daqInfo@@AEXVQString@@@ZP8mainTab@@AEX0@Z@QObject@@SA?AVConnection@QMetaObject@@PBVdaqInfo@@P83@AEXVQString@@@ZPBVmainTab@@P85@AEX1@ZW4ConnectionType@Qt@@@Z 00427ea0 f i maintab.obj
 0001:00026f60       ??0mainTab@@QAE@PAVQWidget@@@Z 00427f60 f   maintab.obj
 0001:00027320       ??1?$QMap@VQString@@H@@QAE@XZ 00428320 f i maintab.obj
 0001:000273c0       ??1mainTab@@UAE@XZ         004283c0 f   maintab.obj
 0001:00027510       ??1uiElements@@QAE@XZ      00428510 f i maintab.obj
 0001:00027564       ??_EQFrame@@W7AEPAXI@Z     00428564 f i maintab.obj
 0001:0002756c       ??_EQMdiArea@@W7AEPAXI@Z   0042856c f i maintab.obj
 0001:00027574       ??_EQScrollArea@@W7AEPAXI@Z 00428574 f i maintab.obj
 0001:0002757c       ??_EQSpinBox@@W7AEPAXI@Z   0042857c f i maintab.obj
 0001:00027584       ??_EQTabWidget@@W7AEPAXI@Z 00428584 f i maintab.obj
 0001:0002758c       ??_EmainTab@@W7AEPAXI@Z    0042858c f i maintab.obj
 0001:000275a0       ??_EQButtonGroup@@UAEPAXI@Z 004285a0 f i maintab.obj
 0001:000275a0       ??_GQButtonGroup@@UAEPAXI@Z 004285a0 f i maintab.obj
 0001:000275d0       ??_EQFrame@@UAEPAXI@Z      004285d0 f i maintab.obj
 0001:000275d0       ??_GQFrame@@UAEPAXI@Z      004285d0 f i maintab.obj
 0001:00027600       ??_EQMdiArea@@UAEPAXI@Z    00428600 f i maintab.obj
 0001:00027600       ??_GQMdiArea@@UAEPAXI@Z    00428600 f i maintab.obj
 0001:00027630       ??_EQScrollArea@@UAEPAXI@Z 00428630 f i maintab.obj
 0001:00027630       ??_GQScrollArea@@UAEPAXI@Z 00428630 f i maintab.obj
 0001:00027660       ??_EQSpinBox@@UAEPAXI@Z    00428660 f i maintab.obj
 0001:00027660       ??_GQSpinBox@@UAEPAXI@Z    00428660 f i maintab.obj
 0001:00027690       ??_EQTabWidget@@UAEPAXI@Z  00428690 f i maintab.obj
 0001:00027690       ??_GQTabWidget@@UAEPAXI@Z  00428690 f i maintab.obj
 0001:000276c0       ??_GmainTab@@UAEPAXI@Z     004286c0 f i maintab.obj
 0001:000276c0       ??_EmainTab@@UAEPAXI@Z     004286c0 f i maintab.obj
 0001:000276f0       ?addDaq@mainTab@@QAEXVQString@@0@Z 004286f0 f   maintab.obj
 0001:000279b0       ?addDaq@mainTab@@QAEXVQString@@@Z 004289b0 f   maintab.obj
 0001:00027b90       ?changeExTab@mainTab@@QAEXH@Z 00428b90 f   maintab.obj
 0001:00027ba0       ?changeSettingTab@mainTab@@AAEXH@Z 00428ba0 f   maintab.obj
 0001:00027bb0       ?closeChild@mainTab@@AAEXHVQString@@@Z 00428bb0 f   maintab.obj
 0001:00027d10       ?copy@?$QMapNode@VQString@@H@@QBEPAU1@PAU?$QMapData@VQString@@H@@@Z 00428d10 f i maintab.obj
 0001:00027da0       ?createDaqFromBack@mainTab@@QAEXHVQString@@0@Z 00428da0 f   maintab.obj
 0001:00028940       ?createNode@?$QMapData@VQString@@H@@QAEPAU?$QMapNode@VQString@@H@@ABVQString@@ABHPAU2@_N@Z 00429940 f i maintab.obj
 0001:00028980       ?delDaq@mainTab@@QAEXXZ    00429980 f   maintab.obj
 0001:00028d80       ?destroySubTree@?$QMapNode@VQString@@H@@QAEXXZ 00429d80 f i maintab.obj
 0001:00028db0       ?detach@?$QMap@VQString@@H@@QAEXXZ 00429db0 f i maintab.obj
 0001:00028e70       ?impl@?$QSlotObject@P8mainTab@@AEXVQString@@_N@ZU?$List@VQString@@_N@QtPrivate@@X@QtPrivate@@CAXHPAVQSlotObjectBase@2@PAVQObject@@PAPAXPA_N@Z 00429e70 f i maintab.obj
 0001:00028e70       ?impl@?$QSlotObject@P8CMainWindow@@AEXVQString@@_N@ZU?$List@VQString@@_N@QtPrivate@@X@QtPrivate@@CAXHPAVQSlotObjectBase@2@PAVQObject@@PAPAXPA_N@Z 00429e70 f i mainwindow.obj
 0001:00028f10       ?initUI@mainTab@@QAEXUuiElements@@@Z 00429f10 f   maintab.obj
 0001:00029300       ?on_btnApplyHttpServer_clicked@mainTab@@AAEXXZ 0042a300 f   maintab.obj
 0001:00029340       ?on_btnApplyRemoteWebSocket_clicked@mainTab@@AAEXXZ 0042a340 f   maintab.obj
 0001:00029450       ?on_btnApplyTcpClient_clicked@mainTab@@AAEXXZ 0042a450 f   maintab.obj
 0001:00029480       ?on_btnApplyTcp_clicked@mainTab@@AAEXXZ 0042a480 f   maintab.obj
 0001:000294b0       ?on_btnChangeLocation_clicked@mainTab@@AAEXXZ 0042a4b0 f   maintab.obj
 0001:00029560       ?on_pushButton_clicked@mainTab@@AAEXXZ 0042a560 f   maintab.obj
 0001:00029900       ?remove@?$QMap@VQString@@H@@QAEHABVQString@@@Z 0042a900 f i maintab.obj
 0001:000299a0       ?removeAt@?$QList@PAVbaseForm2@@@@QAEXH@Z 0042a9a0 f i maintab.obj
 0001:000299f0       ?retranslateUi@Ui_mainTab@@QAEXPAVQWidget@@@Z 0042a9f0 f i maintab.obj
 0001:0002ab00       ?setAutoSpan@mainTab@@QAEXVQString@@H@Z 0042bb00 f   maintab.obj
 0001:0002abd0       ?setChannelFS@mainTab@@QAEXVQString@@V?$QList@N@@@Z 0042bbd0 f   maintab.obj
 0001:0002acc0       ?settingGUID@mainTab@@QAEXVQString@@@Z 0042bcc0 f   maintab.obj
 0001:0002ace0       ?setupUi@Ui_mainTab@@QAEXPAVQWidget@@@Z 0042bce0 f i maintab.obj
 0001:00030730       ?testAddDaq@mainTab@@QAEXXZ 00431730 f   maintab.obj
 0001:00030970       ?updateAPdata@mainTab@@QAEXVQString@@PAVWifiApParas@@@Z 00431970 f   maintab.obj
 0001:00030a60       ?updateAlertJunyue@mainTab@@QAEXVQString@@V?$QList@M@@@Z 00431a60 f   maintab.obj
 0001:00030b80       ?updateAlertTimeSpan@mainTab@@QAEXVQString@@HH@Z 00431b80 f   maintab.obj
 0001:00030c60       ?updateAutoWave2@mainTab@@QAEXVQString@@VQByteArray@@HPAV?$QVector@N@@@Z 00431c60 f   maintab.obj
 0001:00030d90       ?updateChParas@mainTab@@QAEXVQString@@PAVWifiChParas@@@Z 00431d90 f   maintab.obj
 0001:00030e60       ?updateChStatus@mainTab@@QAEXVQString@@G@Z 00431e60 f   maintab.obj
 0001:00030f30       ?updateCharactersJunyue@mainTab@@QAEXVQString@@0V?$QList@M@@V?$QList@_N@@@Z 00431f30 f   maintab.obj
 0001:000310b0       ?updateCurrentFirmwareVer@mainTab@@QAEXVQString@@0@Z 004320b0 f   maintab.obj
 0001:00031160       ?updateCurrentTemperature@mainTab@@QAEXVQString@@PANH@Z 00432160 f   maintab.obj
 0001:00031240       ?updateCurrentVValue@mainTab@@QAEXVQString@@PAV?$QList@PAVvirbValue@@@@@Z 00432240 f   maintab.obj
 0001:00031350       ?updateDeviceStatus@mainTab@@QAEXHVQString@@@Z 00432350 f   maintab.obj
 0001:000313f0       ?updateFsMode@mainTab@@QAEXVQString@@H@Z 004323f0 f   maintab.obj
 0001:000314c0       ?updateFsParas@mainTab@@QAEXVQString@@PAVWifiFsParas@@@Z 004324c0 f   maintab.obj
 0001:00031590       ?updateNetParas@mainTab@@QAEXVQString@@PAVWifiNetParas@@@Z 00432590 f   maintab.obj
 0001:00031660       ?updatePowerMode2@mainTab@@QAEXVQString@@EEEE@Z 00432660 f   maintab.obj
 0001:00031740       ?updatePowerMode@mainTab@@QAEXVQString@@EEE@Z 00432740 f   maintab.obj
 0001:00031820       ?updateTCPServer@mainTab@@QAEXVQString@@0H@Z 00432820 f   maintab.obj
 0001:00031910       ?updateWave@mainTab@@QAEXVQString@@PAV?$QVector@N@@@Z 00432910 f   maintab.obj
 0001:000319e0       ??0CMainWindow@@QAE@PAVQWidget@@@Z 004329e0 f   mainwindow.obj
 0001:000339a0       ??0uiElements@@QAE@ABU0@@Z 004349a0 f i mainwindow.obj
 0001:00033af0       ??1?$QForeachContainer@V?$QList@PAVQAction@@@@@QtPrivate@@QAE@XZ 00434af0 f i mainwindow.obj
 0001:00033b50       ??1?$function@$$A6APAVQWidget@@XZ@std@@QAE@XZ 00434b50 f i mainwindow.obj
 0001:00033b80       ??1CMainWindow@@UAE@XZ     00434b80 f   mainwindow.obj
 0001:00033c9a       ??_ECMainWindow@@W7AEPAXI@Z 00434c9a f i mainwindow.obj
 0001:00033ca2       ??_EQDockWidget@@W7AEPAXI@Z 00434ca2 f i mainwindow.obj
 0001:00033caa       ??_EQStatusBar@@W7AEPAXI@Z 00434caa f i mainwindow.obj
 0001:00033cb2       ??_EQTextBrowser@@W7AEPAXI@Z 00434cb2 f i mainwindow.obj
 0001:00033cba       ??_EQTextEdit@@W7AEPAXI@Z  00434cba f i mainwindow.obj
 0001:00033cc2       ??_EQTreeView@@W7AEPAXI@Z  00434cc2 f i mainwindow.obj
 0001:00033cd0       ??_ECMainWindow@@UAEPAXI@Z 00434cd0 f i mainwindow.obj
 0001:00033cd0       ??_GCMainWindow@@UAEPAXI@Z 00434cd0 f i mainwindow.obj
 0001:00033e10       ??_GQDockWidget@@UAEPAXI@Z 00434e10 f i mainwindow.obj
 0001:00033e10       ??_EQDockWidget@@UAEPAXI@Z 00434e10 f i mainwindow.obj
 0001:00033e40       ??_EQSqlTableModel@@UAEPAXI@Z 00434e40 f i mainwindow.obj
 0001:00033e40       ??_GQSqlTableModel@@UAEPAXI@Z 00434e40 f i mainwindow.obj
 0001:00033e70       ??_EQStatusBar@@UAEPAXI@Z  00434e70 f i mainwindow.obj
 0001:00033e70       ??_GQStatusBar@@UAEPAXI@Z  00434e70 f i mainwindow.obj
 0001:00033ea0       ??_EQTextBrowser@@UAEPAXI@Z 00434ea0 f i mainwindow.obj
 0001:00033ea0       ??_GQTextBrowser@@UAEPAXI@Z 00434ea0 f i mainwindow.obj
 0001:00033ed0       ??_GQTextEdit@@UAEPAXI@Z   00434ed0 f i mainwindow.obj
 0001:00033ed0       ??_EQTextEdit@@UAEPAXI@Z   00434ed0 f i mainwindow.obj
 0001:00033f00       ??_GQTreeView@@UAEPAXI@Z   00434f00 f i mainwindow.obj
 0001:00033f00       ??_EQTreeView@@UAEPAXI@Z   00434f00 f i mainwindow.obj
 0001:00033f30       ?FileMenuClicked@CMainWindow@@AAEXVQRect@@@Z 00434f30 f   mainwindow.obj
 0001:00034170       ?changeUIelements@CMainWindow@@AAEXUuiElements@@@Z 00435170 f   mainwindow.obj
 0001:00034ba0       ?closeEvent@CMainWindow@@MAEXPAVQCloseEvent@@@Z 00435ba0 f   mainwindow.obj
 0001:00034bb0       ?createDaq@CMainWindow@@QAEXHVQString@@0@Z 00435bb0 f   mainwindow.obj
 0001:00034de0       ?impl@?$QSlotObject@P8CMainWindow@@AEXUuiElements@@@ZU?$List@UuiElements@@@QtPrivate@@X@QtPrivate@@CAXHPAVQSlotObjectBase@2@PAVQObject@@PAPAXPA_N@Z 00435de0 f i mainwindow.obj
 0001:00034de0       ?impl@?$QSlotObject@P8mainTab@@AEXUuiElements@@@ZU?$List@UuiElements@@@QtPrivate@@X@QtPrivate@@CAXHPAVQSlotObjectBase@2@PAVQObject@@PAPAXPA_N@Z 00435de0 f i mainwindow.obj
 0001:00034e80       ?impl@?$QSlotObject@P8mainTab@@AEXH@ZU?$List@H@QtPrivate@@X@QtPrivate@@CAXHPAVQSlotObjectBase@2@PAVQObject@@PAPAXPA_N@Z 00435e80 f i mainwindow.obj
 0001:00034ef0       ?impl@?$QSlotObject@P8mainTab@@AEX_N@ZU?$List@_N@QtPrivate@@X@QtPrivate@@CAXHPAVQSlotObjectBase@2@PAVQObject@@PAPAXPA_N@Z 00435ef0 f i mainwindow.obj
 0001:00034f60       ?initSql@CMainWindow@@AAEXXZ 00435f60 f   mainwindow.obj
 0001:000360a0       ?on_actionOpen_triggered@CMainWindow@@AAEXXZ 004370a0 f   mainwindow.obj
 0001:000360d0       ?retranslateUi@Ui_MainWindow@@QAEXPAVQMainWindow@@@Z 004370d0 f i mainwindow.obj
 0001:000369d0       ?setupUi@Ui_MainWindow@@QAEXPAVQMainWindow@@@Z 004379d0 f i mainwindow.obj
 0001:00038780       ?tabActionTriggered@CMainWindow@@AAEXXZ 00439780 f   mainwindow.obj
 0001:00038830       ?updateMessage@CMainWindow@@QAEXVQString@@@Z 00439830 f   mainwindow.obj
 0001:000389a0       ??0settingWifiJunyue@@QAE@PAVQWidget@@@Z 004399a0 f   settingwifijunyue.obj
 0001:00038cb0       ??1settingWifiJunyue@@UAE@XZ 00439cb0 f   settingwifijunyue.obj
 0001:00038f20       ??Y?$QList@N@@QAEAAV0@ABV0@@Z 00439f20 f i settingwifijunyue.obj
 0001:0003903d       ??_EQGroupBox@@W7AEPAXI@Z  0043a03d f i settingwifijunyue.obj
 0001:00039045       ??_EsettingWifiJunyue@@W7AEPAXI@Z 0043a045 f i settingwifijunyue.obj
 0001:00039050       ??_GQGroupBox@@UAEPAXI@Z   0043a050 f i settingwifijunyue.obj
 0001:00039050       ??_EQGroupBox@@UAEPAXI@Z   0043a050 f i settingwifijunyue.obj
 0001:00039080       ??_GQRegExpValidator@@UAEPAXI@Z 0043a080 f i settingwifijunyue.obj
 0001:00039080       ??_EQRegExpValidator@@UAEPAXI@Z 0043a080 f i settingwifijunyue.obj
 0001:000390b0       ??_GsettingWifiJunyue@@UAEPAXI@Z 0043a0b0 f i settingwifijunyue.obj
 0001:000390b0       ??_EsettingWifiJunyue@@UAEPAXI@Z 0043a0b0 f i settingwifijunyue.obj
 0001:000390e0       ?changeAPinside@settingWifiJunyue@@AAEXPAVWifiApParas@@@Z 0043a0e0 f   settingwifijunyue.obj
 0001:00039100       ?enabledFac@settingWifiJunyue@@AAEX_N@Z 0043a100 f   settingwifijunyue.obj
 0001:00039130       ?flushDNS@settingWifiJunyue@@QAEXVQString@@@Z 0043a130 f   settingwifijunyue.obj
 0001:00039190       ?keyPressEvent@settingWifiJunyue@@MAEXPAVQKeyEvent@@@Z 0043a190 f   settingwifijunyue.obj
 0001:000391c0       ?on_btnADch1_clicked@settingWifiJunyue@@AAEXXZ 0043a1c0 f   settingwifijunyue.obj
 0001:000391e0       ?on_btnADch2_clicked@settingWifiJunyue@@AAEXXZ 0043a1e0 f   settingwifijunyue.obj
 0001:00039200       ?on_btnADch3_clicked@settingWifiJunyue@@AAEXXZ 0043a200 f   settingwifijunyue.obj
 0001:00039220       ?on_btnADch4_clicked@settingWifiJunyue@@AAEXXZ 0043a220 f   settingwifijunyue.obj
 0001:00039240       ?on_btnADch5_clicked@settingWifiJunyue@@AAEXXZ 0043a240 f   settingwifijunyue.obj
 0001:00039260       ?on_btnADch6_clicked@settingWifiJunyue@@AAEXXZ 0043a260 f   settingwifijunyue.obj
 0001:00039280       ?on_btnADch7_clicked@settingWifiJunyue@@AAEXXZ 0043a280 f   settingwifijunyue.obj
 0001:000392a0       ?on_btnADch8_clicked@settingWifiJunyue@@AAEXXZ 0043a2a0 f   settingwifijunyue.obj
 0001:000392c0       ?on_btnApplyAlert_clicked@settingWifiJunyue@@AAEXXZ 0043a2c0 f   settingwifijunyue.obj
 0001:000394f0       ?on_btnApplyCh_clicked@settingWifiJunyue@@AAEXXZ 0043a4f0 f   settingwifijunyue.obj
 0001:000395d0       ?on_btnApplyDaq_clicked@settingWifiJunyue@@AAEXXZ 0043a5d0 f   settingwifijunyue.obj
 0001:000397a0       ?on_btnApplyNet_clicked@settingWifiJunyue@@AAEXXZ 0043a7a0 f   settingwifijunyue.obj
 0001:00039930       ?on_btnChangeAP_clicked@settingWifiJunyue@@AAEXXZ 0043a930 f   settingwifijunyue.obj
 0001:00039940       ?on_btnChangeSN_clicked@settingWifiJunyue@@AAEXXZ 0043a940 f   settingwifijunyue.obj
 0001:00039970       ?on_btnChangeServer_clicked@settingWifiJunyue@@AAEXXZ 0043a970 f   settingwifijunyue.obj
 0001:00039a00       ?on_btnPrepare_clicked@settingWifiJunyue@@AAEXXZ 0043aa00 f   settingwifijunyue.obj
 0001:00039a20       ?on_btnTempZero_clicked@settingWifiJunyue@@AAEXXZ 0043aa20 f   settingwifijunyue.obj
 0001:00039a40       ?on_btnTemp_clicked@settingWifiJunyue@@AAEXXZ 0043aa40 f   settingwifijunyue.obj
 0001:00039a60       ?on_chkEnableAutoWave_clicked@settingWifiJunyue@@AAEX_N@Z 0043aa60 f   settingwifijunyue.obj
 0001:00039a70       ?on_chkEnableDHCP_stateChanged@settingWifiJunyue@@AAEXH@Z 0043aa70 f   settingwifijunyue.obj
 0001:00039ab0       ?on_chkEnableWWW_clicked@settingWifiJunyue@@AAEX_N@Z 0043aab0 f   settingwifijunyue.obj
 0001:00039b00       ?on_snEdit_editingFinished@settingWifiJunyue@@AAEXXZ 0043ab00 f   settingwifijunyue.obj
 0001:00039be0       ?retranslateUi@Ui_settingWifiJunyue@@QAEXPAVQDialog@@@Z 0043abe0 f i settingwifijunyue.obj
 0001:0003b3c0       ?setChs@settingWifiJunyue@@QAEXHH@Z 0043c3c0 f   settingwifijunyue.obj
 0001:0003b720       ?setSN@settingWifiJunyue@@QAEXVQString@@@Z 0043c720 f   settingwifijunyue.obj
 0001:0003b7d0       ?setupUi@Ui_settingWifiJunyue@@QAEXPAVQDialog@@@Z 0043c7d0 f i settingwifijunyue.obj
 0001:00042330       ?updateAPName@settingWifiJunyue@@QAEXPAVWifiApParas@@@Z 00443330 f   settingwifijunyue.obj
 0001:00042350       ?updateAPName@settingWifiJunyue@@QAEXVQString@@@Z 00443350 f   settingwifijunyue.obj
 0001:000423b0       ?updateAlertTimeSpan@settingWifiJunyue@@QAEXHH@Z 004433b0 f   settingwifijunyue.obj
 0001:00042400       ?updateAlertValuesJunyue@settingWifiJunyue@@QAEXV?$QList@M@@@Z 00443400 f   settingwifijunyue.obj
 0001:000426a0       ?updateAutoSpanFromWs@settingWifiJunyue@@QAEXH@Z 004436a0 f   settingwifijunyue.obj
 0001:000426e0       ?updateChParas@settingWifiJunyue@@QAEXPAVWifiChParas@@@Z 004436e0 f   settingwifijunyue.obj
 0001:000427d0       ?updateChStatus@settingWifiJunyue@@QAEXG@Z 004437d0 f   settingwifijunyue.obj
 0001:00042870       ?updateChannelFSFromWs@settingWifiJunyue@@QAEXV?$QList@N@@@Z 00443870 f   settingwifijunyue.obj
 0001:000429a0       ?updateFS@settingWifiJunyue@@QAEXPAVWifiFsParas@@@Z 004439a0 f   settingwifijunyue.obj
 0001:00042ae0       ?updateFsMode@settingWifiJunyue@@QAEXH@Z 00443ae0 f   settingwifijunyue.obj
 0001:00042b00       ?updateHeartSpan@settingWifiJunyue@@QAEXH_N@Z 00443b00 f   settingwifijunyue.obj
 0001:00042b30       ?updateNet@settingWifiJunyue@@QAEXPAVWifiNetParas@@@Z 00443b30 f   settingwifijunyue.obj
 0001:00042bd0       ?updatePowerMode2@settingWifiJunyue@@QAEXEEEE@Z 00443bd0 f   settingwifijunyue.obj
 0001:00042c30       ?updatePowerMode@settingWifiJunyue@@QAEXEEE@Z 00443c30 f   settingwifijunyue.obj
 0001:00042c80       ?updateTCPserver@settingWifiJunyue@@QAEXVQString@@H0@Z 00443c80 f   settingwifijunyue.obj
 0001:00042d00       ?updateTCPserver@settingWifiJunyue@@QAEXVQString@@H@Z 00443d00 f   settingwifijunyue.obj
 0001:00042d70       ??0tcpClient@@QAE@PAVQObject@@@Z 00443d70 f   tcpclient.obj
 0001:00042f50       ??_GtcpClient@@UAEPAXI@Z   00443f50 f i tcpclient.obj
 0001:00042f50       ??_EtcpClient@@UAEPAXI@Z   00443f50 f i tcpclient.obj
 0001:00043050       ?characterForHttp@tcpClient@@QAEXVQString@@0HPANH@Z 00444050 f   tcpclient.obj
 0001:00043530       ?characterForTCP@tcpClient@@QAEXVQString@@0V?$QList@E@@V?$QList@H@@1V?$QList@M@@_K@Z 00444530 f   tcpclient.obj
 0001:00043f50       ?characterForTCP@tcpClient@@QAEXVQString@@V?$QList@E@@V?$QList@H@@1V?$QList@M@@_K@Z 00444f50 f   tcpclient.obj
 0001:00044840       ?charactersJunyue@tcpClient@@QAEXVQString@@0V?$QList@M@@V?$QList@_N@@@Z 00445840 f   tcpclient.obj
 0001:00044cb0       ?setServer@tcpClient@@QAEXVQString@@HH@Z 00445cb0 f   tcpclient.obj
 0001:00044cf0       ?setUpHttpServer@tcpClient@@QAEXVQString@@H@Z 00445cf0 f   tcpclient.obj
 0001:00044d20       ?setUpTcpServer@tcpClient@@QAEXVQString@@H@Z 00445d20 f   tcpclient.obj
 0001:00044d50       ?statusStop@tcpClient@@QAEXXZ 00445d50 f   tcpclient.obj
 0001:00044d60       ?tempForHttp@tcpClient@@QAEXVQString@@NN@Z 00445d60 f   tcpclient.obj
 0001:00044d90       ?updateCharacter@tcpClient@@QAEXVQString@@H_KV?$QList@N@@V?$QList@H@@@Z 00445d90 f   tcpclient.obj
 0001:000455d0       ?waveForHttp@tcpClient@@QAEXVQString@@0HPANH@Z 004465d0 f   tcpclient.obj
 0001:00045bb0       ?waveJunyue@tcpClient@@QAEXVQString@@VQByteArray@@HPAV?$QVector@N@@@Z 00446bb0 f   tcpclient.obj
 0001:000462c0       ??0wsClient@@QAE@PAVQObject@@@Z 004472c0 f   wsclient.obj
 0001:000462f0       ??_GQWebSocket@@UAEPAXI@Z  004472f0 f i wsclient.obj
 0001:000462f0       ??_EQWebSocket@@UAEPAXI@Z  004472f0 f i wsclient.obj
 0001:00046320       ??_EwsClient@@UAEPAXI@Z    00447320 f i wsclient.obj
 0001:00046320       ??_GwsClient@@UAEPAXI@Z    00447320 f i wsclient.obj
 0001:000463c0       ?detach_helper@?$QList@N@@AAEXH@Z 004473c0 f i wsclient.obj
 0001:00046480       ?impl@?$QSlotObject@P8wsClient@@AEXW4SocketState@QAbstractSocket@@@ZU?$List@W4SocketState@QAbstractSocket@@@QtPrivate@@X@QtPrivate@@CAXHPAVQSlotObjectBase@2@PAVQObject@@PAPAXPA_N@Z 00447480 f i wsclient.obj
 0001:000464e0       ?readingData@wsClient@@QAEXVQString@@@Z 004474e0 f   wsclient.obj
 0001:000468e0       ?removeFirst@?$QList@N@@QAEXXZ 004478e0 f i wsclient.obj
 0001:00046970       ?sendingData@wsClient@@QAEXVQString@@@Z 00447970 f   wsclient.obj
 0001:000469e0       ?sockStateChange@wsClient@@QAEXW4SocketState@QAbstractSocket@@@Z 004479e0 f   wsclient.obj
 0001:00046a10       ?startWs@wsClient@@QAEXVQString@@@Z 00447a10 f   wsclient.obj
 0001:00046c80       ?statusOff@wsClient@@QAEXXZ 00447c80 f   wsclient.obj
 0001:00046c90       ?statusOn@wsClient@@QAEXXZ 00447c90 f   wsclient.obj
 0001:00046ca0       ?qt_static_metacall@mySave@@CAXPAVQObject@@W4Call@QMetaObject@@HPAPAX@Z 00447ca0 f   moc_mysave.obj
 0001:00046e60       ?metaObject@MySocket@@UBEPBUQMetaObject@@XZ 00447e60 f   moc_mysocket.obj
 0001:00046e80       ?qt_metacall@MySocket@@UAEHW4Call@QMetaObject@@HPAPAX@Z 00447e80 f   moc_mysocket.obj
 0001:00046ee0       ?qt_metacast@MySocket@@UAEPAXPBD@Z 00447ee0 f   moc_mysocket.obj
 0001:00046f40       ?qt_static_metacall@MySocket@@CAXPAVQObject@@W4Call@QMetaObject@@HPAPAX@Z 00447f40 f   moc_mysocket.obj
 0001:00047000       ?revData@MySocket@@QAEXVQString@@VQByteArray@@@Z 00448000 f   moc_mysocket.obj
 0001:00047090       ?qt_static_metacall@saveDataThread@@CAXPAVQObject@@W4Call@QMetaObject@@HPAPAX@Z 00448090 f   moc_savedatathread.obj
 0001:000470e0       ?startOK@saveDataThread@@QAEXXZ 004480e0 f   moc_savedatathread.obj
 0001:00047100       ?characterForHttp@tcpDataAnalysis@@QAEXVQString@@0HPANH@Z 00448100 f   moc_tcpdataanalysis.obj
 0001:000471a0       ?createWidget@tcpDataAnalysis@@QAEXHVQString@@0@Z 004481a0 f   moc_tcpdataanalysis.obj
 0001:00047230       ?dataInfo@tcpDataAnalysis@@QAEXVQString@@@Z 00448230 f   moc_tcpdataanalysis.obj
 0001:000472a0       ?metaObject@tcpDataAnalysis@@UBEPBUQMetaObject@@XZ 004482a0 f   moc_tcpdataanalysis.obj
 0001:000472c0       ?noResponse@tcpDataAnalysis@@QAEXXZ 004482c0 f   moc_tcpdataanalysis.obj
 0001:000472e0       ?qt_metacall@tcpDataAnalysis@@UAEHW4Call@QMetaObject@@HPAPAX@Z 004482e0 f   moc_tcpdataanalysis.obj
 0001:00047330       ?qt_metacast@tcpDataAnalysis@@UAEPAXPBD@Z 00448330 f   moc_tcpdataanalysis.obj
 0001:00047390       ?qt_metatype_id@?$QMetaTypeId2@PAVWifiApParas@@@@SAHXZ 00448390 f i moc_tcpdataanalysis.obj
 0001:000474b0       ?qt_metatype_id@?$QMetaTypeId2@PAVWifiNetParas@@@@SAHXZ 004484b0 f i moc_tcpdataanalysis.obj
 0001:000475d0       ?qt_static_metacall@tcpDataAnalysis@@CAXPAVQObject@@W4Call@QMetaObject@@HPAPAX@Z 004485d0 f   moc_tcpdataanalysis.obj
 0001:000486e0       ?readyForRead@tcpDataAnalysis@@QAEXH@Z 004496e0 f   moc_tcpdataanalysis.obj
 0001:00048710       ?readyForsendFirmware@tcpDataAnalysis@@QAEXXZ 00449710 f   moc_tcpdataanalysis.obj
 0001:00048730       ?saveErrorData@tcpDataAnalysis@@QAEXVQString@@0EH@Z 00449730 f   moc_tcpdataanalysis.obj
 0001:000487c0       ?sendOver2@tcpDataAnalysis@@QAEXXZ 004497c0 f   moc_tcpdataanalysis.obj
 0001:000487e0       ?sendOver@tcpDataAnalysis@@QAEXVQString@@@Z 004497e0 f   moc_tcpdataanalysis.obj
 0001:00048850       ?stopUpdate@tcpDataAnalysis@@QAEXXZ 00449850 f   moc_tcpdataanalysis.obj
 0001:00048870       ?tempForHttp@tcpDataAnalysis@@QAEXVQString@@NN@Z 00449870 f   moc_tcpdataanalysis.obj
 0001:00048900       ?updateAPdata@tcpDataAnalysis@@QAEXVQString@@PAVWifiApParas@@@Z 00449900 f   moc_tcpdataanalysis.obj
 0001:00048990       ?updateAlertData@tcpDataAnalysis@@QAEXVQString@@PAMH@Z 00449990 f   moc_tcpdataanalysis.obj
 0001:00048a20       ?updateAlertJunyue@tcpDataAnalysis@@QAEXVQString@@V?$QList@M@@@Z 00449a20 f   moc_tcpdataanalysis.obj
 0001:00048ad0       ?updateAlertRule@tcpDataAnalysis@@QAEXVQString@@HVQByteArray@@@Z 00449ad0 f   moc_tcpdataanalysis.obj
 0001:00048b60       ?updateAlertRuleFitness@tcpDataAnalysis@@QAEXVQString@@VQByteArray@@@Z 00449b60 f   moc_tcpdataanalysis.obj
 0001:00048bf0       ?updateAlertStatus@tcpDataAnalysis@@QAEXVQString@@H@Z 00449bf0 f   moc_tcpdataanalysis.obj
 0001:00048c70       ?updateAlertTimeSpan@tcpDataAnalysis@@QAEXVQString@@HH@Z 00449c70 f   moc_tcpdataanalysis.obj
 0001:00048d00       ?updateAutoWave2@tcpDataAnalysis@@QAEXVQString@@VQByteArray@@HPAV?$QVector@N@@@Z 00449d00 f   moc_tcpdataanalysis.obj
 0001:00048da0       ?updateAutoWave@tcpDataAnalysis@@QAEXVQString@@HPAV?$QVector@N@@@Z 00449da0 f   moc_tcpdataanalysis.obj
 0001:00048e30       ?updateChParas@tcpDataAnalysis@@QAEXVQString@@PAVWifiChParas@@@Z 00449e30 f   moc_tcpdataanalysis.obj
 0001:00048ec0       ?updateChStatus@tcpDataAnalysis@@QAEXVQString@@G@Z 00449ec0 f   moc_tcpdataanalysis.obj
 0001:00048f40       ?updateCharactersJunyue@tcpDataAnalysis@@QAEXVQString@@0V?$QList@M@@V?$QList@_N@@@Z 00449f40 f   moc_tcpdataanalysis.obj
 0001:00049040       ?updateComplete@tcpDataAnalysis@@QAEXVQString@@_N@Z 0044a040 f   moc_tcpdataanalysis.obj
 0001:000490c0       ?updateCurrentFirmwareVer@tcpDataAnalysis@@QAEXVQString@@0@Z 0044a0c0 f   moc_tcpdataanalysis.obj
 0001:00049150       ?updateCurrentFreqValue@tcpDataAnalysis@@QAEXVQString@@PAV?$QList@PAVvirbValue@@@@@Z 0044a150 f   moc_tcpdataanalysis.obj
 0001:000491e0       ?updateCurrentTemperature@tcpDataAnalysis@@QAEXVQString@@PANH@Z 0044a1e0 f   moc_tcpdataanalysis.obj
 0001:00049270       ?updateCurrentVValue@tcpDataAnalysis@@QAEXVQString@@PAV?$QList@PAVvirbValue@@@@@Z 0044a270 f   moc_tcpdataanalysis.obj
 0001:00049300       ?updateErrorData@tcpDataAnalysis@@QAEXVQString@@@Z 0044a300 f   moc_tcpdataanalysis.obj
 0001:00049370       ?updateFFT@tcpDataAnalysis@@QAEXVQString@@PAV?$QVector@N@@@Z 0044a370 f   moc_tcpdataanalysis.obj
 0001:00049400       ?updateFsMode@tcpDataAnalysis@@QAEXVQString@@H@Z 0044a400 f   moc_tcpdataanalysis.obj
 0001:00049480       ?updateFsParas@tcpDataAnalysis@@QAEXVQString@@PAVWifiFsParas@@@Z 0044a480 f   moc_tcpdataanalysis.obj
 0001:00049510       ?updateModbusTemp@tcpDataAnalysis@@QAEXVQString@@N@Z 0044a510 f   moc_tcpdataanalysis.obj
 0001:00049590       ?updateModbusValue@tcpDataAnalysis@@QAEXVQString@@N@Z 0044a590 f   moc_tcpdataanalysis.obj
 0001:00049610       ?updateNetParas@tcpDataAnalysis@@QAEXVQString@@PAVWifiNetParas@@@Z 0044a610 f   moc_tcpdataanalysis.obj
 0001:000496a0       ?updatePowerMode@tcpDataAnalysis@@QAEXVQString@@EEE@Z 0044a6a0 f   moc_tcpdataanalysis.obj
 0001:00049730       ?updatePowerMode@tcpDataAnalysis@@QAEXVQString@@EEEE@Z 0044a730 f   moc_tcpdataanalysis.obj
 0001:000497c0       ?updateSingleWave@tcpDataAnalysis@@QAEXVQString@@HPAV?$QVector@N@@@Z 0044a7c0 f   moc_tcpdataanalysis.obj
 0001:00049850       ?updateSqlTemp@tcpDataAnalysis@@QAEXVQString@@N@Z 0044a850 f   moc_tcpdataanalysis.obj
 0001:000498d0       ?updateTCPServer@tcpDataAnalysis@@QAEXVQString@@0H@Z 0044a8d0 f   moc_tcpdataanalysis.obj
 0001:00049960       ?updateWave@tcpDataAnalysis@@QAEXVQString@@PAV?$QVector@N@@@Z 0044a960 f   moc_tcpdataanalysis.obj
 0001:000499f0       ?updateWoliu@tcpDataAnalysis@@QAEXVQString@@PAV?$QVector@N@@0HD@Z 0044a9f0 f   moc_tcpdataanalysis.obj
 0001:00049a90       ?updatevirb@tcpDataAnalysis@@QAEXVQString@@0EHPAN@Z 0044aa90 f   moc_tcpdataanalysis.obj
 0001:00049b30       ?waveForHttp@tcpDataAnalysis@@QAEXVQString@@0HPANH@Z 0044ab30 f   moc_tcpdataanalysis.obj
 0001:00049bd0       ?aboutToStart@tcpServer@@QAEXVQString@@_N@Z 0044abd0 f   moc_tcpserver.obj
 0001:00049c50       ?adcAdjust@tcpServer@@QAEXVQString@@H@Z 0044ac50 f   moc_tcpserver.obj
 0001:00049cd0       ?applyNet@tcpServer@@QAEXVQString@@@Z 0044acd0 f   moc_tcpserver.obj
 0001:00049d40       ?changeAP@tcpServer@@QAEXVQString@@PAVWifiApParas@@@Z 0044ad40 f   moc_tcpserver.obj
 0001:00049dd0       ?changeChStatus@tcpServer@@QAEXVQString@@G@Z 0044add0 f   moc_tcpserver.obj
 0001:00049e50       ?changeFsMode@tcpServer@@QAEXVQString@@H@Z 0044ae50 f   moc_tcpserver.obj
 0001:00049ed0       ?changeNetParas@tcpServer@@QAEXVQString@@PAVWifiNetParas@@@Z 0044aed0 f   moc_tcpserver.obj
 0001:00049f60       ?changeSN@tcpServer@@QAEXVQString@@0@Z 0044af60 f   moc_tcpserver.obj
 0001:00049ff0       ?changeTCPServer1@tcpServer@@QAEXVQString@@H@Z 0044aff0 f   moc_tcpserver.obj
 0001:0004a070       ?changeTCPServer@tcpServer@@QAEXVQString@@0H0@Z 0044b070 f   moc_tcpserver.obj
 0001:0004a110       ?delDaq@tcpServer@@QAEXVQString@@@Z 0044b110 f   moc_tcpserver.obj
 0001:0004a180       ?delDevice@tcpServer@@QAEXVQString@@@Z 0044b180 f   moc_tcpserver.obj
 0001:0004a1f0       ?metaObject@tcpServer@@UBEPBUQMetaObject@@XZ 0044b1f0 f   moc_tcpserver.obj
 0001:0004a210       ?qt_metacall@tcpServer@@UAEHW4Call@QMetaObject@@HPAPAX@Z 0044b210 f   moc_tcpserver.obj
 0001:0004a260       ?qt_metacast@tcpServer@@UAEPAXPBD@Z 0044b260 f   moc_tcpserver.obj
 0001:0004a2c0       ?qt_static_metacall@tcpServer@@CAXPAVQObject@@W4Call@QMetaObject@@HPAPAX@Z 0044b2c0 f   moc_tcpserver.obj
 0001:0004b6f0       ?saveErrorData@tcpServer@@QAEXVQString@@0EH@Z 0044c6f0 f   moc_tcpserver.obj
 0001:0004b780       ?sendCommands@tcpServer@@QAEXVQString@@VQStringList@@V?$QList@VQVariant@@@@@Z 0044c780 f   moc_tcpserver.obj
 0001:0004b860       ?setHeartSpan@tcpServer@@QAEXVQString@@H_N@Z 0044c860 f   moc_tcpserver.obj
 0001:0004b8f0       ?setPowerMode@tcpServer@@QAEXVQString@@EEEE@Z 0044c8f0 f   moc_tcpserver.obj
 0001:0004b980       ?setSave@tcpServer@@QAEXVQString@@_N@Z 0044c980 f   moc_tcpserver.obj
 0001:0004ba00       ?startResult@tcpServer@@QAEX_N@Z 0044ca00 f   moc_tcpserver.obj
 0001:0004ba30       ?stopAll@tcpServer@@QAEXXZ 0044ca30 f   moc_tcpserver.obj
 0001:0004ba50       ?tempGainAdjust@tcpServer@@QAEXVQString@@@Z 0044ca50 f   moc_tcpserver.obj
 0001:0004bac0       ?tempZeroAdjust@tcpServer@@QAEXVQString@@@Z 0044cac0 f   moc_tcpserver.obj
 0001:0004bb30       ?updateAPdata@tcpServer@@QAEXVQString@@PAVWifiApParas@@@Z 0044cb30 f   moc_tcpserver.obj
 0001:0004bbc0       ?updateAlertData@tcpServer@@QAEXVQString@@PAMH@Z 0044cbc0 f   moc_tcpserver.obj
 0001:0004bc50       ?updateAlertJunyue@tcpServer@@QAEXVQString@@V?$QList@M@@@Z 0044cc50 f   moc_tcpserver.obj
 0001:0004bd00       ?updateAlertStatus@tcpServer@@QAEXVQString@@H@Z 0044cd00 f   moc_tcpserver.obj
 0001:0004bd80       ?updateAlertTimeSpan@tcpServer@@QAEXVQString@@HH@Z 0044cd80 f   moc_tcpserver.obj
 0001:0004be10       ?updateAutoWave2@tcpServer@@QAEXVQString@@VQByteArray@@HPAV?$QVector@N@@@Z 0044ce10 f   moc_tcpserver.obj
 0001:0004beb0       ?updateAutoWave@tcpServer@@QAEXVQString@@HPAV?$QVector@N@@@Z 0044ceb0 f   moc_tcpserver.obj
 0001:0004bf40       ?updateChParas@tcpServer@@QAEXVQString@@PAVWifiChParas@@@Z 0044cf40 f   moc_tcpserver.obj
 0001:0004bfd0       ?updateChStatus@tcpServer@@QAEXVQString@@G@Z 0044cfd0 f   moc_tcpserver.obj
 0001:0004c050       ?updateCharactersJunyue@tcpServer@@QAEXVQString@@0V?$QList@M@@V?$QList@_N@@@Z 0044d050 f   moc_tcpserver.obj
 0001:0004c150       ?updateCurrentFirmwareVer@tcpServer@@QAEXVQString@@0@Z 0044d150 f   moc_tcpserver.obj
 0001:0004c1e0       ?updateCurrentTemperature@tcpServer@@QAEXVQString@@PANH@Z 0044d1e0 f   moc_tcpserver.obj
 0001:0004c270       ?updateCurrentVValue@tcpServer@@QAEXVQString@@PAV?$QList@PAVvirbValue@@@@@Z 0044d270 f   moc_tcpserver.obj
 0001:0004c300       ?updateDeviceInfo@tcpServer@@QAEXHVQString@@0@Z 0044d300 f   moc_tcpserver.obj
 0001:0004c390       ?updateDeviceStatus@tcpServer@@QAEXHVQString@@@Z 0044d390 f   moc_tcpserver.obj
 0001:0004c410       ?updateFFT@tcpServer@@QAEXVQString@@PAV?$QVector@N@@@Z 0044d410 f   moc_tcpserver.obj
 0001:0004c4a0       ?updateFsMode@tcpServer@@QAEXVQString@@H@Z 0044d4a0 f   moc_tcpserver.obj
 0001:0004c520       ?updateFsParas@tcpServer@@QAEXVQString@@PAVWifiFsParas@@@Z 0044d520 f   moc_tcpserver.obj
 0001:0004c5b0       ?updateMessage@tcpServer@@QAEXVQString@@@Z 0044d5b0 f   moc_tcpserver.obj
 0001:0004c620       ?updateModbusTemp@tcpServer@@QAEXVQString@@N@Z 0044d620 f   moc_tcpserver.obj
 0001:0004c6a0       ?updateModbusValue@tcpServer@@QAEXVQString@@N@Z 0044d6a0 f   moc_tcpserver.obj
 0001:0004c720       ?updateNetParas@tcpServer@@QAEXVQString@@PAVWifiNetParas@@@Z 0044d720 f   moc_tcpserver.obj
 0001:0004c7b0       ?updatePowerMode2@tcpServer@@QAEXVQString@@EEEE@Z 0044d7b0 f   moc_tcpserver.obj
 0001:0004c840       ?updatePowerMode@tcpServer@@QAEXVQString@@EEE@Z 0044d840 f   moc_tcpserver.obj
 0001:0004c8d0       ?updateSingleWave@tcpServer@@QAEXVQString@@HPAV?$QVector@N@@@Z 0044d8d0 f   moc_tcpserver.obj
 0001:0004c960       ?updateTCPServer@tcpServer@@QAEXVQString@@0H@Z 0044d960 f   moc_tcpserver.obj
 0001:0004c9f0       ?updateWave@tcpServer@@QAEXVQString@@PAV?$QVector@N@@@Z 0044d9f0 f   moc_tcpserver.obj
 0001:0004ca80       ?widgetReady@tcpServer@@QAEXVQString@@@Z 0044da80 f   moc_tcpserver.obj
 0001:0004caf0       ?aboutTosendCommand@tcpServerThread@@QAEXVQString@@@Z 0044daf0 f   moc_tcpserverthread.obj
 0001:0004cb60       ?addressReady@tcpServerThread@@QAEXVQString@@@Z 0044db60 f   moc_tcpserverthread.obj
 0001:0004cbd0       ?commandSent@tcpServerThread@@QAEXVQStringList@@@Z 0044dbd0 f   moc_tcpserverthread.obj
 0001:0004cc40       ?connInfo@tcpServerThread@@QAEXHVQString@@@Z 0044dc40 f   moc_tcpserverthread.obj
 0001:0004ccc0       ?createWidget@tcpServerThread@@QAEXHVQString@@0@Z 0044dcc0 f   moc_tcpserverthread.obj
 0001:0004cd50       ?disconnInfo@tcpServerThread@@QAEXHVQString@@@Z 0044dd50 f   moc_tcpserverthread.obj
 0001:0004cdd0       ?disconnectTCP@tcpServerThread@@QAEXH@Z 0044ddd0 f   moc_tcpserverthread.obj
 0001:0004ce00       ?errerInfo@tcpServerThread@@QAEXVQString@@@Z 0044de00 f   moc_tcpserverthread.obj
 0001:0004ce70       ?metaObject@tcpServerThread@@UBEPBUQMetaObject@@XZ 0044de70 f   moc_tcpserverthread.obj
 0001:0004ce90       ?qt_metacall@tcpServerThread@@UAEHW4Call@QMetaObject@@HPAPAX@Z 0044de90 f   moc_tcpserverthread.obj
 0001:0004cee0       ?qt_metacast@tcpServerThread@@UAEPAXPBD@Z 0044dee0 f   moc_tcpserverthread.obj
 0001:0004cf40       ?qt_static_metacall@tcpServerThread@@CAXPAVQObject@@W4Call@QMetaObject@@HPAPAX@Z 0044df40 f   moc_tcpserverthread.obj
 0001:0004e7c0       ?reset30@tcpServerThread@@QAEXH@Z 0044f7c0 f   moc_tcpserverthread.obj
 0001:0004e7f0       ?revData@tcpServerThread@@QAEXVQString@@VQByteArray@@@Z 0044f7f0 f   moc_tcpserverthread.obj
 0001:0004e880       ?saveErrorData@tcpServerThread@@QAEXVQString@@0EH@Z 0044f880 f   moc_tcpserverthread.obj
 0001:0004e910       ?sendDat@tcpServerThread@@QAEXVQByteArray@@H@Z 0044f910 f   moc_tcpserverthread.obj
 0001:0004e990       ?setSave@tcpServerThread@@QAEXVQString@@_N@Z 0044f990 f   moc_tcpserverthread.obj
 0001:0004ea10       ?stopSocket@tcpServerThread@@QAEXXZ 0044fa10 f   moc_tcpserverthread.obj
 0001:0004ea30       ?updateAPdata@tcpServerThread@@QAEXVQString@@PAVWifiApParas@@@Z 0044fa30 f   moc_tcpserverthread.obj
 0001:0004eac0       ?updateAlertData@tcpServerThread@@QAEXVQString@@PAMH@Z 0044fac0 f   moc_tcpserverthread.obj
 0001:0004eb50       ?updateAlertJunyue@tcpServerThread@@QAEXVQString@@V?$QList@M@@@Z 0044fb50 f   moc_tcpserverthread.obj
 0001:0004ec00       ?updateAlertRule@tcpServerThread@@QAEXVQString@@HVQByteArray@@@Z 0044fc00 f   moc_tcpserverthread.obj
 0001:0004ec90       ?updateAlertRuleFitness@tcpServerThread@@QAEXVQString@@VQByteArray@@@Z 0044fc90 f   moc_tcpserverthread.obj
 0001:0004ed20       ?updateAlertStatus@tcpServerThread@@QAEXVQString@@H@Z 0044fd20 f   moc_tcpserverthread.obj
 0001:0004eda0       ?updateAlertTimeSpan@tcpServerThread@@QAEXVQString@@HH@Z 0044fda0 f   moc_tcpserverthread.obj
 0001:0004ee30       ?updateAutoWave2@tcpServerThread@@QAEXVQString@@VQByteArray@@HPAV?$QVector@N@@@Z 0044fe30 f   moc_tcpserverthread.obj
 0001:0004eed0       ?updateAutoWave@tcpServerThread@@QAEXVQString@@HPAV?$QVector@N@@@Z 0044fed0 f   moc_tcpserverthread.obj
 0001:0004ef60       ?updateChParas@tcpServerThread@@QAEXVQString@@PAVWifiChParas@@@Z 0044ff60 f   moc_tcpserverthread.obj
 0001:0004eff0       ?updateChStatus@tcpServerThread@@QAEXVQString@@G@Z 0044fff0 f   moc_tcpserverthread.obj
 0001:0004f070       ?updateCharactersJunyue@tcpServerThread@@QAEXVQString@@0V?$QList@M@@V?$QList@_N@@@Z 00450070 f   moc_tcpserverthread.obj
 0001:0004f170       ?updateCurrentFirmwareVer@tcpServerThread@@QAEXVQString@@0@Z 00450170 f   moc_tcpserverthread.obj
 0001:0004f200       ?updateCurrentFreqValue@tcpServerThread@@QAEXVQString@@PAV?$QList@PAVvirbValue@@@@@Z 00450200 f   moc_tcpserverthread.obj
 0001:0004f290       ?updateCurrentTemperature@tcpServerThread@@QAEXVQString@@PANH@Z 00450290 f   moc_tcpserverthread.obj
 0001:0004f320       ?updateCurrentVValue@tcpServerThread@@QAEXVQString@@PAV?$QList@PAVvirbValue@@@@@Z 00450320 f   moc_tcpserverthread.obj
 0001:0004f3b0       ?updateFFT@tcpServerThread@@QAEXVQString@@PAV?$QVector@N@@@Z 004503b0 f   moc_tcpserverthread.obj
 0001:0004f440       ?updateFsMode@tcpServerThread@@QAEXVQString@@H@Z 00450440 f   moc_tcpserverthread.obj
 0001:0004f4c0       ?updateFsParas@tcpServerThread@@QAEXVQString@@PAVWifiFsParas@@@Z 004504c0 f   moc_tcpserverthread.obj
 0001:0004f550       ?updateNetParas@tcpServerThread@@QAEXVQString@@PAVWifiNetParas@@@Z 00450550 f   moc_tcpserverthread.obj
 0001:0004f5e0       ?updatePowerMode@tcpServerThread@@QAEXVQString@@EEE@Z 004505e0 f   moc_tcpserverthread.obj
 0001:0004f670       ?updatePowerMode@tcpServerThread@@QAEXVQString@@EEEE@Z 00450670 f   moc_tcpserverthread.obj
 0001:0004f700       ?updateSingleWave@tcpServerThread@@QAEXVQString@@HPAV?$QVector@N@@@Z 00450700 f   moc_tcpserverthread.obj
 0001:0004f790       ?updateStatus@tcpServerThread@@QAEXVQString@@HH@Z 00450790 f   moc_tcpserverthread.obj
 0001:0004f820       ?updateTCPServer@tcpServerThread@@QAEXVQString@@0H@Z 00450820 f   moc_tcpserverthread.obj
 0001:0004f8b0       ?updateUpdateResult@tcpServerThread@@QAEXVQString@@_N@Z 004508b0 f   moc_tcpserverthread.obj
 0001:0004f930       ?updateWave@tcpServerThread@@QAEXVQString@@PAMH@Z 00450930 f   moc_tcpserverthread.obj
 0001:0004f9c0       ?updateWave@tcpServerThread@@QAEXVQString@@PAV?$QVector@N@@@Z 004509c0 f   moc_tcpserverthread.obj
 0001:0004fa50       ?updatevirb@tcpServerThread@@QAEXVQString@@0EHPAN@Z 00450a50 f   moc_tcpserverthread.obj
 0001:0004faf0       ?metaObject@WifiApParas@@UBEPBUQMetaObject@@XZ 00450af0 f   moc_wifiapparas.obj
 0001:0004fb10       ?qt_metacall@netParas@@UAEHW4Call@QMetaObject@@HPAPAX@Z 00450b10 f   moc_structs.obj
 0001:0004fb10       ?qt_metacall@WifiFsParas@@UAEHW4Call@QMetaObject@@HPAPAX@Z 00450b10 f   moc_wififsparas.obj
 0001:0004fb10       ?qt_metacall@WifiNetParas@@UAEHW4Call@QMetaObject@@HPAPAX@Z 00450b10 f   moc_wifinetparas.obj
 0001:0004fb10       ?qt_metacall@WifiChParas@@UAEHW4Call@QMetaObject@@HPAPAX@Z 00450b10 f   moc_wifichparas.obj
 0001:0004fb10       ?qt_metacall@WifiApParas@@UAEHW4Call@QMetaObject@@HPAPAX@Z 00450b10 f   moc_wifiapparas.obj
 0001:0004fb20       ?qt_metacast@WifiApParas@@UAEPAXPBD@Z 00450b20 f   moc_wifiapparas.obj
 0001:0004fb80       ?metaObject@WifiChParas@@UBEPBUQMetaObject@@XZ 00450b80 f   moc_wifichparas.obj
 0001:0004fba0       ?qt_metacast@WifiChParas@@UAEPAXPBD@Z 00450ba0 f   moc_wifichparas.obj
 0001:0004fc00       ?metaObject@WifiFsParas@@UBEPBUQMetaObject@@XZ 00450c00 f   moc_wififsparas.obj
 0001:0004fc20       ?qt_metacast@WifiFsParas@@UAEPAXPBD@Z 00450c20 f   moc_wififsparas.obj
 0001:0004fc80       ?metaObject@WifiNetParas@@UBEPBUQMetaObject@@XZ 00450c80 f   moc_wifinetparas.obj
 0001:0004fca0       ?qt_metacast@WifiNetParas@@UAEPAXPBD@Z 00450ca0 f   moc_wifinetparas.obj
 0001:0004fd00       ?metaObject@alertChJunyue@@UBEPBUQMetaObject@@XZ 00450d00 f   moc_alertchjunyue.obj
 0001:0004fd20       ?qt_metacall@chControlAFD@@UAEHW4Call@QMetaObject@@HPAPAX@Z 00450d20 f   moc_chcontrolafd.obj
 0001:0004fd20       ?qt_metacall@alertChJunyue@@UAEHW4Call@QMetaObject@@HPAPAX@Z 00450d20 f   moc_alertchjunyue.obj
 0001:0004fd30       ?qt_metacast@alertChJunyue@@UAEPAXPBD@Z 00450d30 f   moc_alertchjunyue.obj
 0001:0004fd90       ?changeAP@apDialog@@QAEXPAVWifiApParas@@@Z 00450d90 f   moc_apdialog.obj
 0001:0004fdc0       ?metaObject@apDialog@@UBEPBUQMetaObject@@XZ 00450dc0 f   moc_apdialog.obj
 0001:0004fde0       ?qt_metacall@apDialog@@UAEHW4Call@QMetaObject@@HPAPAX@Z 00450de0 f   moc_apdialog.obj
 0001:0004fe30       ?qt_metacast@apDialog@@UAEPAXPBD@Z 00450e30 f   moc_apdialog.obj
 0001:0004fe90       ?qt_static_metacall@apDialog@@CAXPAVQObject@@W4Call@QMetaObject@@HPAPAX@Z 00450e90 f   moc_apdialog.obj
 0001:0004ff60       ?closeChild@baseForm2@@QAEXHVQString@@@Z 00450f60 f   moc_baseform2.obj
 0001:0004ffe0       ?metaObject@baseForm2@@UBEPBUQMetaObject@@XZ 00450fe0 f   moc_baseform2.obj
 0001:00050000       ?qt_metacall@baseForm2@@UAEHW4Call@QMetaObject@@HPAPAX@Z 00451000 f   moc_baseform2.obj
 0001:00050060       ?qt_metacast@baseForm2@@UAEPAXPBD@Z 00451060 f   moc_baseform2.obj
 0001:000500c0       ?qt_static_metacall@baseForm2@@CAXPAVQObject@@W4Call@QMetaObject@@HPAPAX@Z 004510c0 f   moc_baseform2.obj
 0001:000501b0       ?changeLabelJunyue@characterForm@@QAEXVQString@@00@Z 004511b0 f   moc_characterform.obj
 0001:00050250       ?metaObject@characterForm@@UBEPBUQMetaObject@@XZ 00451250 f   moc_characterform.obj
 0001:00050270       ?qt_metacall@characterForm@@UAEHW4Call@QMetaObject@@HPAPAX@Z 00451270 f   moc_characterform.obj
 0001:000502c0       ?qt_metacast@characterForm@@UAEPAXPBD@Z 004512c0 f   moc_characterform.obj
 0001:00050320       ?qt_static_metacall@characterForm@@CAXPAVQObject@@W4Call@QMetaObject@@HPAPAX@Z 00451320 f   moc_characterform.obj
 0001:00050550       ?metaObject@chControlAFD@@UBEPBUQMetaObject@@XZ 00451550 f   moc_chcontrolafd.obj
 0001:00050570       ?qt_metacast@chControlAFD@@UAEPAXPBD@Z 00451570 f   moc_chcontrolafd.obj
 0001:000505d0       ??$atImpl@V?$QVector@N@@@QSequentialIterableImpl@QtMetaTypePrivate@@SAPBXPBXH@Z 004515d0 f i moc_customplot.obj
 0001:000505f0       ??$getImpl@V?$QVector@N@@@QSequentialIterableImpl@QtMetaTypePrivate@@SA?AUVariantData@1@PBQAXHI@Z 004515f0 f i moc_customplot.obj
 0001:00050610       ??$moveToBeginImpl@V?$QVector@N@@@QSequentialIterableImpl@QtMetaTypePrivate@@SAXPBXPAPAX@Z 00451610 f i moc_customplot.obj
 0001:00050630       ??$moveToEndImpl@V?$QVector@N@@@QSequentialIterableImpl@QtMetaTypePrivate@@SAXPBXPAPAX@Z 00451630 f i moc_customplot.obj
 0001:00050650       ??$sizeImpl@V?$QVector@N@@@QSequentialIterableImpl@QtMetaTypePrivate@@SAHPBX@Z 00451650 f i moc_customplot.obj
 0001:00050660       ?Construct@?$QMetaTypeFunctionHelper@V?$QVector@N@@$00@QtMetaTypePrivate@@SAPAXPAXPBX@Z 00451660 f i moc_customplot.obj
 0001:00050690       ?Destruct@?$QMetaTypeFunctionHelper@V?$QVector@N@@$00@QtMetaTypePrivate@@SAXPAX@Z 00451690 f i moc_customplot.obj
 0001:000506c0       ?activated@customPlot@@QAEXXZ 004516c0 f   moc_customplot.obj
 0001:000506e0       ?advance@?$IteratorOwner@PBN@QtMetaTypePrivate@@SAXPAPAXH@Z 004516e0 f i moc_customplot.obj
 0001:00050700       ?assign@?$IteratorOwner@PBN@QtMetaTypePrivate@@SAXPAPAXPBQAX@Z 00451700 f i moc_customplot.obj
 0001:00050710       ?convert@?$ConverterFunctor@V?$QVector@N@@VQSequentialIterableImpl@QtMetaTypePrivate@@U?$QSequentialIterableConvertFunctor@V?$QVector@N@@@3@@QtPrivate@@SA_NPBUAbstractConverterFunction@2@PBXPAX@Z 00451710 f i moc_customplot.obj
 0001:00050780       ?disactivated@customPlot@@QAEXXZ 00451780 f   moc_customplot.obj
 0001:000507a0       ?equal@?$IteratorOwner@PBN@QtMetaTypePrivate@@SA_NPBQAX0@Z 004517a0 f i moc_customplot.obj
 0001:000507b0       ?moved@customPlot@@QAEXXZ  004517b0 f   moc_customplot.obj
 0001:000507d0       ?qt_metatype_id@?$QMetaTypeId2@PAVQAction@@@@SAHXZ 004517d0 f i moc_customplot.obj
 0001:00050900       ?qt_metatype_id@?$QMetaTypeId2@V?$QVector@N@@@@SAHXZ 00451900 f i moc_customplot.obj
 0001:00050ae0       ?qt_static_metacall@customPlot@@CAXPAVQObject@@W4Call@QMetaObject@@HPAPAX@Z 00451ae0 f   moc_customplot.obj
 0001:00051200       ?aboutToDelete@daqInfo@@QAEXXZ 00452200 f   moc_daqinfo.obj
 0001:00051220       ?aboutToStart@daqInfo@@QAEXVQString@@_N@Z 00452220 f   moc_daqinfo.obj
 0001:000512a0       ?adcAdjust@daqInfo@@QAEXVQString@@H@Z 004522a0 f   moc_daqinfo.obj
 0001:00051320       ?applyNet@daqInfo@@QAEXVQString@@@Z 00452320 f   moc_daqinfo.obj
 0001:00051390       ?changeAP@daqInfo@@QAEXVQString@@PAVWifiApParas@@@Z 00452390 f   moc_daqinfo.obj
 0001:00051420       ?changeChParas@daqInfo@@QAEXVQString@@PAVWifiChParas@@@Z 00452420 f   moc_daqinfo.obj
 0001:000514b0       ?changeChStatus@daqInfo@@QAEXVQString@@G@Z 004524b0 f   moc_daqinfo.obj
 0001:00051530       ?changeFsMode@daqInfo@@QAEXVQString@@H@Z 00452530 f   moc_daqinfo.obj
 0001:000515b0       ?changeFsParas@daqInfo@@QAEXVQString@@PAVWifiFsParas@@@Z 004525b0 f   moc_daqinfo.obj
 0001:00051640       ?changeNetParas@daqInfo@@QAEXVQString@@PAVWifiNetParas@@@Z 00452640 f   moc_daqinfo.obj
 0001:000516d0       ?changeSN@daqInfo@@QAEXVQString@@0@Z 004526d0 f   moc_daqinfo.obj
 0001:00051760       ?changeTCPServer1@daqInfo@@QAEXVQString@@H@Z 00452760 f   moc_daqinfo.obj
 0001:000517e0       ?changeTCPServer@daqInfo@@QAEXVQString@@0H0@Z 004527e0 f   moc_daqinfo.obj
 0001:00051880       ?characterForTcp@daqInfo@@QAEXVQString@@0V?$QList@M@@V?$QList@_N@@@Z 00452880 f   moc_daqinfo.obj
 0001:00051980       ?clicked@daqInfo@@QAEXXZ   00452980 f   moc_daqinfo.obj
 0001:000519a0       ?flushDNS@daqInfo@@QAEXVQString@@@Z 004529a0 f   moc_daqinfo.obj
 0001:00051a10       ?metaObject@daqInfo@@UBEPBUQMetaObject@@XZ 00452a10 f   moc_daqinfo.obj
 0001:00051a30       ?qt_metacall@daqInfo@@UAEHW4Call@QMetaObject@@HPAPAX@Z 00452a30 f   moc_daqinfo.obj
 0001:00051af0       ?qt_metacast@daqInfo@@UAEPAXPBD@Z 00452af0 f   moc_daqinfo.obj
 0001:00051b60       ?qt_static_metacall@daqInfo@@CAXPAVQObject@@W4Call@QMetaObject@@HPAPAX@Z 00452b60 f   moc_daqinfo.obj
 0001:00053510       ?sendRule@daqInfo@@QAEXVQByteArray@@@Z 00454510 f   moc_daqinfo.obj
 0001:00053580       ?setAP@daqInfo@@QAEXPAVWifiApParas@@@Z 00454580 f   moc_daqinfo.obj
 0001:000535b0       ?setAlertSpanJunyue@daqInfo@@QAEXVQString@@HH@Z 004545b0 f   moc_daqinfo.obj
 0001:00053640       ?setAlerts@daqInfo@@QAEXVQString@@V?$QList@N@@@Z 00454640 f   moc_daqinfo.obj
 0001:000536d0       ?setChs@daqInfo@@QAEXHH@Z  004546d0 f   moc_daqinfo.obj
 0001:00053720       ?setDNS@daqInfo@@QAEXVQString@@@Z 00454720 f   moc_daqinfo.obj
 0001:00053790       ?setHeartSpan@daqInfo@@QAEXVQString@@H_N@Z 00454790 f   moc_daqinfo.obj
 0001:00053820       ?setNet@daqInfo@@QAEXVnetParas@@@Z 00454820 f   moc_daqinfo.obj
 0001:000538b0       ?setPowerMode@daqInfo@@QAEXVQString@@EEEE@Z 004548b0 f   moc_daqinfo.obj
 0001:00053940       ?setSN2Dev@daqInfo@@QAEXVQString@@@Z 00454940 f   moc_daqinfo.obj
 0001:000539b0       ?setUpTcpAddress@daqInfo@@QAEXVQString@@H@Z 004549b0 f   moc_daqinfo.obj
 0001:00053a30       ?tempGainAdjust@daqInfo@@QAEXVQString@@@Z 00454a30 f   moc_daqinfo.obj
 0001:00053aa0       ?tempZeroAdjust@daqInfo@@QAEXVQString@@@Z 00454aa0 f   moc_daqinfo.obj
 0001:00053b10       ?updateAP@daqInfo@@QAEXPAVWifiApParas@@@Z 00454b10 f   moc_daqinfo.obj
 0001:00053b40       ?updateAPName@daqInfo@@QAEXPAVWifiApParas@@@Z 00454b40 f   moc_daqinfo.obj
 0001:00053b70       ?updateAlertRule@daqInfo@@QAEXHVQByteArray@@@Z 00454b70 f   moc_daqinfo.obj
 0001:00053bf0       ?updateAlertRuleFitness@daqInfo@@QAEXVQByteArray@@@Z 00454bf0 f   moc_daqinfo.obj
 0001:00053c60       ?updateFS@daqInfo@@QAEXPAVWifiFsParas@@@Z 00454c60 f   moc_daqinfo.obj
 0001:00053c90       ?updateFirmware@daqInfo@@QAEXVQString@@0@Z 00454c90 f   moc_daqinfo.obj
 0001:00053d20       ?updateHeartSpan@daqInfo@@QAEXH_N@Z 00454d20 f   moc_daqinfo.obj
 0001:00053d70       ?updateNet@daqInfo@@QAEXPAVWifiNetParas@@@Z 00454d70 f   moc_daqinfo.obj
 0001:00053da0       ?updateSqlTemp@daqInfo@@QAEXVQString@@000@Z 00454da0 f   moc_daqinfo.obj
 0001:00053e50       ?updateTCPserver@daqInfo@@QAEXVQString@@H0@Z 00454e50 f   moc_daqinfo.obj
 0001:00053ee0       ?waveForTcp@daqInfo@@QAEXVQString@@VQByteArray@@HPAV?$QVector@N@@@Z 00454ee0 f   moc_daqinfo.obj
 0001:00053f80       ?allBytesWritten@QAsynHttpSocket@@QAEXXZ 00454f80 f   moc_qasynhttpsocket.obj
 0001:00053fa0       ?getAlertData@QAsynHttpSocket@@QAEXVQString@@E_KV?$QSharedPointer@VQWaitCondition@@@@PAVQMutex@@PAMPAH@Z 00454fa0 f   moc_qasynhttpsocket.obj
 0001:00054090       ?getData@QAsynHttpSocket@@QAEXVQString@@EHHV?$QSharedPointer@VQWaitCondition@@@@PAVQMutex@@PAMPAH@Z 00455090 f   moc_qasynhttpsocket.obj
 0001:00054180       ?message@QAsynHttpSocket@@QAEXVQString@@@Z 00455180 f   moc_qasynhttpsocket.obj
 0001:000541f0       ?metaObject@QAsynHttpSocket@@UBEPBUQMetaObject@@XZ 004551f0 f   moc_qasynhttpsocket.obj
 0001:00054210       ?newRequest@QAsynHttpSocket@@QAEXPAVQHttpRequest@@PAVQHttpResponse@@@Z 00455210 f   moc_qasynhttpsocket.obj
 0001:00054270       ?qt_metacall@QAsynHttpSocket@@UAEHW4Call@QMetaObject@@HPAPAX@Z 00455270 f   moc_qasynhttpsocket.obj
 0001:000542d0       ?qt_metacast@QAsynHttpSocket@@UAEPAXPBD@Z 004552d0 f   moc_qasynhttpsocket.obj
 0001:00054330       ?qt_static_metacall@QAsynHttpSocket@@CAXPAVQObject@@W4Call@QMetaObject@@HPAPAX@Z 00455330 f   moc_qasynhttpsocket.obj
 0001:00054650       ?setAlert@QAsynHttpSocket@@QAEXVQString@@E_K@Z 00455650 f   moc_qasynhttpsocket.obj
 0001:000546e0       ?setChParas@QAsynHttpSocket@@QAEXVQString@@EMMMIH@Z 004556e0 f   moc_qasynhttpsocket.obj
 0001:00054780       ?sockDisConnect@QAsynHttpSocket@@QAEXHABVQString@@GPAVQThread@@@Z 00455780 f   moc_qasynhttpsocket.obj
 0001:000547f0       ?timeOut@QAsynHttpSocket@@QAEXV?$QSharedPointer@VQWaitCondition@@@@@Z 004557f0 f   moc_qasynhttpsocket.obj
 0001:00054890       ?closeTCP@QAsynTcpServer@@QAEXXZ 00455890 f   moc_qasyntcpserver.obj
 0001:000548b0       ?metaObject@QAsynTcpServer@@UBEPBUQMetaObject@@XZ 004558b0 f   moc_qasyntcpserver.obj
 0001:000548d0       ?qt_metacall@QAsynTcpServer@@UAEHW4Call@QMetaObject@@HPAPAX@Z 004558d0 f   moc_qasyntcpserver.obj
 0001:00054930       ?qt_metacast@QAsynTcpServer@@UAEPAXPBD@Z 00455930 f   moc_qasyntcpserver.obj
 0001:00054990       ?qt_static_metacall@QAsynTcpServer@@CAXPAVQObject@@W4Call@QMetaObject@@HPAPAX@Z 00455990 f   moc_qasyntcpserver.obj
 0001:00054a10       ?allBytesWritten@QAsynTcpSocket@@QAEXXZ 00455a10 f   moc_qasyntcpsocket.obj
 0001:00054a30       ?metaObject@QAsynTcpSocket@@UBEPBUQMetaObject@@XZ 00455a30 f   moc_qasyntcpsocket.obj
 0001:00054a50       ?qt_metacall@QAsynTcpSocket@@UAEHW4Call@QMetaObject@@HPAPAX@Z 00455a50 f   moc_qasyntcpsocket.obj
 0001:00054ab0       ?qt_metacast@QAsynTcpSocket@@UAEPAXPBD@Z 00455ab0 f   moc_qasyntcpsocket.obj
 0001:00054b10       ?qt_static_metacall@QAsynTcpSocket@@CAXPAVQObject@@W4Call@QMetaObject@@HPAPAX@Z 00455b10 f   moc_qasyntcpsocket.obj
 0001:00054bd0       ?sockDisConnect@QAsynTcpSocket@@QAEXHABVQString@@GPAVQThread@@@Z 00455bd0 f   moc_qasyntcpsocket.obj
 0001:00054c40       ?data@QHttpRequest@@QAEXABVQByteArray@@@Z 00455c40 f   moc_qhttprequest.obj
 0001:00054c70       ?end@QHttpRequest@@QAEXXZ  00455c70 f   moc_qhttprequest.obj
 0001:00054c90       ?metaObject@QHttpRequest@@UBEPBUQMetaObject@@XZ 00455c90 f   moc_qhttprequest.obj
 0001:00054cb0       ?qt_metacall@QHttpRequest@@UAEHW4Call@QMetaObject@@HPAPAX@Z 00455cb0 f   moc_qhttprequest.obj
 0001:00054d70       ?qt_metacast@QHttpRequest@@UAEPAXPBD@Z 00455d70 f   moc_qhttprequest.obj
 0001:00054dd0       ?qt_static_metacall@QHttpRequest@@CAXPAVQObject@@W4Call@QMetaObject@@HPAPAX@Z 00455dd0 f   moc_qhttprequest.obj
 0001:00055010       ?allBytesWritten@QHttpResponse@@QAEXXZ 00456010 f   moc_qhttpresponse.obj
 0001:00055030       ?done@QHttpResponse@@QAEXXZ 00456030 f   moc_qhttpresponse.obj
 0001:00055050       ?metaObject@QHttpResponse@@UBEPBUQMetaObject@@XZ 00456050 f   moc_qhttpresponse.obj
 0001:00055070       ?qt_metacall@QHttpResponse@@UAEHW4Call@QMetaObject@@HPAPAX@Z 00456070 f   moc_qhttpresponse.obj
 0001:000550d0       ?qt_metacast@QHttpResponse@@UAEPAXPBD@Z 004560d0 f   moc_qhttpresponse.obj
 0001:00055130       ?qt_static_metacall@QHttpResponse@@CAXPAVQObject@@W4Call@QMetaObject@@HPAPAX@Z 00456130 f   moc_qhttpresponse.obj
 0001:00055330       ?qt_static_metacall@QHttpServer@@CAXPAVQObject@@W4Call@QMetaObject@@HPAPAX@Z 00456330 f   moc_qhttpserver.obj
 0001:00055630       ?getAlertData@QHttpServer@@QAEXVQString@@E_KV?$QSharedPointer@VQWaitCondition@@@@PAVQMutex@@PAMPAH@Z 00456630 f   moc_qhttpserver.obj
 0001:00055720       ?getData@QHttpServer@@QAEXVQString@@EHHV?$QSharedPointer@VQWaitCondition@@@@PAVQMutex@@PAMPAH@Z 00456720 f   moc_qhttpserver.obj
 0001:00055810       ?metaObject@QHttpServer@@UBEPBUQMetaObject@@XZ 00456810 f   moc_qhttpserver.obj
 0001:00055830       ?qt_metacall@QHttpServer@@UAEHW4Call@QMetaObject@@HPAPAX@Z 00456830 f   moc_qhttpserver.obj
 0001:00055880       ?qt_metacast@QHttpServer@@UAEPAXPBD@Z 00456880 f   moc_qhttpserver.obj
 0001:000558e0       ?qt_metatype_id@?$QMetaTypeId2@PAVQThread@@@@SAHXZ 004568e0 f i moc_qhttpserver.obj
 0001:00055a10       ?setAlert@QHttpServer@@QAEXVQString@@E_K@Z 00456a10 f   moc_qhttpserver.obj
 0001:00055aa0       ?setChParas@QHttpServer@@QAEXVQString@@EMMMIH@Z 00456aa0 f   moc_qhttpserver.obj
 0001:00055b40       ?startResult@QHttpServer@@QAEX_N@Z 00456b40 f   moc_qhttpserver.obj
 0001:00055b70       ?timeOut@QHttpServer@@QAEXV?$QSharedPointer@VQWaitCondition@@@@@Z 00456b70 f   moc_qhttpserver.obj
 0001:00055c10       ?updateMessage@QHttpServer@@QAEXVQString@@@Z 00456c10 f   moc_qhttpserver.obj
 0001:00055c80       ?aboutToStart@mainTab@@QAEXVQString@@_N@Z 00456c80 f   moc_maintab.obj
 0001:00055d00       ?adcAdjust@mainTab@@QAEXVQString@@H@Z 00456d00 f   moc_maintab.obj
 0001:00055d80       ?applyNet@mainTab@@QAEXVQString@@@Z 00456d80 f   moc_maintab.obj
 0001:00055df0       ?autoScaleChanged@mainTab@@QAEX_N@Z 00456df0 f   moc_maintab.obj
 0001:00055e20       ?changeAP@mainTab@@QAEXVQString@@PAVWifiApParas@@@Z 00456e20 f   moc_maintab.obj
 0001:00055eb0       ?changeChParas@mainTab@@QAEXVQString@@PAVWifiChParas@@@Z 00456eb0 f   moc_maintab.obj
 0001:00055f40       ?changeChStatus@mainTab@@QAEXVQString@@G@Z 00456f40 f   moc_maintab.obj
 0001:00055fc0       ?changeFsMode@mainTab@@QAEXVQString@@H@Z 00456fc0 f   moc_maintab.obj
 0001:00056040       ?changeFsParas@mainTab@@QAEXVQString@@PAVWifiFsParas@@@Z 00457040 f   moc_maintab.obj
 0001:000560d0       ?changeNetParas@mainTab@@QAEXVQString@@PAVWifiNetParas@@@Z 004570d0 f   moc_maintab.obj
 0001:00056160       ?changeSN@mainTab@@QAEXVQString@@0@Z 00457160 f   moc_maintab.obj
 0001:000561f0       ?changeTCPServer1@mainTab@@QAEXVQString@@H@Z 004571f0 f   moc_maintab.obj
 0001:00056270       ?changeTCPServer@mainTab@@QAEXVQString@@0H0@Z 00457270 f   moc_maintab.obj
 0001:00056310       ?changeUIsettings@mainTab@@QAEXUuiElements@@@Z 00457310 f   moc_maintab.obj
 0001:000563c0       ?delDaqFromUI@mainTab@@QAEXVQString@@@Z 004573c0 f   moc_maintab.obj
 0001:00056430       ?metaObject@mainTab@@UBEPBUQMetaObject@@XZ 00457430 f   moc_maintab.obj
 0001:00056450       ?qt_metacall@mainTab@@UAEHW4Call@QMetaObject@@HPAPAX@Z 00457450 f   moc_maintab.obj
 0001:000564a0       ?qt_metacast@mainTab@@UAEPAXPBD@Z 004574a0 f   moc_maintab.obj
 0001:00056500       ?qt_static_metacall@mainTab@@CAXPAVQObject@@W4Call@QMetaObject@@HPAPAX@Z 00457500 f   moc_maintab.obj
 0001:00057860       ?sendingDataWs@mainTab@@QAEXVQString@@@Z 00458860 f   moc_maintab.obj
 0001:000578d0       ?setAlertSpanJunyue@mainTab@@QAEXVQString@@HH@Z 004588d0 f   moc_maintab.obj
 0001:00057960       ?setAlerts@mainTab@@QAEXVQString@@V?$QList@N@@@Z 00458960 f   moc_maintab.obj
 0001:000579f0       ?setHeartSpan@mainTab@@QAEXVQString@@H_N@Z 004589f0 f   moc_maintab.obj
 0001:00057a80       ?setPowerMode@mainTab@@QAEXVQString@@EEEE@Z 00458a80 f   moc_maintab.obj
 0001:00057b10       ?setRemoteTcpServer@mainTab@@QAEXVQString@@H@Z 00458b10 f   moc_maintab.obj
 0001:00057b90       ?startHttpServer@mainTab@@QAEXVQString@@G@Z 00458b90 f   moc_maintab.obj
 0001:00057c10       ?startTcpServer@mainTab@@QAEXVQString@@G@Z 00458c10 f   moc_maintab.obj
 0001:00057c90       ?startWs@mainTab@@QAEXVQString@@@Z 00458c90 f   moc_maintab.obj
 0001:00057d00       ?tempGainAdjust@mainTab@@QAEXVQString@@@Z 00458d00 f   moc_maintab.obj
 0001:00057d70       ?tempZeroAdjust@mainTab@@QAEXVQString@@@Z 00458d70 f   moc_maintab.obj
 0001:00057de0       ?updateStatusMessage@mainTab@@QAEXVQString@@@Z 00458de0 f   moc_maintab.obj
 0001:00057e50       ?uploadSN@mainTab@@QAEXVQString@@@Z 00458e50 f   moc_maintab.obj
 0001:00057ec0       ?aboutToClose@CMainWindow@@QAEXXZ 00458ec0 f   moc_mainwindow.obj
 0001:00057ee0       ?aboutToStart@CMainWindow@@QAEXVQString@@_N@Z 00458ee0 f   moc_mainwindow.obj
 0001:00057f60       ?adcAdjust@CMainWindow@@QAEXVQString@@H@Z 00458f60 f   moc_mainwindow.obj
 0001:00057fe0       ?applyNet@CMainWindow@@QAEXVQString@@@Z 00458fe0 f   moc_mainwindow.obj
 0001:00058050       ?changeAP@CMainWindow@@QAEXVQString@@PAVWifiApParas@@@Z 00459050 f   moc_mainwindow.obj
 0001:000580e0       ?changeChParas@CMainWindow@@QAEXVQString@@PAVWifiChParas@@@Z 004590e0 f   moc_mainwindow.obj
 0001:00058170       ?changeChStatus@CMainWindow@@QAEXVQString@@G@Z 00459170 f   moc_mainwindow.obj
 0001:000581f0       ?changeFsMode@CMainWindow@@QAEXVQString@@H@Z 004591f0 f   moc_mainwindow.obj
 0001:00058270       ?changeFsParas@CMainWindow@@QAEXVQString@@PAVWifiFsParas@@@Z 00459270 f   moc_mainwindow.obj
 0001:00058300       ?changeMainTabIndex@CMainWindow@@QAEXH@Z 00459300 f   moc_mainwindow.obj
 0001:00058330       ?changeNetParas@CMainWindow@@QAEXVQString@@PAVWifiNetParas@@@Z 00459330 f   moc_mainwindow.obj
 0001:000583c0       ?changeSN@CMainWindow@@QAEXVQString@@0@Z 004593c0 f   moc_mainwindow.obj
 0001:00058450       ?changeTCPServer1@CMainWindow@@QAEXVQString@@H@Z 00459450 f   moc_mainwindow.obj
 0001:000584d0       ?changeTCPServer@CMainWindow@@QAEXVQString@@0H0@Z 004594d0 f   moc_mainwindow.obj
 0001:00058570       ?createDaqFromBack@CMainWindow@@QAEXHVQString@@0@Z 00459570 f   moc_mainwindow.obj
 0001:00058600       ?delDaqFromUI@CMainWindow@@QAEXVQString@@@Z 00459600 f   moc_mainwindow.obj
 0001:00058670       ?initTabElements@CMainWindow@@QAEXUuiElements@@@Z 00459670 f   moc_mainwindow.obj
 0001:00058720       ?metaObject@CMainWindow@@UBEPBUQMetaObject@@XZ 00459720 f   moc_mainwindow.obj
 0001:00058740       ?qt_metacall@CMainWindow@@UAEHW4Call@QMetaObject@@HPAPAX@Z 00459740 f   moc_mainwindow.obj
 0001:00058790       ?qt_metacast@CMainWindow@@UAEPAXPBD@Z 00459790 f   moc_mainwindow.obj
 0001:00058800       ?qt_static_metacall@CMainWindow@@CAXPAVQObject@@W4Call@QMetaObject@@HPAPAX@Z 00459800 f   moc_mainwindow.obj
 0001:00059c20       ?setAlertSpanJunyue@CMainWindow@@QAEXVQString@@HH@Z 0045ac20 f   moc_mainwindow.obj
 0001:00059cb0       ?setAlerts@CMainWindow@@QAEXVQString@@V?$QList@N@@@Z 0045acb0 f   moc_mainwindow.obj
 0001:00059d40       ?setHeartSpan@CMainWindow@@QAEXVQString@@H_N@Z 0045ad40 f   moc_mainwindow.obj
 0001:00059dd0       ?setPowerMode@CMainWindow@@QAEXVQString@@EEEE@Z 0045add0 f   moc_mainwindow.obj
 0001:00059e60       ?settingGUID@CMainWindow@@QAEXVQString@@@Z 0045ae60 f   moc_mainwindow.obj
 0001:00059ed0       ?startHttpServer@CMainWindow@@QAEXVQString@@G@Z 0045aed0 f   moc_mainwindow.obj
 0001:00059f50       ?startTcpServer@CMainWindow@@QAEXVQString@@G@Z 0045af50 f   moc_mainwindow.obj
 0001:00059fd0       ?startWs@CMainWindow@@QAEXVQString@@@Z 0045afd0 f   moc_mainwindow.obj
 0001:0005a040       ?tempGainAdjust@CMainWindow@@QAEXVQString@@@Z 0045b040 f   moc_mainwindow.obj
 0001:0005a0b0       ?tempZeroAdjust@CMainWindow@@QAEXVQString@@@Z 0045b0b0 f   moc_mainwindow.obj
 0001:0005a120       ?updateAPdata@CMainWindow@@QAEXVQString@@PAVWifiApParas@@@Z 0045b120 f   moc_mainwindow.obj
 0001:0005a1b0       ?updateAlertJunyue@CMainWindow@@QAEXVQString@@V?$QList@M@@@Z 0045b1b0 f   moc_mainwindow.obj
 0001:0005a260       ?updateAlertTimeSpan@CMainWindow@@QAEXVQString@@HH@Z 0045b260 f   moc_mainwindow.obj
 0001:0005a2f0       ?updateAutoWave2@CMainWindow@@QAEXVQString@@VQByteArray@@HPAV?$QVector@N@@@Z 0045b2f0 f   moc_mainwindow.obj
 0001:0005a390       ?updateChParas@CMainWindow@@QAEXVQString@@PAVWifiChParas@@@Z 0045b390 f   moc_mainwindow.obj
 0001:0005a420       ?updateChStatus@CMainWindow@@QAEXVQString@@G@Z 0045b420 f   moc_mainwindow.obj
 0001:0005a4a0       ?updateCharactersJunyue@CMainWindow@@QAEXVQString@@0V?$QList@M@@V?$QList@_N@@@Z 0045b4a0 f   moc_mainwindow.obj
 0001:0005a5a0       ?updateCurrentFirmwareVer@CMainWindow@@QAEXVQString@@0@Z 0045b5a0 f   moc_mainwindow.obj
 0001:0005a630       ?updateCurrentTemperature@CMainWindow@@QAEXVQString@@PANH@Z 0045b630 f   moc_mainwindow.obj
 0001:0005a6c0       ?updateCurrentVValue@CMainWindow@@QAEXVQString@@PAV?$QList@PAVvirbValue@@@@@Z 0045b6c0 f   moc_mainwindow.obj
 0001:0005a750       ?updateDeviceStatus@CMainWindow@@QAEXHVQString@@@Z 0045b750 f   moc_mainwindow.obj
 0001:0005a7d0       ?updateFsMode@CMainWindow@@QAEXVQString@@H@Z 0045b7d0 f   moc_mainwindow.obj
 0001:0005a850       ?updateFsParas@CMainWindow@@QAEXVQString@@PAVWifiFsParas@@@Z 0045b850 f   moc_mainwindow.obj
 0001:0005a8e0       ?updateNetParas@CMainWindow@@QAEXVQString@@PAVWifiNetParas@@@Z 0045b8e0 f   moc_mainwindow.obj
 0001:0005a970       ?updatePowerMode2@CMainWindow@@QAEXVQString@@EEEE@Z 0045b970 f   moc_mainwindow.obj
 0001:0005aa00       ?updatePowerMode@CMainWindow@@QAEXVQString@@EEE@Z 0045ba00 f   moc_mainwindow.obj
 0001:0005aa90       ?updateTCPServer@CMainWindow@@QAEXVQString@@0H@Z 0045ba90 f   moc_mainwindow.obj
 0001:0005ab20       ?updateWave@CMainWindow@@QAEXVQString@@PAV?$QVector@N@@@Z 0045bb20 f   moc_mainwindow.obj
 0001:0005abb0       ?widgetReady@CMainWindow@@QAEXVQString@@@Z 0045bbb0 f   moc_mainwindow.obj
 0001:0005ac20       ?adcAdjust@settingWifiJunyue@@QAEXVQString@@H@Z 0045bc20 f   moc_settingwifijunyue.obj
 0001:0005aca0       ?applyNet@settingWifiJunyue@@QAEXVQString@@@Z 0045bca0 f   moc_settingwifijunyue.obj
 0001:0005ad10       ?changeAP@settingWifiJunyue@@QAEXVQString@@PAVWifiApParas@@@Z 0045bd10 f   moc_settingwifijunyue.obj
 0001:0005ada0       ?changeChParas@settingWifiJunyue@@QAEXVQString@@PAVWifiChParas@@@Z 0045bda0 f   moc_settingwifijunyue.obj
 0001:0005ae30       ?changeChStatus@settingWifiJunyue@@QAEXVQString@@G@Z 0045be30 f   moc_settingwifijunyue.obj
 0001:0005aeb0       ?changeFsMode@settingWifiJunyue@@QAEXVQString@@H@Z 0045beb0 f   moc_settingwifijunyue.obj
 0001:0005af30       ?changeFsParas@settingWifiJunyue@@QAEXVQString@@PAVWifiFsParas@@@Z 0045bf30 f   moc_settingwifijunyue.obj
 0001:0005afc0       ?changeNetParas@settingWifiJunyue@@QAEXVQString@@PAVWifiNetParas@@@Z 0045bfc0 f   moc_settingwifijunyue.obj
 0001:0005b050       ?changeSN@settingWifiJunyue@@QAEXVQString@@0@Z 0045c050 f   moc_settingwifijunyue.obj
 0001:0005b0e0       ?changeTCPServer1@settingWifiJunyue@@QAEXVQString@@0H@Z 0045c0e0 f   moc_settingwifijunyue.obj
 0001:0005b170       ?changeTCPServer@settingWifiJunyue@@QAEXVQString@@0H0@Z 0045c170 f   moc_settingwifijunyue.obj
 0001:0005b210       ?metaObject@settingWifiJunyue@@UBEPBUQMetaObject@@XZ 0045c210 f   moc_settingwifijunyue.obj
 0001:0005b230       ?qt_metacall@settingWifiJunyue@@UAEHW4Call@QMetaObject@@HPAPAX@Z 0045c230 f   moc_settingwifijunyue.obj
 0001:0005b280       ?qt_metacast@settingWifiJunyue@@UAEPAXPBD@Z 0045c280 f   moc_settingwifijunyue.obj
 0001:0005b2e0       ?qt_static_metacall@settingWifiJunyue@@CAXPAVQObject@@W4Call@QMetaObject@@HPAPAX@Z 0045c2e0 f   moc_settingwifijunyue.obj
 0001:0005be20       ?sendRule@settingWifiJunyue@@QAEXVQByteArray@@@Z 0045ce20 f   moc_settingwifijunyue.obj
 0001:0005be90       ?sendTest@settingWifiJunyue@@QAEXXZ 0045ce90 f   moc_settingwifijunyue.obj
 0001:0005beb0       ?setAlert@settingWifiJunyue@@QAEXVQString@@V?$QList@N@@@Z 0045ceb0 f   moc_settingwifijunyue.obj
 0001:0005bf40       ?setAlertSpanJunyue@settingWifiJunyue@@QAEXVQString@@HH@Z 0045cf40 f   moc_settingwifijunyue.obj
 0001:0005bfd0       ?setDNS@settingWifiJunyue@@QAEXVQString@@0@Z 0045cfd0 f   moc_settingwifijunyue.obj
 0001:0005c060       ?setHeartSpan@settingWifiJunyue@@QAEXVQString@@H_N@Z 0045d060 f   moc_settingwifijunyue.obj
 0001:0005c0f0       ?setPowerMode@settingWifiJunyue@@QAEXVQString@@EEEE@Z 0045d0f0 f   moc_settingwifijunyue.obj
 0001:0005c180       ?tempGainAdjust@settingWifiJunyue@@QAEXVQString@@@Z 0045d180 f   moc_settingwifijunyue.obj
 0001:0005c1f0       ?tempZeroAdjust@settingWifiJunyue@@QAEXVQString@@@Z 0045d1f0 f   moc_settingwifijunyue.obj
 0001:0005c260       ?updateAP@settingWifiJunyue@@QAEXVQString@@PAVWifiApParas@@@Z 0045d260 f   moc_settingwifijunyue.obj
 0001:0005c2f0       ?metaObject@netParas@@UBEPBUQMetaObject@@XZ 0045d2f0 f   moc_structs.obj
 0001:0005c310       ?qt_metacast@netParas@@UAEPAXPBD@Z 0045d310 f   moc_structs.obj
 0001:0005c370       ?convert@?$ConverterFunctor@V?$QList@E@@VQSequentialIterableImpl@QtMetaTypePrivate@@U?$QSequentialIterableConvertFunctor@V?$QList@E@@@3@@QtPrivate@@SA_NPBUAbstractConverterFunction@2@PBXPAX@Z 0045d370 f i moc_tcpclient.obj
 0001:0005c3e0       ?getSN@tcpClient@@QAEXVQString@@G0@Z 0045d3e0 f   moc_tcpclient.obj
 0001:0005c470       ?metaObject@tcpClient@@UBEPBUQMetaObject@@XZ 0045d470 f   moc_tcpclient.obj
 0001:0005c490       ?qt_metacall@tcpClient@@UAEHW4Call@QMetaObject@@HPAPAX@Z 0045d490 f   moc_tcpclient.obj
 0001:0005c4e0       ?qt_metacast@tcpClient@@UAEPAXPBD@Z 0045d4e0 f   moc_tcpclient.obj
 0001:0005c540       ?qt_metatype_id@?$QMetaTypeId2@V?$QList@E@@@@SAHXZ 0045d540 f i moc_tcpclient.obj
 0001:0005c720       ?qt_static_metacall@tcpClient@@CAXPAVQObject@@W4Call@QMetaObject@@HPAPAX@Z 0045d720 f   moc_tcpclient.obj
 0001:0005cd50       ?updateMessage@tcpClient@@QAEXVQString@@@Z 0045dd50 f   moc_tcpclient.obj
 0001:0005cdc0       ?updateVirb@tcpClient@@QAEXPAV?$QList@PAVvirbValue@@@@@Z 0045ddc0 f   moc_tcpclient.obj
 0001:0005cdf0       ?metaObject@wsClient@@UBEPBUQMetaObject@@XZ 0045ddf0 f   moc_wsclient.obj
 0001:0005ce10       ?qt_metacall@wsClient@@UAEHW4Call@QMetaObject@@HPAPAX@Z 0045de10 f   moc_wsclient.obj
 0001:0005ce60       ?qt_metacast@wsClient@@UAEPAXPBD@Z 0045de60 f   moc_wsclient.obj
 0001:0005cec0       ?qt_metatype_id@?$QMetaTypeId2@W4SocketState@QAbstractSocket@@@@SAHXZ 0045dec0 f i moc_wsclient.obj
 0001:0005cfb0       ?qt_static_metacall@wsClient@@CAXPAVQObject@@W4Call@QMetaObject@@HPAPAX@Z 0045dfb0 f   moc_wsclient.obj
 0001:0005d1e0       ?setAlertSpanJunyue@wsClient@@QAEXVQString@@HH@Z 0045e1e0 f   moc_wsclient.obj
 0001:0005d270       ?setAlerts@wsClient@@QAEXVQString@@V?$QList@N@@@Z 0045e270 f   moc_wsclient.obj
 0001:0005d300       ?setAutoSpan@wsClient@@QAEXVQString@@H@Z 0045e300 f   moc_wsclient.obj
 0001:0005d380       ?setChannelFS@wsClient@@QAEXVQString@@V?$QList@N@@@Z 0045e380 f   moc_wsclient.obj
 0001:0005d410       ?setParas@wsClient@@QAEXXZ 0045e410 f   moc_wsclient.obj
 0001:0005d424       ?setBorderColor@PanelItem@@QAEXABVQColor@@@Z 0045e424 f   quc:quc.dll
 0001:0005d42a       ??0PanelItem@@QAE@PAVQWidget@@@Z 0045e42a f   quc:quc.dll
 0001:0005d430       ?getBorderColor@PanelItem@@QBE?AVQColor@@XZ 0045e430 f   quc:quc.dll
 0001:0005d436       ?setTitleText@PanelItem@@QAEXABVQString@@@Z 0045e436 f   quc:quc.dll
 0001:0005d43c       ??0IPAddress@@QAE@PAVQWidget@@@Z 0045e43c f   quc:quc.dll
 0001:0005d442       ?getIP@IPAddress@@QBE?AVQString@@XZ 0045e442 f   quc:quc.dll
 0001:0005d448       ?setIP@IPAddress@@QAEXABVQString@@@Z 0045e448 f   quc:quc.dll
 0001:0005d44e       ??0customPlot@@QAE@PAVQWidget@@@Z 0045e44e f   yecplot:yecplot.dll
 0001:0005d454       ?addLine@customPlot@@QAEXVQString@@@Z 0045e454 f   yecplot:yecplot.dll
 0001:0005d45a       ?clearAllLines@customPlot@@QAEXXZ 0045e45a f   yecplot:yecplot.dll
 0001:0005d460       ?setData@customPlot@@QAEXV?$QVector@N@@0H@Z 0045e460 f   yecplot:yecplot.dll
 0001:0005d466       ?getLineCount@customPlot@@QAEHXZ 0045e466 f   yecplot:yecplot.dll
 0001:0005d46c       ?setMouseType@customPlot@@QAEXW4mouseType@1@@Z 0045e46c f   yecplot:yecplot.dll
 0001:0005d472       ?showTracer@customPlot@@QAEX_N@Z 0045e472 f   yecplot:yecplot.dll
 0001:0005d478       ?setChartName@customPlot@@QAEXVQString@@@Z 0045e478 f   yecplot:yecplot.dll
 0001:0005d47e       ?setXLabel@customPlot@@QAEXVQString@@@Z 0045e47e f   yecplot:yecplot.dll
 0001:0005d484       ?setYLabel@customPlot@@QAEXVQString@@@Z 0045e484 f   yecplot:yecplot.dll
 0001:0005d48a       ?setXLogMode@customPlot@@QAEX_N@Z 0045e48a f   yecplot:yecplot.dll
 0001:0005d490       ?setYLogMode@customPlot@@QAEX_N@Z 0045e490 f   yecplot:yecplot.dll
 0001:0005d496       ?plotContextMenuEvent@customPlot@@QAEXVQPoint@@@Z 0045e496 f   yecplot:yecplot.dll
 0001:0005d49c       ?setLineVisible@customPlot@@QAEXH_N@Z 0045e49c f   yecplot:yecplot.dll
 0001:0005d4a2       ?isShowTracer@customPlot@@QAE_NXZ 0045e4a2 f   yecplot:yecplot.dll
 0001:0005d4a8       ?mousePressSignal@customPlot@@AAEXPAVQMouseEvent@@@Z 0045e4a8 f   yecplot:yecplot.dll
 0001:0005d4ae       ?mouseReleaseSignal@customPlot@@AAEXPAVQMouseEvent@@@Z 0045e4ae f   yecplot:yecplot.dll
 0001:0005d4b4       ?onMouseMoveZoom@customPlot@@AAEXPAVQMouseEvent@@@Z 0045e4b4 f   yecplot:yecplot.dll
 0001:0005d4ba       ?stoppedZoom@customPlot@@AAEXXZ 0045e4ba f   yecplot:yecplot.dll
 0001:0005d4c0       ?mouseWheel@customPlot@@AAEXXZ 0045e4c0 f   yecplot:yecplot.dll
 0001:0005d4c6       ?pressDrag@customPlot@@AAEXPAVQMouseEvent@@@Z 0045e4c6 f   yecplot:yecplot.dll
 0001:0005d4cc       ?onMouseMoveDrag@customPlot@@AAEXPAVQMouseEvent@@@Z 0045e4cc f   yecplot:yecplot.dll
 0001:0005d4d2       ?stoppedDrag@customPlot@@AAEXPAVQMouseEvent@@@Z 0045e4d2 f   yecplot:yecplot.dll
 0001:0005d4d8       ?onMouseMovePoint@customPlot@@AAEXPAVQMouseEvent@@@Z 0045e4d8 f   yecplot:yecplot.dll
 0001:0005d4de       ?onMouseMoveBand@customPlot@@AAEXPAVQMouseEvent@@@Z 0045e4de f   yecplot:yecplot.dll
 0001:0005d4e4       ?onMouseMoveBand2@customPlot@@AAEXPAVQMouseEvent@@@Z 0045e4e4 f   yecplot:yecplot.dll
 0001:0005d4ea       ?stoppedBand@customPlot@@AAEXXZ 0045e4ea f   yecplot:yecplot.dll
 0001:0005d4f0       ?setMinMaxType@customPlot@@AAEXH@Z 0045e4f0 f   yecplot:yecplot.dll
 0001:0005d4f6       ?hideShow@customPlot@@AAEXXZ 0045e4f6 f   yecplot:yecplot.dll
 0001:0005d4fc       ?legendDoubleClick@customPlot@@AAEXPAVQCPLegend@@PAVQCPAbstractLegendItem@@@Z 0045e4fc f   yecplot:yecplot.dll
 0001:0005d502       ?titleDoubleClick@customPlot@@AAEXPAVQMouseEvent@@@Z 0045e502 f   yecplot:yecplot.dll
 0001:0005d508       ?graphPause@customPlot@@AAEXXZ 0045e508 f   yecplot:yecplot.dll
 0001:0005d50e       ?copyGraphData@customPlot@@AAEXXZ 0045e50e f   yecplot:yecplot.dll
 0001:0005d514       ?xLogModeChange@customPlot@@AAEXXZ 0045e514 f   yecplot:yecplot.dll
 0001:0005d51a       ?yLogModeChange@customPlot@@AAEXXZ 0045e51a f   yecplot:yecplot.dll
 0001:0005d520       ?graphToExel@customPlot@@AAEXXZ 0045e520 f   yecplot:yecplot.dll
 0001:0005d526       ?graphToPNG@customPlot@@AAEXXZ 0045e526 f   yecplot:yecplot.dll
 0001:0005d52c       ?zoomGroupTriggered@customPlot@@AAEXH@Z 0045e52c f   yecplot:yecplot.dll
 0001:0005d532       ?minMaxGroupTriggered@customPlot@@AAEXH@Z 0045e532 f   yecplot:yecplot.dll
 0001:0005d538       ?contextActTriggered@customPlot@@AAEXPAVQAction@@@Z 0045e538 f   yecplot:yecplot.dll
 0001:0005d53e       ?actionEvent@QWidget@@MAEXPAVQActionEvent@@@Z 0045e53e f   Qt5Widgets:Qt5Widgets.dll
 0001:0005d544       ?addItem@QBoxLayout@@UAEXPAVQLayoutItem@@@Z 0045e544 f   Qt5Widgets:Qt5Widgets.dll
 0001:0005d54a       ?changeEvent@QAbstractSpinBox@@MAEXPAVQEvent@@@Z 0045e54a f   Qt5Widgets:Qt5Widgets.dll
 0001:0005d550       ?changeEvent@QLabel@@MAEXPAVQEvent@@@Z 0045e550 f   Qt5Widgets:Qt5Widgets.dll
 0001:0005d556       ?changeEvent@QWidget@@MAEXPAVQEvent@@@Z 0045e556 f   Qt5Widgets:Qt5Widgets.dll
 0001:0005d55c       ?childEvent@QLayout@@MAEXPAVQChildEvent@@@Z 0045e55c f   Qt5Widgets:Qt5Widgets.dll
 0001:0005d562       ?clear@QAbstractSpinBox@@UAEXXZ 0045e562 f   Qt5Widgets:Qt5Widgets.dll
 0001:0005d568       ?closeEvent@QAbstractSpinBox@@MAEXPAVQCloseEvent@@@Z 0045e568 f   Qt5Widgets:Qt5Widgets.dll
 0001:0005d56e       ?closeEvent@QWidget@@MAEXPAVQCloseEvent@@@Z 0045e56e f   Qt5Widgets:Qt5Widgets.dll
 0001:0005d574       ?contextMenuEvent@QAbstractSpinBox@@MAEXPAVQContextMenuEvent@@@Z 0045e574 f   Qt5Widgets:Qt5Widgets.dll
 0001:0005d57a       ?contextMenuEvent@QLabel@@MAEXPAVQContextMenuEvent@@@Z 0045e57a f   Qt5Widgets:Qt5Widgets.dll
 0001:0005d580       ?contextMenuEvent@QWidget@@MAEXPAVQContextMenuEvent@@@Z 0045e580 f   Qt5Widgets:Qt5Widgets.dll
 0001:0005d586       ?controlTypes@QLayout@@UBE?AV?$QFlags@W4ControlType@QSizePolicy@@@@XZ 0045e586 f   Qt5Widgets:Qt5Widgets.dll
 0001:0005d58c       ?count@QBoxLayout@@UBEHXZ  0045e58c f   Qt5Widgets:Qt5Widgets.dll
 0001:0005d592       ?devType@QWidget@@UBEHXZ   0045e592 f   Qt5Widgets:Qt5Widgets.dll
 0001:0005d598       ?dragEnterEvent@QWidget@@MAEXPAVQDragEnterEvent@@@Z 0045e598 f   Qt5Widgets:Qt5Widgets.dll
 0001:0005d59e       ?dragLeaveEvent@QWidget@@MAEXPAVQDragLeaveEvent@@@Z 0045e59e f   Qt5Widgets:Qt5Widgets.dll
 0001:0005d5a4       ?dragMoveEvent@QWidget@@MAEXPAVQDragMoveEvent@@@Z 0045e5a4 f   Qt5Widgets:Qt5Widgets.dll
 0001:0005d5aa       ?dropEvent@QWidget@@MAEXPAVQDropEvent@@@Z 0045e5aa f   Qt5Widgets:Qt5Widgets.dll
 0001:0005d5b0       ?enterEvent@QWidget@@MAEXPAVQEvent@@@Z 0045e5b0 f   Qt5Widgets:Qt5Widgets.dll
 0001:0005d5b6       ?event@QAbstractSpinBox@@UAE_NPAVQEvent@@@Z 0045e5b6 f   Qt5Widgets:Qt5Widgets.dll
 0001:0005d5bc       ?event@QLabel@@MAE_NPAVQEvent@@@Z 0045e5bc f   Qt5Widgets:Qt5Widgets.dll
 0001:0005d5c2       ?event@QWidget@@MAE_NPAVQEvent@@@Z 0045e5c2 f   Qt5Widgets:Qt5Widgets.dll
 0001:0005d5c8       ?expandingDirections@QBoxLayout@@UBE?AV?$QFlags@W4Orientation@Qt@@@@XZ 0045e5c8 f   Qt5Widgets:Qt5Widgets.dll
 0001:0005d5ce       ?fixup@QDoubleSpinBox@@UBEXAAVQString@@@Z 0045e5ce f   Qt5Widgets:Qt5Widgets.dll
 0001:0005d5d4       ?focusInEvent@QAbstractSpinBox@@MAEXPAVQFocusEvent@@@Z 0045e5d4 f   Qt5Widgets:Qt5Widgets.dll
 0001:0005d5da       ?focusInEvent@QLabel@@MAEXPAVQFocusEvent@@@Z 0045e5da f   Qt5Widgets:Qt5Widgets.dll
 0001:0005d5e0       ?focusInEvent@QWidget@@MAEXPAVQFocusEvent@@@Z 0045e5e0 f   Qt5Widgets:Qt5Widgets.dll
 0001:0005d5e6       ?focusNextPrevChild@QLabel@@MAE_N_N@Z 0045e5e6 f   Qt5Widgets:Qt5Widgets.dll
 0001:0005d5ec       ?focusNextPrevChild@QWidget@@MAE_N_N@Z 0045e5ec f   Qt5Widgets:Qt5Widgets.dll
 0001:0005d5f2       ?focusOutEvent@QAbstractSpinBox@@MAEXPAVQFocusEvent@@@Z 0045e5f2 f   Qt5Widgets:Qt5Widgets.dll
 0001:0005d5f8       ?focusOutEvent@QLabel@@MAEXPAVQFocusEvent@@@Z 0045e5f8 f   Qt5Widgets:Qt5Widgets.dll
 0001:0005d5fe       ?focusOutEvent@QWidget@@MAEXPAVQFocusEvent@@@Z 0045e5fe f   Qt5Widgets:Qt5Widgets.dll
 0001:0005d604       ?geometry@QLayout@@UBE?AVQRect@@XZ 0045e604 f   Qt5Widgets:Qt5Widgets.dll
 0001:0005d60a       ?hasHeightForWidth@QBoxLayout@@UBE_NXZ 0045e60a f   Qt5Widgets:Qt5Widgets.dll
 0001:0005d610       ?hasHeightForWidth@QWidget@@UBE_NXZ 0045e610 f   Qt5Widgets:Qt5Widgets.dll
 0001:0005d616       ?heightForWidth@QBoxLayout@@UBEHH@Z 0045e616 f   Qt5Widgets:Qt5Widgets.dll
 0001:0005d61c       ?heightForWidth@QLabel@@UBEHH@Z 0045e61c f   Qt5Widgets:Qt5Widgets.dll
 0001:0005d622       ?heightForWidth@QWidget@@UBEHH@Z 0045e622 f   Qt5Widgets:Qt5Widgets.dll
 0001:0005d628       ?hideEvent@QAbstractSpinBox@@MAEXPAVQHideEvent@@@Z 0045e628 f   Qt5Widgets:Qt5Widgets.dll
 0001:0005d62e       ?hideEvent@QWidget@@MAEXPAVQHideEvent@@@Z 0045e62e f   Qt5Widgets:Qt5Widgets.dll
 0001:0005d634       ?indexOf@QLayout@@UBEHPAVQWidget@@@Z 0045e634 f   Qt5Widgets:Qt5Widgets.dll
 0001:0005d63a       ?initPainter@QWidget@@MBEXPAVQPainter@@@Z 0045e63a f   Qt5Widgets:Qt5Widgets.dll
 0001:0005d640       ?inputMethodEvent@QWidget@@MAEXPAVQInputMethodEvent@@@Z 0045e640 f   Qt5Widgets:Qt5Widgets.dll
 0001:0005d646       ?inputMethodQuery@QAbstractSpinBox@@UBE?AVQVariant@@W4InputMethodQuery@Qt@@@Z 0045e646 f   Qt5Widgets:Qt5Widgets.dll
 0001:0005d64c       ?inputMethodQuery@QWidget@@UBE?AVQVariant@@W4InputMethodQuery@Qt@@@Z 0045e64c f   Qt5Widgets:Qt5Widgets.dll
 0001:0005d652       ?invalidate@QBoxLayout@@UAEXXZ 0045e652 f   Qt5Widgets:Qt5Widgets.dll
 0001:0005d658       ?isEmpty@QLayout@@UBE_NXZ  0045e658 f   Qt5Widgets:Qt5Widgets.dll
 0001:0005d65e       ?itemAt@QBoxLayout@@UBEPAVQLayoutItem@@H@Z 0045e65e f   Qt5Widgets:Qt5Widgets.dll
 0001:0005d664       ?keyPressEvent@QAbstractSpinBox@@MAEXPAVQKeyEvent@@@Z 0045e664 f   Qt5Widgets:Qt5Widgets.dll
 0001:0005d66a       ?keyPressEvent@QLabel@@MAEXPAVQKeyEvent@@@Z 0045e66a f   Qt5Widgets:Qt5Widgets.dll
 0001:0005d670       ?keyPressEvent@QWidget@@MAEXPAVQKeyEvent@@@Z 0045e670 f   Qt5Widgets:Qt5Widgets.dll
 0001:0005d676       ?keyReleaseEvent@QAbstractSpinBox@@MAEXPAVQKeyEvent@@@Z 0045e676 f   Qt5Widgets:Qt5Widgets.dll
 0001:0005d67c       ?keyReleaseEvent@QWidget@@MAEXPAVQKeyEvent@@@Z 0045e67c f   Qt5Widgets:Qt5Widgets.dll
 0001:0005d682       ?layout@QLayout@@UAEPAV1@XZ 0045e682 f   Qt5Widgets:Qt5Widgets.dll
 0001:0005d688       ?leaveEvent@QWidget@@MAEXPAVQEvent@@@Z 0045e688 f   Qt5Widgets:Qt5Widgets.dll
 0001:0005d68e       ?maximumSize@QBoxLayout@@UBE?AVQSize@@XZ 0045e68e f   Qt5Widgets:Qt5Widgets.dll
 0001:0005d694       ?metaObject@QDoubleSpinBox@@UBEPBUQMetaObject@@XZ 0045e694 f   Qt5Widgets:Qt5Widgets.dll
 0001:0005d69a       ?metaObject@QHBoxLayout@@UBEPBUQMetaObject@@XZ 0045e69a f   Qt5Widgets:Qt5Widgets.dll
 0001:0005d6a0       ?metaObject@QLabel@@UBEPBUQMetaObject@@XZ 0045e6a0 f   Qt5Widgets:Qt5Widgets.dll
 0001:0005d6a6       ?metric@QWidget@@MBEHW4PaintDeviceMetric@QPaintDevice@@@Z 0045e6a6 f   Qt5Widgets:Qt5Widgets.dll
 0001:0005d6ac       ?minimumHeightForWidth@QBoxLayout@@UBEHH@Z 0045e6ac f   Qt5Widgets:Qt5Widgets.dll
 0001:0005d6b2       ?minimumSize@QBoxLayout@@UBE?AVQSize@@XZ 0045e6b2 f   Qt5Widgets:Qt5Widgets.dll
 0001:0005d6b8       ?minimumSizeHint@QAbstractSpinBox@@UBE?AVQSize@@XZ 0045e6b8 f   Qt5Widgets:Qt5Widgets.dll
 0001:0005d6be       ?minimumSizeHint@QLabel@@UBE?AVQSize@@XZ 0045e6be f   Qt5Widgets:Qt5Widgets.dll
 0001:0005d6c4       ?minimumSizeHint@QWidget@@UBE?AVQSize@@XZ 0045e6c4 f   Qt5Widgets:Qt5Widgets.dll
 0001:0005d6ca       ?mouseDoubleClickEvent@QWidget@@MAEXPAVQMouseEvent@@@Z 0045e6ca f   Qt5Widgets:Qt5Widgets.dll
 0001:0005d6d0       ?mouseMoveEvent@QAbstractSpinBox@@MAEXPAVQMouseEvent@@@Z 0045e6d0 f   Qt5Widgets:Qt5Widgets.dll
 0001:0005d6d6       ?mouseMoveEvent@QLabel@@MAEXPAVQMouseEvent@@@Z 0045e6d6 f   Qt5Widgets:Qt5Widgets.dll
 0001:0005d6dc       ?mouseMoveEvent@QWidget@@MAEXPAVQMouseEvent@@@Z 0045e6dc f   Qt5Widgets:Qt5Widgets.dll
 0001:0005d6e2       ?mousePressEvent@QAbstractSpinBox@@MAEXPAVQMouseEvent@@@Z 0045e6e2 f   Qt5Widgets:Qt5Widgets.dll
 0001:0005d6e8       ?mousePressEvent@QLabel@@MAEXPAVQMouseEvent@@@Z 0045e6e8 f   Qt5Widgets:Qt5Widgets.dll
 0001:0005d6ee       ?mousePressEvent@QWidget@@MAEXPAVQMouseEvent@@@Z 0045e6ee f   Qt5Widgets:Qt5Widgets.dll
 0001:0005d6f4       ?mouseReleaseEvent@QAbstractSpinBox@@MAEXPAVQMouseEvent@@@Z 0045e6f4 f   Qt5Widgets:Qt5Widgets.dll
 0001:0005d6fa       ?mouseReleaseEvent@QLabel@@MAEXPAVQMouseEvent@@@Z 0045e6fa f   Qt5Widgets:Qt5Widgets.dll
 0001:0005d700       ?mouseReleaseEvent@QWidget@@MAEXPAVQMouseEvent@@@Z 0045e700 f   Qt5Widgets:Qt5Widgets.dll
 0001:0005d706       ?moveEvent@QWidget@@MAEXPAVQMoveEvent@@@Z 0045e706 f   Qt5Widgets:Qt5Widgets.dll
 0001:0005d70c       ?nativeEvent@QWidget@@MAE_NABVQByteArray@@PAXPAJ@Z 0045e70c f   Qt5Widgets:Qt5Widgets.dll
 0001:0005d712       ?paintEngine@QWidget@@UBEPAVQPaintEngine@@XZ 0045e712 f   Qt5Widgets:Qt5Widgets.dll
 0001:0005d718       ?paintEvent@QAbstractSpinBox@@MAEXPAVQPaintEvent@@@Z 0045e718 f   Qt5Widgets:Qt5Widgets.dll
 0001:0005d71e       ?paintEvent@QLabel@@MAEXPAVQPaintEvent@@@Z 0045e71e f   Qt5Widgets:Qt5Widgets.dll
 0001:0005d724       ?paintEvent@QWidget@@MAEXPAVQPaintEvent@@@Z 0045e724 f   Qt5Widgets:Qt5Widgets.dll
 0001:0005d72a       ?qt_metacall@QDoubleSpinBox@@UAEHW4Call@QMetaObject@@HPAPAX@Z 0045e72a f   Qt5Widgets:Qt5Widgets.dll
 0001:0005d730       ?qt_metacall@QHBoxLayout@@UAEHW4Call@QMetaObject@@HPAPAX@Z 0045e730 f   Qt5Widgets:Qt5Widgets.dll
 0001:0005d736       ?qt_metacall@QLabel@@UAEHW4Call@QMetaObject@@HPAPAX@Z 0045e736 f   Qt5Widgets:Qt5Widgets.dll
 0001:0005d73c       ?qt_metacast@QDoubleSpinBox@@UAEPAXPBD@Z 0045e73c f   Qt5Widgets:Qt5Widgets.dll
 0001:0005d742       ?qt_metacast@QHBoxLayout@@UAEPAXPBD@Z 0045e742 f   Qt5Widgets:Qt5Widgets.dll
 0001:0005d748       ?qt_metacast@QLabel@@UAEPAXPBD@Z 0045e748 f   Qt5Widgets:Qt5Widgets.dll
 0001:0005d74e       ?redirected@QWidget@@MBEPAVQPaintDevice@@PAVQPoint@@@Z 0045e74e f   Qt5Widgets:Qt5Widgets.dll
 0001:0005d754       ?resizeEvent@QAbstractSpinBox@@MAEXPAVQResizeEvent@@@Z 0045e754 f   Qt5Widgets:Qt5Widgets.dll
 0001:0005d75a       ?resizeEvent@QWidget@@MAEXPAVQResizeEvent@@@Z 0045e75a f   Qt5Widgets:Qt5Widgets.dll
 0001:0005d760       ?setGeometry@QBoxLayout@@UAEXABVQRect@@@Z 0045e760 f   Qt5Widgets:Qt5Widgets.dll
 0001:0005d766       ?setVisible@QWidget@@UAEX_N@Z 0045e766 f   Qt5Widgets:Qt5Widgets.dll
 0001:0005d76c       ?sharedPainter@QWidget@@MBEPAVQPainter@@XZ 0045e76c f   Qt5Widgets:Qt5Widgets.dll
 0001:0005d772       ?showEvent@QAbstractSpinBox@@MAEXPAVQShowEvent@@@Z 0045e772 f   Qt5Widgets:Qt5Widgets.dll
 0001:0005d778       ?showEvent@QWidget@@MAEXPAVQShowEvent@@@Z 0045e778 f   Qt5Widgets:Qt5Widgets.dll
 0001:0005d77e       ?sizeHint@QAbstractSpinBox@@UBE?AVQSize@@XZ 0045e77e f   Qt5Widgets:Qt5Widgets.dll
 0001:0005d784       ?sizeHint@QBoxLayout@@UBE?AVQSize@@XZ 0045e784 f   Qt5Widgets:Qt5Widgets.dll
 0001:0005d78a       ?sizeHint@QLabel@@UBE?AVQSize@@XZ 0045e78a f   Qt5Widgets:Qt5Widgets.dll
 0001:0005d790       ?sizeHint@QWidget@@UBE?AVQSize@@XZ 0045e790 f   Qt5Widgets:Qt5Widgets.dll
 0001:0005d796       ?spacerItem@QLayoutItem@@UAEPAVQSpacerItem@@XZ 0045e796 f   Qt5Widgets:Qt5Widgets.dll
 0001:0005d79c       ?stepBy@QAbstractSpinBox@@UAEXH@Z 0045e79c f   Qt5Widgets:Qt5Widgets.dll
 0001:0005d7a2       ?stepEnabled@QAbstractSpinBox@@MBE?AV?$QFlags@W4StepEnabledFlag@QAbstractSpinBox@@@@XZ 0045e7a2 f   Qt5Widgets:Qt5Widgets.dll
 0001:0005d7a8       ?tabletEvent@QWidget@@MAEXPAVQTabletEvent@@@Z 0045e7a8 f   Qt5Widgets:Qt5Widgets.dll
 0001:0005d7ae       ?takeAt@QBoxLayout@@UAEPAVQLayoutItem@@H@Z 0045e7ae f   Qt5Widgets:Qt5Widgets.dll
 0001:0005d7b4       ?textFromValue@QDoubleSpinBox@@UBE?AVQString@@N@Z 0045e7b4 f   Qt5Widgets:Qt5Widgets.dll
 0001:0005d7ba       ?timerEvent@QAbstractSpinBox@@MAEXPAVQTimerEvent@@@Z 0045e7ba f   Qt5Widgets:Qt5Widgets.dll
 0001:0005d7c0       ?validate@QDoubleSpinBox@@UBE?AW4State@QValidator@@AAVQString@@AAH@Z 0045e7c0 f   Qt5Widgets:Qt5Widgets.dll
 0001:0005d7c6       ?valueFromText@QDoubleSpinBox@@UBENABVQString@@@Z 0045e7c6 f   Qt5Widgets:Qt5Widgets.dll
 0001:0005d7cc       ?wheelEvent@QAbstractSpinBox@@MAEXPAVQWheelEvent@@@Z 0045e7cc f   Qt5Widgets:Qt5Widgets.dll
 0001:0005d7d2       ?wheelEvent@QWidget@@MAEXPAVQWheelEvent@@@Z 0045e7d2 f   Qt5Widgets:Qt5Widgets.dll
 0001:0005d7d8       ?widget@QLayoutItem@@UAEPAVQWidget@@XZ 0045e7d8 f   Qt5Widgets:Qt5Widgets.dll
 0001:0005d7de       ?accept@QDialog@@UAEXXZ    0045e7de f   Qt5Widgets:Qt5Widgets.dll
 0001:0005d7e4       ?addItem@QGridLayout@@MAEXPAVQLayoutItem@@@Z 0045e7e4 f   Qt5Widgets:Qt5Widgets.dll
 0001:0005d7ea       ?changeEvent@QAbstractButton@@MAEXPAVQEvent@@@Z 0045e7ea f   Qt5Widgets:Qt5Widgets.dll
 0001:0005d7f0       ?changeEvent@QLineEdit@@MAEXPAVQEvent@@@Z 0045e7f0 f   Qt5Widgets:Qt5Widgets.dll
 0001:0005d7f6       ?checkStateSet@QAbstractButton@@MAEXXZ 0045e7f6 f   Qt5Widgets:Qt5Widgets.dll
 0001:0005d7fc       ?closeEvent@QDialog@@MAEXPAVQCloseEvent@@@Z 0045e7fc f   Qt5Widgets:Qt5Widgets.dll
 0001:0005d802       ?contextMenuEvent@QDialog@@MAEXPAVQContextMenuEvent@@@Z 0045e802 f   Qt5Widgets:Qt5Widgets.dll
 0001:0005d808       ?contextMenuEvent@QLineEdit@@MAEXPAVQContextMenuEvent@@@Z 0045e808 f   Qt5Widgets:Qt5Widgets.dll
 0001:0005d80e       ?controlTypes@QLayoutItem@@UBE?AV?$QFlags@W4ControlType@QSizePolicy@@@@XZ 0045e80e f   Qt5Widgets:Qt5Widgets.dll
 0001:0005d814       ?count@QGridLayout@@UBEHXZ 0045e814 f   Qt5Widgets:Qt5Widgets.dll
 0001:0005d81a       ?done@QDialog@@UAEXH@Z     0045e81a f   Qt5Widgets:Qt5Widgets.dll
 0001:0005d820       ?dragEnterEvent@QLineEdit@@MAEXPAVQDragEnterEvent@@@Z 0045e820 f   Qt5Widgets:Qt5Widgets.dll
 0001:0005d826       ?dragLeaveEvent@QLineEdit@@MAEXPAVQDragLeaveEvent@@@Z 0045e826 f   Qt5Widgets:Qt5Widgets.dll
 0001:0005d82c       ?dragMoveEvent@QLineEdit@@MAEXPAVQDragMoveEvent@@@Z 0045e82c f   Qt5Widgets:Qt5Widgets.dll
 0001:0005d832       ?dropEvent@QLineEdit@@MAEXPAVQDropEvent@@@Z 0045e832 f   Qt5Widgets:Qt5Widgets.dll
 0001:0005d838       ?event@QLineEdit@@UAE_NPAVQEvent@@@Z 0045e838 f   Qt5Widgets:Qt5Widgets.dll
 0001:0005d83e       ?event@QPushButton@@MAE_NPAVQEvent@@@Z 0045e83e f   Qt5Widgets:Qt5Widgets.dll
 0001:0005d844       ?eventFilter@QDialog@@MAE_NPAVQObject@@PAVQEvent@@@Z 0045e844 f   Qt5Widgets:Qt5Widgets.dll
 0001:0005d84a       ?exec@QDialog@@UAEHXZ      0045e84a f   Qt5Widgets:Qt5Widgets.dll
 0001:0005d850       ?expandingDirections@QGridLayout@@UBE?AV?$QFlags@W4Orientation@Qt@@@@XZ 0045e850 f   Qt5Widgets:Qt5Widgets.dll
 0001:0005d856       ?expandingDirections@QSpacerItem@@UBE?AV?$QFlags@W4Orientation@Qt@@@@XZ 0045e856 f   Qt5Widgets:Qt5Widgets.dll
 0001:0005d85c       ?focusInEvent@QLineEdit@@MAEXPAVQFocusEvent@@@Z 0045e85c f   Qt5Widgets:Qt5Widgets.dll
 0001:0005d862       ?focusInEvent@QPushButton@@MAEXPAVQFocusEvent@@@Z 0045e862 f   Qt5Widgets:Qt5Widgets.dll
 0001:0005d868       ?focusOutEvent@QLineEdit@@MAEXPAVQFocusEvent@@@Z 0045e868 f   Qt5Widgets:Qt5Widgets.dll
 0001:0005d86e       ?focusOutEvent@QPushButton@@MAEXPAVQFocusEvent@@@Z 0045e86e f   Qt5Widgets:Qt5Widgets.dll
 0001:0005d874       ?geometry@QSpacerItem@@UBE?AVQRect@@XZ 0045e874 f   Qt5Widgets:Qt5Widgets.dll
 0001:0005d87a       ?hasHeightForWidth@QGridLayout@@UBE_NXZ 0045e87a f   Qt5Widgets:Qt5Widgets.dll
 0001:0005d880       ?hasHeightForWidth@QLayoutItem@@UBE_NXZ 0045e880 f   Qt5Widgets:Qt5Widgets.dll
 0001:0005d886       ?heightForWidth@QGridLayout@@UBEHH@Z 0045e886 f   Qt5Widgets:Qt5Widgets.dll
 0001:0005d88c       ?heightForWidth@QLayoutItem@@UBEHH@Z 0045e88c f   Qt5Widgets:Qt5Widgets.dll
 0001:0005d892       ?hitButton@QAbstractButton@@MBE_NABVQPoint@@@Z 0045e892 f   Qt5Widgets:Qt5Widgets.dll
 0001:0005d898       ?inputMethodEvent@QLineEdit@@MAEXPAVQInputMethodEvent@@@Z 0045e898 f   Qt5Widgets:Qt5Widgets.dll
 0001:0005d89e       ?inputMethodQuery@QLineEdit@@UBE?AVQVariant@@W4InputMethodQuery@Qt@@@Z 0045e89e f   Qt5Widgets:Qt5Widgets.dll
 0001:0005d8a4       ?invalidate@QGridLayout@@UAEXXZ 0045e8a4 f   Qt5Widgets:Qt5Widgets.dll
 0001:0005d8aa       ?invalidate@QLayoutItem@@UAEXXZ 0045e8aa f   Qt5Widgets:Qt5Widgets.dll
 0001:0005d8b0       ?isEmpty@QSpacerItem@@UBE_NXZ 0045e8b0 f   Qt5Widgets:Qt5Widgets.dll
 0001:0005d8b6       ?itemAt@QGridLayout@@UBEPAVQLayoutItem@@H@Z 0045e8b6 f   Qt5Widgets:Qt5Widgets.dll
 0001:0005d8bc       ?keyPressEvent@QDialog@@MAEXPAVQKeyEvent@@@Z 0045e8bc f   Qt5Widgets:Qt5Widgets.dll
 0001:0005d8c2       ?keyPressEvent@QLineEdit@@MAEXPAVQKeyEvent@@@Z 0045e8c2 f   Qt5Widgets:Qt5Widgets.dll
 0001:0005d8c8       ?keyPressEvent@QPushButton@@MAEXPAVQKeyEvent@@@Z 0045e8c8 f   Qt5Widgets:Qt5Widgets.dll
 0001:0005d8ce       ?keyReleaseEvent@QAbstractButton@@MAEXPAVQKeyEvent@@@Z 0045e8ce f   Qt5Widgets:Qt5Widgets.dll
 0001:0005d8d4       ?layout@QLayoutItem@@UAEPAVQLayout@@XZ 0045e8d4 f   Qt5Widgets:Qt5Widgets.dll
 0001:0005d8da       ?maximumSize@QGridLayout@@UBE?AVQSize@@XZ 0045e8da f   Qt5Widgets:Qt5Widgets.dll
 0001:0005d8e0       ?maximumSize@QSpacerItem@@UBE?AVQSize@@XZ 0045e8e0 f   Qt5Widgets:Qt5Widgets.dll
 0001:0005d8e6       ?metaObject@QGridLayout@@UBEPBUQMetaObject@@XZ 0045e8e6 f   Qt5Widgets:Qt5Widgets.dll
 0001:0005d8ec       ?metaObject@QLineEdit@@UBEPBUQMetaObject@@XZ 0045e8ec f   Qt5Widgets:Qt5Widgets.dll
 0001:0005d8f2       ?metaObject@QPushButton@@UBEPBUQMetaObject@@XZ 0045e8f2 f   Qt5Widgets:Qt5Widgets.dll
 0001:0005d8f8       ?metaObject@QVBoxLayout@@UBEPBUQMetaObject@@XZ 0045e8f8 f   Qt5Widgets:Qt5Widgets.dll
 0001:0005d8fe       ?metaObject@QWidget@@UBEPBUQMetaObject@@XZ 0045e8fe f   Qt5Widgets:Qt5Widgets.dll
 0001:0005d904       ?minimumHeightForWidth@QGridLayout@@UBEHH@Z 0045e904 f   Qt5Widgets:Qt5Widgets.dll
 0001:0005d90a       ?minimumHeightForWidth@QLayoutItem@@UBEHH@Z 0045e90a f   Qt5Widgets:Qt5Widgets.dll
 0001:0005d910       ?minimumSize@QGridLayout@@UBE?AVQSize@@XZ 0045e910 f   Qt5Widgets:Qt5Widgets.dll
 0001:0005d916       ?minimumSize@QSpacerItem@@UBE?AVQSize@@XZ 0045e916 f   Qt5Widgets:Qt5Widgets.dll
 0001:0005d91c       ?minimumSizeHint@QDialog@@UBE?AVQSize@@XZ 0045e91c f   Qt5Widgets:Qt5Widgets.dll
 0001:0005d922       ?minimumSizeHint@QLineEdit@@UBE?AVQSize@@XZ 0045e922 f   Qt5Widgets:Qt5Widgets.dll
 0001:0005d928       ?minimumSizeHint@QPushButton@@UBE?AVQSize@@XZ 0045e928 f   Qt5Widgets:Qt5Widgets.dll
 0001:0005d92e       ?mouseDoubleClickEvent@QLineEdit@@MAEXPAVQMouseEvent@@@Z 0045e92e f   Qt5Widgets:Qt5Widgets.dll
 0001:0005d934       ?mouseMoveEvent@QAbstractButton@@MAEXPAVQMouseEvent@@@Z 0045e934 f   Qt5Widgets:Qt5Widgets.dll
 0001:0005d93a       ?mouseMoveEvent@QLineEdit@@MAEXPAVQMouseEvent@@@Z 0045e93a f   Qt5Widgets:Qt5Widgets.dll
 0001:0005d940       ?mousePressEvent@QAbstractButton@@MAEXPAVQMouseEvent@@@Z 0045e940 f   Qt5Widgets:Qt5Widgets.dll
 0001:0005d946       ?mousePressEvent@QLineEdit@@MAEXPAVQMouseEvent@@@Z 0045e946 f   Qt5Widgets:Qt5Widgets.dll
 0001:0005d94c       ?mouseReleaseEvent@QAbstractButton@@MAEXPAVQMouseEvent@@@Z 0045e94c f   Qt5Widgets:Qt5Widgets.dll
 0001:0005d952       ?mouseReleaseEvent@QLineEdit@@MAEXPAVQMouseEvent@@@Z 0045e952 f   Qt5Widgets:Qt5Widgets.dll
 0001:0005d958       ?nextCheckState@QAbstractButton@@MAEXXZ 0045e958 f   Qt5Widgets:Qt5Widgets.dll
 0001:0005d95e       ?open@QDialog@@UAEXXZ      0045e95e f   Qt5Widgets:Qt5Widgets.dll
 0001:0005d964       ?paintEvent@QLineEdit@@MAEXPAVQPaintEvent@@@Z 0045e964 f   Qt5Widgets:Qt5Widgets.dll
 0001:0005d96a       ?paintEvent@QPushButton@@MAEXPAVQPaintEvent@@@Z 0045e96a f   Qt5Widgets:Qt5Widgets.dll
 0001:0005d970       ?qt_metacall@QGridLayout@@UAEHW4Call@QMetaObject@@HPAPAX@Z 0045e970 f   Qt5Widgets:Qt5Widgets.dll
 0001:0005d976       ?qt_metacall@QLineEdit@@UAEHW4Call@QMetaObject@@HPAPAX@Z 0045e976 f   Qt5Widgets:Qt5Widgets.dll
 0001:0005d97c       ?qt_metacall@QPushButton@@UAEHW4Call@QMetaObject@@HPAPAX@Z 0045e97c f   Qt5Widgets:Qt5Widgets.dll
 0001:0005d982       ?qt_metacall@QVBoxLayout@@UAEHW4Call@QMetaObject@@HPAPAX@Z 0045e982 f   Qt5Widgets:Qt5Widgets.dll
 0001:0005d988       ?qt_metacall@QWidget@@UAEHW4Call@QMetaObject@@HPAPAX@Z 0045e988 f   Qt5Widgets:Qt5Widgets.dll
 0001:0005d98e       ?qt_metacast@QGridLayout@@UAEPAXPBD@Z 0045e98e f   Qt5Widgets:Qt5Widgets.dll
 0001:0005d994       ?qt_metacast@QLineEdit@@UAEPAXPBD@Z 0045e994 f   Qt5Widgets:Qt5Widgets.dll
 0001:0005d99a       ?qt_metacast@QPushButton@@UAEPAXPBD@Z 0045e99a f   Qt5Widgets:Qt5Widgets.dll
 0001:0005d9a0       ?qt_metacast@QVBoxLayout@@UAEPAXPBD@Z 0045e9a0 f   Qt5Widgets:Qt5Widgets.dll
 0001:0005d9a6       ?qt_metacast@QWidget@@UAEPAXPBD@Z 0045e9a6 f   Qt5Widgets:Qt5Widgets.dll
 0001:0005d9ac       ?reject@QDialog@@UAEXXZ    0045e9ac f   Qt5Widgets:Qt5Widgets.dll
 0001:0005d9b2       ?resizeEvent@QDialog@@MAEXPAVQResizeEvent@@@Z 0045e9b2 f   Qt5Widgets:Qt5Widgets.dll
 0001:0005d9b8       ?setGeometry@QGridLayout@@UAEXABVQRect@@@Z 0045e9b8 f   Qt5Widgets:Qt5Widgets.dll
 0001:0005d9be       ?setGeometry@QSpacerItem@@UAEXABVQRect@@@Z 0045e9be f   Qt5Widgets:Qt5Widgets.dll
 0001:0005d9c4       ?setVisible@QDialog@@UAEX_N@Z 0045e9c4 f   Qt5Widgets:Qt5Widgets.dll
 0001:0005d9ca       ?showEvent@QDialog@@MAEXPAVQShowEvent@@@Z 0045e9ca f   Qt5Widgets:Qt5Widgets.dll
 0001:0005d9d0       ?sizeHint@QDialog@@UBE?AVQSize@@XZ 0045e9d0 f   Qt5Widgets:Qt5Widgets.dll
 0001:0005d9d6       ?sizeHint@QGridLayout@@UBE?AVQSize@@XZ 0045e9d6 f   Qt5Widgets:Qt5Widgets.dll
 0001:0005d9dc       ?sizeHint@QLineEdit@@UBE?AVQSize@@XZ 0045e9dc f   Qt5Widgets:Qt5Widgets.dll
 0001:0005d9e2       ?sizeHint@QPushButton@@UBE?AVQSize@@XZ 0045e9e2 f   Qt5Widgets:Qt5Widgets.dll
 0001:0005d9e8       ?sizeHint@QSpacerItem@@UBE?AVQSize@@XZ 0045e9e8 f   Qt5Widgets:Qt5Widgets.dll
 0001:0005d9ee       ?spacerItem@QSpacerItem@@UAEPAV1@XZ 0045e9ee f   Qt5Widgets:Qt5Widgets.dll
 0001:0005d9f4       ?takeAt@QGridLayout@@UAEPAVQLayoutItem@@H@Z 0045e9f4 f   Qt5Widgets:Qt5Widgets.dll
 0001:0005d9fa       ?timerEvent@QAbstractButton@@MAEXPAVQTimerEvent@@@Z 0045e9fa f   Qt5Widgets:Qt5Widgets.dll
 0001:0005da00       ??MQTableWidgetItem@@UBE_NABV0@@Z 0045ea00 f   Qt5Widgets:Qt5Widgets.dll
 0001:0005da06       ?changeEvent@QFrame@@MAEXPAVQEvent@@@Z 0045ea06 f   Qt5Widgets:Qt5Widgets.dll
 0001:0005da0c       ?clone@QTableWidgetItem@@UBEPAV1@XZ 0045ea0c f   Qt5Widgets:Qt5Widgets.dll
 0001:0005da12       ?closeEditor@QAbstractItemView@@MAEXPAVQWidget@@W4EndEditHint@QAbstractItemDelegate@@@Z 0045ea12 f   Qt5Widgets:Qt5Widgets.dll
 0001:0005da18       ?commitData@QAbstractItemView@@MAEXPAVQWidget@@@Z 0045ea18 f   Qt5Widgets:Qt5Widgets.dll
 0001:0005da1e       ?contextMenuEvent@QAbstractScrollArea@@MAEXPAVQContextMenuEvent@@@Z 0045ea1e f   Qt5Widgets:Qt5Widgets.dll
 0001:0005da24       ?currentChanged@QTableView@@MAEXABVQModelIndex@@0@Z 0045ea24 f   Qt5Widgets:Qt5Widgets.dll
 0001:0005da2a       ?data@QTableWidgetItem@@UBE?AVQVariant@@H@Z 0045ea2a f   Qt5Widgets:Qt5Widgets.dll
 0001:0005da30       ?dataChanged@QAbstractItemView@@MAEXABVQModelIndex@@0ABV?$QVector@H@@@Z 0045ea30 f   Qt5Widgets:Qt5Widgets.dll
 0001:0005da36       ?doItemsLayout@QTableView@@UAEXXZ 0045ea36 f   Qt5Widgets:Qt5Widgets.dll
 0001:0005da3c       ?dragEnterEvent@QAbstractItemView@@MAEXPAVQDragEnterEvent@@@Z 0045ea3c f   Qt5Widgets:Qt5Widgets.dll
 0001:0005da42       ?dragLeaveEvent@QAbstractItemView@@MAEXPAVQDragLeaveEvent@@@Z 0045ea42 f   Qt5Widgets:Qt5Widgets.dll
 0001:0005da48       ?dragMoveEvent@QAbstractItemView@@MAEXPAVQDragMoveEvent@@@Z 0045ea48 f   Qt5Widgets:Qt5Widgets.dll
 0001:0005da4e       ?dropEvent@QTableWidget@@MAEXPAVQDropEvent@@@Z 0045ea4e f   Qt5Widgets:Qt5Widgets.dll
 0001:0005da54       ?dropMimeData@QTableWidget@@MAE_NHHPBVQMimeData@@W4DropAction@Qt@@@Z 0045ea54 f   Qt5Widgets:Qt5Widgets.dll
 0001:0005da5a       ?edit@QAbstractItemView@@MAE_NABVQModelIndex@@W4EditTrigger@1@PAVQEvent@@@Z 0045ea5a f   Qt5Widgets:Qt5Widgets.dll
 0001:0005da60       ?editorDestroyed@QAbstractItemView@@MAEXPAVQObject@@@Z 0045ea60 f   Qt5Widgets:Qt5Widgets.dll
 0001:0005da66       ?event@QTableWidget@@MAE_NPAVQEvent@@@Z 0045ea66 f   Qt5Widgets:Qt5Widgets.dll
 0001:0005da6c       ?eventFilter@QAbstractItemView@@MAE_NPAVQObject@@PAVQEvent@@@Z 0045ea6c f   Qt5Widgets:Qt5Widgets.dll
 0001:0005da72       ?focusInEvent@QAbstractItemView@@MAEXPAVQFocusEvent@@@Z 0045ea72 f   Qt5Widgets:Qt5Widgets.dll
 0001:0005da78       ?focusNextPrevChild@QAbstractItemView@@MAE_N_N@Z 0045ea78 f   Qt5Widgets:Qt5Widgets.dll
 0001:0005da7e       ?focusOutEvent@QAbstractItemView@@MAEXPAVQFocusEvent@@@Z 0045ea7e f   Qt5Widgets:Qt5Widgets.dll
 0001:0005da84       ?horizontalOffset@QTableView@@MBEHXZ 0045ea84 f   Qt5Widgets:Qt5Widgets.dll
 0001:0005da8a       ?horizontalScrollbarAction@QTableView@@MAEXH@Z 0045ea8a f   Qt5Widgets:Qt5Widgets.dll
 0001:0005da90       ?horizontalScrollbarValueChanged@QAbstractItemView@@MAEXH@Z 0045ea90 f   Qt5Widgets:Qt5Widgets.dll
 0001:0005da96       ?indexAt@QTableView@@UBE?AVQModelIndex@@ABVQPoint@@@Z 0045ea96 f   Qt5Widgets:Qt5Widgets.dll
 0001:0005da9c       ?inputMethodEvent@QAbstractItemView@@MAEXPAVQInputMethodEvent@@@Z 0045ea9c f   Qt5Widgets:Qt5Widgets.dll
 0001:0005daa2       ?inputMethodQuery@QAbstractItemView@@UBE?AVQVariant@@W4InputMethodQuery@Qt@@@Z 0045eaa2 f   Qt5Widgets:Qt5Widgets.dll
 0001:0005daa8       ?isIndexHidden@QTableView@@MBE_NABVQModelIndex@@@Z 0045eaa8 f   Qt5Widgets:Qt5Widgets.dll
 0001:0005daae       ?keyPressEvent@QAbstractItemView@@MAEXPAVQKeyEvent@@@Z 0045eaae f   Qt5Widgets:Qt5Widgets.dll
 0001:0005dab4       ?keyboardSearch@QAbstractItemView@@UAEXABVQString@@@Z 0045eab4 f   Qt5Widgets:Qt5Widgets.dll
 0001:0005daba       ?metaObject@QTableWidget@@UBEPBUQMetaObject@@XZ 0045eaba f   Qt5Widgets:Qt5Widgets.dll
 0001:0005dac0       ?mimeData@QTableWidget@@MBEPAVQMimeData@@V?$QList@PAVQTableWidgetItem@@@@@Z 0045eac0 f   Qt5Widgets:Qt5Widgets.dll
 0001:0005dac6       ?mimeTypes@QTableWidget@@MBE?AVQStringList@@XZ 0045eac6 f   Qt5Widgets:Qt5Widgets.dll
 0001:0005dacc       ?minimumSizeHint@QAbstractScrollArea@@UBE?AVQSize@@XZ 0045eacc f   Qt5Widgets:Qt5Widgets.dll
 0001:0005dad2       ?mouseDoubleClickEvent@QAbstractItemView@@MAEXPAVQMouseEvent@@@Z 0045ead2 f   Qt5Widgets:Qt5Widgets.dll
 0001:0005dad8       ?mouseMoveEvent@QAbstractItemView@@MAEXPAVQMouseEvent@@@Z 0045ead8 f   Qt5Widgets:Qt5Widgets.dll
 0001:0005dade       ?mousePressEvent@QAbstractItemView@@MAEXPAVQMouseEvent@@@Z 0045eade f   Qt5Widgets:Qt5Widgets.dll
 0001:0005dae4       ?mouseReleaseEvent@QAbstractItemView@@MAEXPAVQMouseEvent@@@Z 0045eae4 f   Qt5Widgets:Qt5Widgets.dll
 0001:0005daea       ?moveCursor@QTableView@@MAE?AVQModelIndex@@W4CursorAction@QAbstractItemView@@V?$QFlags@W4KeyboardModifier@Qt@@@@@Z 0045eaea f   Qt5Widgets:Qt5Widgets.dll
 0001:0005daf0       ?paintEvent@QTableView@@MAEXPAVQPaintEvent@@@Z 0045eaf0 f   Qt5Widgets:Qt5Widgets.dll
 0001:0005daf6       ?qt_metacall@QTableWidget@@UAEHW4Call@QMetaObject@@HPAPAX@Z 0045eaf6 f   Qt5Widgets:Qt5Widgets.dll
 0001:0005dafc       ?qt_metacast@QTableWidget@@UAEPAXPBD@Z 0045eafc f   Qt5Widgets:Qt5Widgets.dll
 0001:0005db02       ?read@QTableWidgetItem@@UAEXAAVQDataStream@@@Z 0045eb02 f   Qt5Widgets:Qt5Widgets.dll
 0001:0005db08       ?reset@QAbstractItemView@@UAEXXZ 0045eb08 f   Qt5Widgets:Qt5Widgets.dll
 0001:0005db0e       ?resizeEvent@QAbstractItemView@@MAEXPAVQResizeEvent@@@Z 0045eb0e f   Qt5Widgets:Qt5Widgets.dll
 0001:0005db14       ?rowsAboutToBeRemoved@QAbstractItemView@@MAEXABVQModelIndex@@HH@Z 0045eb14 f   Qt5Widgets:Qt5Widgets.dll
 0001:0005db1a       ?rowsInserted@QAbstractItemView@@MAEXABVQModelIndex@@HH@Z 0045eb1a f   Qt5Widgets:Qt5Widgets.dll
 0001:0005db20       ?scrollContentsBy@QTableView@@MAEXHH@Z 0045eb20 f   Qt5Widgets:Qt5Widgets.dll
 0001:0005db26       ?scrollTo@QTableView@@UAEXABVQModelIndex@@W4ScrollHint@QAbstractItemView@@@Z 0045eb26 f   Qt5Widgets:Qt5Widgets.dll
 0001:0005db2c       ?selectAll@QAbstractItemView@@UAEXXZ 0045eb2c f   Qt5Widgets:Qt5Widgets.dll
 0001:0005db32       ?selectedIndexes@QTableView@@MBE?AV?$QList@VQModelIndex@@@@XZ 0045eb32 f   Qt5Widgets:Qt5Widgets.dll
 0001:0005db38       ?selectionChanged@QTableView@@MAEXABVQItemSelection@@0@Z 0045eb38 f   Qt5Widgets:Qt5Widgets.dll
 0001:0005db3e       ?selectionCommand@QAbstractItemView@@MBE?AV?$QFlags@W4SelectionFlag@QItemSelectionModel@@@@ABVQModelIndex@@PBVQEvent@@@Z 0045eb3e f   Qt5Widgets:Qt5Widgets.dll
 0001:0005db44       ?setData@QTableWidgetItem@@UAEXHABVQVariant@@@Z 0045eb44 f   Qt5Widgets:Qt5Widgets.dll
 0001:0005db4a       ?setModel@QTableWidget@@EAEXPAVQAbstractItemModel@@@Z 0045eb4a f   Qt5Widgets:Qt5Widgets.dll
 0001:0005db50       ?setRootIndex@QTableView@@UAEXABVQModelIndex@@@Z 0045eb50 f   Qt5Widgets:Qt5Widgets.dll
 0001:0005db56       ?setSelection@QTableView@@MAEXABVQRect@@V?$QFlags@W4SelectionFlag@QItemSelectionModel@@@@@Z 0045eb56 f   Qt5Widgets:Qt5Widgets.dll
 0001:0005db5c       ?setSelectionModel@QTableView@@UAEXPAVQItemSelectionModel@@@Z 0045eb5c f   Qt5Widgets:Qt5Widgets.dll
 0001:0005db62       ?setupViewport@QAbstractScrollArea@@UAEXPAVQWidget@@@Z 0045eb62 f   Qt5Widgets:Qt5Widgets.dll
 0001:0005db68       ?sizeHint@QAbstractScrollArea@@UBE?AVQSize@@XZ 0045eb68 f   Qt5Widgets:Qt5Widgets.dll
 0001:0005db6e       ?sizeHintForColumn@QTableView@@MBEHH@Z 0045eb6e f   Qt5Widgets:Qt5Widgets.dll
 0001:0005db74       ?sizeHintForRow@QTableView@@MBEHH@Z 0045eb74 f   Qt5Widgets:Qt5Widgets.dll
 0001:0005db7a       ?startDrag@QAbstractItemView@@MAEXV?$QFlags@W4DropAction@Qt@@@@@Z 0045eb7a f   Qt5Widgets:Qt5Widgets.dll
 0001:0005db80       ?supportedDropActions@QTableWidget@@MBE?AV?$QFlags@W4DropAction@Qt@@@@XZ 0045eb80 f   Qt5Widgets:Qt5Widgets.dll
 0001:0005db86       ?timerEvent@QTableView@@MAEXPAVQTimerEvent@@@Z 0045eb86 f   Qt5Widgets:Qt5Widgets.dll
 0001:0005db8c       ?updateEditorData@QAbstractItemView@@MAEXXZ 0045eb8c f   Qt5Widgets:Qt5Widgets.dll
 0001:0005db92       ?updateEditorGeometries@QAbstractItemView@@MAEXXZ 0045eb92 f   Qt5Widgets:Qt5Widgets.dll
 0001:0005db98       ?updateGeometries@QTableView@@MAEXXZ 0045eb98 f   Qt5Widgets:Qt5Widgets.dll
 0001:0005db9e       ?verticalOffset@QTableView@@MBEHXZ 0045eb9e f   Qt5Widgets:Qt5Widgets.dll
 0001:0005dba4       ?verticalScrollbarAction@QTableView@@MAEXH@Z 0045eba4 f   Qt5Widgets:Qt5Widgets.dll
 0001:0005dbaa       ?verticalScrollbarValueChanged@QAbstractItemView@@MAEXH@Z 0045ebaa f   Qt5Widgets:Qt5Widgets.dll
 0001:0005dbb0       ?viewOptions@QTableView@@MBE?AVQStyleOptionViewItem@@XZ 0045ebb0 f   Qt5Widgets:Qt5Widgets.dll
 0001:0005dbb6       ?viewportEvent@QAbstractItemView@@MAE_NPAVQEvent@@@Z 0045ebb6 f   Qt5Widgets:Qt5Widgets.dll
 0001:0005dbbc       ?viewportSizeHint@QTableView@@MBE?AVQSize@@XZ 0045ebbc f   Qt5Widgets:Qt5Widgets.dll
 0001:0005dbc2       ?visualRect@QTableView@@UBE?AVQRect@@ABVQModelIndex@@@Z 0045ebc2 f   Qt5Widgets:Qt5Widgets.dll
 0001:0005dbc8       ?visualRegionForSelection@QTableView@@MBE?AVQRegion@@ABVQItemSelection@@@Z 0045ebc8 f   Qt5Widgets:Qt5Widgets.dll
 0001:0005dbce       ?wheelEvent@QAbstractScrollArea@@MAEXPAVQWheelEvent@@@Z 0045ebce f   Qt5Widgets:Qt5Widgets.dll
 0001:0005dbd4       ?write@QTableWidgetItem@@UBEXAAVQDataStream@@@Z 0045ebd4 f   Qt5Widgets:Qt5Widgets.dll
 0001:0005dbda       ?changeEvent@QComboBox@@MAEXPAVQEvent@@@Z 0045ebda f   Qt5Widgets:Qt5Widgets.dll
 0001:0005dbe0       ?checkStateSet@QCheckBox@@MAEXXZ 0045ebe0 f   Qt5Widgets:Qt5Widgets.dll
 0001:0005dbe6       ?contextMenuEvent@QComboBox@@MAEXPAVQContextMenuEvent@@@Z 0045ebe6 f   Qt5Widgets:Qt5Widgets.dll
 0001:0005dbec       ?event@QCheckBox@@MAE_NPAVQEvent@@@Z 0045ebec f   Qt5Widgets:Qt5Widgets.dll
 0001:0005dbf2       ?event@QComboBox@@UAE_NPAVQEvent@@@Z 0045ebf2 f   Qt5Widgets:Qt5Widgets.dll
 0001:0005dbf8       ?focusInEvent@QAbstractButton@@MAEXPAVQFocusEvent@@@Z 0045ebf8 f   Qt5Widgets:Qt5Widgets.dll
 0001:0005dbfe       ?focusInEvent@QComboBox@@MAEXPAVQFocusEvent@@@Z 0045ebfe f   Qt5Widgets:Qt5Widgets.dll
 0001:0005dc04       ?focusOutEvent@QAbstractButton@@MAEXPAVQFocusEvent@@@Z 0045ec04 f   Qt5Widgets:Qt5Widgets.dll
 0001:0005dc0a       ?focusOutEvent@QComboBox@@MAEXPAVQFocusEvent@@@Z 0045ec0a f   Qt5Widgets:Qt5Widgets.dll
 0001:0005dc10       ?hideEvent@QComboBox@@MAEXPAVQHideEvent@@@Z 0045ec10 f   Qt5Widgets:Qt5Widgets.dll
 0001:0005dc16       ?hidePopup@QComboBox@@UAEXXZ 0045ec16 f   Qt5Widgets:Qt5Widgets.dll
 0001:0005dc1c       ?hitButton@QCheckBox@@MBE_NABVQPoint@@@Z 0045ec1c f   Qt5Widgets:Qt5Widgets.dll
 0001:0005dc22       ?inputMethodEvent@QComboBox@@MAEXPAVQInputMethodEvent@@@Z 0045ec22 f   Qt5Widgets:Qt5Widgets.dll
 0001:0005dc28       ?inputMethodQuery@QComboBox@@UBE?AVQVariant@@W4InputMethodQuery@Qt@@@Z 0045ec28 f   Qt5Widgets:Qt5Widgets.dll
 0001:0005dc2e       ?keyPressEvent@QAbstractButton@@MAEXPAVQKeyEvent@@@Z 0045ec2e f   Qt5Widgets:Qt5Widgets.dll
 0001:0005dc34       ?keyPressEvent@QComboBox@@MAEXPAVQKeyEvent@@@Z 0045ec34 f   Qt5Widgets:Qt5Widgets.dll
 0001:0005dc3a       ?keyReleaseEvent@QComboBox@@MAEXPAVQKeyEvent@@@Z 0045ec3a f   Qt5Widgets:Qt5Widgets.dll
 0001:0005dc40       ?metaObject@QCheckBox@@UBEPBUQMetaObject@@XZ 0045ec40 f   Qt5Widgets:Qt5Widgets.dll
 0001:0005dc46       ?metaObject@QComboBox@@UBEPBUQMetaObject@@XZ 0045ec46 f   Qt5Widgets:Qt5Widgets.dll
 0001:0005dc4c       ?minimumSizeHint@QCheckBox@@UBE?AVQSize@@XZ 0045ec4c f   Qt5Widgets:Qt5Widgets.dll
 0001:0005dc52       ?minimumSizeHint@QComboBox@@UBE?AVQSize@@XZ 0045ec52 f   Qt5Widgets:Qt5Widgets.dll
 0001:0005dc58       ?mouseMoveEvent@QCheckBox@@MAEXPAVQMouseEvent@@@Z 0045ec58 f   Qt5Widgets:Qt5Widgets.dll
 0001:0005dc5e       ?mousePressEvent@QComboBox@@MAEXPAVQMouseEvent@@@Z 0045ec5e f   Qt5Widgets:Qt5Widgets.dll
 0001:0005dc64       ?mouseReleaseEvent@QComboBox@@MAEXPAVQMouseEvent@@@Z 0045ec64 f   Qt5Widgets:Qt5Widgets.dll
 0001:0005dc6a       ?nextCheckState@QCheckBox@@MAEXXZ 0045ec6a f   Qt5Widgets:Qt5Widgets.dll
 0001:0005dc70       ?paintEvent@QCheckBox@@MAEXPAVQPaintEvent@@@Z 0045ec70 f   Qt5Widgets:Qt5Widgets.dll
 0001:0005dc76       ?paintEvent@QComboBox@@MAEXPAVQPaintEvent@@@Z 0045ec76 f   Qt5Widgets:Qt5Widgets.dll
 0001:0005dc7c       ?qt_metacall@QCheckBox@@UAEHW4Call@QMetaObject@@HPAPAX@Z 0045ec7c f   Qt5Widgets:Qt5Widgets.dll
 0001:0005dc82       ?qt_metacall@QComboBox@@UAEHW4Call@QMetaObject@@HPAPAX@Z 0045ec82 f   Qt5Widgets:Qt5Widgets.dll
 0001:0005dc88       ?qt_metacast@QCheckBox@@UAEPAXPBD@Z 0045ec88 f   Qt5Widgets:Qt5Widgets.dll
 0001:0005dc8e       ?qt_metacast@QComboBox@@UAEPAXPBD@Z 0045ec8e f   Qt5Widgets:Qt5Widgets.dll
 0001:0005dc94       ?resizeEvent@QComboBox@@MAEXPAVQResizeEvent@@@Z 0045ec94 f   Qt5Widgets:Qt5Widgets.dll
 0001:0005dc9a       ?showEvent@QComboBox@@MAEXPAVQShowEvent@@@Z 0045ec9a f   Qt5Widgets:Qt5Widgets.dll
 0001:0005dca0       ?showPopup@QComboBox@@UAEXXZ 0045eca0 f   Qt5Widgets:Qt5Widgets.dll
 0001:0005dca6       ?sizeHint@QCheckBox@@UBE?AVQSize@@XZ 0045eca6 f   Qt5Widgets:Qt5Widgets.dll
 0001:0005dcac       ?sizeHint@QComboBox@@UBE?AVQSize@@XZ 0045ecac f   Qt5Widgets:Qt5Widgets.dll
 0001:0005dcb2       ?wheelEvent@QComboBox@@MAEXPAVQWheelEvent@@@Z 0045ecb2 f   Qt5Widgets:Qt5Widgets.dll
 0001:0005dcb8       ?actionEvent@QMenu@@MAEXPAVQActionEvent@@@Z 0045ecb8 f   Qt5Widgets:Qt5Widgets.dll
 0001:0005dcbe       ?changeEvent@QMenu@@MAEXPAVQEvent@@@Z 0045ecbe f   Qt5Widgets:Qt5Widgets.dll
 0001:0005dcc4       ?enterEvent@QMenu@@MAEXPAVQEvent@@@Z 0045ecc4 f   Qt5Widgets:Qt5Widgets.dll
 0001:0005dcca       ?event@QAction@@MAE_NPAVQEvent@@@Z 0045ecca f   Qt5Widgets:Qt5Widgets.dll
 0001:0005dcd0       ?event@QMenu@@MAE_NPAVQEvent@@@Z 0045ecd0 f   Qt5Widgets:Qt5Widgets.dll
 0001:0005dcd6       ?focusNextPrevChild@QMenu@@MAE_N_N@Z 0045ecd6 f   Qt5Widgets:Qt5Widgets.dll
 0001:0005dcdc       ?hideEvent@QMenu@@MAEXPAVQHideEvent@@@Z 0045ecdc f   Qt5Widgets:Qt5Widgets.dll
 0001:0005dce2       ?keyPressEvent@QMenu@@MAEXPAVQKeyEvent@@@Z 0045ece2 f   Qt5Widgets:Qt5Widgets.dll
 0001:0005dce8       ?leaveEvent@QMenu@@MAEXPAVQEvent@@@Z 0045ece8 f   Qt5Widgets:Qt5Widgets.dll
 0001:0005dcee       ?metaObject@QAction@@UBEPBUQMetaObject@@XZ 0045ecee f   Qt5Widgets:Qt5Widgets.dll
 0001:0005dcf4       ?metaObject@QMenu@@UBEPBUQMetaObject@@XZ 0045ecf4 f   Qt5Widgets:Qt5Widgets.dll
 0001:0005dcfa       ?mouseMoveEvent@QMenu@@MAEXPAVQMouseEvent@@@Z 0045ecfa f   Qt5Widgets:Qt5Widgets.dll
 0001:0005dd00       ?mousePressEvent@QMenu@@MAEXPAVQMouseEvent@@@Z 0045ed00 f   Qt5Widgets:Qt5Widgets.dll
 0001:0005dd06       ?mouseReleaseEvent@QMenu@@MAEXPAVQMouseEvent@@@Z 0045ed06 f   Qt5Widgets:Qt5Widgets.dll
 0001:0005dd0c       ?paintEvent@QMenu@@MAEXPAVQPaintEvent@@@Z 0045ed0c f   Qt5Widgets:Qt5Widgets.dll
 0001:0005dd12       ?qt_metacall@QAction@@UAEHW4Call@QMetaObject@@HPAPAX@Z 0045ed12 f   Qt5Widgets:Qt5Widgets.dll
 0001:0005dd18       ?qt_metacall@QMenu@@UAEHW4Call@QMetaObject@@HPAPAX@Z 0045ed18 f   Qt5Widgets:Qt5Widgets.dll
 0001:0005dd1e       ?qt_metacast@QAction@@UAEPAXPBD@Z 0045ed1e f   Qt5Widgets:Qt5Widgets.dll
 0001:0005dd24       ?qt_metacast@QMenu@@UAEPAXPBD@Z 0045ed24 f   Qt5Widgets:Qt5Widgets.dll
 0001:0005dd2a       ?sizeHint@QMenu@@UBE?AVQSize@@XZ 0045ed2a f   Qt5Widgets:Qt5Widgets.dll
 0001:0005dd30       ?timerEvent@QMenu@@MAEXPAVQTimerEvent@@@Z 0045ed30 f   Qt5Widgets:Qt5Widgets.dll
 0001:0005dd36       ?wheelEvent@QMenu@@MAEXPAVQWheelEvent@@@Z 0045ed36 f   Qt5Widgets:Qt5Widgets.dll
 0001:0005dd3c       ?changeEvent@QTabWidget@@MAEXPAVQEvent@@@Z 0045ed3c f   Qt5Widgets:Qt5Widgets.dll
 0001:0005dd42       ?childEvent@QMdiArea@@MAEXPAVQChildEvent@@@Z 0045ed42 f   Qt5Widgets:Qt5Widgets.dll
 0001:0005dd48       ?dragEnterEvent@QAbstractScrollArea@@MAEXPAVQDragEnterEvent@@@Z 0045ed48 f   Qt5Widgets:Qt5Widgets.dll
 0001:0005dd4e       ?dragLeaveEvent@QAbstractScrollArea@@MAEXPAVQDragLeaveEvent@@@Z 0045ed4e f   Qt5Widgets:Qt5Widgets.dll
 0001:0005dd54       ?dragMoveEvent@QAbstractScrollArea@@MAEXPAVQDragMoveEvent@@@Z 0045ed54 f   Qt5Widgets:Qt5Widgets.dll
 0001:0005dd5a       ?dropEvent@QAbstractScrollArea@@MAEXPAVQDropEvent@@@Z 0045ed5a f   Qt5Widgets:Qt5Widgets.dll
 0001:0005dd60       ?event@QFrame@@MAE_NPAVQEvent@@@Z 0045ed60 f   Qt5Widgets:Qt5Widgets.dll
 0001:0005dd66       ?event@QMdiArea@@MAE_NPAVQEvent@@@Z 0045ed66 f   Qt5Widgets:Qt5Widgets.dll
 0001:0005dd6c       ?event@QScrollArea@@MAE_NPAVQEvent@@@Z 0045ed6c f   Qt5Widgets:Qt5Widgets.dll
 0001:0005dd72       ?event@QSpinBox@@MAE_NPAVQEvent@@@Z 0045ed72 f   Qt5Widgets:Qt5Widgets.dll
 0001:0005dd78       ?event@QTabWidget@@MAE_NPAVQEvent@@@Z 0045ed78 f   Qt5Widgets:Qt5Widgets.dll
 0001:0005dd7e       ?eventFilter@QMdiArea@@MAE_NPAVQObject@@PAVQEvent@@@Z 0045ed7e f   Qt5Widgets:Qt5Widgets.dll
 0001:0005dd84       ?eventFilter@QScrollArea@@MAE_NPAVQObject@@PAVQEvent@@@Z 0045ed84 f   Qt5Widgets:Qt5Widgets.dll
 0001:0005dd8a       ?fixup@QSpinBox@@MBEXAAVQString@@@Z 0045ed8a f   Qt5Widgets:Qt5Widgets.dll
 0001:0005dd90       ?focusNextPrevChild@QScrollArea@@UAE_N_N@Z 0045ed90 f   Qt5Widgets:Qt5Widgets.dll
 0001:0005dd96       ?hasHeightForWidth@QTabWidget@@UBE_NXZ 0045ed96 f   Qt5Widgets:Qt5Widgets.dll
 0001:0005dd9c       ?heightForWidth@QTabWidget@@UBEHH@Z 0045ed9c f   Qt5Widgets:Qt5Widgets.dll
 0001:0005dda2       ?keyPressEvent@QAbstractScrollArea@@MAEXPAVQKeyEvent@@@Z 0045eda2 f   Qt5Widgets:Qt5Widgets.dll
 0001:0005dda8       ?keyPressEvent@QTabWidget@@MAEXPAVQKeyEvent@@@Z 0045eda8 f   Qt5Widgets:Qt5Widgets.dll
 0001:0005ddae       ?metaObject@QButtonGroup@@UBEPBUQMetaObject@@XZ 0045edae f   Qt5Widgets:Qt5Widgets.dll
 0001:0005ddb4       ?metaObject@QFrame@@UBEPBUQMetaObject@@XZ 0045edb4 f   Qt5Widgets:Qt5Widgets.dll
 0001:0005ddba       ?metaObject@QMdiArea@@UBEPBUQMetaObject@@XZ 0045edba f   Qt5Widgets:Qt5Widgets.dll
 0001:0005ddc0       ?metaObject@QScrollArea@@UBEPBUQMetaObject@@XZ 0045edc0 f   Qt5Widgets:Qt5Widgets.dll
 0001:0005ddc6       ?metaObject@QSpinBox@@UBEPBUQMetaObject@@XZ 0045edc6 f   Qt5Widgets:Qt5Widgets.dll
 0001:0005ddcc       ?metaObject@QTabWidget@@UBEPBUQMetaObject@@XZ 0045edcc f   Qt5Widgets:Qt5Widgets.dll
 0001:0005ddd2       ?minimumSizeHint@QMdiArea@@UBE?AVQSize@@XZ 0045edd2 f   Qt5Widgets:Qt5Widgets.dll
 0001:0005ddd8       ?minimumSizeHint@QTabWidget@@UBE?AVQSize@@XZ 0045edd8 f   Qt5Widgets:Qt5Widgets.dll
 0001:0005ddde       ?mouseDoubleClickEvent@QAbstractScrollArea@@MAEXPAVQMouseEvent@@@Z 0045edde f   Qt5Widgets:Qt5Widgets.dll
 0001:0005dde4       ?mouseMoveEvent@QAbstractScrollArea@@MAEXPAVQMouseEvent@@@Z 0045ede4 f   Qt5Widgets:Qt5Widgets.dll
 0001:0005ddea       ?mousePressEvent@QAbstractScrollArea@@MAEXPAVQMouseEvent@@@Z 0045edea f   Qt5Widgets:Qt5Widgets.dll
 0001:0005ddf0       ?mouseReleaseEvent@QAbstractScrollArea@@MAEXPAVQMouseEvent@@@Z 0045edf0 f   Qt5Widgets:Qt5Widgets.dll
 0001:0005ddf6       ?paintEvent@QAbstractScrollArea@@MAEXPAVQPaintEvent@@@Z 0045edf6 f   Qt5Widgets:Qt5Widgets.dll
 0001:0005ddfc       ?paintEvent@QFrame@@MAEXPAVQPaintEvent@@@Z 0045edfc f   Qt5Widgets:Qt5Widgets.dll
 0001:0005de02       ?paintEvent@QMdiArea@@MAEXPAVQPaintEvent@@@Z 0045ee02 f   Qt5Widgets:Qt5Widgets.dll
 0001:0005de08       ?paintEvent@QTabWidget@@MAEXPAVQPaintEvent@@@Z 0045ee08 f   Qt5Widgets:Qt5Widgets.dll
 0001:0005de0e       ?qt_metacall@QButtonGroup@@UAEHW4Call@QMetaObject@@HPAPAX@Z 0045ee0e f   Qt5Widgets:Qt5Widgets.dll
 0001:0005de14       ?qt_metacall@QFrame@@UAEHW4Call@QMetaObject@@HPAPAX@Z 0045ee14 f   Qt5Widgets:Qt5Widgets.dll
 0001:0005de1a       ?qt_metacall@QMdiArea@@UAEHW4Call@QMetaObject@@HPAPAX@Z 0045ee1a f   Qt5Widgets:Qt5Widgets.dll
 0001:0005de20       ?qt_metacall@QScrollArea@@UAEHW4Call@QMetaObject@@HPAPAX@Z 0045ee20 f   Qt5Widgets:Qt5Widgets.dll
 0001:0005de26       ?qt_metacall@QSpinBox@@UAEHW4Call@QMetaObject@@HPAPAX@Z 0045ee26 f   Qt5Widgets:Qt5Widgets.dll
 0001:0005de2c       ?qt_metacall@QTabWidget@@UAEHW4Call@QMetaObject@@HPAPAX@Z 0045ee2c f   Qt5Widgets:Qt5Widgets.dll
 0001:0005de32       ?qt_metacast@QButtonGroup@@UAEPAXPBD@Z 0045ee32 f   Qt5Widgets:Qt5Widgets.dll
 0001:0005de38       ?qt_metacast@QFrame@@UAEPAXPBD@Z 0045ee38 f   Qt5Widgets:Qt5Widgets.dll
 0001:0005de3e       ?qt_metacast@QMdiArea@@UAEPAXPBD@Z 0045ee3e f   Qt5Widgets:Qt5Widgets.dll
 0001:0005de44       ?qt_metacast@QScrollArea@@UAEPAXPBD@Z 0045ee44 f   Qt5Widgets:Qt5Widgets.dll
 0001:0005de4a       ?qt_metacast@QSpinBox@@UAEPAXPBD@Z 0045ee4a f   Qt5Widgets:Qt5Widgets.dll
 0001:0005de50       ?qt_metacast@QTabWidget@@UAEPAXPBD@Z 0045ee50 f   Qt5Widgets:Qt5Widgets.dll
 0001:0005de56       ?resizeEvent@QMdiArea@@MAEXPAVQResizeEvent@@@Z 0045ee56 f   Qt5Widgets:Qt5Widgets.dll
 0001:0005de5c       ?resizeEvent@QScrollArea@@MAEXPAVQResizeEvent@@@Z 0045ee5c f   Qt5Widgets:Qt5Widgets.dll
 0001:0005de62       ?resizeEvent@QTabWidget@@MAEXPAVQResizeEvent@@@Z 0045ee62 f   Qt5Widgets:Qt5Widgets.dll
 0001:0005de68       ?scrollContentsBy@QMdiArea@@MAEXHH@Z 0045ee68 f   Qt5Widgets:Qt5Widgets.dll
 0001:0005de6e       ?scrollContentsBy@QScrollArea@@MAEXHH@Z 0045ee6e f   Qt5Widgets:Qt5Widgets.dll
 0001:0005de74       ?setupViewport@QMdiArea@@MAEXPAVQWidget@@@Z 0045ee74 f   Qt5Widgets:Qt5Widgets.dll
 0001:0005de7a       ?showEvent@QMdiArea@@MAEXPAVQShowEvent@@@Z 0045ee7a f   Qt5Widgets:Qt5Widgets.dll
 0001:0005de80       ?showEvent@QTabWidget@@MAEXPAVQShowEvent@@@Z 0045ee80 f   Qt5Widgets:Qt5Widgets.dll
 0001:0005de86       ?sizeHint@QFrame@@UBE?AVQSize@@XZ 0045ee86 f   Qt5Widgets:Qt5Widgets.dll
 0001:0005de8c       ?sizeHint@QMdiArea@@UBE?AVQSize@@XZ 0045ee8c f   Qt5Widgets:Qt5Widgets.dll
 0001:0005de92       ?sizeHint@QScrollArea@@UBE?AVQSize@@XZ 0045ee92 f   Qt5Widgets:Qt5Widgets.dll
 0001:0005de98       ?sizeHint@QTabWidget@@UBE?AVQSize@@XZ 0045ee98 f   Qt5Widgets:Qt5Widgets.dll
 0001:0005de9e       ?tabInserted@QTabWidget@@MAEXH@Z 0045ee9e f   Qt5Widgets:Qt5Widgets.dll
 0001:0005dea4       ?tabRemoved@QTabWidget@@MAEXH@Z 0045eea4 f   Qt5Widgets:Qt5Widgets.dll
 0001:0005deaa       ?textFromValue@QSpinBox@@MBE?AVQString@@H@Z 0045eeaa f   Qt5Widgets:Qt5Widgets.dll
 0001:0005deb0       ?timerEvent@QMdiArea@@MAEXPAVQTimerEvent@@@Z 0045eeb0 f   Qt5Widgets:Qt5Widgets.dll
 0001:0005deb6       ?validate@QSpinBox@@MBE?AW4State@QValidator@@AAVQString@@AAH@Z 0045eeb6 f   Qt5Widgets:Qt5Widgets.dll
 0001:0005debc       ?valueFromText@QSpinBox@@MBEHABVQString@@@Z 0045eebc f   Qt5Widgets:Qt5Widgets.dll
 0001:0005dec2       ?viewportEvent@QAbstractScrollArea@@MAE_NPAVQEvent@@@Z 0045eec2 f   Qt5Widgets:Qt5Widgets.dll
 0001:0005dec8       ?viewportEvent@QMdiArea@@MAE_NPAVQEvent@@@Z 0045eec8 f   Qt5Widgets:Qt5Widgets.dll
 0001:0005dece       ?viewportSizeHint@QAbstractScrollArea@@MBE?AVQSize@@XZ 0045eece f   Qt5Widgets:Qt5Widgets.dll
 0001:0005ded4       ?viewportSizeHint@QScrollArea@@MBE?AVQSize@@XZ 0045eed4 f   Qt5Widgets:Qt5Widgets.dll
 0001:0005deda       ?backward@QTextBrowser@@UAEXXZ 0045eeda f   Qt5Widgets:Qt5Widgets.dll
 0001:0005dee0       ?canInsertFromMimeData@QTextEdit@@MBE_NPBVQMimeData@@@Z 0045eee0 f   Qt5Widgets:Qt5Widgets.dll
 0001:0005dee6       ?changeEvent@QDockWidget@@MAEXPAVQEvent@@@Z 0045eee6 f   Qt5Widgets:Qt5Widgets.dll
 0001:0005deec       ?changeEvent@QTextEdit@@MAEXPAVQEvent@@@Z 0045eeec f   Qt5Widgets:Qt5Widgets.dll
 0001:0005def2       ?closeEvent@QDockWidget@@MAEXPAVQCloseEvent@@@Z 0045eef2 f   Qt5Widgets:Qt5Widgets.dll
 0001:0005def8       ?contextMenuEvent@QMainWindow@@MAEXPAVQContextMenuEvent@@@Z 0045eef8 f   Qt5Widgets:Qt5Widgets.dll
 0001:0005defe       ?contextMenuEvent@QTextEdit@@MAEXPAVQContextMenuEvent@@@Z 0045eefe f   Qt5Widgets:Qt5Widgets.dll
 0001:0005df04       ?createMimeDataFromSelection@QTextEdit@@MBEPAVQMimeData@@XZ 0045ef04 f   Qt5Widgets:Qt5Widgets.dll
 0001:0005df0a       ?createPopupMenu@QMainWindow@@UAEPAVQMenu@@XZ 0045ef0a f   Qt5Widgets:Qt5Widgets.dll
 0001:0005df10       ?currentChanged@QTreeView@@MAEXABVQModelIndex@@0@Z 0045ef10 f   Qt5Widgets:Qt5Widgets.dll
 0001:0005df16       ?dataChanged@QTreeView@@UAEXABVQModelIndex@@0ABV?$QVector@H@@@Z 0045ef16 f   Qt5Widgets:Qt5Widgets.dll
 0001:0005df1c       ?doItemsLayout@QTreeView@@UAEXXZ 0045ef1c f   Qt5Widgets:Qt5Widgets.dll
 0001:0005df22       ?doSetTextCursor@QTextEdit@@MAEXABVQTextCursor@@@Z 0045ef22 f   Qt5Widgets:Qt5Widgets.dll
 0001:0005df28       ?dragEnterEvent@QTextEdit@@MAEXPAVQDragEnterEvent@@@Z 0045ef28 f   Qt5Widgets:Qt5Widgets.dll
 0001:0005df2e       ?dragLeaveEvent@QTextEdit@@MAEXPAVQDragLeaveEvent@@@Z 0045ef2e f   Qt5Widgets:Qt5Widgets.dll
 0001:0005df34       ?dragMoveEvent@QTextEdit@@MAEXPAVQDragMoveEvent@@@Z 0045ef34 f   Qt5Widgets:Qt5Widgets.dll
 0001:0005df3a       ?dragMoveEvent@QTreeView@@MAEXPAVQDragMoveEvent@@@Z 0045ef3a f   Qt5Widgets:Qt5Widgets.dll
 0001:0005df40       ?drawBranches@QTreeView@@MBEXPAVQPainter@@ABVQRect@@ABVQModelIndex@@@Z 0045ef40 f   Qt5Widgets:Qt5Widgets.dll
 0001:0005df46       ?drawRow@QTreeView@@MBEXPAVQPainter@@ABVQStyleOptionViewItem@@ABVQModelIndex@@@Z 0045ef46 f   Qt5Widgets:Qt5Widgets.dll
 0001:0005df4c       ?dropEvent@QAbstractItemView@@MAEXPAVQDropEvent@@@Z 0045ef4c f   Qt5Widgets:Qt5Widgets.dll
 0001:0005df52       ?dropEvent@QTextEdit@@MAEXPAVQDropEvent@@@Z 0045ef52 f   Qt5Widgets:Qt5Widgets.dll
 0001:0005df58       ?event@QAbstractItemView@@MAE_NPAVQEvent@@@Z 0045ef58 f   Qt5Widgets:Qt5Widgets.dll
 0001:0005df5e       ?event@QDockWidget@@MAE_NPAVQEvent@@@Z 0045ef5e f   Qt5Widgets:Qt5Widgets.dll
 0001:0005df64       ?event@QMainWindow@@MAE_NPAVQEvent@@@Z 0045ef64 f   Qt5Widgets:Qt5Widgets.dll
 0001:0005df6a       ?event@QStatusBar@@MAE_NPAVQEvent@@@Z 0045ef6a f   Qt5Widgets:Qt5Widgets.dll
 0001:0005df70       ?event@QTextBrowser@@MAE_NPAVQEvent@@@Z 0045ef70 f   Qt5Widgets:Qt5Widgets.dll
 0001:0005df76       ?event@QTextEdit@@MAE_NPAVQEvent@@@Z 0045ef76 f   Qt5Widgets:Qt5Widgets.dll
 0001:0005df7c       ?eventFilter@QAbstractScrollArea@@MAE_NPAVQObject@@PAVQEvent@@@Z 0045ef7c f   Qt5Widgets:Qt5Widgets.dll
 0001:0005df82       ?focusInEvent@QTextEdit@@MAEXPAVQFocusEvent@@@Z 0045ef82 f   Qt5Widgets:Qt5Widgets.dll
 0001:0005df88       ?focusNextPrevChild@QTextBrowser@@MAE_N_N@Z 0045ef88 f   Qt5Widgets:Qt5Widgets.dll
 0001:0005df8e       ?focusNextPrevChild@QTextEdit@@MAE_N_N@Z 0045ef8e f   Qt5Widgets:Qt5Widgets.dll
 0001:0005df94       ?focusOutEvent@QTextBrowser@@MAEXPAVQFocusEvent@@@Z 0045ef94 f   Qt5Widgets:Qt5Widgets.dll
 0001:0005df9a       ?focusOutEvent@QTextEdit@@MAEXPAVQFocusEvent@@@Z 0045ef9a f   Qt5Widgets:Qt5Widgets.dll
 0001:0005dfa0       ?forward@QTextBrowser@@UAEXXZ 0045efa0 f   Qt5Widgets:Qt5Widgets.dll
 0001:0005dfa6       ?home@QTextBrowser@@UAEXXZ 0045efa6 f   Qt5Widgets:Qt5Widgets.dll
 0001:0005dfac       ?horizontalOffset@QTreeView@@MBEHXZ 0045efac f   Qt5Widgets:Qt5Widgets.dll
 0001:0005dfb2       ?horizontalScrollbarAction@QTreeView@@MAEXH@Z 0045efb2 f   Qt5Widgets:Qt5Widgets.dll
 0001:0005dfb8       ?indexAt@QTreeView@@UBE?AVQModelIndex@@ABVQPoint@@@Z 0045efb8 f   Qt5Widgets:Qt5Widgets.dll
 0001:0005dfbe       ?inputMethodEvent@QTextEdit@@MAEXPAVQInputMethodEvent@@@Z 0045efbe f   Qt5Widgets:Qt5Widgets.dll
 0001:0005dfc4       ?inputMethodQuery@QTextEdit@@UBE?AVQVariant@@W4InputMethodQuery@Qt@@@Z 0045efc4 f   Qt5Widgets:Qt5Widgets.dll
 0001:0005dfca       ?insertFromMimeData@QTextEdit@@MAEXPBVQMimeData@@@Z 0045efca f   Qt5Widgets:Qt5Widgets.dll
 0001:0005dfd0       ?isIndexHidden@QTreeView@@MBE_NABVQModelIndex@@@Z 0045efd0 f   Qt5Widgets:Qt5Widgets.dll
 0001:0005dfd6       ?keyPressEvent@QTextBrowser@@MAEXPAVQKeyEvent@@@Z 0045efd6 f   Qt5Widgets:Qt5Widgets.dll
 0001:0005dfdc       ?keyPressEvent@QTextEdit@@MAEXPAVQKeyEvent@@@Z 0045efdc f   Qt5Widgets:Qt5Widgets.dll
 0001:0005dfe2       ?keyPressEvent@QTreeView@@MAEXPAVQKeyEvent@@@Z 0045efe2 f   Qt5Widgets:Qt5Widgets.dll
 0001:0005dfe8       ?keyReleaseEvent@QTextEdit@@MAEXPAVQKeyEvent@@@Z 0045efe8 f   Qt5Widgets:Qt5Widgets.dll
 0001:0005dfee       ?keyboardSearch@QTreeView@@UAEXABVQString@@@Z 0045efee f   Qt5Widgets:Qt5Widgets.dll
 0001:0005dff4       ?loadResource@QTextBrowser@@UAE?AVQVariant@@HABVQUrl@@@Z 0045eff4 f   Qt5Widgets:Qt5Widgets.dll
 0001:0005dffa       ?loadResource@QTextEdit@@UAE?AVQVariant@@HABVQUrl@@@Z 0045effa f   Qt5Widgets:Qt5Widgets.dll
 0001:0005e000       ?metaObject@QDockWidget@@UBEPBUQMetaObject@@XZ 0045f000 f   Qt5Widgets:Qt5Widgets.dll
 0001:0005e006       ?metaObject@QStatusBar@@UBEPBUQMetaObject@@XZ 0045f006 f   Qt5Widgets:Qt5Widgets.dll
 0001:0005e00c       ?metaObject@QTextBrowser@@UBEPBUQMetaObject@@XZ 0045f00c f   Qt5Widgets:Qt5Widgets.dll
 0001:0005e012       ?metaObject@QTextEdit@@UBEPBUQMetaObject@@XZ 0045f012 f   Qt5Widgets:Qt5Widgets.dll
 0001:0005e018       ?metaObject@QTreeView@@UBEPBUQMetaObject@@XZ 0045f018 f   Qt5Widgets:Qt5Widgets.dll
 0001:0005e01e       ?mouseDoubleClickEvent@QTextEdit@@MAEXPAVQMouseEvent@@@Z 0045f01e f   Qt5Widgets:Qt5Widgets.dll
 0001:0005e024       ?mouseDoubleClickEvent@QTreeView@@MAEXPAVQMouseEvent@@@Z 0045f024 f   Qt5Widgets:Qt5Widgets.dll
 0001:0005e02a       ?mouseMoveEvent@QTextBrowser@@MAEXPAVQMouseEvent@@@Z 0045f02a f   Qt5Widgets:Qt5Widgets.dll
 0001:0005e030       ?mouseMoveEvent@QTextEdit@@MAEXPAVQMouseEvent@@@Z 0045f030 f   Qt5Widgets:Qt5Widgets.dll
 0001:0005e036       ?mouseMoveEvent@QTreeView@@MAEXPAVQMouseEvent@@@Z 0045f036 f   Qt5Widgets:Qt5Widgets.dll
 0001:0005e03c       ?mousePressEvent@QTextBrowser@@MAEXPAVQMouseEvent@@@Z 0045f03c f   Qt5Widgets:Qt5Widgets.dll
 0001:0005e042       ?mousePressEvent@QTextEdit@@MAEXPAVQMouseEvent@@@Z 0045f042 f   Qt5Widgets:Qt5Widgets.dll
 0001:0005e048       ?mousePressEvent@QTreeView@@MAEXPAVQMouseEvent@@@Z 0045f048 f   Qt5Widgets:Qt5Widgets.dll
 0001:0005e04e       ?mouseReleaseEvent@QTextBrowser@@MAEXPAVQMouseEvent@@@Z 0045f04e f   Qt5Widgets:Qt5Widgets.dll
 0001:0005e054       ?mouseReleaseEvent@QTextEdit@@MAEXPAVQMouseEvent@@@Z 0045f054 f   Qt5Widgets:Qt5Widgets.dll
 0001:0005e05a       ?mouseReleaseEvent@QTreeView@@MAEXPAVQMouseEvent@@@Z 0045f05a f   Qt5Widgets:Qt5Widgets.dll
 0001:0005e060       ?moveCursor@QTreeView@@MAE?AVQModelIndex@@W4CursorAction@QAbstractItemView@@V?$QFlags@W4KeyboardModifier@Qt@@@@@Z 0045f060 f   Qt5Widgets:Qt5Widgets.dll
 0001:0005e066       ?paintEvent@QDockWidget@@MAEXPAVQPaintEvent@@@Z 0045f066 f   Qt5Widgets:Qt5Widgets.dll
 0001:0005e06c       ?paintEvent@QStatusBar@@MAEXPAVQPaintEvent@@@Z 0045f06c f   Qt5Widgets:Qt5Widgets.dll
 0001:0005e072       ?paintEvent@QTextBrowser@@MAEXPAVQPaintEvent@@@Z 0045f072 f   Qt5Widgets:Qt5Widgets.dll
 0001:0005e078       ?paintEvent@QTextEdit@@MAEXPAVQPaintEvent@@@Z 0045f078 f   Qt5Widgets:Qt5Widgets.dll
 0001:0005e07e       ?paintEvent@QTreeView@@MAEXPAVQPaintEvent@@@Z 0045f07e f   Qt5Widgets:Qt5Widgets.dll
 0001:0005e084       ?qt_metacall@QDockWidget@@UAEHW4Call@QMetaObject@@HPAPAX@Z 0045f084 f   Qt5Widgets:Qt5Widgets.dll
 0001:0005e08a       ?qt_metacall@QStatusBar@@UAEHW4Call@QMetaObject@@HPAPAX@Z 0045f08a f   Qt5Widgets:Qt5Widgets.dll
 0001:0005e090       ?qt_metacall@QTextBrowser@@UAEHW4Call@QMetaObject@@HPAPAX@Z 0045f090 f   Qt5Widgets:Qt5Widgets.dll
 0001:0005e096       ?qt_metacall@QTextEdit@@UAEHW4Call@QMetaObject@@HPAPAX@Z 0045f096 f   Qt5Widgets:Qt5Widgets.dll
 0001:0005e09c       ?qt_metacall@QTreeView@@UAEHW4Call@QMetaObject@@HPAPAX@Z 0045f09c f   Qt5Widgets:Qt5Widgets.dll
 0001:0005e0a2       ?qt_metacast@QDockWidget@@UAEPAXPBD@Z 0045f0a2 f   Qt5Widgets:Qt5Widgets.dll
 0001:0005e0a8       ?qt_metacast@QStatusBar@@UAEPAXPBD@Z 0045f0a8 f   Qt5Widgets:Qt5Widgets.dll
 0001:0005e0ae       ?qt_metacast@QTextBrowser@@UAEPAXPBD@Z 0045f0ae f   Qt5Widgets:Qt5Widgets.dll
 0001:0005e0b4       ?qt_metacast@QTextEdit@@UAEPAXPBD@Z 0045f0b4 f   Qt5Widgets:Qt5Widgets.dll
 0001:0005e0ba       ?qt_metacast@QTreeView@@UAEPAXPBD@Z 0045f0ba f   Qt5Widgets:Qt5Widgets.dll
 0001:0005e0c0       ?reload@QTextBrowser@@UAEXXZ 0045f0c0 f   Qt5Widgets:Qt5Widgets.dll
 0001:0005e0c6       ?reset@QTreeView@@UAEXXZ   0045f0c6 f   Qt5Widgets:Qt5Widgets.dll
 0001:0005e0cc       ?resizeEvent@QStatusBar@@MAEXPAVQResizeEvent@@@Z 0045f0cc f   Qt5Widgets:Qt5Widgets.dll
 0001:0005e0d2       ?resizeEvent@QTextEdit@@MAEXPAVQResizeEvent@@@Z 0045f0d2 f   Qt5Widgets:Qt5Widgets.dll
 0001:0005e0d8       ?rowsAboutToBeRemoved@QTreeView@@MAEXABVQModelIndex@@HH@Z 0045f0d8 f   Qt5Widgets:Qt5Widgets.dll
 0001:0005e0de       ?rowsInserted@QTreeView@@MAEXABVQModelIndex@@HH@Z 0045f0de f   Qt5Widgets:Qt5Widgets.dll
 0001:0005e0e4       ?scrollContentsBy@QTextEdit@@MAEXHH@Z 0045f0e4 f   Qt5Widgets:Qt5Widgets.dll
 0001:0005e0ea       ?scrollContentsBy@QTreeView@@MAEXHH@Z 0045f0ea f   Qt5Widgets:Qt5Widgets.dll
 0001:0005e0f0       ?scrollTo@QTreeView@@UAEXABVQModelIndex@@W4ScrollHint@QAbstractItemView@@@Z 0045f0f0 f   Qt5Widgets:Qt5Widgets.dll
 0001:0005e0f6       ?selectAll@QTreeView@@UAEXXZ 0045f0f6 f   Qt5Widgets:Qt5Widgets.dll
 0001:0005e0fc       ?selectedIndexes@QTreeView@@MBE?AV?$QList@VQModelIndex@@@@XZ 0045f0fc f   Qt5Widgets:Qt5Widgets.dll
 0001:0005e102       ?selectionChanged@QTreeView@@MAEXABVQItemSelection@@0@Z 0045f102 f   Qt5Widgets:Qt5Widgets.dll
 0001:0005e108       ?setModel@QTreeView@@UAEXPAVQAbstractItemModel@@@Z 0045f108 f   Qt5Widgets:Qt5Widgets.dll
 0001:0005e10e       ?setRootIndex@QTreeView@@UAEXABVQModelIndex@@@Z 0045f10e f   Qt5Widgets:Qt5Widgets.dll
 0001:0005e114       ?setSelection@QTreeView@@MAEXABVQRect@@V?$QFlags@W4SelectionFlag@QItemSelectionModel@@@@@Z 0045f114 f   Qt5Widgets:Qt5Widgets.dll
 0001:0005e11a       ?setSelectionModel@QTreeView@@UAEXPAVQItemSelectionModel@@@Z 0045f11a f   Qt5Widgets:Qt5Widgets.dll
 0001:0005e120       ?setSource@QTextBrowser@@UAEXABVQUrl@@@Z 0045f120 f   Qt5Widgets:Qt5Widgets.dll
 0001:0005e126       ?showEvent@QStatusBar@@MAEXPAVQShowEvent@@@Z 0045f126 f   Qt5Widgets:Qt5Widgets.dll
 0001:0005e12c       ?showEvent@QTextEdit@@MAEXPAVQShowEvent@@@Z 0045f12c f   Qt5Widgets:Qt5Widgets.dll
 0001:0005e132       ?sizeHintForColumn@QTreeView@@MBEHH@Z 0045f132 f   Qt5Widgets:Qt5Widgets.dll
 0001:0005e138       ?sizeHintForRow@QAbstractItemView@@UBEHH@Z 0045f138 f   Qt5Widgets:Qt5Widgets.dll
 0001:0005e13e       ?timerEvent@QTextEdit@@MAEXPAVQTimerEvent@@@Z 0045f13e f   Qt5Widgets:Qt5Widgets.dll
 0001:0005e144       ?timerEvent@QTreeView@@MAEXPAVQTimerEvent@@@Z 0045f144 f   Qt5Widgets:Qt5Widgets.dll
 0001:0005e14a       ?updateGeometries@QTreeView@@MAEXXZ 0045f14a f   Qt5Widgets:Qt5Widgets.dll
 0001:0005e150       ?verticalOffset@QTreeView@@MBEHXZ 0045f150 f   Qt5Widgets:Qt5Widgets.dll
 0001:0005e156       ?verticalScrollbarAction@QAbstractItemView@@MAEXH@Z 0045f156 f   Qt5Widgets:Qt5Widgets.dll
 0001:0005e15c       ?verticalScrollbarValueChanged@QTreeView@@MAEXH@Z 0045f15c f   Qt5Widgets:Qt5Widgets.dll
 0001:0005e162       ?viewOptions@QAbstractItemView@@MBE?AVQStyleOptionViewItem@@XZ 0045f162 f   Qt5Widgets:Qt5Widgets.dll
 0001:0005e168       ?viewportEvent@QTreeView@@MAE_NPAVQEvent@@@Z 0045f168 f   Qt5Widgets:Qt5Widgets.dll
 0001:0005e16e       ?viewportSizeHint@QTreeView@@MBE?AVQSize@@XZ 0045f16e f   Qt5Widgets:Qt5Widgets.dll
 0001:0005e174       ?visualRect@QTreeView@@UBE?AVQRect@@ABVQModelIndex@@@Z 0045f174 f   Qt5Widgets:Qt5Widgets.dll
 0001:0005e17a       ?visualRegionForSelection@QTreeView@@MBE?AVQRegion@@ABVQItemSelection@@@Z 0045f17a f   Qt5Widgets:Qt5Widgets.dll
 0001:0005e180       ?wheelEvent@QTextEdit@@MAEXPAVQWheelEvent@@@Z 0045f180 f   Qt5Widgets:Qt5Widgets.dll
 0001:0005e186       ?changeEvent@QGroupBox@@MAEXPAVQEvent@@@Z 0045f186 f   Qt5Widgets:Qt5Widgets.dll
 0001:0005e18c       ?childEvent@QGroupBox@@MAEXPAVQChildEvent@@@Z 0045f18c f   Qt5Widgets:Qt5Widgets.dll
 0001:0005e192       ?event@QGroupBox@@MAE_NPAVQEvent@@@Z 0045f192 f   Qt5Widgets:Qt5Widgets.dll
 0001:0005e198       ?focusInEvent@QGroupBox@@MAEXPAVQFocusEvent@@@Z 0045f198 f   Qt5Widgets:Qt5Widgets.dll
 0001:0005e19e       ?metaObject@QGroupBox@@UBEPBUQMetaObject@@XZ 0045f19e f   Qt5Widgets:Qt5Widgets.dll
 0001:0005e1a4       ?minimumSizeHint@QGroupBox@@UBE?AVQSize@@XZ 0045f1a4 f   Qt5Widgets:Qt5Widgets.dll
 0001:0005e1aa       ?mouseMoveEvent@QGroupBox@@MAEXPAVQMouseEvent@@@Z 0045f1aa f   Qt5Widgets:Qt5Widgets.dll
 0001:0005e1b0       ?mousePressEvent@QGroupBox@@MAEXPAVQMouseEvent@@@Z 0045f1b0 f   Qt5Widgets:Qt5Widgets.dll
 0001:0005e1b6       ?mouseReleaseEvent@QGroupBox@@MAEXPAVQMouseEvent@@@Z 0045f1b6 f   Qt5Widgets:Qt5Widgets.dll
 0001:0005e1bc       ?paintEvent@QGroupBox@@MAEXPAVQPaintEvent@@@Z 0045f1bc f   Qt5Widgets:Qt5Widgets.dll
 0001:0005e1c2       ?qt_metacall@QGroupBox@@UAEHW4Call@QMetaObject@@HPAPAX@Z 0045f1c2 f   Qt5Widgets:Qt5Widgets.dll
 0001:0005e1c8       ?qt_metacast@QGroupBox@@UAEPAXPBD@Z 0045f1c8 f   Qt5Widgets:Qt5Widgets.dll
 0001:0005e1ce       ?resizeEvent@QGroupBox@@MAEXPAVQResizeEvent@@@Z 0045f1ce f   Qt5Widgets:Qt5Widgets.dll
 0001:0005e1d4       ?fixup@QValidator@@UBEXAAVQString@@@Z 0045f1d4 f   Qt5Gui:Qt5Gui.dll
 0001:0005e1da       ?metaObject@QRegExpValidator@@UBEPBUQMetaObject@@XZ 0045f1da f   Qt5Gui:Qt5Gui.dll
 0001:0005e1e0       ?qt_metacall@QRegExpValidator@@UAEHW4Call@QMetaObject@@HPAPAX@Z 0045f1e0 f   Qt5Gui:Qt5Gui.dll
 0001:0005e1e6       ?qt_metacast@QRegExpValidator@@UAEPAXPBD@Z 0045f1e6 f   Qt5Gui:Qt5Gui.dll
 0001:0005e1ec       ?validate@QRegExpValidator@@UBE?AW4State@QValidator@@AAVQString@@AAH@Z 0045f1ec f   Qt5Gui:Qt5Gui.dll
 0001:0005e1f2       ?metaObject@QWebSocket@@UBEPBUQMetaObject@@XZ 0045f1f2 f   Qt5WebSockets:Qt5WebSockets.dll
 0001:0005e1f8       ?qt_metacall@QWebSocket@@UAEHW4Call@QMetaObject@@HPAPAX@Z 0045f1f8 f   Qt5WebSockets:Qt5WebSockets.dll
 0001:0005e1fe       ?qt_metacast@QWebSocket@@UAEPAXPBD@Z 0045f1fe f   Qt5WebSockets:Qt5WebSockets.dll
 0001:0005e204       ?setReadBufferSize@QAbstractSocket@@UAEX_J@Z 0045f204 f   Qt5Network:Qt5Network.dll
 0001:0005e20a       ?setSocketOption@QAbstractSocket@@UAEXW4SocketOption@1@ABVQVariant@@@Z 0045f20a f   Qt5Network:Qt5Network.dll
 0001:0005e210       ?atEnd@QAbstractSocket@@UBE_NXZ 0045f210 f   Qt5Network:Qt5Network.dll
 0001:0005e216       ?bytesAvailable@QAbstractSocket@@UBE_JXZ 0045f216 f   Qt5Network:Qt5Network.dll
 0001:0005e21c       ?bytesToWrite@QAbstractSocket@@UBE_JXZ 0045f21c f   Qt5Network:Qt5Network.dll
 0001:0005e222       ?canReadLine@QAbstractSocket@@UBE_NXZ 0045f222 f   Qt5Network:Qt5Network.dll
 0001:0005e228       ?close@QAbstractSocket@@UAEXXZ 0045f228 f   Qt5Network:Qt5Network.dll
 0001:0005e22e       ?connectToHost@QAbstractSocket@@UAEXABVQHostAddress@@GV?$QFlags@W4OpenModeFlag@QIODevice@@@@@Z 0045f22e f   Qt5Network:Qt5Network.dll
 0001:0005e234       ?connectToHost@QAbstractSocket@@UAEXABVQString@@GV?$QFlags@W4OpenModeFlag@QIODevice@@@@W4NetworkLayerProtocol@1@@Z 0045f234 f   Qt5Network:Qt5Network.dll
 0001:0005e23a       ?disconnectFromHost@QAbstractSocket@@UAEXXZ 0045f23a f   Qt5Network:Qt5Network.dll
 0001:0005e240       ?isSequential@QAbstractSocket@@UBE_NXZ 0045f240 f   Qt5Network:Qt5Network.dll
 0001:0005e246       ?readData@QAbstractSocket@@MAE_JPAD_J@Z 0045f246 f   Qt5Network:Qt5Network.dll
 0001:0005e24c       ?readLineData@QAbstractSocket@@MAE_JPAD_J@Z 0045f24c f   Qt5Network:Qt5Network.dll
 0001:0005e252       ?resume@QAbstractSocket@@UAEXXZ 0045f252 f   Qt5Network:Qt5Network.dll
 0001:0005e258       ?setSocketDescriptor@QAbstractSocket@@UAE_NHW4SocketState@1@V?$QFlags@W4OpenModeFlag@QIODevice@@@@@Z 0045f258 f   Qt5Network:Qt5Network.dll
 0001:0005e25e       ?socketDescriptor@QAbstractSocket@@UBEHXZ 0045f25e f   Qt5Network:Qt5Network.dll
 0001:0005e264       ?socketOption@QAbstractSocket@@UAE?AVQVariant@@W4SocketOption@1@@Z 0045f264 f   Qt5Network:Qt5Network.dll
 0001:0005e26a       ?waitForBytesWritten@QAbstractSocket@@UAE_NH@Z 0045f26a f   Qt5Network:Qt5Network.dll
 0001:0005e270       ?waitForConnected@QAbstractSocket@@UAE_NH@Z 0045f270 f   Qt5Network:Qt5Network.dll
 0001:0005e276       ?waitForDisconnected@QAbstractSocket@@UAE_NH@Z 0045f276 f   Qt5Network:Qt5Network.dll
 0001:0005e27c       ?waitForReadyRead@QAbstractSocket@@UAE_NH@Z 0045f27c f   Qt5Network:Qt5Network.dll
 0001:0005e282       ?writeData@QAbstractSocket@@MAE_JPBD_J@Z 0045f282 f   Qt5Network:Qt5Network.dll
 0001:0005e288       ?hasPendingConnections@QTcpServer@@UBE_NXZ 0045f288 f   Qt5Network:Qt5Network.dll
 0001:0005e28e       ?nextPendingConnection@QTcpServer@@UAEPAVQTcpSocket@@XZ 0045f28e f   Qt5Network:Qt5Network.dll
 0001:0005e294       ?canFetchMore@QSqlQueryModel@@UBE_NABVQModelIndex@@@Z 0045f294 f   Qt5Sql:Qt5Sql.dll
 0001:0005e29a       ?clear@QSqlTableModel@@UAEXXZ 0045f29a f   Qt5Sql:Qt5Sql.dll
 0001:0005e2a0       ?columnCount@QSqlQueryModel@@UBEHABVQModelIndex@@@Z 0045f2a0 f   Qt5Sql:Qt5Sql.dll
 0001:0005e2a6       ?data@QSqlTableModel@@UBE?AVQVariant@@ABVQModelIndex@@H@Z 0045f2a6 f   Qt5Sql:Qt5Sql.dll
 0001:0005e2ac       ?deleteRowFromTable@QSqlTableModel@@MAE_NH@Z 0045f2ac f   Qt5Sql:Qt5Sql.dll
 0001:0005e2b2       ?fetchMore@QSqlQueryModel@@UAEXABVQModelIndex@@@Z 0045f2b2 f   Qt5Sql:Qt5Sql.dll
 0001:0005e2b8       ?flags@QSqlTableModel@@UBE?AV?$QFlags@W4ItemFlag@Qt@@@@ABVQModelIndex@@@Z 0045f2b8 f   Qt5Sql:Qt5Sql.dll
 0001:0005e2be       ?headerData@QSqlTableModel@@UBE?AVQVariant@@HW4Orientation@Qt@@H@Z 0045f2be f   Qt5Sql:Qt5Sql.dll
 0001:0005e2c4       ?indexInQuery@QSqlTableModel@@MBE?AVQModelIndex@@ABV2@@Z 0045f2c4 f   Qt5Sql:Qt5Sql.dll
 0001:0005e2ca       ?insertColumns@QSqlQueryModel@@UAE_NHHABVQModelIndex@@@Z 0045f2ca f   Qt5Sql:Qt5Sql.dll
 0001:0005e2d0       ?insertRowIntoTable@QSqlTableModel@@MAE_NABVQSqlRecord@@@Z 0045f2d0 f   Qt5Sql:Qt5Sql.dll
 0001:0005e2d6       ?insertRows@QSqlTableModel@@UAE_NHHABVQModelIndex@@@Z 0045f2d6 f   Qt5Sql:Qt5Sql.dll
 0001:0005e2dc       ?metaObject@QSqlTableModel@@UBEPBUQMetaObject@@XZ 0045f2dc f   Qt5Sql:Qt5Sql.dll
 0001:0005e2e2       ?orderByClause@QSqlTableModel@@MBE?AVQString@@XZ 0045f2e2 f   Qt5Sql:Qt5Sql.dll
 0001:0005e2e8       ?qt_metacall@QSqlTableModel@@UAEHW4Call@QMetaObject@@HPAPAX@Z 0045f2e8 f   Qt5Sql:Qt5Sql.dll
 0001:0005e2ee       ?qt_metacast@QSqlTableModel@@UAEPAXPBD@Z 0045f2ee f   Qt5Sql:Qt5Sql.dll
 0001:0005e2f4       ?queryChange@QSqlQueryModel@@MAEXXZ 0045f2f4 f   Qt5Sql:Qt5Sql.dll
 0001:0005e2fa       ?removeColumns@QSqlTableModel@@UAE_NHHABVQModelIndex@@@Z 0045f2fa f   Qt5Sql:Qt5Sql.dll
 0001:0005e300       ?removeRows@QSqlTableModel@@UAE_NHHABVQModelIndex@@@Z 0045f300 f   Qt5Sql:Qt5Sql.dll
 0001:0005e306       ?revert@QSqlTableModel@@UAEXXZ 0045f306 f   Qt5Sql:Qt5Sql.dll
 0001:0005e30c       ?revertRow@QSqlTableModel@@UAEXH@Z 0045f30c f   Qt5Sql:Qt5Sql.dll
 0001:0005e312       ?roleNames@QSqlQueryModel@@UBE?AV?$QHash@HVQByteArray@@@@XZ 0045f312 f   Qt5Sql:Qt5Sql.dll
 0001:0005e318       ?rowCount@QSqlTableModel@@UBEHABVQModelIndex@@@Z 0045f318 f   Qt5Sql:Qt5Sql.dll
 0001:0005e31e       ?select@QSqlTableModel@@UAE_NXZ 0045f31e f   Qt5Sql:Qt5Sql.dll
 0001:0005e324       ?selectRow@QSqlTableModel@@UAE_NH@Z 0045f324 f   Qt5Sql:Qt5Sql.dll
 0001:0005e32a       ?selectStatement@QSqlTableModel@@MBE?AVQString@@XZ 0045f32a f   Qt5Sql:Qt5Sql.dll
 0001:0005e330       ?setData@QSqlTableModel@@UAE_NABVQModelIndex@@ABVQVariant@@H@Z 0045f330 f   Qt5Sql:Qt5Sql.dll
 0001:0005e336       ?setEditStrategy@QSqlTableModel@@UAEXW4EditStrategy@1@@Z 0045f336 f   Qt5Sql:Qt5Sql.dll
 0001:0005e33c       ?setFilter@QSqlTableModel@@UAEXABVQString@@@Z 0045f33c f   Qt5Sql:Qt5Sql.dll
 0001:0005e342       ?setHeaderData@QSqlQueryModel@@UAE_NHW4Orientation@Qt@@ABVQVariant@@H@Z 0045f342 f   Qt5Sql:Qt5Sql.dll
 0001:0005e348       ?setSort@QSqlTableModel@@UAEXHW4SortOrder@Qt@@@Z 0045f348 f   Qt5Sql:Qt5Sql.dll
 0001:0005e34e       ?setTable@QSqlTableModel@@UAEXABVQString@@@Z 0045f34e f   Qt5Sql:Qt5Sql.dll
 0001:0005e354       ?sort@QSqlTableModel@@UAEXHW4SortOrder@Qt@@@Z 0045f354 f   Qt5Sql:Qt5Sql.dll
 0001:0005e35a       ?submit@QSqlTableModel@@UAE_NXZ 0045f35a f   Qt5Sql:Qt5Sql.dll
 0001:0005e360       ?updateRowInTable@QSqlTableModel@@MAE_NHABVQSqlRecord@@@Z 0045f360 f   Qt5Sql:Qt5Sql.dll
 0001:0005e366       ?close@QFileDevice@@UAEXXZ 0045f366 f   Qt5Core:Qt5Core.dll
 0001:0005e36c       ?open@QFile@@UAE_NV?$QFlags@W4OpenModeFlag@QIODevice@@@@@Z 0045f36c f   Qt5Core:Qt5Core.dll
 0001:0005e372       ?atEnd@QFileDevice@@UBE_NXZ 0045f372 f   Qt5Core:Qt5Core.dll
 0001:0005e378       ?bytesAvailable@QIODevice@@UBE_JXZ 0045f378 f   Qt5Core:Qt5Core.dll
 0001:0005e37e       ?bytesToWrite@QIODevice@@UBE_JXZ 0045f37e f   Qt5Core:Qt5Core.dll
 0001:0005e384       ?canReadLine@QIODevice@@UBE_NXZ 0045f384 f   Qt5Core:Qt5Core.dll
 0001:0005e38a       ?childEvent@QObject@@MAEXPAVQChildEvent@@@Z 0045f38a f   Qt5Core:Qt5Core.dll
 0001:0005e390       ?connectNotify@QObject@@MAEXABVQMetaMethod@@@Z 0045f390 f   Qt5Core:Qt5Core.dll
 0001:0005e396       ?customEvent@QObject@@MAEXPAVQEvent@@@Z 0045f396 f   Qt5Core:Qt5Core.dll
 0001:0005e39c       ?disconnectNotify@QObject@@MAEXABVQMetaMethod@@@Z 0045f39c f   Qt5Core:Qt5Core.dll
 0001:0005e3a2       ?event@QObject@@UAE_NPAVQEvent@@@Z 0045f3a2 f   Qt5Core:Qt5Core.dll
 0001:0005e3a8       ?eventFilter@QObject@@UAE_NPAV1@PAVQEvent@@@Z 0045f3a8 f   Qt5Core:Qt5Core.dll
 0001:0005e3ae       ?fileName@QFile@@UBE?AVQString@@XZ 0045f3ae f   Qt5Core:Qt5Core.dll
 0001:0005e3b4       ?isSequential@QFileDevice@@UBE_NXZ 0045f3b4 f   Qt5Core:Qt5Core.dll
 0001:0005e3ba       ?metaObject@QFile@@UBEPBUQMetaObject@@XZ 0045f3ba f   Qt5Core:Qt5Core.dll
 0001:0005e3c0       ?permissions@QFile@@UBE?AV?$QFlags@W4Permission@QFileDevice@@@@XZ 0045f3c0 f   Qt5Core:Qt5Core.dll
 0001:0005e3c6       ?pos@QFileDevice@@UBE_JXZ  0045f3c6 f   Qt5Core:Qt5Core.dll
 0001:0005e3cc       ?qt_metacall@QFile@@UAEHW4Call@QMetaObject@@HPAPAX@Z 0045f3cc f   Qt5Core:Qt5Core.dll
 0001:0005e3d2       ?qt_metacast@QFile@@UAEPAXPBD@Z 0045f3d2 f   Qt5Core:Qt5Core.dll
 0001:0005e3d8       ?readData@QFileDevice@@MAE_JPAD_J@Z 0045f3d8 f   Qt5Core:Qt5Core.dll
 0001:0005e3de       ?readLineData@QFileDevice@@MAE_JPAD_J@Z 0045f3de f   Qt5Core:Qt5Core.dll
 0001:0005e3e4       ?reset@QIODevice@@UAE_NXZ  0045f3e4 f   Qt5Core:Qt5Core.dll
 0001:0005e3ea       ?resize@QFile@@UAE_N_J@Z   0045f3ea f   Qt5Core:Qt5Core.dll
 0001:0005e3f0       ?seek@QFileDevice@@UAE_N_J@Z 0045f3f0 f   Qt5Core:Qt5Core.dll
 0001:0005e3f6       ?setPermissions@QFile@@UAE_NV?$QFlags@W4Permission@QFileDevice@@@@@Z 0045f3f6 f   Qt5Core:Qt5Core.dll
 0001:0005e3fc       ?size@QFile@@UBE_JXZ       0045f3fc f   Qt5Core:Qt5Core.dll
 0001:0005e402       ?timerEvent@QObject@@MAEXPAVQTimerEvent@@@Z 0045f402 f   Qt5Core:Qt5Core.dll
 0001:0005e408       ?waitForBytesWritten@QIODevice@@UAE_NH@Z 0045f408 f   Qt5Core:Qt5Core.dll
 0001:0005e40e       ?waitForReadyRead@QIODevice@@UAE_NH@Z 0045f40e f   Qt5Core:Qt5Core.dll
 0001:0005e414       ?writeData@QFileDevice@@MAE_JPBD_J@Z 0045f414 f   Qt5Core:Qt5Core.dll
 0001:0005e41a       ?open@QIODevice@@UAE_NV?$QFlags@W4OpenModeFlag@QIODevice@@@@@Z 0045f41a f   Qt5Core:Qt5Core.dll
 0001:0005e420       ?pos@QIODevice@@UBE_JXZ    0045f420 f   Qt5Core:Qt5Core.dll
 0001:0005e426       ?seek@QIODevice@@UAE_N_J@Z 0045f426 f   Qt5Core:Qt5Core.dll
 0001:0005e42c       ?size@QIODevice@@UBE_JXZ   0045f42c f   Qt5Core:Qt5Core.dll
 0001:0005e432       ?event@QThread@@UAE_NPAVQEvent@@@Z 0045f432 f   Qt5Core:Qt5Core.dll
 0001:0005e438       ?metaObject@QThread@@UBEPBUQMetaObject@@XZ 0045f438 f   Qt5Core:Qt5Core.dll
 0001:0005e43e       ?qt_metacall@QThread@@UAEHW4Call@QMetaObject@@HPAPAX@Z 0045f43e f   Qt5Core:Qt5Core.dll
 0001:0005e444       ?qt_metacast@QThread@@UAEPAXPBD@Z 0045f444 f   Qt5Core:Qt5Core.dll
 0001:0005e44a       ?run@QThread@@MAEXXZ       0045f44a f   Qt5Core:Qt5Core.dll
 0001:0005e450       ?buddy@QAbstractItemModel@@UBE?AVQModelIndex@@ABV2@@Z 0045f450 f   Qt5Core:Qt5Core.dll
 0001:0005e456       ?canDropMimeData@QAbstractItemModel@@UBE_NPBVQMimeData@@W4DropAction@Qt@@HHABVQModelIndex@@@Z 0045f456 f   Qt5Core:Qt5Core.dll
 0001:0005e45c       ?dropMimeData@QAbstractTableModel@@UAE_NPBVQMimeData@@W4DropAction@Qt@@HHABVQModelIndex@@@Z 0045f45c f   Qt5Core:Qt5Core.dll
 0001:0005e462       ?hasChildren@QAbstractTableModel@@EBE_NABVQModelIndex@@@Z 0045f462 f   Qt5Core:Qt5Core.dll
 0001:0005e468       ?index@QAbstractTableModel@@UBE?AVQModelIndex@@HHABV2@@Z 0045f468 f   Qt5Core:Qt5Core.dll
 0001:0005e46e       ?itemData@QAbstractItemModel@@UBE?AV?$QMap@HVQVariant@@@@ABVQModelIndex@@@Z 0045f46e f   Qt5Core:Qt5Core.dll
 0001:0005e474       ?match@QAbstractItemModel@@UBE?AV?$QList@VQModelIndex@@@@ABVQModelIndex@@HABVQVariant@@HV?$QFlags@W4MatchFlag@Qt@@@@@Z 0045f474 f   Qt5Core:Qt5Core.dll
 0001:0005e47a       ?mimeData@QAbstractItemModel@@UBEPAVQMimeData@@ABV?$QList@VQModelIndex@@@@@Z 0045f47a f   Qt5Core:Qt5Core.dll
 0001:0005e480       ?mimeTypes@QAbstractItemModel@@UBE?AVQStringList@@XZ 0045f480 f   Qt5Core:Qt5Core.dll
 0001:0005e486       ?moveColumns@QAbstractItemModel@@UAE_NABVQModelIndex@@HH0H@Z 0045f486 f   Qt5Core:Qt5Core.dll
 0001:0005e48c       ?moveRows@QAbstractItemModel@@UAE_NABVQModelIndex@@HH0H@Z 0045f48c f   Qt5Core:Qt5Core.dll
 0001:0005e492       ?parent@QAbstractTableModel@@EBE?AVQModelIndex@@ABV2@@Z 0045f492 f   Qt5Core:Qt5Core.dll
 0001:0005e498       ?setItemData@QAbstractItemModel@@UAE_NABVQModelIndex@@ABV?$QMap@HVQVariant@@@@@Z 0045f498 f   Qt5Core:Qt5Core.dll
 0001:0005e49e       ?sibling@QAbstractTableModel@@UBE?AVQModelIndex@@HHABV2@@Z 0045f49e f   Qt5Core:Qt5Core.dll
 0001:0005e4a4       ?span@QAbstractItemModel@@UBE?AVQSize@@ABVQModelIndex@@@Z 0045f4a4 f   Qt5Core:Qt5Core.dll
 0001:0005e4aa       ?supportedDragActions@QAbstractItemModel@@UBE?AV?$QFlags@W4DropAction@Qt@@@@XZ 0045f4aa f   Qt5Core:Qt5Core.dll
 0001:0005e4b0       ?supportedDropActions@QAbstractItemModel@@UBE?AV?$QFlags@W4DropAction@Qt@@@@XZ 0045f4b0 f   Qt5Core:Qt5Core.dll
 0001:0005e4b6       ?qRegisterResourceData@@YA_NHPBE00@Z 0045f4b6 f   Qt5Core:Qt5Core.dll
 0001:0005e4bc       ?qUnregisterResourceData@@YA_NHPBE00@Z 0045f4bc f   Qt5Core:Qt5Core.dll
 0001:0005e4c2       ??_L@YGXPAXIIP6EX0@Z1@Z    0045f4c2 f   MSVCRT:ehvecctr.obj
 0001:0005e536       ??_M@YGXPAXIIP6EX0@Z@Z     0045f536 f   MSVCRT:ehvecdtr.obj
 0001:0005e5bb       ?__ArrayUnwind@@YGXPAXIIP6EX0@Z@Z 0045f5bb f   MSVCRT:ehvecdtr.obj
 0001:0005e64b       ??2@YAPAXI@Z               0045f64b f   MSVCRT:new_scalar.obj
 0001:0005e67b       ??3@YAXPAXI@Z              0045f67b f   MSVCRT:delete_scalar_size.obj
 0001:0005e689       ??_U@YAPAXI@Z              0045f689 f   MSVCRT:new_array.obj
 0001:0005e692       ??_V@YAXPAX@Z              0045f692 f   MSVCRT:delete_array.obj
 0001:0005e697       ??_V@YAXPAXI@Z             0045f697 f   MSVCRT:delete_array_size.obj
 0001:0005e6e9       ___scrt_acquire_startup_lock 0045f6e9 f   MSVCRT:utility.obj
 0001:0005e71b       ___scrt_initialize_crt     0045f71b f   MSVCRT:utility.obj
 0001:0005e754       ___scrt_initialize_onexit_tables 0045f754 f   MSVCRT:utility.obj
 0001:0005e7db       ___scrt_is_nonwritable_in_current_image 0045f7db f   MSVCRT:utility.obj
 0001:0005e86f       ___scrt_release_startup_lock 0045f86f f   MSVCRT:utility.obj
 0001:0005e88c       ___scrt_uninitialize_crt   0045f88c f   MSVCRT:utility.obj
 0001:0005e8b4       __onexit                   0045f8b4 f   MSVCRT:utility.obj
 0001:0005e8e1       _atexit                    0045f8e1 f   MSVCRT:utility.obj
 0001:0005e8f6       @__security_check_cookie@4 0045f8f6 f   MSVCRT:secchk.obj
 0001:0005e907       ??_Gtype_info@@UAEPAXI@Z   0045f907 f i MSVCRT:std_type_info_static.obj
 0001:0005e907       ??_Etype_info@@UAEPAXI@Z   0045f907 f i MSVCRT:std_type_info_static.obj
 0001:0005e9ef       __Init_thread_abort        0045f9ef f   MSVCRT:thread_safe_statics.obj
 0001:0005ea13       __Init_thread_footer       0045fa13 f   MSVCRT:thread_safe_statics.obj
 0001:0005ea5d       __Init_thread_header       0045fa5d f   MSVCRT:thread_safe_statics.obj
 0001:0005eaaf       __Init_thread_notify       0045faaf f   MSVCRT:thread_safe_statics.obj
 0001:0005eae5       __Init_thread_wait         0045fae5 f   MSVCRT:thread_safe_statics.obj
 0001:0005eb33       ??3@YAXPAX@Z               0045fb33 f   MSVCRT:delete_scalar.obj
 0001:0005eb40       __ftoui3                   0045fb40 f   MSVCRT:ftol3.obj
 0001:0005eb86       __ftoul3                   0045fb86 f   MSVCRT:ftol3.obj
 0001:0005ebf8       __ftol3                    0045fbf8 f   MSVCRT:ftol3.obj
 0001:0005ec65       __dtoui3                   0045fc65 f   MSVCRT:ftol3.obj
 0001:0005ecd9       __dtoul3                   0045fcd9 f   MSVCRT:ftol3.obj
 0001:0005ed7b       __dtol3                    0045fd7b f   MSVCRT:ftol3.obj
 0001:0005ee30       __ultod3                   0045fe30 f   MSVCRT:ftol3.obj
 0001:0005ee90       __ltod3                    0045fe90 f   MSVCRT:ftol3.obj
 0001:0005f112       _WinMainCRTStartup         00460112 f   MSVCRT:exe_winmain.obj
 0001:0005f120       __SEH_prolog4              00460120 f   MSVCRT:sehprolg4.obj
 0001:0005f166       __SEH_epilog4              00460166 f   MSVCRT:sehprolg4.obj
 0001:0005f17b       __except_handler4          0046017b f   MSVCRT:chandler4gs.obj
 0001:0005f1aa       ??0bad_alloc@std@@QAE@ABV01@@Z 004601aa f i MSVCRT:throw_bad_alloc.obj
 0001:0005f1c5       ??0bad_alloc@std@@QAE@XZ   004601c5 f i MSVCRT:throw_bad_alloc.obj
 0001:0005f1dd       ??0bad_array_new_length@std@@QAE@ABV01@@Z 004601dd f i MSVCRT:throw_bad_alloc.obj
 0001:0005f1f8       ??0bad_array_new_length@std@@QAE@XZ 004601f8 f i MSVCRT:throw_bad_alloc.obj
 0001:0005f210       ??0exception@std@@QAE@ABV01@@Z 00460210 f i MSVCRT:throw_bad_alloc.obj
 0001:0005f23c       ??1bad_alloc@std@@UAE@XZ   0046023c f i MSVCRT:throw_bad_alloc.obj
 0001:0005f23c       ??1bad_array_new_length@std@@UAE@XZ 0046023c f i MSVCRT:throw_bad_alloc.obj
 0001:0005f24d       ??_Gbad_alloc@std@@UAEPAXI@Z 0046024d f i MSVCRT:throw_bad_alloc.obj
 0001:0005f24d       ??_Eexception@std@@UAEPAXI@Z 0046024d f i MSVCRT:throw_bad_alloc.obj
 0001:0005f24d       ??_Ebad_alloc@std@@UAEPAXI@Z 0046024d f i MSVCRT:throw_bad_alloc.obj
 0001:0005f24d       ??_Gbad_array_new_length@std@@UAEPAXI@Z 0046024d f i MSVCRT:throw_bad_alloc.obj
 0001:0005f24d       ??_Gexception@std@@UAEPAXI@Z 0046024d f i MSVCRT:throw_bad_alloc.obj
 0001:0005f24d       ??_Ebad_array_new_length@std@@UAEPAXI@Z 0046024d f i MSVCRT:throw_bad_alloc.obj
 0001:0005f27a       ?__scrt_throw_std_bad_alloc@@YAXXZ 0046027a f   MSVCRT:throw_bad_alloc.obj
 0001:0005f297       ?__scrt_throw_std_bad_array_new_length@@YAXXZ 00460297 f   MSVCRT:throw_bad_alloc.obj
 0001:0005f2b4       ?what@exception@std@@UBEPBDXZ 004602b4 f i MSVCRT:throw_bad_alloc.obj
 0001:0005f2c1       ___isa_available_init      004602c1 f   MSVCRT:cpu_disp.obj
 0001:0005f481       __get_startup_argv_mode    00460481 f   MSVCRT:argv_mode.obj
 0001:0005f485       ___scrt_is_ucrt_dll_in_use 00460485 f   MSVCRT:ucrt_detection.obj
 0001:0005f491       ___scrt_fastfail           00460491 f   MSVCRT:utility_desktop.obj
 0001:0005f5ab       ___scrt_get_show_window_mode 004605ab f   MSVCRT:utility_desktop.obj
 0001:0005f5dc       ___scrt_initialize_mta     004605dc f   MSVCRT:utility_desktop.obj
 0001:0005f5e1       ___scrt_is_managed_app     004605e1 f   MSVCRT:utility_desktop.obj
 0001:0005f624       ___scrt_set_unhandled_exception_filter 00460624 f   MSVCRT:utility_desktop.obj
 0001:0005f630       ___scrt_unhandled_exception_filter@4 00460630 f   MSVCRT:utility_desktop.obj
 0001:0005f686       __crt_debugger_hook        00460686 f   MSVCRT:utility_desktop.obj
 0001:0005f68e       ___raise_securityfailure   0046068e f   MSVCRT:gs_report.obj
 0001:0005f6b6       ___report_gsfailure        004606b6 f   MSVCRT:gs_report.obj
 0001:0005f7fc       ___security_init_cookie    004607fc f   MSVCRT:gs_support.obj
 0001:0005f847       __get_startup_file_mode    00460847 f   MSVCRT:file_mode.obj
 0001:0005f84d       ?__scrt_initialize_type_info@@YAXXZ 0046084d f   MSVCRT:tncleanup.obj
 0001:0005f859       ___scrt_stub_for_acrt_uninitialize 00460859 f   MSVCRT:ucrt_stubs.obj
 0001:0005f859       __should_initialize_environment 00460859 f   MSVCRT:env_mode.obj
 0001:0005f859       ___vcrt_initialize         00460859 f   MSVCRT:ucrt_stubs.obj
 0001:0005f859       ___scrt_stub_for_acrt_initialize 00460859 f   MSVCRT:ucrt_stubs.obj
 0001:0005f859       ___vcrt_uninitialize       00460859 f   MSVCRT:ucrt_stubs.obj
 0001:0005f859       ___acrt_uninitialize       00460859 f   MSVCRT:ucrt_stubs.obj
 0001:0005f859       ___acrt_initialize         00460859 f   MSVCRT:ucrt_stubs.obj
 0001:0005f85c       __initialize_default_precision 0046085c f   MSVCRT:default_precision.obj
 0001:0005f87d       ___local_stdio_printf_options 0046087d f i MSVCRT:default_local_stdio_options.obj
 0001:0005f883       ___local_stdio_scanf_options 00460883 f i MSVCRT:default_local_stdio_options.obj
 0001:0005f889       ___scrt_initialize_default_local_stdio_options 00460889 f   MSVCRT:default_local_stdio_options.obj
 0001:0005f8a6       ___scrt_is_user_matherr_present 004608a6 f   MSVCRT:matherr_detection.obj
 0001:0005f8b2       ___scrt_get_dyn_tls_init_callback 004608b2 f   MSVCRT:dyn_tls_init.obj
 0001:0005f8b8       ___scrt_get_dyn_tls_dtor_callback 004608b8 f   MSVCRT:dyn_tls_dtor.obj
 0001:0005f8be       __RTC_Initialize           004608be f   MSVCRT:initsect.obj
 0001:0005f8ea       __RTC_Terminate            004608ea f   MSVCRT:initsect.obj
 0001:0005f916       _MiniDumpWriteDump@28      00460916 f   Dbghelp:dbghelp.dll
 0001:0005f91c       _IsProcessorFeaturePresent@4 0046091c f   kernel32:KERNEL32.dll
 0001:0005f922       ___std_terminate           00460922 f   vcruntime:VCRUNTIME140.dll
 0001:0005f928       __CxxThrowException@8      00460928 f   vcruntime:VCRUNTIME140.dll
 0001:0005f92e       ___CxxFrameHandler3        0046092e f   vcruntime:VCRUNTIME140.dll
 0001:0005f934       _memcpy                    00460934 f   vcruntime:VCRUNTIME140.dll
 0001:0005f93a       _memset                    0046093a f   vcruntime:VCRUNTIME140.dll
 0001:0005f940       _memchr                    00460940 f   vcruntime:VCRUNTIME140.dll
 0001:0005f946       ___current_exception       00460946 f   vcruntime:VCRUNTIME140.dll
 0001:0005f94c       ___current_exception_context 0046094c f   vcruntime:VCRUNTIME140.dll
 0001:0005f952       __except_handler4_common   00460952 f   vcruntime:VCRUNTIME140.dll
 0001:0005f958       ___std_exception_copy      00460958 f   vcruntime:VCRUNTIME140.dll
 0001:0005f95e       ___std_exception_destroy   0046095e f   vcruntime:VCRUNTIME140.dll
 0001:0005f964       _free                      00460964 f   ucrt:api-ms-win-crt-heap-l1-1-0.dll
 0001:0005f96a       _malloc                    0046096a f   ucrt:api-ms-win-crt-heap-l1-1-0.dll
 0001:0005f970       _terminate                 00460970 f   ucrt:api-ms-win-crt-runtime-l1-1-0.dll
 0001:0005f976       __callnewh                 00460976 f   ucrt:api-ms-win-crt-heap-l1-1-0.dll
 0001:0005f97c       __configure_narrow_argv    0046097c f   ucrt:api-ms-win-crt-runtime-l1-1-0.dll
 0001:0005f982       __initialize_narrow_environment 00460982 f   ucrt:api-ms-win-crt-runtime-l1-1-0.dll
 0001:0005f988       __initialize_onexit_table  00460988 f   ucrt:api-ms-win-crt-runtime-l1-1-0.dll
 0001:0005f98e       __register_onexit_function 0046098e f   ucrt:api-ms-win-crt-runtime-l1-1-0.dll
 0001:0005f994       __crt_atexit               00460994 f   ucrt:api-ms-win-crt-runtime-l1-1-0.dll
 0001:0005f99a       __cexit                    0046099a f   ucrt:api-ms-win-crt-runtime-l1-1-0.dll
 0001:0005f9a0       __seh_filter_exe           004609a0 f   ucrt:api-ms-win-crt-runtime-l1-1-0.dll
 0001:0005f9a6       __set_app_type             004609a6 f   ucrt:api-ms-win-crt-runtime-l1-1-0.dll
 0001:0005f9ac       ___setusermatherr          004609ac f   ucrt:api-ms-win-crt-math-l1-1-0.dll
 0001:0005f9b2       __get_narrow_winmain_command_line 004609b2 f   ucrt:api-ms-win-crt-runtime-l1-1-0.dll
 0001:0005f9b8       __initterm                 004609b8 f   ucrt:api-ms-win-crt-runtime-l1-1-0.dll
 0001:0005f9be       __initterm_e               004609be f   ucrt:api-ms-win-crt-runtime-l1-1-0.dll
 0001:0005f9c4       _exit                      004609c4 f   ucrt:api-ms-win-crt-runtime-l1-1-0.dll
 0001:0005f9ca       __exit                     004609ca f   ucrt:api-ms-win-crt-runtime-l1-1-0.dll
 0001:0005f9d0       __set_fmode                004609d0 f   ucrt:api-ms-win-crt-stdio-l1-1-0.dll
 0001:0005f9d6       __c_exit                   004609d6 f   ucrt:api-ms-win-crt-runtime-l1-1-0.dll
 0001:0005f9dc       __register_thread_local_exe_atexit_callback 004609dc f   ucrt:api-ms-win-crt-runtime-l1-1-0.dll
 0001:0005f9e2       __configthreadlocale       004609e2 f   ucrt:api-ms-win-crt-locale-l1-1-0.dll
 0001:0005f9e8       __set_new_mode             004609e8 f   ucrt:api-ms-win-crt-heap-l1-1-0.dll
 0001:0005f9ee       ___p__commode              004609ee f   ucrt:api-ms-win-crt-stdio-l1-1-0.dll
 0001:0005f9f4       __controlfp_s              004609f4 f   ucrt:api-ms-win-crt-runtime-l1-1-0.dll
 0001:0005fa00       _WinMain@16                00460a00 f   qtmain:qtmain_win.obj
 0001:0005fb1f       __filter_x86_sse2_floating_point_exception_default 00460b1f f   MSVCRT:x86_exception_filter.obj
 0001:0005fb1f       __filter_x86_sse2_floating_point_exception 00460b1f f   MSVCRT:x86_exception_filter.obj
 0001:0006a8f0       ??__Ff@?4??registerConverter@?$ValueTypeIsMetaType@V?$QList@H@@$00@QtPrivate@@SA_NH@Z@YAXXZ 0046b8f0 f i tcpserver.obj
 0001:0006a940       ??__Ff@?4??registerConverter@?$ValueTypeIsMetaType@V?$QList@N@@$00@QtPrivate@@SA_NH@Z@YAXXZ 0046b940 f i tcpserver.obj
 0001:0006aa80       ??__Ff@?4??registerConverter@?$ValueTypeIsMetaType@V?$QList@M@@$00@QtPrivate@@SA_NH@Z@YAXXZ 0046ba80 f i daqinfo.obj
 0001:0006aad0       ??__Ff@?4??registerConverter@?$ValueTypeIsMetaType@V?$QList@_N@@$00@QtPrivate@@SA_NH@Z@YAXXZ 0046bad0 f i daqinfo.obj
 0001:0006ad20       ??__Ff@?4??registerConverter@?$ValueTypeIsMetaType@V?$QVector@N@@$00@QtPrivate@@SA_NH@Z@YAXXZ 0046bd20 f i moc_customplot.obj
 0001:0006ad70       ??__Ff@?4??registerConverter@?$ValueTypeIsMetaType@V?$QList@E@@$00@QtPrivate@@SA_NH@Z@YAXXZ 0046bd70 f i moc_tcpclient.obj
 0002:00000000       __imp__WideCharToMultiByte@32 0046c000     kernel32:KERNEL32.dll
 0002:00000004       __imp__LocalFree@4         0046c004     kernel32:KERNEL32.dll
 0002:00000008       __imp__GetCommandLineW@0   0046c008     kernel32:KERNEL32.dll
 0002:0000000c       __imp__CreateFileW@28      0046c00c     kernel32:KERNEL32.dll
 0002:00000010       __imp__InitializeSListHead@4 0046c010     kernel32:KERNEL32.dll
 0002:00000014       __imp__GetSystemTimeAsFileTime@4 0046c014     kernel32:KERNEL32.dll
 0002:00000018       __imp__QueryPerformanceCounter@4 0046c018     kernel32:KERNEL32.dll
 0002:0000001c       __imp__TerminateProcess@8  0046c01c     kernel32:KERNEL32.dll
 0002:00000020       __imp__GetStartupInfoW@4   0046c020     kernel32:KERNEL32.dll
 0002:00000024       __imp__UnhandledExceptionFilter@4 0046c024     kernel32:KERNEL32.dll
 0002:00000028       __imp__IsDebuggerPresent@0 0046c028     kernel32:KERNEL32.dll
 0002:0000002c       __imp__IsProcessorFeaturePresent@4 0046c02c     kernel32:KERNEL32.dll
 0002:00000030       __imp__GetModuleHandleW@4  0046c030     kernel32:KERNEL32.dll
 0002:00000034       __imp__CreateEventW@16     0046c034     kernel32:KERNEL32.dll
 0002:00000038       __imp__WaitForSingleObjectEx@12 0046c038     kernel32:KERNEL32.dll
 0002:0000003c       __imp__ResetEvent@4        0046c03c     kernel32:KERNEL32.dll
 0002:00000040       __imp__SetEvent@4          0046c040     kernel32:KERNEL32.dll
 0002:00000044       __imp__DeleteCriticalSection@4 0046c044     kernel32:KERNEL32.dll
 0002:00000048       __imp__InitializeCriticalSectionAndSpinCount@8 0046c048     kernel32:KERNEL32.dll
 0002:0000004c       __imp__LeaveCriticalSection@4 0046c04c     kernel32:KERNEL32.dll
 0002:00000050       __imp__EnterCriticalSection@4 0046c050     kernel32:KERNEL32.dll
 0002:00000054       __imp__SetThreadExecutionState@4 0046c054     kernel32:KERNEL32.dll
 0002:00000058       __imp__LoadLibraryW@4      0046c058     kernel32:KERNEL32.dll
 0002:0000005c       __imp__GetProcAddress@8    0046c05c     kernel32:KERNEL32.dll
 0002:00000060       __imp__WriteProcessMemory@20 0046c060     kernel32:KERNEL32.dll
 0002:00000064       __imp__GetCurrentThreadId@0 0046c064     kernel32:KERNEL32.dll
 0002:00000068       __imp__GetCurrentProcessId@0 0046c068     kernel32:KERNEL32.dll
 0002:0000006c       __imp__GetCurrentProcess@0 0046c06c     kernel32:KERNEL32.dll
 0002:00000070       __imp__SetUnhandledExceptionFilter@4 0046c070     kernel32:KERNEL32.dll
 0002:00000074       __imp__CloseHandle@4       0046c074     kernel32:KERNEL32.dll
 0002:00000078       __imp__Sleep@4             0046c078     kernel32:KERNEL32.dll
 0002:0000007c       \177KERNEL32_NULL_THUNK_DATA 0046c07c     kernel32:KERNEL32.dll
 0002:00000080       __imp_?span@QAbstractItemModel@@UBE?AVQSize@@ABVQModelIndex@@@Z 0046c080     Qt5Core:Qt5Core.dll
 0002:00000084       __imp_??4QString@@QAEAAV0@D@Z 0046c084     Qt5Core:Qt5Core.dll
 0002:00000088       __imp_?activate@QMetaObject@@SAXPAVQObject@@PBU1@HPAPAX@Z 0046c088     Qt5Core:Qt5Core.dll
 0002:0000008c       __imp_?qt_metacall@QObject@@UAEHW4Call@QMetaObject@@HPAPAX@Z 0046c08c     Qt5Core:Qt5Core.dll
 0002:00000090       __imp_?qt_metacast@QObject@@UAEPAXPBD@Z 0046c090     Qt5Core:Qt5Core.dll
 0002:00000094       __imp_?dynamicMetaObject@QObjectData@@QBEPAUQMetaObject@@XZ 0046c094     Qt5Core:Qt5Core.dll
 0002:00000098       __imp_?staticMetaObject@QObject@@2UQMetaObject@@B 0046c098     Qt5Core:Qt5Core.dll
 0002:0000009c       __imp_?qUnregisterResourceData@@YA_NHPBE00@Z 0046c09c     Qt5Core:Qt5Core.dll
 0002:000000a0       __imp_?qRegisterResourceData@@YA_NHPBE00@Z 0046c0a0     Qt5Core:Qt5Core.dll
 0002:000000a4       __imp_?toDouble@QString@@QBENPA_N@Z 0046c0a4     Qt5Core:Qt5Core.dll
 0002:000000a8       __imp_?write@QIODevice@@QAE_JPBD_J@Z 0046c0a8     Qt5Core:Qt5Core.dll
 0002:000000ac       __imp_?setObject@QJsonDocument@@QAEXABVQJsonObject@@@Z 0046c0ac     Qt5Core:Qt5Core.dll
 0002:000000b0       __imp_?prepend@QString@@QAEAAV1@PBD@Z 0046c0b0     Qt5Core:Qt5Core.dll
 0002:000000b4       __imp_??4QString@@QAEAAV0@ABVQByteArray@@@Z 0046c0b4     Qt5Core:Qt5Core.dll
 0002:000000b8       __imp_??1QRegExp@@QAE@XZ   0046c0b8     Qt5Core:Qt5Core.dll
 0002:000000bc       __imp_??0QRegExp@@QAE@ABVQString@@W4CaseSensitivity@Qt@@W4PatternSyntax@0@@Z 0046c0bc     Qt5Core:Qt5Core.dll
 0002:000000c0       __imp_?append@QListData@@QAEPAPAXABU1@@Z 0046c0c0     Qt5Core:Qt5Core.dll
 0002:000000c4       __imp_?sibling@QAbstractTableModel@@UBE?AVQModelIndex@@HHABV2@@Z 0046c0c4     Qt5Core:Qt5Core.dll
 0002:000000c8       __imp_?setItemData@QAbstractItemModel@@UAE_NABVQModelIndex@@ABV?$QMap@HVQVariant@@@@@Z 0046c0c8     Qt5Core:Qt5Core.dll
 0002:000000cc       __imp_?parent@QAbstractTableModel@@EBE?AVQModelIndex@@ABV2@@Z 0046c0cc     Qt5Core:Qt5Core.dll
 0002:000000d0       __imp_?moveRows@QAbstractItemModel@@UAE_NABVQModelIndex@@HH0H@Z 0046c0d0     Qt5Core:Qt5Core.dll
 0002:000000d4       __imp_?moveColumns@QAbstractItemModel@@UAE_NABVQModelIndex@@HH0H@Z 0046c0d4     Qt5Core:Qt5Core.dll
 0002:000000d8       __imp_?mimeTypes@QAbstractItemModel@@UBE?AVQStringList@@XZ 0046c0d8     Qt5Core:Qt5Core.dll
 0002:000000dc       __imp_?mimeData@QAbstractItemModel@@UBEPAVQMimeData@@ABV?$QList@VQModelIndex@@@@@Z 0046c0dc     Qt5Core:Qt5Core.dll
 0002:000000e0       __imp_?match@QAbstractItemModel@@UBE?AV?$QList@VQModelIndex@@@@ABVQModelIndex@@HABVQVariant@@HV?$QFlags@W4MatchFlag@Qt@@@@@Z 0046c0e0     Qt5Core:Qt5Core.dll
 0002:000000e4       __imp_?itemData@QAbstractItemModel@@UBE?AV?$QMap@HVQVariant@@@@ABVQModelIndex@@@Z 0046c0e4     Qt5Core:Qt5Core.dll
 0002:000000e8       __imp_?index@QAbstractTableModel@@UBE?AVQModelIndex@@HHABV2@@Z 0046c0e8     Qt5Core:Qt5Core.dll
 0002:000000ec       __imp_?hasChildren@QAbstractTableModel@@EBE_NABVQModelIndex@@@Z 0046c0ec     Qt5Core:Qt5Core.dll
 0002:000000f0       __imp_?dropMimeData@QAbstractTableModel@@UAE_NPBVQMimeData@@W4DropAction@Qt@@HHABVQModelIndex@@@Z 0046c0f0     Qt5Core:Qt5Core.dll
 0002:000000f4       __imp_?canDropMimeData@QAbstractItemModel@@UBE_NPBVQMimeData@@W4DropAction@Qt@@HHABVQModelIndex@@@Z 0046c0f4     Qt5Core:Qt5Core.dll
 0002:000000f8       __imp_?buddy@QAbstractItemModel@@UBE?AVQModelIndex@@ABV2@@Z 0046c0f8     Qt5Core:Qt5Core.dll
 0002:000000fc       __imp_?createUuid@QUuid@@SA?AV1@XZ 0046c0fc     Qt5Core:Qt5Core.dll
 0002:00000100       __imp_?toString@QUuid@@QBE?AVQString@@XZ 0046c100     Qt5Core:Qt5Core.dll
 0002:00000104       __imp_?instance@QCoreApplication@@SAPAV1@XZ 0046c104     Qt5Core:Qt5Core.dll
 0002:00000108       __imp_?exists@QFileInfo@@QBE_NXZ 0046c108     Qt5Core:Qt5Core.dll
 0002:0000010c       __imp_?setPermissions@QFile@@SA_NABVQString@@V?$QFlags@W4Permission@QFileDevice@@@@@Z 0046c10c     Qt5Core:Qt5Core.dll
 0002:00000110       __imp_?copy@QFile@@SA_NABVQString@@0@Z 0046c110     Qt5Core:Qt5Core.dll
 0002:00000114       __imp_?remove@QFile@@SA_NABVQString@@@Z 0046c114     Qt5Core:Qt5Core.dll
 0002:00000118       __imp_?data@QModelIndex@@QBE?AVQVariant@@H@Z 0046c118     Qt5Core:Qt5Core.dll
 0002:0000011c       __imp_??0QModelIndex@@QAE@XZ 0046c11c     Qt5Core:Qt5Core.dll
 0002:00000120       __imp_?bottom@QRect@@QBEHXZ 0046c120     Qt5Core:Qt5Core.dll
 0002:00000124       __imp_?top@QRect@@QBEHXZ   0046c124     Qt5Core:Qt5Core.dll
 0002:00000128       __imp_?left@QRect@@QBEHXZ  0046c128     Qt5Core:Qt5Core.dll
 0002:0000012c       __imp_??0QSize@@QAE@HH@Z   0046c12c     Qt5Core:Qt5Core.dll
 0002:00000130       __imp_??0QSize@@QAE@XZ     0046c130     Qt5Core:Qt5Core.dll
 0002:00000134       __imp_?isEmpty@QListData@@QBE_NXZ 0046c134     Qt5Core:Qt5Core.dll
 0002:00000138       __imp_??0QRect@@QAE@HHHH@Z 0046c138     Qt5Core:Qt5Core.dll
 0002:0000013c       __imp_?tr@QMetaObject@@QBE?AVQString@@PBD0H@Z 0046c13c     Qt5Core:Qt5Core.dll
 0002:00000140       __imp_?setCodecForLocale@QTextCodec@@SAXPAV1@@Z 0046c140     Qt5Core:Qt5Core.dll
 0002:00000144       __imp_?codecForName@QTextCodec@@SAPAV1@PBD@Z 0046c144     Qt5Core:Qt5Core.dll
 0002:00000148       __imp_?rename@QFile@@QAE_NABVQString@@@Z 0046c148     Qt5Core:Qt5Core.dll
 0002:0000014c       __imp_?remove@QFile@@QAE_NXZ 0046c14c     Qt5Core:Qt5Core.dll
 0002:00000150       __imp_??6QTextStream@@QAEAAV0@PBD@Z 0046c150     Qt5Core:Qt5Core.dll
 0002:00000154       __imp_??6QTextStream@@QAEAAV0@ABVQString@@@Z 0046c154     Qt5Core:Qt5Core.dll
 0002:00000158       __imp_?setAttribute@QCoreApplication@@SAXW4ApplicationAttribute@Qt@@_N@Z 0046c158     Qt5Core:Qt5Core.dll
 0002:0000015c       __imp_?number@QString@@SA?AV1@KH@Z 0046c15c     Qt5Core:Qt5Core.dll
 0002:00000160       __imp_?number@QString@@SA?AV1@IH@Z 0046c160     Qt5Core:Qt5Core.dll
 0002:00000164       __imp_?qInstallMessageHandler@@YAP6AXW4QtMsgType@@ABVQMessageLogContext@@ABVQString@@@ZP6AX012@Z@Z 0046c164     Qt5Core:Qt5Core.dll
 0002:00000168       __imp_?exit@QThread@@QAEXH@Z 0046c168     Qt5Core:Qt5Core.dll
 0002:0000016c       __imp_??1QFileInfo@@QAE@XZ 0046c16c     Qt5Core:Qt5Core.dll
 0002:00000170       __imp_??0QFileInfo@@QAE@ABVQString@@@Z 0046c170     Qt5Core:Qt5Core.dll
 0002:00000174       __imp_?toString@QVariant@@QBE?AVQString@@XZ 0046c174     Qt5Core:Qt5Core.dll
 0002:00000178       __imp_?toInt@QVariant@@QBEHPA_N@Z 0046c178     Qt5Core:Qt5Core.dll
 0002:0000017c       __imp_?toLocal8Bit@QString@@QGBE?AVQByteArray@@XZ 0046c17c     Qt5Core:Qt5Core.dll
 0002:00000180       __imp_?fromBinaryData@QJsonDocument@@SA?AV1@ABVQByteArray@@W4DataValidation@1@@Z 0046c180     Qt5Core:Qt5Core.dll
 0002:00000184       __imp_?remove@QListData@@QAEXH@Z 0046c184     Qt5Core:Qt5Core.dll
 0002:00000188       __imp_?currentDateTimeUtc@QDateTime@@SA?AV1@XZ 0046c188     Qt5Core:Qt5Core.dll
 0002:0000018c       __imp_?toString@QLocale@@QBE?AVQString@@ABVQDateTime@@ABV2@@Z 0046c18c     Qt5Core:Qt5Core.dll
 0002:00000190       __imp_??1QLocale@@QAE@XZ   0046c190     Qt5Core:Qt5Core.dll
 0002:00000194       __imp_??0QLocale@@QAE@W4Language@0@W4Country@0@@Z 0046c194     Qt5Core:Qt5Core.dll
 0002:00000198       __imp_?nextNode@QHashData@@SAPAUNode@1@PAU21@@Z 0046c198     Qt5Core:Qt5Core.dll
 0002:0000019c       __imp_?compare@QString@@QBEHABV1@W4CaseSensitivity@Qt@@@Z 0046c19c     Qt5Core:Qt5Core.dll
 0002:000001a0       __imp_?toUtf8@QString@@QGBE?AVQByteArray@@XZ 0046c1a0     Qt5Core:Qt5Core.dll
 0002:000001a4       __imp_?toLatin1@QString@@QHAE?AVQByteArray@@XZ 0046c1a4     Qt5Core:Qt5Core.dll
 0002:000001a8       __imp_?toLatin1@QString@@QGBE?AVQByteArray@@XZ 0046c1a8     Qt5Core:Qt5Core.dll
 0002:000001ac       __imp_?arg@QString@@QBE?AV1@ABV1@HVQChar@@@Z 0046c1ac     Qt5Core:Qt5Core.dll
 0002:000001b0       __imp_??BQByteArray@@QBEPBDXZ 0046c1b0     Qt5Core:Qt5Core.dll
 0002:000001b4       __imp_?warning@QMessageLogger@@QBE?AVQDebug@@XZ 0046c1b4     Qt5Core:Qt5Core.dll
 0002:000001b8       __imp_?path@QUrl@@QBE?AVQString@@V?$QFlags@W4ComponentFormattingOption@QUrl@@@@@Z 0046c1b8     Qt5Core:Qt5Core.dll
 0002:000001bc       __imp_??0QUrl@@QAE@ABVQString@@W4ParsingMode@0@@Z 0046c1bc     Qt5Core:Qt5Core.dll
 0002:000001c0       __imp_?hasShrunk@QHashData@@QAEXXZ 0046c1c0     Qt5Core:Qt5Core.dll
 0002:000001c4       __imp_?freeNode@QHashData@@QAEXPAX@Z 0046c1c4     Qt5Core:Qt5Core.dll
 0002:000001c8       __imp_?shared_null@QHashData@@2U1@B 0046c1c8     Qt5Core:Qt5Core.dll
 0002:000001cc       __imp_?currentThread@QThread@@SAPAV1@XZ 0046c1cc     Qt5Core:Qt5Core.dll
 0002:000001d0       __imp_?currentThreadId@QThread@@SAPAXXZ 0046c1d0     Qt5Core:Qt5Core.dll
 0002:000001d4       __imp_?insert@QJsonObject@@QAE?AViterator@1@ABVQString@@ABVQJsonValue@@@Z 0046c1d4     Qt5Core:Qt5Core.dll
 0002:000001d8       __imp_?value@QJsonObject@@QBE?AVQJsonValue@@ABVQString@@@Z 0046c1d8     Qt5Core:Qt5Core.dll
 0002:000001dc       __imp_??1QJsonObject@@QAE@XZ 0046c1dc     Qt5Core:Qt5Core.dll
 0002:000001e0       __imp_??0QJsonObject@@QAE@XZ 0046c1e0     Qt5Core:Qt5Core.dll
 0002:000001e4       __imp_?isNull@QJsonDocument@@QBE_NXZ 0046c1e4     Qt5Core:Qt5Core.dll
 0002:000001e8       __imp_?setArray@QJsonDocument@@QAEXABVQJsonArray@@@Z 0046c1e8     Qt5Core:Qt5Core.dll
 0002:000001ec       __imp_?array@QJsonDocument@@QBE?AVQJsonArray@@XZ 0046c1ec     Qt5Core:Qt5Core.dll
 0002:000001f0       __imp_?object@QJsonDocument@@QBE?AVQJsonObject@@XZ 0046c1f0     Qt5Core:Qt5Core.dll
 0002:000001f4       __imp_?isObject@QJsonDocument@@QBE_NXZ 0046c1f4     Qt5Core:Qt5Core.dll
 0002:000001f8       __imp_?isArray@QJsonDocument@@QBE_NXZ 0046c1f8     Qt5Core:Qt5Core.dll
 0002:000001fc       __imp_?toJson@QJsonDocument@@QBE?AVQByteArray@@W4JsonFormat@1@@Z 0046c1fc     Qt5Core:Qt5Core.dll
 0002:00000200       __imp_?fromJson@QJsonDocument@@SA?AV1@ABVQByteArray@@PAUQJsonParseError@@@Z 0046c200     Qt5Core:Qt5Core.dll
 0002:00000204       __imp_??1QJsonDocument@@QAE@XZ 0046c204     Qt5Core:Qt5Core.dll
 0002:00000208       __imp_??0QJsonDocument@@QAE@ABVQJsonObject@@@Z 0046c208     Qt5Core:Qt5Core.dll
 0002:0000020c       __imp_??0QJsonDocument@@QAE@XZ 0046c20c     Qt5Core:Qt5Core.dll
 0002:00000210       __imp_?insert@QJsonArray@@QAEXHABVQJsonValue@@@Z 0046c210     Qt5Core:Qt5Core.dll
 0002:00000214       __imp_?append@QJsonArray@@QAEXABVQJsonValue@@@Z 0046c214     Qt5Core:Qt5Core.dll
 0002:00000218       __imp_?at@QJsonArray@@QBE?AVQJsonValue@@H@Z 0046c218     Qt5Core:Qt5Core.dll
 0002:0000021c       __imp_?isEmpty@QJsonArray@@QBE_NXZ 0046c21c     Qt5Core:Qt5Core.dll
 0002:00000220       __imp_?size@QJsonArray@@QBEHXZ 0046c220     Qt5Core:Qt5Core.dll
 0002:00000224       __imp_??1QJsonArray@@QAE@XZ 0046c224     Qt5Core:Qt5Core.dll
 0002:00000228       __imp_??0QJsonArray@@QAE@XZ 0046c228     Qt5Core:Qt5Core.dll
 0002:0000022c       __imp_?toObject@QJsonValue@@QBE?AVQJsonObject@@XZ 0046c22c     Qt5Core:Qt5Core.dll
 0002:00000230       __imp_?toArray@QJsonValue@@QBE?AVQJsonArray@@XZ 0046c230     Qt5Core:Qt5Core.dll
 0002:00000234       __imp_?toString@QJsonValue@@QBE?AVQString@@ABV2@@Z 0046c234     Qt5Core:Qt5Core.dll
 0002:00000238       __imp_?toString@QJsonValue@@QBE?AVQString@@XZ 0046c238     Qt5Core:Qt5Core.dll
 0002:0000023c       __imp_?toDouble@QJsonValue@@QBENN@Z 0046c23c     Qt5Core:Qt5Core.dll
 0002:00000240       __imp_?toInt@QJsonValue@@QBEHH@Z 0046c240     Qt5Core:Qt5Core.dll
 0002:00000244       __imp_?type@QJsonValue@@QBE?AW4Type@1@XZ 0046c244     Qt5Core:Qt5Core.dll
 0002:00000248       __imp_??1QJsonValue@@QAE@XZ 0046c248     Qt5Core:Qt5Core.dll
 0002:0000024c       __imp_??0QJsonValue@@QAE@ABVQJsonObject@@@Z 0046c24c     Qt5Core:Qt5Core.dll
 0002:00000250       __imp_??0QJsonValue@@QAE@ABVQJsonArray@@@Z 0046c250     Qt5Core:Qt5Core.dll
 0002:00000254       __imp_??0QJsonValue@@QAE@PBD@Z 0046c254     Qt5Core:Qt5Core.dll
 0002:00000258       __imp_??0QJsonValue@@QAE@ABVQString@@@Z 0046c258     Qt5Core:Qt5Core.dll
 0002:0000025c       __imp_??0QJsonValue@@QAE@H@Z 0046c25c     Qt5Core:Qt5Core.dll
 0002:00000260       __imp_??0QJsonValue@@QAE@N@Z 0046c260     Qt5Core:Qt5Core.dll
 0002:00000264       __imp_?setFragment@QUrl@@QAEXABVQString@@W4ParsingMode@1@@Z 0046c264     Qt5Core:Qt5Core.dll
 0002:00000268       __imp_?setQuery@QUrl@@QAEXABVQString@@W4ParsingMode@1@@Z 0046c268     Qt5Core:Qt5Core.dll
 0002:0000026c       __imp_?setPath@QUrl@@QAEXABVQString@@W4ParsingMode@1@@Z 0046c26c     Qt5Core:Qt5Core.dll
 0002:00000270       __imp_?setPort@QUrl@@QAEXH@Z 0046c270     Qt5Core:Qt5Core.dll
 0002:00000274       __imp_?setHost@QUrl@@QAEXABVQString@@W4ParsingMode@1@@Z 0046c274     Qt5Core:Qt5Core.dll
 0002:00000278       __imp_?setUserInfo@QUrl@@QAEXABVQString@@W4ParsingMode@1@@Z 0046c278     Qt5Core:Qt5Core.dll
 0002:0000027c       __imp_?setScheme@QUrl@@QAEXABVQString@@@Z 0046c27c     Qt5Core:Qt5Core.dll
 0002:00000280       __imp_??1QUrl@@QAE@XZ      0046c280     Qt5Core:Qt5Core.dll
 0002:00000284       __imp_??4QUrl@@QAEAAV0@ABV0@@Z 0046c284     Qt5Core:Qt5Core.dll
 0002:00000288       __imp_??0QUrl@@QAE@XZ      0046c288     Qt5Core:Qt5Core.dll
 0002:0000028c       __imp_?wait@QWaitCondition@@QAE_NPAVQMutex@@K@Z 0046c28c     Qt5Core:Qt5Core.dll
 0002:00000290       __imp_??1QWaitCondition@@QAE@XZ 0046c290     Qt5Core:Qt5Core.dll
 0002:00000294       __imp_??0QWaitCondition@@QAE@XZ 0046c294     Qt5Core:Qt5Core.dll
 0002:00000298       __imp_?unlock@QMutex@@QAEXXZ 0046c298     Qt5Core:Qt5Core.dll
 0002:0000029c       __imp_?lock@QMutex@@QAEXXZ 0046c29c     Qt5Core:Qt5Core.dll
 0002:000002a0       __imp_??1QMutex@@QAE@XZ    0046c2a0     Qt5Core:Qt5Core.dll
 0002:000002a4       __imp_??0QMutex@@QAE@W4RecursionMode@0@@Z 0046c2a4     Qt5Core:Qt5Core.dll
 0002:000002a8       __imp_??6QDebug@@QAEAAV0@PBX@Z 0046c2a8     Qt5Core:Qt5Core.dll
 0002:000002ac       __imp_?free_helper@QHashData@@QAEXP6AXPAUNode@1@@Z@Z 0046c2ac     Qt5Core:Qt5Core.dll
 0002:000002b0       __imp_?rehash@QHashData@@QAEXH@Z 0046c2b0     Qt5Core:Qt5Core.dll
 0002:000002b4       __imp_?detach_helper@QHashData@@QAEPAU1@P6AXPAUNode@1@PAX@ZP6AX0@ZHH@Z 0046c2b4     Qt5Core:Qt5Core.dll
 0002:000002b8       __imp_?allocateNode@QHashData@@QAEPAXH@Z 0046c2b8     Qt5Core:Qt5Core.dll
 0002:000002bc       __imp_??6@YA?AVQDebug@@V0@PBVQObject@@@Z 0046c2bc     Qt5Core:Qt5Core.dll
 0002:000002c0       __imp_?thread@QObject@@QBEPAVQThread@@XZ 0046c2c0     Qt5Core:Qt5Core.dll
 0002:000002c4       __imp_?qHash@@YAIABVQString@@I@Z 0046c2c4     Qt5Core:Qt5Core.dll
 0002:000002c8       __imp_?fromLatin1@QString@@SA?AV1@PBDH@Z 0046c2c8     Qt5Core:Qt5Core.dll
 0002:000002cc       __imp_?toLower@QString@@QGBE?AV1@XZ 0046c2cc     Qt5Core:Qt5Core.dll
 0002:000002d0       __imp_??0QByteArray@@QAE@PBDH@Z 0046c2d0     Qt5Core:Qt5Core.dll
 0002:000002d4       __imp_?staticMetaObject@QThread@@2UQMetaObject@@B 0046c2d4     Qt5Core:Qt5Core.dll
 0002:000002d8       __imp_?run@QThread@@MAEXXZ 0046c2d8     Qt5Core:Qt5Core.dll
 0002:000002dc       __imp_?qt_metacast@QThread@@UAEPAXPBD@Z 0046c2dc     Qt5Core:Qt5Core.dll
 0002:000002e0       __imp_?qt_metacall@QThread@@UAEHW4Call@QMetaObject@@HPAPAX@Z 0046c2e0     Qt5Core:Qt5Core.dll
 0002:000002e4       __imp_?metaObject@QThread@@UBEPBUQMetaObject@@XZ 0046c2e4     Qt5Core:Qt5Core.dll
 0002:000002e8       __imp_?finished@QThread@@QAEXUQPrivateSignal@1@@Z 0046c2e8     Qt5Core:Qt5Core.dll
 0002:000002ec       __imp_?isRunning@QThread@@QBE_NXZ 0046c2ec     Qt5Core:Qt5Core.dll
 0002:000002f0       __imp_?parent@QObject@@QBEPAV1@XZ 0046c2f0     Qt5Core:Qt5Core.dll
 0002:000002f4       __imp_?moveToThread@QObject@@QAEXPAVQThread@@@Z 0046c2f4     Qt5Core:Qt5Core.dll
 0002:000002f8       __imp_??0QVariant@@QAE@ABVQString@@@Z 0046c2f8     Qt5Core:Qt5Core.dll
 0002:000002fc       __imp_??0QVariant@@QAE@M@Z 0046c2fc     Qt5Core:Qt5Core.dll
 0002:00000300       __imp_??0QVariant@@QAE@N@Z 0046c300     Qt5Core:Qt5Core.dll
 0002:00000304       __imp_?erase@QListData@@QAEPAPAXPAPAX@Z 0046c304     Qt5Core:Qt5Core.dll
 0002:00000308       __imp_??0QRect@@QAE@XZ     0046c308     Qt5Core:Qt5Core.dll
 0002:0000030c       __imp_?translate@QCoreApplication@@SA?AVQString@@PBD00H@Z 0046c30c     Qt5Core:Qt5Core.dll
 0002:00000310       __imp_?setObjectName@QObject@@QAEXABVQString@@@Z 0046c310     Qt5Core:Qt5Core.dll
 0002:00000314       __imp_?objectName@QObject@@QBE?AVQString@@XZ 0046c314     Qt5Core:Qt5Core.dll
 0002:00000318       __imp_?connectSlotsByName@QMetaObject@@SAXPAVQObject@@@Z 0046c318     Qt5Core:Qt5Core.dll
 0002:0000031c       __imp_?convert@QVariant@@QBE_NHPAX@Z 0046c31c     Qt5Core:Qt5Core.dll
 0002:00000320       __imp_?constData@QVariant@@QBEPBXXZ 0046c320     Qt5Core:Qt5Core.dll
 0002:00000324       __imp_?toList@QVariant@@QBE?AV?$QList@VQVariant@@@@XZ 0046c324     Qt5Core:Qt5Core.dll
 0002:00000328       __imp_?toDouble@QVariant@@QBENPA_N@Z 0046c328     Qt5Core:Qt5Core.dll
 0002:0000032c       __imp_?userType@QVariant@@QBEHXZ 0046c32c     Qt5Core:Qt5Core.dll
 0002:00000330       __imp_?exists@QFile@@QBE_NXZ 0046c330     Qt5Core:Qt5Core.dll
 0002:00000334       __imp_??0QFile@@QAE@ABVQString@@@Z 0046c334     Qt5Core:Qt5Core.dll
 0002:00000338       __imp_?wait@QThread@@QAE_NK@Z 0046c338     Qt5Core:Qt5Core.dll
 0002:0000033c       __imp_?quit@QThread@@QAEXXZ 0046c33c     Qt5Core:Qt5Core.dll
 0002:00000340       __imp_?readRawData@QDataStream@@QAEHPADH@Z 0046c340     Qt5Core:Qt5Core.dll
 0002:00000344       __imp_??6QDataStream@@QAEAAV0@M@Z 0046c344     Qt5Core:Qt5Core.dll
 0002:00000348       __imp_?atEnd@QDataStream@@QBE_NXZ 0046c348     Qt5Core:Qt5Core.dll
 0002:0000034c       __imp_??0QDataStream@@QAE@PAVQByteArray@@V?$QFlags@W4OpenModeFlag@QIODevice@@@@@Z 0046c34c     Qt5Core:Qt5Core.dll
 0002:00000350       __imp_??0QDataStream@@QAE@PAVQIODevice@@@Z 0046c350     Qt5Core:Qt5Core.dll
 0002:00000354       __imp_?connectImpl@QObject@@CA?AVConnection@QMetaObject@@PBV1@PAPAX01PAVQSlotObjectBase@QtPrivate@@W4ConnectionType@Qt@@PBHPBU3@@Z 0046c354     Qt5Core:Qt5Core.dll
 0002:00000358       __imp_?typeFlags@QMetaType@@SA?AV?$QFlags@W4TypeFlag@QMetaType@@@@H@Z 0046c358     Qt5Core:Qt5Core.dll
 0002:0000035c       __imp_?toInt@QString@@QBEHPA_NH@Z 0046c35c     Qt5Core:Qt5Core.dll
 0002:00000360       __imp_?split@QString@@QBE?AVQStringList@@VQChar@@W4SplitBehavior@1@W4CaseSensitivity@Qt@@@Z 0046c360     Qt5Core:Qt5Core.dll
 0002:00000364       __imp_?remove@QString@@QAEAAV1@HH@Z 0046c364     Qt5Core:Qt5Core.dll
 0002:00000368       __imp_?left@QString@@QBE?AV1@H@Z 0046c368     Qt5Core:Qt5Core.dll
 0002:0000036c       __imp_??4QString@@QAEAAV0@$$QAV0@@Z 0046c36c     Qt5Core:Qt5Core.dll
 0002:00000370       __imp_?end@QByteArray@@QBEPBDXZ 0046c370     Qt5Core:Qt5Core.dll
 0002:00000374       __imp_?begin@QByteArray@@QBEPBDXZ 0046c374     Qt5Core:Qt5Core.dll
 0002:00000378       __imp_?append@QByteArray@@QAEAAV1@ABVQString@@@Z 0046c378     Qt5Core:Qt5Core.dll
 0002:0000037c       __imp_?prepend@QByteArray@@QAEAAV1@D@Z 0046c37c     Qt5Core:Qt5Core.dll
 0002:00000380       __imp_?data@QByteArray@@QAEPADXZ 0046c380     Qt5Core:Qt5Core.dll
 0002:00000384       __imp_?resize@QByteArray@@QAEXH@Z 0046c384     Qt5Core:Qt5Core.dll
 0002:00000388       __imp_?qstrcmp@@YAHABVQByteArray@@PBD@Z 0046c388     Qt5Core:Qt5Core.dll
 0002:0000038c       __imp_??0QChar@@QAE@H@Z    0046c38c     Qt5Core:Qt5Core.dll
 0002:00000390       __imp_?shared_null@QMapDataBase@@2U1@B 0046c390     Qt5Core:Qt5Core.dll
 0002:00000394       __imp_?start@QThread@@QAEXW4Priority@1@@Z 0046c394     Qt5Core:Qt5Core.dll
 0002:00000398       __imp_?isDetached@QVariant@@QBE_NXZ 0046c398     Qt5Core:Qt5Core.dll
 0002:0000039c       __imp_?typeName@QVariant@@QBEPBDXZ 0046c39c     Qt5Core:Qt5Core.dll
 0002:000003a0       __imp_??4QVariant@@QAEAAV0@$$QAV0@@Z 0046c3a0     Qt5Core:Qt5Core.dll
 0002:000003a4       __imp_??4QVariant@@QAEAAV0@ABV0@@Z 0046c3a4     Qt5Core:Qt5Core.dll
 0002:000003a8       __imp_??0QVariant@@QAE@ABV0@@Z 0046c3a8     Qt5Core:Qt5Core.dll
 0002:000003ac       __imp_??0QVariant@@QAE@HPBXI@Z 0046c3ac     Qt5Core:Qt5Core.dll
 0002:000003b0       __imp_??0QVariant@@QAE@XZ  0046c3b0     Qt5Core:Qt5Core.dll
 0002:000003b4       __imp_?freeData@QMapDataBase@@SAXPAU1@@Z 0046c3b4     Qt5Core:Qt5Core.dll
 0002:000003b8       __imp_?createData@QMapDataBase@@SAPAU1@XZ 0046c3b8     Qt5Core:Qt5Core.dll
 0002:000003bc       __imp_?freeTree@QMapDataBase@@QAEXPAUQMapNodeBase@@H@Z 0046c3bc     Qt5Core:Qt5Core.dll
 0002:000003c0       __imp_?createNode@QMapDataBase@@QAEPAUQMapNodeBase@@HHPAU2@_N@Z 0046c3c0     Qt5Core:Qt5Core.dll
 0002:000003c4       __imp_?recalcMostLeftNode@QMapDataBase@@QAEXXZ 0046c3c4     Qt5Core:Qt5Core.dll
 0002:000003c8       __imp_?freeNodeAndRebalance@QMapDataBase@@QAEXPAUQMapNodeBase@@@Z 0046c3c8     Qt5Core:Qt5Core.dll
 0002:000003cc       __imp_?sender@QObject@@IBEPAV1@XZ 0046c3cc     Qt5Core:Qt5Core.dll
 0002:000003d0       __imp_?unregisterConverterFunction@QMetaType@@SAXHH@Z 0046c3d0     Qt5Core:Qt5Core.dll
 0002:000003d4       __imp_?registerConverterFunction@QMetaType@@SA_NPBUAbstractConverterFunction@QtPrivate@@HH@Z 0046c3d4     Qt5Core:Qt5Core.dll
 0002:000003d8       __imp_?hasRegisteredConverterFunction@QMetaType@@SA_NHH@Z 0046c3d8     Qt5Core:Qt5Core.dll
 0002:000003dc       __imp_?typeName@QMetaType@@SAPBDH@Z 0046c3dc     Qt5Core:Qt5Core.dll
 0002:000003e0       __imp_?registerNormalizedType@QMetaType@@SAHABVQByteArray@@P6AXPAX@ZP6APAX1PBX@ZHV?$QFlags@W4TypeFlag@QMetaType@@@@PBUQMetaObject@@@Z 0046c3e0     Qt5Core:Qt5Core.dll
 0002:000003e4       __imp_??M@YA_NABVQString@@0@Z 0046c3e4     Qt5Core:Qt5Core.dll
 0002:000003e8       __imp_?append@QByteArray@@QAEAAV1@PBD@Z 0046c3e8     Qt5Core:Qt5Core.dll
 0002:000003ec       __imp_?endsWith@QByteArray@@QBE_ND@Z 0046c3ec     Qt5Core:Qt5Core.dll
 0002:000003f0       __imp_?reserve@QByteArray@@QAEXH@Z 0046c3f0     Qt5Core:Qt5Core.dll
 0002:000003f4       __imp_?normalizedType@QMetaObject@@SA?AVQByteArray@@PBD@Z 0046c3f4     Qt5Core:Qt5Core.dll
 0002:000003f8       __imp_?cast@QMetaObject@@QBEPAVQObject@@PAV2@@Z 0046c3f8     Qt5Core:Qt5Core.dll
 0002:000003fc       __imp_?className@QMetaObject@@QBEPBDXZ 0046c3fc     Qt5Core:Qt5Core.dll
 0002:00000400       __imp_??5QDataStream@@QAEAAV0@AAM@Z 0046c400     Qt5Core:Qt5Core.dll
 0002:00000404       __imp_??5QDataStream@@QAEAAV0@AAH@Z 0046c404     Qt5Core:Qt5Core.dll
 0002:00000408       __imp_??5QDataStream@@QAEAAV0@AAF@Z 0046c408     Qt5Core:Qt5Core.dll
 0002:0000040c       __imp_??5QDataStream@@QAEAAV0@AAC@Z 0046c40c     Qt5Core:Qt5Core.dll
 0002:00000410       __imp_?setByteOrder@QDataStream@@QAEXW4ByteOrder@1@@Z 0046c410     Qt5Core:Qt5Core.dll
 0002:00000414       __imp_?setFloatingPointPrecision@QDataStream@@QAEXW4FloatingPointPrecision@1@@Z 0046c414     Qt5Core:Qt5Core.dll
 0002:00000418       __imp_??1QDataStream@@QAE@XZ 0046c418     Qt5Core:Qt5Core.dll
 0002:0000041c       __imp_??0QDataStream@@QAE@ABVQByteArray@@@Z 0046c41c     Qt5Core:Qt5Core.dll
 0002:00000420       __imp_??6QDebug@@QAEAAV0@ABVQByteArray@@@Z 0046c420     Qt5Core:Qt5Core.dll
 0002:00000424       __imp_??9QString@@QBE_NPBD@Z 0046c424     Qt5Core:Qt5Core.dll
 0002:00000428       __imp_??8QString@@QBE_NPBD@Z 0046c428     Qt5Core:Qt5Core.dll
 0002:0000042c       __imp_?append@QString@@QAEAAV1@ABVQByteArray@@@Z 0046c42c     Qt5Core:Qt5Core.dll
 0002:00000430       __imp_?append@QString@@QAEAAV1@PBD@Z 0046c430     Qt5Core:Qt5Core.dll
 0002:00000434       __imp_??4QString@@QAEAAV0@PBD@Z 0046c434     Qt5Core:Qt5Core.dll
 0002:00000438       __imp_??0QString@@QAE@ABVQByteArray@@@Z 0046c438     Qt5Core:Qt5Core.dll
 0002:0000043c       __imp_??8@YA_NABVQString@@0@Z 0046c43c     Qt5Core:Qt5Core.dll
 0002:00000440       __imp_?number@QString@@SA?AV1@NDH@Z 0046c440     Qt5Core:Qt5Core.dll
 0002:00000444       __imp_?toHex@QByteArray@@QBE?AV1@D@Z 0046c444     Qt5Core:Qt5Core.dll
 0002:00000448       __imp_?toHex@QByteArray@@QBE?AV1@XZ 0046c448     Qt5Core:Qt5Core.dll
 0002:0000044c       __imp_?toInt@QByteArray@@QBEHPA_NH@Z 0046c44c     Qt5Core:Qt5Core.dll
 0002:00000450       __imp_?remove@QByteArray@@QAEAAV1@HH@Z 0046c450     Qt5Core:Qt5Core.dll
 0002:00000454       __imp_?append@QByteArray@@QAEAAV1@ABV1@@Z 0046c454     Qt5Core:Qt5Core.dll
 0002:00000458       __imp_?append@QByteArray@@QAEAAV1@PBDH@Z 0046c458     Qt5Core:Qt5Core.dll
 0002:0000045c       __imp_?left@QByteArray@@QBE?AV1@H@Z 0046c45c     Qt5Core:Qt5Core.dll
 0002:00000460       __imp_?clear@QByteArray@@QAEXXZ 0046c460     Qt5Core:Qt5Core.dll
 0002:00000464       __imp_?constData@QByteArray@@QBEPBDXZ 0046c464     Qt5Core:Qt5Core.dll
 0002:00000468       __imp_??4QByteArray@@QAEAAV0@ABV0@@Z 0046c468     Qt5Core:Qt5Core.dll
 0002:0000046c       __imp_?sharedNull@QArrayData@@SAPAU1@XZ 0046c46c     Qt5Core:Qt5Core.dll
 0002:00000470       __imp_?allocate@QArrayData@@SAPAU1@IIIV?$QFlags@W4AllocationOption@QArrayData@@@@@Z 0046c470     Qt5Core:Qt5Core.dll
 0002:00000474       __imp_?qBadAlloc@@YAXXZ    0046c474     Qt5Core:Qt5Core.dll
 0002:00000478       __imp_?event@QThread@@UAE_NPAVQEvent@@@Z 0046c478     Qt5Core:Qt5Core.dll
 0002:0000047c       __imp_?exec@QThread@@IAEHXZ 0046c47c     Qt5Core:Qt5Core.dll
 0002:00000480       __imp_??1QThread@@UAE@XZ   0046c480     Qt5Core:Qt5Core.dll
 0002:00000484       __imp_??0QThread@@QAE@PAVQObject@@@Z 0046c484     Qt5Core:Qt5Core.dll
 0002:00000488       __imp_?deleteLater@QObject@@QAEXXZ 0046c488     Qt5Core:Qt5Core.dll
 0002:0000048c       __imp_?size@QIODevice@@UBE_JXZ 0046c48c     Qt5Core:Qt5Core.dll
 0002:00000490       __imp_?seek@QIODevice@@UAE_N_J@Z 0046c490     Qt5Core:Qt5Core.dll
 0002:00000494       __imp_?pos@QIODevice@@UBE_JXZ 0046c494     Qt5Core:Qt5Core.dll
 0002:00000498       __imp_?open@QIODevice@@UAE_NV?$QFlags@W4OpenModeFlag@QIODevice@@@@@Z 0046c498     Qt5Core:Qt5Core.dll
 0002:0000049c       __imp_?stop@QTimer@@QAEXXZ 0046c49c     Qt5Core:Qt5Core.dll
 0002:000004a0       __imp_?start@QTimer@@QAEXXZ 0046c4a0     Qt5Core:Qt5Core.dll
 0002:000004a4       __imp_?setInterval@QTimer@@QAEXH@Z 0046c4a4     Qt5Core:Qt5Core.dll
 0002:000004a8       __imp_??1QTimer@@UAE@XZ    0046c4a8     Qt5Core:Qt5Core.dll
 0002:000004ac       __imp_??0QTimer@@QAE@PAVQObject@@@Z 0046c4ac     Qt5Core:Qt5Core.dll
 0002:000004b0       __imp_??6QDebug@@QAEAAV0@PBD@Z 0046c4b0     Qt5Core:Qt5Core.dll
 0002:000004b4       __imp_??6QDebug@@QAEAAV0@H@Z 0046c4b4     Qt5Core:Qt5Core.dll
 0002:000004b8       __imp_??0QVariant@@QAE@H@Z 0046c4b8     Qt5Core:Qt5Core.dll
 0002:000004bc       __imp_??1QVariant@@QAE@XZ  0046c4bc     Qt5Core:Qt5Core.dll
 0002:000004c0       __imp_?write@QIODevice@@QAE_JABVQByteArray@@@Z 0046c4c0     Qt5Core:Qt5Core.dll
 0002:000004c4       __imp_?readAll@QIODevice@@QAE?AVQByteArray@@XZ 0046c4c4     Qt5Core:Qt5Core.dll
 0002:000004c8       __imp_?connect@QObject@@SA?AVConnection@QMetaObject@@PBV1@PBD01W4ConnectionType@Qt@@@Z 0046c4c8     Qt5Core:Qt5Core.dll
 0002:000004cc       __imp_?append@QByteArray@@QAEAAV1@D@Z 0046c4cc     Qt5Core:Qt5Core.dll
 0002:000004d0       __imp_??4QByteArray@@QAEAAV0@$$QAV0@@Z 0046c4d0     Qt5Core:Qt5Core.dll
 0002:000004d4       __imp_??0QByteArray@@QAE@ABV0@@Z 0046c4d4     Qt5Core:Qt5Core.dll
 0002:000004d8       __imp_??0QByteArray@@QAE@XZ 0046c4d8     Qt5Core:Qt5Core.dll
 0002:000004dc       __imp_??1Connection@QMetaObject@@QAE@XZ 0046c4dc     Qt5Core:Qt5Core.dll
 0002:000004e0       __imp_?writeData@QFileDevice@@MAE_JPBD_J@Z 0046c4e0     Qt5Core:Qt5Core.dll
 0002:000004e4       __imp_?waitForReadyRead@QIODevice@@UAE_NH@Z 0046c4e4     Qt5Core:Qt5Core.dll
 0002:000004e8       __imp_?waitForBytesWritten@QIODevice@@UAE_NH@Z 0046c4e8     Qt5Core:Qt5Core.dll
 0002:000004ec       __imp_?timerEvent@QObject@@MAEXPAVQTimerEvent@@@Z 0046c4ec     Qt5Core:Qt5Core.dll
 0002:000004f0       __imp_?size@QFile@@UBE_JXZ 0046c4f0     Qt5Core:Qt5Core.dll
 0002:000004f4       __imp_?setPermissions@QFile@@UAE_NV?$QFlags@W4Permission@QFileDevice@@@@@Z 0046c4f4     Qt5Core:Qt5Core.dll
 0002:000004f8       __imp_?seek@QFileDevice@@UAE_N_J@Z 0046c4f8     Qt5Core:Qt5Core.dll
 0002:000004fc       __imp_?resize@QFile@@UAE_N_J@Z 0046c4fc     Qt5Core:Qt5Core.dll
 0002:00000500       __imp_?reset@QIODevice@@UAE_NXZ 0046c500     Qt5Core:Qt5Core.dll
 0002:00000504       __imp_?readLineData@QFileDevice@@MAE_JPAD_J@Z 0046c504     Qt5Core:Qt5Core.dll
 0002:00000508       __imp_?readData@QFileDevice@@MAE_JPAD_J@Z 0046c508     Qt5Core:Qt5Core.dll
 0002:0000050c       __imp_?qt_metacast@QFile@@UAEPAXPBD@Z 0046c50c     Qt5Core:Qt5Core.dll
 0002:00000510       __imp_?qt_metacall@QFile@@UAEHW4Call@QMetaObject@@HPAPAX@Z 0046c510     Qt5Core:Qt5Core.dll
 0002:00000514       __imp_?pos@QFileDevice@@UBE_JXZ 0046c514     Qt5Core:Qt5Core.dll
 0002:00000518       __imp_?permissions@QFile@@UBE?AV?$QFlags@W4Permission@QFileDevice@@@@XZ 0046c518     Qt5Core:Qt5Core.dll
 0002:0000051c       __imp_?metaObject@QFile@@UBEPBUQMetaObject@@XZ 0046c51c     Qt5Core:Qt5Core.dll
 0002:00000520       __imp_?isSequential@QFileDevice@@UBE_NXZ 0046c520     Qt5Core:Qt5Core.dll
 0002:00000524       __imp_?fileName@QFile@@UBE?AVQString@@XZ 0046c524     Qt5Core:Qt5Core.dll
 0002:00000528       __imp_?eventFilter@QObject@@UAE_NPAV1@PAVQEvent@@@Z 0046c528     Qt5Core:Qt5Core.dll
 0002:0000052c       __imp_?event@QObject@@UAE_NPAVQEvent@@@Z 0046c52c     Qt5Core:Qt5Core.dll
 0002:00000530       __imp_?disconnectNotify@QObject@@MAEXABVQMetaMethod@@@Z 0046c530     Qt5Core:Qt5Core.dll
 0002:00000534       __imp_?customEvent@QObject@@MAEXPAVQEvent@@@Z 0046c534     Qt5Core:Qt5Core.dll
 0002:00000538       __imp_?connectNotify@QObject@@MAEXABVQMetaMethod@@@Z 0046c538     Qt5Core:Qt5Core.dll
 0002:0000053c       __imp_?childEvent@QObject@@MAEXPAVQChildEvent@@@Z 0046c53c     Qt5Core:Qt5Core.dll
 0002:00000540       __imp_?canReadLine@QIODevice@@UBE_NXZ 0046c540     Qt5Core:Qt5Core.dll
 0002:00000544       __imp_?bytesToWrite@QIODevice@@UBE_JXZ 0046c544     Qt5Core:Qt5Core.dll
 0002:00000548       __imp_?bytesAvailable@QIODevice@@UBE_JXZ 0046c548     Qt5Core:Qt5Core.dll
 0002:0000054c       __imp_?atEnd@QFileDevice@@UBE_NXZ 0046c54c     Qt5Core:Qt5Core.dll
 0002:00000550       __imp_??6QDebug@@QAEAAV0@ABVQString@@@Z 0046c550     Qt5Core:Qt5Core.dll
 0002:00000554       __imp_??6QDebug@@QAEAAV0@_N@Z 0046c554     Qt5Core:Qt5Core.dll
 0002:00000558       __imp_??1QDebug@@QAE@XZ    0046c558     Qt5Core:Qt5Core.dll
 0002:0000055c       __imp_?applicationDirPath@QCoreApplication@@SA?AVQString@@XZ 0046c55c     Qt5Core:Qt5Core.dll
 0002:00000560       __imp_?currentDateTime@QDateTime@@SA?AV1@XZ 0046c560     Qt5Core:Qt5Core.dll
 0002:00000564       __imp_?toString@QDateTime@@QBE?AVQString@@ABV2@@Z 0046c564     Qt5Core:Qt5Core.dll
 0002:00000568       __imp_??1QDateTime@@QAE@XZ 0046c568     Qt5Core:Qt5Core.dll
 0002:0000056c       __imp_?endl@@YAAAVQTextStream@@AAV1@@Z 0046c56c     Qt5Core:Qt5Core.dll
 0002:00000570       __imp_??6QTextStream@@QAEAAV0@N@Z 0046c570     Qt5Core:Qt5Core.dll
 0002:00000574       __imp_??1QTextStream@@UAE@XZ 0046c574     Qt5Core:Qt5Core.dll
 0002:00000578       __imp_??0QTextStream@@QAE@PAVQIODevice@@@Z 0046c578     Qt5Core:Qt5Core.dll
 0002:0000057c       __imp_?open@QFile@@UAE_NV?$QFlags@W4OpenModeFlag@QIODevice@@@@@Z 0046c57c     Qt5Core:Qt5Core.dll
 0002:00000580       __imp_?setFileName@QFile@@QAEXABVQString@@@Z 0046c580     Qt5Core:Qt5Core.dll
 0002:00000584       __imp_??1QFile@@UAE@XZ     0046c584     Qt5Core:Qt5Core.dll
 0002:00000588       __imp_??0QFile@@QAE@XZ     0046c588     Qt5Core:Qt5Core.dll
 0002:0000058c       __imp_?flush@QFileDevice@@QAE_NXZ 0046c58c     Qt5Core:Qt5Core.dll
 0002:00000590       __imp_?close@QFileDevice@@UAEXXZ 0046c590     Qt5Core:Qt5Core.dll
 0002:00000594       __imp_?isOpen@QIODevice@@QBE_NXZ 0046c594     Qt5Core:Qt5Core.dll
 0002:00000598       __imp_??1QObject@@UAE@XZ   0046c598     Qt5Core:Qt5Core.dll
 0002:0000059c       __imp_??0QObject@@QAE@PAV0@@Z 0046c59c     Qt5Core:Qt5Core.dll
 0002:000005a0       __imp_?end@QListData@@QBEPAPAXXZ 0046c5a0     Qt5Core:Qt5Core.dll
 0002:000005a4       __imp_?begin@QListData@@QBEPAPAXXZ 0046c5a4     Qt5Core:Qt5Core.dll
 0002:000005a8       __imp_?at@QListData@@QBEPAPAXH@Z 0046c5a8     Qt5Core:Qt5Core.dll
 0002:000005ac       __imp_?size@QListData@@QBEHXZ 0046c5ac     Qt5Core:Qt5Core.dll
 0002:000005b0       __imp_?append@QListData@@QAEPAPAXXZ 0046c5b0     Qt5Core:Qt5Core.dll
 0002:000005b4       __imp_?dispose@QListData@@SAXPAUData@1@@Z 0046c5b4     Qt5Core:Qt5Core.dll
 0002:000005b8       __imp_?dispose@QListData@@QAEXXZ 0046c5b8     Qt5Core:Qt5Core.dll
 0002:000005bc       __imp_?realloc@QListData@@QAEXH@Z 0046c5bc     Qt5Core:Qt5Core.dll
 0002:000005c0       __imp_?detach_grow@QListData@@QAEPAUData@1@PAHH@Z 0046c5c0     Qt5Core:Qt5Core.dll
 0002:000005c4       __imp_?detach@QListData@@QAEPAUData@1@H@Z 0046c5c4     Qt5Core:Qt5Core.dll
 0002:000005c8       __imp_?fromAscii_helper@QString@@CAPAU?$QTypedArrayData@G@@PBDH@Z 0046c5c8     Qt5Core:Qt5Core.dll
 0002:000005cc       __imp_?number@QString@@SA?AV1@HH@Z 0046c5cc     Qt5Core:Qt5Core.dll
 0002:000005d0       __imp_?fromUtf8@QString@@SA?AV1@PBDH@Z 0046c5d0     Qt5Core:Qt5Core.dll
 0002:000005d4       __imp_?append@QString@@QAEAAV1@ABV1@@Z 0046c5d4     Qt5Core:Qt5Core.dll
 0002:000005d8       __imp_?arg@QString@@QBE?AV1@GHHVQChar@@@Z 0046c5d8     Qt5Core:Qt5Core.dll
 0002:000005dc       __imp_?arg@QString@@QBE?AV1@HHHVQChar@@@Z 0046c5dc     Qt5Core:Qt5Core.dll
 0002:000005e0       __imp_??4QString@@QAEAAV0@ABV0@@Z 0046c5e0     Qt5Core:Qt5Core.dll
 0002:000005e4       __imp_??1QString@@QAE@XZ   0046c5e4     Qt5Core:Qt5Core.dll
 0002:000005e8       __imp_??0QString@@QAE@ABV0@@Z 0046c5e8     Qt5Core:Qt5Core.dll
 0002:000005ec       __imp_??0QString@@QAE@XZ   0046c5ec     Qt5Core:Qt5Core.dll
 0002:000005f0       __imp_?at@QByteArray@@QBEDH@Z 0046c5f0     Qt5Core:Qt5Core.dll
 0002:000005f4       __imp_??1QByteArray@@QAE@XZ 0046c5f4     Qt5Core:Qt5Core.dll
 0002:000005f8       __imp_?deallocate@QArrayData@@SAXPAU1@II@Z 0046c5f8     Qt5Core:Qt5Core.dll
 0002:000005fc       __imp_??0QChar@@QAE@UQLatin1Char@@@Z 0046c5fc     Qt5Core:Qt5Core.dll
 0002:00000600       __imp_?debug@QMessageLogger@@QBE?AVQDebug@@XZ 0046c600     Qt5Core:Qt5Core.dll
 0002:00000604       __imp_??0QMessageLogger@@QAE@PBDH0@Z 0046c604     Qt5Core:Qt5Core.dll
 0002:00000608       __imp_?shared_null@QListData@@2UData@1@B 0046c608     Qt5Core:Qt5Core.dll
 0002:0000060c       __imp_?supportedDropActions@QAbstractItemModel@@UBE?AV?$QFlags@W4DropAction@Qt@@@@XZ 0046c60c     Qt5Core:Qt5Core.dll
 0002:00000610       __imp_?supportedDragActions@QAbstractItemModel@@UBE?AV?$QFlags@W4DropAction@Qt@@@@XZ 0046c610     Qt5Core:Qt5Core.dll
 0002:00000614       \177Qt5Core_NULL_THUNK_DATA 0046c614     Qt5Core:Qt5Core.dll
 0002:00000618       __imp_??0QIcon@@QAE@XZ     0046c618     Qt5Gui:Qt5Gui.dll
 0002:0000061c       __imp_??1QIcon@@QAE@XZ     0046c61c     Qt5Gui:Qt5Gui.dll
 0002:00000620       __imp_??0QColor@@QAE@XZ    0046c620     Qt5Gui:Qt5Gui.dll
 0002:00000624       __imp_??0QColor@@QAE@ABV0@@Z 0046c624     Qt5Gui:Qt5Gui.dll
 0002:00000628       __imp_?pos@QCursor@@SA?AVQPoint@@XZ 0046c628     Qt5Gui:Qt5Gui.dll
 0002:0000062c       __imp_??0QFont@@QAE@ABVQString@@HH_N@Z 0046c62c     Qt5Gui:Qt5Gui.dll
 0002:00000630       __imp_??1QFont@@QAE@XZ     0046c630     Qt5Gui:Qt5Gui.dll
 0002:00000634       __imp_??4QColor@@QAEAAV0@$$QAV0@@Z 0046c634     Qt5Gui:Qt5Gui.dll
 0002:00000638       __imp_?setRgb@QColor@@QAEXHHHH@Z 0046c638     Qt5Gui:Qt5Gui.dll
 0002:0000063c       __imp_??0QBrush@@QAE@ABVQColor@@W4BrushStyle@Qt@@@Z 0046c63c     Qt5Gui:Qt5Gui.dll
 0002:00000640       __imp_??1QBrush@@QAE@XZ    0046c640     Qt5Gui:Qt5Gui.dll
 0002:00000644       __imp_?setStyle@QBrush@@QAEXW4BrushStyle@Qt@@@Z 0046c644     Qt5Gui:Qt5Gui.dll
 0002:00000648       __imp_??0QFont@@QAE@XZ     0046c648     Qt5Gui:Qt5Gui.dll
 0002:0000064c       __imp_?setWeight@QFont@@QAEXH@Z 0046c64c     Qt5Gui:Qt5Gui.dll
 0002:00000650       __imp_?addFile@QIcon@@QAEXABVQString@@ABVQSize@@W4Mode@1@W4State@1@@Z 0046c650     Qt5Gui:Qt5Gui.dll
 0002:00000654       __imp_?blockCount@QTextDocument@@QBEHXZ 0046c654     Qt5Gui:Qt5Gui.dll
 0002:00000658       __imp_??0QKeySequence@@QAE@W4StandardKey@0@@Z 0046c658     Qt5Gui:Qt5Gui.dll
 0002:0000065c       __imp_??1QKeySequence@@QAE@XZ 0046c65c     Qt5Gui:Qt5Gui.dll
 0002:00000660       __imp_?matches@QKeyEvent@@QBE_NW4StandardKey@QKeySequence@@@Z 0046c660     Qt5Gui:Qt5Gui.dll
 0002:00000664       __imp_??0QRegExpValidator@@QAE@ABVQRegExp@@PAVQObject@@@Z 0046c664     Qt5Gui:Qt5Gui.dll
 0002:00000668       __imp_??1QRegExpValidator@@UAE@XZ 0046c668     Qt5Gui:Qt5Gui.dll
 0002:0000066c       __imp_?fixup@QValidator@@UBEXAAVQString@@@Z 0046c66c     Qt5Gui:Qt5Gui.dll
 0002:00000670       __imp_?metaObject@QRegExpValidator@@UBEPBUQMetaObject@@XZ 0046c670     Qt5Gui:Qt5Gui.dll
 0002:00000674       __imp_?qt_metacall@QRegExpValidator@@UAEHW4Call@QMetaObject@@HPAPAX@Z 0046c674     Qt5Gui:Qt5Gui.dll
 0002:00000678       __imp_?qt_metacast@QRegExpValidator@@UAEPAXPBD@Z 0046c678     Qt5Gui:Qt5Gui.dll
 0002:0000067c       __imp_?validate@QRegExpValidator@@UBE?AW4State@QValidator@@AAVQString@@AAH@Z 0046c67c     Qt5Gui:Qt5Gui.dll
 0002:00000680       __imp_?staticMetaObject@QStandardItemModel@@2UQMetaObject@@B 0046c680     Qt5Gui:Qt5Gui.dll
 0002:00000684       __imp_??0QColor@@QAE@W4GlobalColor@Qt@@@Z 0046c684     Qt5Gui:Qt5Gui.dll
 0002:00000688       \177Qt5Gui_NULL_THUNK_DATA 0046c688     Qt5Gui:Qt5Gui.dll
 0002:0000068c       __imp_?setReadBufferSize@QAbstractSocket@@UAEX_J@Z 0046c68c     Qt5Network:Qt5Network.dll
 0002:00000690       __imp_?setSocketOption@QAbstractSocket@@UAEXW4SocketOption@1@ABVQVariant@@@Z 0046c690     Qt5Network:Qt5Network.dll
 0002:00000694       __imp_??0QTcpSocket@@QAE@PAVQObject@@@Z 0046c694     Qt5Network:Qt5Network.dll
 0002:00000698       __imp_??1QTcpSocket@@UAE@XZ 0046c698     Qt5Network:Qt5Network.dll
 0002:0000069c       __imp_??1QHostAddress@@QAE@XZ 0046c69c     Qt5Network:Qt5Network.dll
 0002:000006a0       __imp_?toString@QHostAddress@@QBE?AVQString@@XZ 0046c6a0     Qt5Network:Qt5Network.dll
 0002:000006a4       __imp_?atEnd@QAbstractSocket@@UBE_NXZ 0046c6a4     Qt5Network:Qt5Network.dll
 0002:000006a8       __imp_?bytesAvailable@QAbstractSocket@@UBE_JXZ 0046c6a8     Qt5Network:Qt5Network.dll
 0002:000006ac       __imp_?bytesToWrite@QAbstractSocket@@UBE_JXZ 0046c6ac     Qt5Network:Qt5Network.dll
 0002:000006b0       __imp_?canReadLine@QAbstractSocket@@UBE_NXZ 0046c6b0     Qt5Network:Qt5Network.dll
 0002:000006b4       __imp_?close@QAbstractSocket@@UAEXXZ 0046c6b4     Qt5Network:Qt5Network.dll
 0002:000006b8       __imp_?connectToHost@QAbstractSocket@@UAEXABVQHostAddress@@GV?$QFlags@W4OpenModeFlag@QIODevice@@@@@Z 0046c6b8     Qt5Network:Qt5Network.dll
 0002:000006bc       __imp_?connectToHost@QAbstractSocket@@UAEXABVQString@@GV?$QFlags@W4OpenModeFlag@QIODevice@@@@W4NetworkLayerProtocol@1@@Z 0046c6bc     Qt5Network:Qt5Network.dll
 0002:000006c0       __imp_?disconnectFromHost@QAbstractSocket@@UAEXXZ 0046c6c0     Qt5Network:Qt5Network.dll
 0002:000006c4       __imp_?isSequential@QAbstractSocket@@UBE_NXZ 0046c6c4     Qt5Network:Qt5Network.dll
 0002:000006c8       __imp_?readData@QAbstractSocket@@MAE_JPAD_J@Z 0046c6c8     Qt5Network:Qt5Network.dll
 0002:000006cc       __imp_?readLineData@QAbstractSocket@@MAE_JPAD_J@Z 0046c6cc     Qt5Network:Qt5Network.dll
 0002:000006d0       __imp_?resume@QAbstractSocket@@UAEXXZ 0046c6d0     Qt5Network:Qt5Network.dll
 0002:000006d4       __imp_?setSocketDescriptor@QAbstractSocket@@UAE_NHW4SocketState@1@V?$QFlags@W4OpenModeFlag@QIODevice@@@@@Z 0046c6d4     Qt5Network:Qt5Network.dll
 0002:000006d8       __imp_?socketDescriptor@QAbstractSocket@@UBEHXZ 0046c6d8     Qt5Network:Qt5Network.dll
 0002:000006dc       __imp_?socketOption@QAbstractSocket@@UAE?AVQVariant@@W4SocketOption@1@@Z 0046c6dc     Qt5Network:Qt5Network.dll
 0002:000006e0       __imp_?waitForBytesWritten@QAbstractSocket@@UAE_NH@Z 0046c6e0     Qt5Network:Qt5Network.dll
 0002:000006e4       __imp_?peerAddress@QAbstractSocket@@QBE?AVQHostAddress@@XZ 0046c6e4     Qt5Network:Qt5Network.dll
 0002:000006e8       __imp_?waitForDisconnected@QAbstractSocket@@UAE_NH@Z 0046c6e8     Qt5Network:Qt5Network.dll
 0002:000006ec       __imp_?waitForReadyRead@QAbstractSocket@@UAE_NH@Z 0046c6ec     Qt5Network:Qt5Network.dll
 0002:000006f0       __imp_?writeData@QAbstractSocket@@MAE_JPBD_J@Z 0046c6f0     Qt5Network:Qt5Network.dll
 0002:000006f4       __imp_??0QHostAddress@@QAE@ABVQString@@@Z 0046c6f4     Qt5Network:Qt5Network.dll
 0002:000006f8       __imp_??0QTcpServer@@QAE@PAVQObject@@@Z 0046c6f8     Qt5Network:Qt5Network.dll
 0002:000006fc       __imp_??1QTcpServer@@UAE@XZ 0046c6fc     Qt5Network:Qt5Network.dll
 0002:00000700       __imp_?listen@QTcpServer@@QAE_NABVQHostAddress@@G@Z 0046c700     Qt5Network:Qt5Network.dll
 0002:00000704       __imp_?close@QTcpServer@@QAEXXZ 0046c704     Qt5Network:Qt5Network.dll
 0002:00000708       __imp_?isListening@QTcpServer@@QBE_NXZ 0046c708     Qt5Network:Qt5Network.dll
 0002:0000070c       __imp_?hasPendingConnections@QTcpServer@@UBE_NXZ 0046c70c     Qt5Network:Qt5Network.dll
 0002:00000710       __imp_?nextPendingConnection@QTcpServer@@UAEPAVQTcpSocket@@XZ 0046c710     Qt5Network:Qt5Network.dll
 0002:00000714       __imp_?disconnected@QAbstractSocket@@QAEXXZ 0046c714     Qt5Network:Qt5Network.dll
 0002:00000718       __imp_?staticMetaObject@QAbstractSocket@@2UQMetaObject@@B 0046c718     Qt5Network:Qt5Network.dll
 0002:0000071c       __imp_?peerPort@QAbstractSocket@@QBEGXZ 0046c71c     Qt5Network:Qt5Network.dll
 0002:00000720       __imp_?setMaxPendingConnections@QTcpServer@@QAEXH@Z 0046c720     Qt5Network:Qt5Network.dll
 0002:00000724       __imp_?maxPendingConnections@QTcpServer@@QBEHXZ 0046c724     Qt5Network:Qt5Network.dll
 0002:00000728       __imp_?flush@QAbstractSocket@@QAE_NXZ 0046c728     Qt5Network:Qt5Network.dll
 0002:0000072c       __imp_?staticMetaObject@QTcpSocket@@2UQMetaObject@@B 0046c72c     Qt5Network:Qt5Network.dll
 0002:00000730       __imp_?qt_metacast@QTcpSocket@@UAEPAXPBD@Z 0046c730     Qt5Network:Qt5Network.dll
 0002:00000734       __imp_?qt_metacall@QTcpSocket@@UAEHW4Call@QMetaObject@@HPAPAX@Z 0046c734     Qt5Network:Qt5Network.dll
 0002:00000738       __imp_?staticMetaObject@QTcpServer@@2UQMetaObject@@B 0046c738     Qt5Network:Qt5Network.dll
 0002:0000073c       __imp_?qt_metacast@QTcpServer@@UAEPAXPBD@Z 0046c73c     Qt5Network:Qt5Network.dll
 0002:00000740       __imp_?qt_metacall@QTcpServer@@UAEHW4Call@QMetaObject@@HPAPAX@Z 0046c740     Qt5Network:Qt5Network.dll
 0002:00000744       __imp_?waitForConnected@QAbstractSocket@@UAE_NH@Z 0046c744     Qt5Network:Qt5Network.dll
 0002:00000748       \177Qt5Network_NULL_THUNK_DATA 0046c748     Qt5Network:Qt5Network.dll
 0002:0000074c       __imp_?updateRowInTable@QSqlTableModel@@MAE_NHABVQSqlRecord@@@Z 0046c74c     Qt5Sql:Qt5Sql.dll
 0002:00000750       __imp_?submit@QSqlTableModel@@UAE_NXZ 0046c750     Qt5Sql:Qt5Sql.dll
 0002:00000754       __imp_?sort@QSqlTableModel@@UAEXHW4SortOrder@Qt@@@Z 0046c754     Qt5Sql:Qt5Sql.dll
 0002:00000758       __imp_?setTable@QSqlTableModel@@UAEXABVQString@@@Z 0046c758     Qt5Sql:Qt5Sql.dll
 0002:0000075c       __imp_?setSort@QSqlTableModel@@UAEXHW4SortOrder@Qt@@@Z 0046c75c     Qt5Sql:Qt5Sql.dll
 0002:00000760       __imp_?setHeaderData@QSqlQueryModel@@UAE_NHW4Orientation@Qt@@ABVQVariant@@H@Z 0046c760     Qt5Sql:Qt5Sql.dll
 0002:00000764       __imp_?setFilter@QSqlTableModel@@UAEXABVQString@@@Z 0046c764     Qt5Sql:Qt5Sql.dll
 0002:00000768       __imp_?setEditStrategy@QSqlTableModel@@UAEXW4EditStrategy@1@@Z 0046c768     Qt5Sql:Qt5Sql.dll
 0002:0000076c       __imp_?setData@QSqlTableModel@@UAE_NABVQModelIndex@@ABVQVariant@@H@Z 0046c76c     Qt5Sql:Qt5Sql.dll
 0002:00000770       __imp_?selectStatement@QSqlTableModel@@MBE?AVQString@@XZ 0046c770     Qt5Sql:Qt5Sql.dll
 0002:00000774       __imp_?selectRow@QSqlTableModel@@UAE_NH@Z 0046c774     Qt5Sql:Qt5Sql.dll
 0002:00000778       __imp_?select@QSqlTableModel@@UAE_NXZ 0046c778     Qt5Sql:Qt5Sql.dll
 0002:0000077c       __imp_?rowCount@QSqlTableModel@@UBEHABVQModelIndex@@@Z 0046c77c     Qt5Sql:Qt5Sql.dll
 0002:00000780       __imp_?roleNames@QSqlQueryModel@@UBE?AV?$QHash@HVQByteArray@@@@XZ 0046c780     Qt5Sql:Qt5Sql.dll
 0002:00000784       __imp_?revertRow@QSqlTableModel@@UAEXH@Z 0046c784     Qt5Sql:Qt5Sql.dll
 0002:00000788       __imp_?revert@QSqlTableModel@@UAEXXZ 0046c788     Qt5Sql:Qt5Sql.dll
 0002:0000078c       __imp_?removeRows@QSqlTableModel@@UAE_NHHABVQModelIndex@@@Z 0046c78c     Qt5Sql:Qt5Sql.dll
 0002:00000790       __imp_?removeColumns@QSqlTableModel@@UAE_NHHABVQModelIndex@@@Z 0046c790     Qt5Sql:Qt5Sql.dll
 0002:00000794       __imp_?queryChange@QSqlQueryModel@@MAEXXZ 0046c794     Qt5Sql:Qt5Sql.dll
 0002:00000798       __imp_?qt_metacast@QSqlTableModel@@UAEPAXPBD@Z 0046c798     Qt5Sql:Qt5Sql.dll
 0002:0000079c       __imp_?qt_metacall@QSqlTableModel@@UAEHW4Call@QMetaObject@@HPAPAX@Z 0046c79c     Qt5Sql:Qt5Sql.dll
 0002:000007a0       __imp_?orderByClause@QSqlTableModel@@MBE?AVQString@@XZ 0046c7a0     Qt5Sql:Qt5Sql.dll
 0002:000007a4       __imp_?metaObject@QSqlTableModel@@UBEPBUQMetaObject@@XZ 0046c7a4     Qt5Sql:Qt5Sql.dll
 0002:000007a8       __imp_?insertRows@QSqlTableModel@@UAE_NHHABVQModelIndex@@@Z 0046c7a8     Qt5Sql:Qt5Sql.dll
 0002:000007ac       __imp_?insertRowIntoTable@QSqlTableModel@@MAE_NABVQSqlRecord@@@Z 0046c7ac     Qt5Sql:Qt5Sql.dll
 0002:000007b0       __imp_?insertColumns@QSqlQueryModel@@UAE_NHHABVQModelIndex@@@Z 0046c7b0     Qt5Sql:Qt5Sql.dll
 0002:000007b4       __imp_?indexInQuery@QSqlTableModel@@MBE?AVQModelIndex@@ABV2@@Z 0046c7b4     Qt5Sql:Qt5Sql.dll
 0002:000007b8       __imp_?headerData@QSqlTableModel@@UBE?AVQVariant@@HW4Orientation@Qt@@H@Z 0046c7b8     Qt5Sql:Qt5Sql.dll
 0002:000007bc       __imp_?flags@QSqlTableModel@@UBE?AV?$QFlags@W4ItemFlag@Qt@@@@ABVQModelIndex@@@Z 0046c7bc     Qt5Sql:Qt5Sql.dll
 0002:000007c0       __imp_?fetchMore@QSqlQueryModel@@UAEXABVQModelIndex@@@Z 0046c7c0     Qt5Sql:Qt5Sql.dll
 0002:000007c4       __imp_?deleteRowFromTable@QSqlTableModel@@MAE_NH@Z 0046c7c4     Qt5Sql:Qt5Sql.dll
 0002:000007c8       __imp_?data@QSqlTableModel@@UBE?AVQVariant@@ABVQModelIndex@@H@Z 0046c7c8     Qt5Sql:Qt5Sql.dll
 0002:000007cc       __imp_?columnCount@QSqlQueryModel@@UBEHABVQModelIndex@@@Z 0046c7cc     Qt5Sql:Qt5Sql.dll
 0002:000007d0       __imp_?clear@QSqlTableModel@@UAEXXZ 0046c7d0     Qt5Sql:Qt5Sql.dll
 0002:000007d4       __imp_?canFetchMore@QSqlQueryModel@@UBE_NABVQModelIndex@@@Z 0046c7d4     Qt5Sql:Qt5Sql.dll
 0002:000007d8       __imp_?submitAll@QSqlTableModel@@QAE_NXZ 0046c7d8     Qt5Sql:Qt5Sql.dll
 0002:000007dc       __imp_?setRecord@QSqlTableModel@@QAE_NHABVQSqlRecord@@@Z 0046c7dc     Qt5Sql:Qt5Sql.dll
 0002:000007e0       __imp_?database@QSqlTableModel@@QBE?AVQSqlDatabase@@XZ 0046c7e0     Qt5Sql:Qt5Sql.dll
 0002:000007e4       __imp_?record@QSqlTableModel@@QBE?AVQSqlRecord@@H@Z 0046c7e4     Qt5Sql:Qt5Sql.dll
 0002:000007e8       __imp_??1QSqlTableModel@@UAE@XZ 0046c7e8     Qt5Sql:Qt5Sql.dll
 0002:000007ec       __imp_??0QSqlTableModel@@QAE@PAVQObject@@VQSqlDatabase@@@Z 0046c7ec     Qt5Sql:Qt5Sql.dll
 0002:000007f0       __imp_?lastError@QSqlQueryModel@@QBE?AVQSqlError@@XZ 0046c7f0     Qt5Sql:Qt5Sql.dll
 0002:000007f4       __imp_?addDatabase@QSqlDatabase@@SA?AV1@ABVQString@@0@Z 0046c7f4     Qt5Sql:Qt5Sql.dll
 0002:000007f8       __imp_?setDatabaseName@QSqlDatabase@@QAEXABVQString@@@Z 0046c7f8     Qt5Sql:Qt5Sql.dll
 0002:000007fc       __imp_?rollback@QSqlDatabase@@QAE_NXZ 0046c7fc     Qt5Sql:Qt5Sql.dll
 0002:00000800       __imp_?commit@QSqlDatabase@@QAE_NXZ 0046c800     Qt5Sql:Qt5Sql.dll
 0002:00000804       __imp_?lastError@QSqlDatabase@@QBE?AVQSqlError@@XZ 0046c804     Qt5Sql:Qt5Sql.dll
 0002:00000808       __imp_?close@QSqlDatabase@@QAEXXZ 0046c808     Qt5Sql:Qt5Sql.dll
 0002:0000080c       __imp_?open@QSqlDatabase@@QAE_NXZ 0046c80c     Qt5Sql:Qt5Sql.dll
 0002:00000810       __imp_??1QSqlDatabase@@QAE@XZ 0046c810     Qt5Sql:Qt5Sql.dll
 0002:00000814       __imp_??0QSqlDatabase@@QAE@ABV0@@Z 0046c814     Qt5Sql:Qt5Sql.dll
 0002:00000818       __imp_?setValue@QSqlRecord@@QAEXABVQString@@ABVQVariant@@@Z 0046c818     Qt5Sql:Qt5Sql.dll
 0002:0000081c       __imp_?value@QSqlRecord@@QBE?AVQVariant@@ABVQString@@@Z 0046c81c     Qt5Sql:Qt5Sql.dll
 0002:00000820       __imp_??1QSqlRecord@@QAE@XZ 0046c820     Qt5Sql:Qt5Sql.dll
 0002:00000824       __imp_?text@QSqlError@@QBE?AVQString@@XZ 0046c824     Qt5Sql:Qt5Sql.dll
 0002:00000828       __imp_??1QSqlError@@QAE@XZ 0046c828     Qt5Sql:Qt5Sql.dll
 0002:0000082c       __imp_?transaction@QSqlDatabase@@QAE_NXZ 0046c82c     Qt5Sql:Qt5Sql.dll
 0002:00000830       \177Qt5Sql_NULL_THUNK_DATA 0046c830     Qt5Sql:Qt5Sql.dll
 0002:00000834       __imp_?staticMetaObject@QWebSocket@@2UQMetaObject@@B 0046c834     Qt5WebSockets:Qt5WebSockets.dll
 0002:00000838       __imp_?qt_metacast@QWebSocket@@UAEPAXPBD@Z 0046c838     Qt5WebSockets:Qt5WebSockets.dll
 0002:0000083c       __imp_?qt_metacall@QWebSocket@@UAEHW4Call@QMetaObject@@HPAPAX@Z 0046c83c     Qt5WebSockets:Qt5WebSockets.dll
 0002:00000840       __imp_?metaObject@QWebSocket@@UBEPBUQMetaObject@@XZ 0046c840     Qt5WebSockets:Qt5WebSockets.dll
 0002:00000844       __imp_?textMessageReceived@QWebSocket@@QAEXABVQString@@@Z 0046c844     Qt5WebSockets:Qt5WebSockets.dll
 0002:00000848       __imp_?stateChanged@QWebSocket@@QAEXW4SocketState@QAbstractSocket@@@Z 0046c848     Qt5WebSockets:Qt5WebSockets.dll
 0002:0000084c       __imp_?disconnected@QWebSocket@@QAEXXZ 0046c84c     Qt5WebSockets:Qt5WebSockets.dll
 0002:00000850       __imp_?connected@QWebSocket@@QAEXXZ 0046c850     Qt5WebSockets:Qt5WebSockets.dll
 0002:00000854       __imp_?open@QWebSocket@@QAEXABVQUrl@@@Z 0046c854     Qt5WebSockets:Qt5WebSockets.dll
 0002:00000858       __imp_?close@QWebSocket@@QAEXW4CloseCode@QWebSocketProtocol@@ABVQString@@@Z 0046c858     Qt5WebSockets:Qt5WebSockets.dll
 0002:0000085c       __imp_?sendTextMessage@QWebSocket@@QAE_JABVQString@@@Z 0046c85c     Qt5WebSockets:Qt5WebSockets.dll
 0002:00000860       __imp_?state@QWebSocket@@QBE?AW4SocketState@QAbstractSocket@@XZ 0046c860     Qt5WebSockets:Qt5WebSockets.dll
 0002:00000864       __imp_??1QWebSocket@@UAE@XZ 0046c864     Qt5WebSockets:Qt5WebSockets.dll
 0002:00000868       __imp_??0QWebSocket@@QAE@ABVQString@@W4Version@QWebSocketProtocol@@PAVQObject@@@Z 0046c868     Qt5WebSockets:Qt5WebSockets.dll
 0002:0000086c       \177Qt5WebSockets_NULL_THUNK_DATA 0046c86c     Qt5WebSockets:Qt5WebSockets.dll
 0002:00000870       __imp_?scrollContentsBy@QMdiArea@@MAEXHH@Z 0046c870     Qt5Widgets:Qt5Widgets.dll
 0002:00000874       __imp_?scrollContentsBy@QScrollArea@@MAEXHH@Z 0046c874     Qt5Widgets:Qt5Widgets.dll
 0002:00000878       __imp_?setupViewport@QMdiArea@@MAEXPAVQWidget@@@Z 0046c878     Qt5Widgets:Qt5Widgets.dll
 0002:0000087c       __imp_?showEvent@QMdiArea@@MAEXPAVQShowEvent@@@Z 0046c87c     Qt5Widgets:Qt5Widgets.dll
 0002:00000880       __imp_?showEvent@QTabWidget@@MAEXPAVQShowEvent@@@Z 0046c880     Qt5Widgets:Qt5Widgets.dll
 0002:00000884       __imp_?sizeHint@QFrame@@UBE?AVQSize@@XZ 0046c884     Qt5Widgets:Qt5Widgets.dll
 0002:00000888       __imp_?sizeHint@QMdiArea@@UBE?AVQSize@@XZ 0046c888     Qt5Widgets:Qt5Widgets.dll
 0002:0000088c       __imp_?sizeHint@QScrollArea@@UBE?AVQSize@@XZ 0046c88c     Qt5Widgets:Qt5Widgets.dll
 0002:00000890       __imp_?sizeHint@QTabWidget@@UBE?AVQSize@@XZ 0046c890     Qt5Widgets:Qt5Widgets.dll
 0002:00000894       __imp_?tabInserted@QTabWidget@@MAEXH@Z 0046c894     Qt5Widgets:Qt5Widgets.dll
 0002:00000898       __imp_?tabRemoved@QTabWidget@@MAEXH@Z 0046c898     Qt5Widgets:Qt5Widgets.dll
 0002:0000089c       __imp_?textFromValue@QSpinBox@@MBE?AVQString@@H@Z 0046c89c     Qt5Widgets:Qt5Widgets.dll
 0002:000008a0       __imp_?timerEvent@QMdiArea@@MAEXPAVQTimerEvent@@@Z 0046c8a0     Qt5Widgets:Qt5Widgets.dll
 0002:000008a4       __imp_?validate@QSpinBox@@MBE?AW4State@QValidator@@AAVQString@@AAH@Z 0046c8a4     Qt5Widgets:Qt5Widgets.dll
 0002:000008a8       __imp_?valueFromText@QSpinBox@@MBEHABVQString@@@Z 0046c8a8     Qt5Widgets:Qt5Widgets.dll
 0002:000008ac       __imp_?viewportEvent@QAbstractScrollArea@@MAE_NPAVQEvent@@@Z 0046c8ac     Qt5Widgets:Qt5Widgets.dll
 0002:000008b0       __imp_?viewportEvent@QMdiArea@@MAE_NPAVQEvent@@@Z 0046c8b0     Qt5Widgets:Qt5Widgets.dll
 0002:000008b4       __imp_?viewportSizeHint@QAbstractScrollArea@@MBE?AVQSize@@XZ 0046c8b4     Qt5Widgets:Qt5Widgets.dll
 0002:000008b8       __imp_?viewportSizeHint@QScrollArea@@MBE?AVQSize@@XZ 0046c8b8     Qt5Widgets:Qt5Widgets.dll
 0002:000008bc       __imp_?setMinimumSize@QWidget@@QAEXABVQSize@@@Z 0046c8bc     Qt5Widgets:Qt5Widgets.dll
 0002:000008c0       __imp_?setMaximumSize@QWidget@@QAEXABVQSize@@@Z 0046c8c0     Qt5Widgets:Qt5Widgets.dll
 0002:000008c4       __imp_?setStyleSheet@QWidget@@QAEXABVQString@@@Z 0046c8c4     Qt5Widgets:Qt5Widgets.dll
 0002:000008c8       __imp_?setWindowIcon@QWidget@@QAEXABVQIcon@@@Z 0046c8c8     Qt5Widgets:Qt5Widgets.dll
 0002:000008cc       __imp_?setStatusTip@QWidget@@QAEXABVQString@@@Z 0046c8cc     Qt5Widgets:Qt5Widgets.dll
 0002:000008d0       __imp_?setWindowFlags@QWidget@@QAEXV?$QFlags@W4WindowType@Qt@@@@@Z 0046c8d0     Qt5Widgets:Qt5Widgets.dll
 0002:000008d4       __imp_?setIcon@QAction@@QAEXABVQIcon@@@Z 0046c8d4     Qt5Widgets:Qt5Widgets.dll
 0002:000008d8       __imp_?setToolTip@QAction@@QAEXABVQString@@@Z 0046c8d8     Qt5Widgets:Qt5Widgets.dll
 0002:000008dc       __imp_?setCheckable@QAction@@QAEX_N@Z 0046c8dc     Qt5Widgets:Qt5Widgets.dll
 0002:000008e0       __imp_??0QTextEdit@@QAE@PAVQWidget@@@Z 0046c8e0     Qt5Widgets:Qt5Widgets.dll
 0002:000008e4       __imp_??1QTextEdit@@UAE@XZ 0046c8e4     Qt5Widgets:Qt5Widgets.dll
 0002:000008e8       __imp_?document@QTextEdit@@QBEPAVQTextDocument@@XZ 0046c8e8     Qt5Widgets:Qt5Widgets.dll
 0002:000008ec       __imp_?moveCursor@QTextEdit@@QAEXW4MoveOperation@QTextCursor@@W4MoveMode@3@@Z 0046c8ec     Qt5Widgets:Qt5Widgets.dll
 0002:000008f0       __imp_?clear@QTextEdit@@QAEXXZ 0046c8f0     Qt5Widgets:Qt5Widgets.dll
 0002:000008f4       __imp_?append@QTextEdit@@QAEXABVQString@@@Z 0046c8f4     Qt5Widgets:Qt5Widgets.dll
 0002:000008f8       __imp_??0QErrorMessage@@QAE@PAVQWidget@@@Z 0046c8f8     Qt5Widgets:Qt5Widgets.dll
 0002:000008fc       __imp_??1QErrorMessage@@UAE@XZ 0046c8fc     Qt5Widgets:Qt5Widgets.dll
 0002:00000900       __imp_?showMessage@QErrorMessage@@QAEXABVQString@@@Z 0046c900     Qt5Widgets:Qt5Widgets.dll
 0002:00000904       __imp_??0QMainWindow@@QAE@PAVQWidget@@V?$QFlags@W4WindowType@Qt@@@@@Z 0046c904     Qt5Widgets:Qt5Widgets.dll
 0002:00000908       __imp_??1QMainWindow@@UAE@XZ 0046c908     Qt5Widgets:Qt5Widgets.dll
 0002:0000090c       __imp_?setDocumentMode@QMainWindow@@QAEX_N@Z 0046c90c     Qt5Widgets:Qt5Widgets.dll
 0002:00000910       __imp_?setStatusBar@QMainWindow@@QAEXPAVQStatusBar@@@Z 0046c910     Qt5Widgets:Qt5Widgets.dll
 0002:00000914       __imp_?setCentralWidget@QMainWindow@@QAEXPAVQWidget@@@Z 0046c914     Qt5Widgets:Qt5Widgets.dll
 0002:00000918       __imp_?takeCentralWidget@QMainWindow@@QAEPAVQWidget@@XZ 0046c918     Qt5Widgets:Qt5Widgets.dll
 0002:0000091c       __imp_?addToolBar@QMainWindow@@QAEXW4ToolBarArea@Qt@@PAVQToolBar@@@Z 0046c91c     Qt5Widgets:Qt5Widgets.dll
 0002:00000920       __imp_?addDockWidget@QMainWindow@@QAEXW4DockWidgetArea@Qt@@PAVQDockWidget@@@Z 0046c920     Qt5Widgets:Qt5Widgets.dll
 0002:00000924       __imp_?splitDockWidget@QMainWindow@@QAEXPAVQDockWidget@@0W4Orientation@Qt@@@Z 0046c924     Qt5Widgets:Qt5Widgets.dll
 0002:00000928       __imp_?tabifyDockWidget@QMainWindow@@QAEXPAVQDockWidget@@0@Z 0046c928     Qt5Widgets:Qt5Widgets.dll
 0002:0000092c       __imp_?setDockNestingEnabled@QMainWindow@@QAEX_N@Z 0046c92c     Qt5Widgets:Qt5Widgets.dll
 0002:00000930       __imp_??0QTextBrowser@@QAE@PAVQWidget@@@Z 0046c930     Qt5Widgets:Qt5Widgets.dll
 0002:00000934       __imp_??1QTextBrowser@@UAE@XZ 0046c934     Qt5Widgets:Qt5Widgets.dll
 0002:00000938       __imp_?setMargin@QLayout@@QAEXH@Z 0046c938     Qt5Widgets:Qt5Widgets.dll
 0002:0000093c       __imp_??0QDockWidget@@QAE@PAVQWidget@@V?$QFlags@W4WindowType@Qt@@@@@Z 0046c93c     Qt5Widgets:Qt5Widgets.dll
 0002:00000940       __imp_??1QDockWidget@@UAE@XZ 0046c940     Qt5Widgets:Qt5Widgets.dll
 0002:00000944       __imp_?setWidget@QDockWidget@@QAEXPAVQWidget@@@Z 0046c944     Qt5Widgets:Qt5Widgets.dll
 0002:00000948       __imp_?setFeatures@QDockWidget@@QAEXV?$QFlags@W4DockWidgetFeature@QDockWidget@@@@@Z 0046c948     Qt5Widgets:Qt5Widgets.dll
 0002:0000094c       __imp_?setAllowedAreas@QDockWidget@@QAEXV?$QFlags@W4DockWidgetArea@Qt@@@@@Z 0046c94c     Qt5Widgets:Qt5Widgets.dll
 0002:00000950       __imp_?setTitleBarWidget@QDockWidget@@QAEXPAVQWidget@@@Z 0046c950     Qt5Widgets:Qt5Widgets.dll
 0002:00000954       __imp_??0QStatusBar@@QAE@PAVQWidget@@@Z 0046c954     Qt5Widgets:Qt5Widgets.dll
 0002:00000958       __imp_??1QStatusBar@@UAE@XZ 0046c958     Qt5Widgets:Qt5Widgets.dll
 0002:0000095c       __imp_?showMessage@QStatusBar@@QAEXABVQString@@H@Z 0046c95c     Qt5Widgets:Qt5Widgets.dll
 0002:00000960       __imp_??0QTreeView@@QAE@PAVQWidget@@@Z 0046c960     Qt5Widgets:Qt5Widgets.dll
 0002:00000964       __imp_??1QTreeView@@UAE@XZ 0046c964     Qt5Widgets:Qt5Widgets.dll
 0002:00000968       __imp_?backward@QTextBrowser@@UAEXXZ 0046c968     Qt5Widgets:Qt5Widgets.dll
 0002:0000096c       __imp_?canInsertFromMimeData@QTextEdit@@MBE_NPBVQMimeData@@@Z 0046c96c     Qt5Widgets:Qt5Widgets.dll
 0002:00000970       __imp_?changeEvent@QDockWidget@@MAEXPAVQEvent@@@Z 0046c970     Qt5Widgets:Qt5Widgets.dll
 0002:00000974       __imp_?changeEvent@QTextEdit@@MAEXPAVQEvent@@@Z 0046c974     Qt5Widgets:Qt5Widgets.dll
 0002:00000978       __imp_?closeEvent@QDockWidget@@MAEXPAVQCloseEvent@@@Z 0046c978     Qt5Widgets:Qt5Widgets.dll
 0002:0000097c       __imp_?contextMenuEvent@QMainWindow@@MAEXPAVQContextMenuEvent@@@Z 0046c97c     Qt5Widgets:Qt5Widgets.dll
 0002:00000980       __imp_?contextMenuEvent@QTextEdit@@MAEXPAVQContextMenuEvent@@@Z 0046c980     Qt5Widgets:Qt5Widgets.dll
 0002:00000984       __imp_?createMimeDataFromSelection@QTextEdit@@MBEPAVQMimeData@@XZ 0046c984     Qt5Widgets:Qt5Widgets.dll
 0002:00000988       __imp_?createPopupMenu@QMainWindow@@UAEPAVQMenu@@XZ 0046c988     Qt5Widgets:Qt5Widgets.dll
 0002:0000098c       __imp_?currentChanged@QTreeView@@MAEXABVQModelIndex@@0@Z 0046c98c     Qt5Widgets:Qt5Widgets.dll
 0002:00000990       __imp_?dataChanged@QTreeView@@UAEXABVQModelIndex@@0ABV?$QVector@H@@@Z 0046c990     Qt5Widgets:Qt5Widgets.dll
 0002:00000994       __imp_?doItemsLayout@QTreeView@@UAEXXZ 0046c994     Qt5Widgets:Qt5Widgets.dll
 0002:00000998       __imp_?doSetTextCursor@QTextEdit@@MAEXABVQTextCursor@@@Z 0046c998     Qt5Widgets:Qt5Widgets.dll
 0002:0000099c       __imp_?dragEnterEvent@QTextEdit@@MAEXPAVQDragEnterEvent@@@Z 0046c99c     Qt5Widgets:Qt5Widgets.dll
 0002:000009a0       __imp_?dragLeaveEvent@QTextEdit@@MAEXPAVQDragLeaveEvent@@@Z 0046c9a0     Qt5Widgets:Qt5Widgets.dll
 0002:000009a4       __imp_?event@QCheckBox@@MAE_NPAVQEvent@@@Z 0046c9a4     Qt5Widgets:Qt5Widgets.dll
 0002:000009a8       __imp_?dragMoveEvent@QTreeView@@MAEXPAVQDragMoveEvent@@@Z 0046c9a8     Qt5Widgets:Qt5Widgets.dll
 0002:000009ac       __imp_?drawBranches@QTreeView@@MBEXPAVQPainter@@ABVQRect@@ABVQModelIndex@@@Z 0046c9ac     Qt5Widgets:Qt5Widgets.dll
 0002:000009b0       __imp_?drawRow@QTreeView@@MBEXPAVQPainter@@ABVQStyleOptionViewItem@@ABVQModelIndex@@@Z 0046c9b0     Qt5Widgets:Qt5Widgets.dll
 0002:000009b4       __imp_?dropEvent@QAbstractItemView@@MAEXPAVQDropEvent@@@Z 0046c9b4     Qt5Widgets:Qt5Widgets.dll
 0002:000009b8       __imp_?dropEvent@QTextEdit@@MAEXPAVQDropEvent@@@Z 0046c9b8     Qt5Widgets:Qt5Widgets.dll
 0002:000009bc       __imp_?event@QAbstractItemView@@MAE_NPAVQEvent@@@Z 0046c9bc     Qt5Widgets:Qt5Widgets.dll
 0002:000009c0       __imp_?event@QDockWidget@@MAE_NPAVQEvent@@@Z 0046c9c0     Qt5Widgets:Qt5Widgets.dll
 0002:000009c4       __imp_?event@QMainWindow@@MAE_NPAVQEvent@@@Z 0046c9c4     Qt5Widgets:Qt5Widgets.dll
 0002:000009c8       __imp_?event@QStatusBar@@MAE_NPAVQEvent@@@Z 0046c9c8     Qt5Widgets:Qt5Widgets.dll
 0002:000009cc       __imp_?event@QTextBrowser@@MAE_NPAVQEvent@@@Z 0046c9cc     Qt5Widgets:Qt5Widgets.dll
 0002:000009d0       __imp_?event@QTextEdit@@MAE_NPAVQEvent@@@Z 0046c9d0     Qt5Widgets:Qt5Widgets.dll
 0002:000009d4       __imp_?eventFilter@QAbstractScrollArea@@MAE_NPAVQObject@@PAVQEvent@@@Z 0046c9d4     Qt5Widgets:Qt5Widgets.dll
 0002:000009d8       __imp_?focusInEvent@QTextEdit@@MAEXPAVQFocusEvent@@@Z 0046c9d8     Qt5Widgets:Qt5Widgets.dll
 0002:000009dc       __imp_?focusNextPrevChild@QTextBrowser@@MAE_N_N@Z 0046c9dc     Qt5Widgets:Qt5Widgets.dll
 0002:000009e0       __imp_?focusNextPrevChild@QTextEdit@@MAE_N_N@Z 0046c9e0     Qt5Widgets:Qt5Widgets.dll
 0002:000009e4       __imp_?focusOutEvent@QTextBrowser@@MAEXPAVQFocusEvent@@@Z 0046c9e4     Qt5Widgets:Qt5Widgets.dll
 0002:000009e8       __imp_?focusOutEvent@QTextEdit@@MAEXPAVQFocusEvent@@@Z 0046c9e8     Qt5Widgets:Qt5Widgets.dll
 0002:000009ec       __imp_?forward@QTextBrowser@@UAEXXZ 0046c9ec     Qt5Widgets:Qt5Widgets.dll
 0002:000009f0       __imp_?home@QTextBrowser@@UAEXXZ 0046c9f0     Qt5Widgets:Qt5Widgets.dll
 0002:000009f4       __imp_?horizontalOffset@QTreeView@@MBEHXZ 0046c9f4     Qt5Widgets:Qt5Widgets.dll
 0002:000009f8       __imp_?horizontalScrollbarAction@QTreeView@@MAEXH@Z 0046c9f8     Qt5Widgets:Qt5Widgets.dll
 0002:000009fc       __imp_?indexAt@QTreeView@@UBE?AVQModelIndex@@ABVQPoint@@@Z 0046c9fc     Qt5Widgets:Qt5Widgets.dll
 0002:00000a00       __imp_?inputMethodEvent@QTextEdit@@MAEXPAVQInputMethodEvent@@@Z 0046ca00     Qt5Widgets:Qt5Widgets.dll
 0002:00000a04       __imp_?inputMethodQuery@QTextEdit@@UBE?AVQVariant@@W4InputMethodQuery@Qt@@@Z 0046ca04     Qt5Widgets:Qt5Widgets.dll
 0002:00000a08       __imp_?insertFromMimeData@QTextEdit@@MAEXPBVQMimeData@@@Z 0046ca08     Qt5Widgets:Qt5Widgets.dll
 0002:00000a0c       __imp_?isIndexHidden@QTreeView@@MBE_NABVQModelIndex@@@Z 0046ca0c     Qt5Widgets:Qt5Widgets.dll
 0002:00000a10       __imp_?keyPressEvent@QTextBrowser@@MAEXPAVQKeyEvent@@@Z 0046ca10     Qt5Widgets:Qt5Widgets.dll
 0002:00000a14       __imp_?keyPressEvent@QTextEdit@@MAEXPAVQKeyEvent@@@Z 0046ca14     Qt5Widgets:Qt5Widgets.dll
 0002:00000a18       __imp_?keyPressEvent@QTreeView@@MAEXPAVQKeyEvent@@@Z 0046ca18     Qt5Widgets:Qt5Widgets.dll
 0002:00000a1c       __imp_?keyReleaseEvent@QTextEdit@@MAEXPAVQKeyEvent@@@Z 0046ca1c     Qt5Widgets:Qt5Widgets.dll
 0002:00000a20       __imp_?keyboardSearch@QTreeView@@UAEXABVQString@@@Z 0046ca20     Qt5Widgets:Qt5Widgets.dll
 0002:00000a24       __imp_?loadResource@QTextBrowser@@UAE?AVQVariant@@HABVQUrl@@@Z 0046ca24     Qt5Widgets:Qt5Widgets.dll
 0002:00000a28       __imp_?loadResource@QTextEdit@@UAE?AVQVariant@@HABVQUrl@@@Z 0046ca28     Qt5Widgets:Qt5Widgets.dll
 0002:00000a2c       __imp_?metaObject@QDockWidget@@UBEPBUQMetaObject@@XZ 0046ca2c     Qt5Widgets:Qt5Widgets.dll
 0002:00000a30       __imp_?metaObject@QStatusBar@@UBEPBUQMetaObject@@XZ 0046ca30     Qt5Widgets:Qt5Widgets.dll
 0002:00000a34       __imp_?metaObject@QTextBrowser@@UBEPBUQMetaObject@@XZ 0046ca34     Qt5Widgets:Qt5Widgets.dll
 0002:00000a38       __imp_?metaObject@QTextEdit@@UBEPBUQMetaObject@@XZ 0046ca38     Qt5Widgets:Qt5Widgets.dll
 0002:00000a3c       __imp_?metaObject@QTreeView@@UBEPBUQMetaObject@@XZ 0046ca3c     Qt5Widgets:Qt5Widgets.dll
 0002:00000a40       __imp_?mouseDoubleClickEvent@QTextEdit@@MAEXPAVQMouseEvent@@@Z 0046ca40     Qt5Widgets:Qt5Widgets.dll
 0002:00000a44       __imp_?mouseDoubleClickEvent@QTreeView@@MAEXPAVQMouseEvent@@@Z 0046ca44     Qt5Widgets:Qt5Widgets.dll
 0002:00000a48       __imp_?mouseMoveEvent@QTextBrowser@@MAEXPAVQMouseEvent@@@Z 0046ca48     Qt5Widgets:Qt5Widgets.dll
 0002:00000a4c       __imp_?mouseMoveEvent@QTextEdit@@MAEXPAVQMouseEvent@@@Z 0046ca4c     Qt5Widgets:Qt5Widgets.dll
 0002:00000a50       __imp_?mouseMoveEvent@QTreeView@@MAEXPAVQMouseEvent@@@Z 0046ca50     Qt5Widgets:Qt5Widgets.dll
 0002:00000a54       __imp_?mousePressEvent@QTextBrowser@@MAEXPAVQMouseEvent@@@Z 0046ca54     Qt5Widgets:Qt5Widgets.dll
 0002:00000a58       __imp_?mousePressEvent@QTextEdit@@MAEXPAVQMouseEvent@@@Z 0046ca58     Qt5Widgets:Qt5Widgets.dll
 0002:00000a5c       __imp_?mousePressEvent@QTreeView@@MAEXPAVQMouseEvent@@@Z 0046ca5c     Qt5Widgets:Qt5Widgets.dll
 0002:00000a60       __imp_?mouseReleaseEvent@QTextBrowser@@MAEXPAVQMouseEvent@@@Z 0046ca60     Qt5Widgets:Qt5Widgets.dll
 0002:00000a64       __imp_?mouseReleaseEvent@QTextEdit@@MAEXPAVQMouseEvent@@@Z 0046ca64     Qt5Widgets:Qt5Widgets.dll
 0002:00000a68       __imp_?mouseReleaseEvent@QTreeView@@MAEXPAVQMouseEvent@@@Z 0046ca68     Qt5Widgets:Qt5Widgets.dll
 0002:00000a6c       __imp_?moveCursor@QTreeView@@MAE?AVQModelIndex@@W4CursorAction@QAbstractItemView@@V?$QFlags@W4KeyboardModifier@Qt@@@@@Z 0046ca6c     Qt5Widgets:Qt5Widgets.dll
 0002:00000a70       __imp_?paintEvent@QDockWidget@@MAEXPAVQPaintEvent@@@Z 0046ca70     Qt5Widgets:Qt5Widgets.dll
 0002:00000a74       __imp_?paintEvent@QStatusBar@@MAEXPAVQPaintEvent@@@Z 0046ca74     Qt5Widgets:Qt5Widgets.dll
 0002:00000a78       __imp_?paintEvent@QTextBrowser@@MAEXPAVQPaintEvent@@@Z 0046ca78     Qt5Widgets:Qt5Widgets.dll
 0002:00000a7c       __imp_?resizeEvent@QTabWidget@@MAEXPAVQResizeEvent@@@Z 0046ca7c     Qt5Widgets:Qt5Widgets.dll
 0002:00000a80       __imp_?paintEvent@QTreeView@@MAEXPAVQPaintEvent@@@Z 0046ca80     Qt5Widgets:Qt5Widgets.dll
 0002:00000a84       __imp_?qt_metacall@QDockWidget@@UAEHW4Call@QMetaObject@@HPAPAX@Z 0046ca84     Qt5Widgets:Qt5Widgets.dll
 0002:00000a88       __imp_?qt_metacall@QStatusBar@@UAEHW4Call@QMetaObject@@HPAPAX@Z 0046ca88     Qt5Widgets:Qt5Widgets.dll
 0002:00000a8c       __imp_?qt_metacall@QTextBrowser@@UAEHW4Call@QMetaObject@@HPAPAX@Z 0046ca8c     Qt5Widgets:Qt5Widgets.dll
 0002:00000a90       __imp_?qt_metacall@QTextEdit@@UAEHW4Call@QMetaObject@@HPAPAX@Z 0046ca90     Qt5Widgets:Qt5Widgets.dll
 0002:00000a94       __imp_?qt_metacall@QTreeView@@UAEHW4Call@QMetaObject@@HPAPAX@Z 0046ca94     Qt5Widgets:Qt5Widgets.dll
 0002:00000a98       __imp_?qt_metacast@QDockWidget@@UAEPAXPBD@Z 0046ca98     Qt5Widgets:Qt5Widgets.dll
 0002:00000a9c       __imp_?qt_metacast@QStatusBar@@UAEPAXPBD@Z 0046ca9c     Qt5Widgets:Qt5Widgets.dll
 0002:00000aa0       __imp_?qt_metacast@QTextBrowser@@UAEPAXPBD@Z 0046caa0     Qt5Widgets:Qt5Widgets.dll
 0002:00000aa4       __imp_?qt_metacast@QTextEdit@@UAEPAXPBD@Z 0046caa4     Qt5Widgets:Qt5Widgets.dll
 0002:00000aa8       __imp_?qt_metacast@QTreeView@@UAEPAXPBD@Z 0046caa8     Qt5Widgets:Qt5Widgets.dll
 0002:00000aac       __imp_?reload@QTextBrowser@@UAEXXZ 0046caac     Qt5Widgets:Qt5Widgets.dll
 0002:00000ab0       __imp_?reset@QTreeView@@UAEXXZ 0046cab0     Qt5Widgets:Qt5Widgets.dll
 0002:00000ab4       __imp_?resizeEvent@QStatusBar@@MAEXPAVQResizeEvent@@@Z 0046cab4     Qt5Widgets:Qt5Widgets.dll
 0002:00000ab8       __imp_?resizeEvent@QTextEdit@@MAEXPAVQResizeEvent@@@Z 0046cab8     Qt5Widgets:Qt5Widgets.dll
 0002:00000abc       __imp_?rowsAboutToBeRemoved@QTreeView@@MAEXABVQModelIndex@@HH@Z 0046cabc     Qt5Widgets:Qt5Widgets.dll
 0002:00000ac0       __imp_?rowsInserted@QTreeView@@MAEXABVQModelIndex@@HH@Z 0046cac0     Qt5Widgets:Qt5Widgets.dll
 0002:00000ac4       __imp_?scrollContentsBy@QTextEdit@@MAEXHH@Z 0046cac4     Qt5Widgets:Qt5Widgets.dll
 0002:00000ac8       __imp_?scrollContentsBy@QTreeView@@MAEXHH@Z 0046cac8     Qt5Widgets:Qt5Widgets.dll
 0002:00000acc       __imp_?scrollTo@QTreeView@@UAEXABVQModelIndex@@W4ScrollHint@QAbstractItemView@@@Z 0046cacc     Qt5Widgets:Qt5Widgets.dll
 0002:00000ad0       __imp_?selectAll@QTreeView@@UAEXXZ 0046cad0     Qt5Widgets:Qt5Widgets.dll
 0002:00000ad4       __imp_?selectedIndexes@QTreeView@@MBE?AV?$QList@VQModelIndex@@@@XZ 0046cad4     Qt5Widgets:Qt5Widgets.dll
 0002:00000ad8       __imp_?selectionChanged@QTreeView@@MAEXABVQItemSelection@@0@Z 0046cad8     Qt5Widgets:Qt5Widgets.dll
 0002:00000adc       __imp_?paintEvent@QTabWidget@@MAEXPAVQPaintEvent@@@Z 0046cadc     Qt5Widgets:Qt5Widgets.dll
 0002:00000ae0       __imp_?setRootIndex@QTreeView@@UAEXABVQModelIndex@@@Z 0046cae0     Qt5Widgets:Qt5Widgets.dll
 0002:00000ae4       __imp_?setSelection@QTreeView@@MAEXABVQRect@@V?$QFlags@W4SelectionFlag@QItemSelectionModel@@@@@Z 0046cae4     Qt5Widgets:Qt5Widgets.dll
 0002:00000ae8       __imp_?setSelectionModel@QTreeView@@UAEXPAVQItemSelectionModel@@@Z 0046cae8     Qt5Widgets:Qt5Widgets.dll
 0002:00000aec       __imp_?setSource@QTextBrowser@@UAEXABVQUrl@@@Z 0046caec     Qt5Widgets:Qt5Widgets.dll
 0002:00000af0       __imp_?showEvent@QStatusBar@@MAEXPAVQShowEvent@@@Z 0046caf0     Qt5Widgets:Qt5Widgets.dll
 0002:00000af4       __imp_?showEvent@QTextEdit@@MAEXPAVQShowEvent@@@Z 0046caf4     Qt5Widgets:Qt5Widgets.dll
 0002:00000af8       __imp_?sizeHintForColumn@QTreeView@@MBEHH@Z 0046caf8     Qt5Widgets:Qt5Widgets.dll
 0002:00000afc       __imp_?sizeHintForRow@QAbstractItemView@@UBEHH@Z 0046cafc     Qt5Widgets:Qt5Widgets.dll
 0002:00000b00       __imp_?timerEvent@QTextEdit@@MAEXPAVQTimerEvent@@@Z 0046cb00     Qt5Widgets:Qt5Widgets.dll
 0002:00000b04       __imp_?timerEvent@QTreeView@@MAEXPAVQTimerEvent@@@Z 0046cb04     Qt5Widgets:Qt5Widgets.dll
 0002:00000b08       __imp_?updateGeometries@QTreeView@@MAEXXZ 0046cb08     Qt5Widgets:Qt5Widgets.dll
 0002:00000b0c       __imp_?verticalOffset@QTreeView@@MBEHXZ 0046cb0c     Qt5Widgets:Qt5Widgets.dll
 0002:00000b10       __imp_?verticalScrollbarAction@QAbstractItemView@@MAEXH@Z 0046cb10     Qt5Widgets:Qt5Widgets.dll
 0002:00000b14       __imp_?verticalScrollbarValueChanged@QTreeView@@MAEXH@Z 0046cb14     Qt5Widgets:Qt5Widgets.dll
 0002:00000b18       __imp_?viewOptions@QAbstractItemView@@MBE?AVQStyleOptionViewItem@@XZ 0046cb18     Qt5Widgets:Qt5Widgets.dll
 0002:00000b1c       __imp_?viewportEvent@QTreeView@@MAE_NPAVQEvent@@@Z 0046cb1c     Qt5Widgets:Qt5Widgets.dll
 0002:00000b20       __imp_?viewportSizeHint@QTreeView@@MBE?AVQSize@@XZ 0046cb20     Qt5Widgets:Qt5Widgets.dll
 0002:00000b24       __imp_?visualRect@QTreeView@@UBE?AVQRect@@ABVQModelIndex@@@Z 0046cb24     Qt5Widgets:Qt5Widgets.dll
 0002:00000b28       __imp_?visualRegionForSelection@QTreeView@@MBE?AVQRegion@@ABVQItemSelection@@@Z 0046cb28     Qt5Widgets:Qt5Widgets.dll
 0002:00000b2c       __imp_?wheelEvent@QTextEdit@@MAEXPAVQWheelEvent@@@Z 0046cb2c     Qt5Widgets:Qt5Widgets.dll
 0002:00000b30       __imp_?setBaseSize@QWidget@@QAEXABVQSize@@@Z 0046cb30     Qt5Widgets:Qt5Widgets.dll
 0002:00000b34       __imp_?setShortcut@QAction@@QAEXABVQKeySequence@@@Z 0046cb34     Qt5Widgets:Qt5Widgets.dll
 0002:00000b38       __imp_?setMinimum@QDoubleSpinBox@@QAEXN@Z 0046cb38     Qt5Widgets:Qt5Widgets.dll
 0002:00000b3c       __imp_?clicked@QAbstractButton@@QAEX_N@Z 0046cb3c     Qt5Widgets:Qt5Widgets.dll
 0002:00000b40       __imp_?currentIndex@QComboBox@@QBEHXZ 0046cb40     Qt5Widgets:Qt5Widgets.dll
 0002:00000b44       __imp_?setCurrentIndex@QComboBox@@QAEXH@Z 0046cb44     Qt5Widgets:Qt5Widgets.dll
 0002:00000b48       __imp_??0QGroupBox@@QAE@PAVQWidget@@@Z 0046cb48     Qt5Widgets:Qt5Widgets.dll
 0002:00000b4c       __imp_??1QGroupBox@@UAE@XZ 0046cb4c     Qt5Widgets:Qt5Widgets.dll
 0002:00000b50       __imp_?setTitle@QGroupBox@@QAEXABVQString@@@Z 0046cb50     Qt5Widgets:Qt5Widgets.dll
 0002:00000b54       __imp_?setAlignment@QLabel@@QAEXV?$QFlags@W4AlignmentFlag@Qt@@@@@Z 0046cb54     Qt5Widgets:Qt5Widgets.dll
 0002:00000b58       __imp_?setValidator@QLineEdit@@QAEXPBVQValidator@@@Z 0046cb58     Qt5Widgets:Qt5Widgets.dll
 0002:00000b5c       __imp_?setInputMask@QLineEdit@@QAEXABVQString@@@Z 0046cb5c     Qt5Widgets:Qt5Widgets.dll
 0002:00000b60       __imp_?warning@QMessageBox@@SA?AW4StandardButton@1@PAVQWidget@@ABVQString@@1V?$QFlags@W4StandardButton@QMessageBox@@@@W421@@Z 0046cb60     Qt5Widgets:Qt5Widgets.dll
 0002:00000b64       __imp_?changeEvent@QGroupBox@@MAEXPAVQEvent@@@Z 0046cb64     Qt5Widgets:Qt5Widgets.dll
 0002:00000b68       __imp_?childEvent@QGroupBox@@MAEXPAVQChildEvent@@@Z 0046cb68     Qt5Widgets:Qt5Widgets.dll
 0002:00000b6c       __imp_?event@QGroupBox@@MAE_NPAVQEvent@@@Z 0046cb6c     Qt5Widgets:Qt5Widgets.dll
 0002:00000b70       __imp_?focusInEvent@QGroupBox@@MAEXPAVQFocusEvent@@@Z 0046cb70     Qt5Widgets:Qt5Widgets.dll
 0002:00000b74       __imp_?metaObject@QGroupBox@@UBEPBUQMetaObject@@XZ 0046cb74     Qt5Widgets:Qt5Widgets.dll
 0002:00000b78       __imp_?minimumSizeHint@QGroupBox@@UBE?AVQSize@@XZ 0046cb78     Qt5Widgets:Qt5Widgets.dll
 0002:00000b7c       __imp_?mouseMoveEvent@QGroupBox@@MAEXPAVQMouseEvent@@@Z 0046cb7c     Qt5Widgets:Qt5Widgets.dll
 0002:00000b80       __imp_?mousePressEvent@QGroupBox@@MAEXPAVQMouseEvent@@@Z 0046cb80     Qt5Widgets:Qt5Widgets.dll
 0002:00000b84       __imp_?mouseReleaseEvent@QGroupBox@@MAEXPAVQMouseEvent@@@Z 0046cb84     Qt5Widgets:Qt5Widgets.dll
 0002:00000b88       __imp_?paintEvent@QGroupBox@@MAEXPAVQPaintEvent@@@Z 0046cb88     Qt5Widgets:Qt5Widgets.dll
 0002:00000b8c       __imp_?qt_metacall@QGroupBox@@UAEHW4Call@QMetaObject@@HPAPAX@Z 0046cb8c     Qt5Widgets:Qt5Widgets.dll
 0002:00000b90       __imp_?qt_metacast@QGroupBox@@UAEPAXPBD@Z 0046cb90     Qt5Widgets:Qt5Widgets.dll
 0002:00000b94       __imp_?resizeEvent@QGroupBox@@MAEXPAVQResizeEvent@@@Z 0046cb94     Qt5Widgets:Qt5Widgets.dll
 0002:00000b98       __imp_?staticMetaObject@QWidget@@2UQMetaObject@@B 0046cb98     Qt5Widgets:Qt5Widgets.dll
 0002:00000b9c       __imp_?staticMetaObject@QDialog@@2UQMetaObject@@B 0046cb9c     Qt5Widgets:Qt5Widgets.dll
 0002:00000ba0       __imp_?qt_metacast@QDialog@@UAEPAXPBD@Z 0046cba0     Qt5Widgets:Qt5Widgets.dll
 0002:00000ba4       __imp_?qt_metacall@QDialog@@UAEHW4Call@QMetaObject@@HPAPAX@Z 0046cba4     Qt5Widgets:Qt5Widgets.dll
 0002:00000ba8       __imp_?staticMetaObject@QMainWindow@@2UQMetaObject@@B 0046cba8     Qt5Widgets:Qt5Widgets.dll
 0002:00000bac       __imp_?qt_metacast@QMainWindow@@UAEPAXPBD@Z 0046cbac     Qt5Widgets:Qt5Widgets.dll
 0002:00000bb0       __imp_?qt_metacall@QMainWindow@@UAEHW4Call@QMetaObject@@HPAPAX@Z 0046cbb0     Qt5Widgets:Qt5Widgets.dll
 0002:00000bb4       __imp_?contextMenuEvent@QComboBox@@MAEXPAVQContextMenuEvent@@@Z 0046cbb4     Qt5Widgets:Qt5Widgets.dll
 0002:00000bb8       __imp_?setTabPosition@QTabWidget@@QAEXW4TabPosition@1@@Z 0046cbb8     Qt5Widgets:Qt5Widgets.dll
 0002:00000bbc       __imp_?indexOf@QTabWidget@@QBEHPAVQWidget@@@Z 0046cbbc     Qt5Widgets:Qt5Widgets.dll
 0002:00000bc0       __imp_?setTabText@QTabWidget@@QAEXHABVQString@@@Z 0046cbc0     Qt5Widgets:Qt5Widgets.dll
 0002:00000bc4       __imp_?addTab@QTabWidget@@QAEHPAVQWidget@@ABVQString@@@Z 0046cbc4     Qt5Widgets:Qt5Widgets.dll
 0002:00000bc8       __imp_??1QTabWidget@@UAE@XZ 0046cbc8     Qt5Widgets:Qt5Widgets.dll
 0002:00000bcc       __imp_??0QTabWidget@@QAE@PAVQWidget@@@Z 0046cbcc     Qt5Widgets:Qt5Widgets.dll
 0002:00000bd0       __imp_?setFrameShadow@QFrame@@QAEXW4Shadow@1@@Z 0046cbd0     Qt5Widgets:Qt5Widgets.dll
 0002:00000bd4       __imp_?setFrameShape@QFrame@@QAEXW4Shape@1@@Z 0046cbd4     Qt5Widgets:Qt5Widgets.dll
 0002:00000bd8       __imp_??1QFrame@@UAE@XZ    0046cbd8     Qt5Widgets:Qt5Widgets.dll
 0002:00000bdc       __imp_??0QFrame@@QAE@PAVQWidget@@V?$QFlags@W4WindowType@Qt@@@@@Z 0046cbdc     Qt5Widgets:Qt5Widgets.dll
 0002:00000be0       __imp_?itemAtPosition@QGridLayout@@QBEPAVQLayoutItem@@HH@Z 0046cbe0     Qt5Widgets:Qt5Widgets.dll
 0002:00000be4       __imp_?addWidget@QGridLayout@@QAEXPAVQWidget@@HHV?$QFlags@W4AlignmentFlag@Qt@@@@@Z 0046cbe4     Qt5Widgets:Qt5Widgets.dll
 0002:00000be8       __imp_?setRowMinimumHeight@QGridLayout@@QAEXHH@Z 0046cbe8     Qt5Widgets:Qt5Widgets.dll
 0002:00000bec       __imp_?setColumnStretch@QGridLayout@@QAEXHH@Z 0046cbec     Qt5Widgets:Qt5Widgets.dll
 0002:00000bf0       __imp_?setRowStretch@QGridLayout@@QAEXHH@Z 0046cbf0     Qt5Widgets:Qt5Widgets.dll
 0002:00000bf4       __imp_??0QVBoxLayout@@QAE@XZ 0046cbf4     Qt5Widgets:Qt5Widgets.dll
 0002:00000bf8       __imp_?removeItem@QLayout@@QAEXPAVQLayoutItem@@@Z 0046cbf8     Qt5Widgets:Qt5Widgets.dll
 0002:00000bfc       __imp_?setParent@QWidget@@QAEXPAV1@@Z 0046cbfc     Qt5Widgets:Qt5Widgets.dll
 0002:00000c00       __imp_?setLayout@QWidget@@QAEXPAVQLayout@@@Z 0046cc00     Qt5Widgets:Qt5Widgets.dll
 0002:00000c04       __imp_?setSizePolicy@QWidget@@QAEXW4Policy@QSizePolicy@@0@Z 0046cc04     Qt5Widgets:Qt5Widgets.dll
 0002:00000c08       __imp_?adjustSize@QWidget@@QAEXXZ 0046cc08     Qt5Widgets:Qt5Widgets.dll
 0002:00000c0c       __imp_?setGeometry@QWidget@@QAEXABVQRect@@@Z 0046cc0c     Qt5Widgets:Qt5Widgets.dll
 0002:00000c10       __imp_?setToolTip@QWidget@@QAEXABVQString@@@Z 0046cc10     Qt5Widgets:Qt5Widgets.dll
 0002:00000c14       __imp_?setFont@QWidget@@QAEXABVQFont@@@Z 0046cc14     Qt5Widgets:Qt5Widgets.dll
 0002:00000c18       __imp_?setMaximumHeight@QWidget@@QAEXH@Z 0046cc18     Qt5Widgets:Qt5Widgets.dll
 0002:00000c1c       __imp_?setMinimumWidth@QWidget@@QAEXH@Z 0046cc1c     Qt5Widgets:Qt5Widgets.dll
 0002:00000c20       __imp_?setMinimumSize@QWidget@@QAEXHH@Z 0046cc20     Qt5Widgets:Qt5Widgets.dll
 0002:00000c24       __imp_?showMaximized@QWidget@@QAEXXZ 0046cc24     Qt5Widgets:Qt5Widgets.dll
 0002:00000c28       __imp_?exec@QApplication@@SAHXZ 0046cc28     Qt5Widgets:Qt5Widgets.dll
 0002:00000c2c       __imp_?setFont@QApplication@@SAXABVQFont@@PBD@Z 0046cc2c     Qt5Widgets:Qt5Widgets.dll
 0002:00000c30       __imp_??1QApplication@@UAE@XZ 0046cc30     Qt5Widgets:Qt5Widgets.dll
 0002:00000c34       __imp_??0QApplication@@QAE@AAHPAPADH@Z 0046cc34     Qt5Widgets:Qt5Widgets.dll
 0002:00000c38       __imp_?staticMetaObject@QAction@@2UQMetaObject@@B 0046cc38     Qt5Widgets:Qt5Widgets.dll
 0002:00000c3c       __imp_?wheelEvent@QMenu@@MAEXPAVQWheelEvent@@@Z 0046cc3c     Qt5Widgets:Qt5Widgets.dll
 0002:00000c40       __imp_?timerEvent@QMenu@@MAEXPAVQTimerEvent@@@Z 0046cc40     Qt5Widgets:Qt5Widgets.dll
 0002:00000c44       __imp_?sizeHint@QMenu@@UBE?AVQSize@@XZ 0046cc44     Qt5Widgets:Qt5Widgets.dll
 0002:00000c48       __imp_?qt_metacast@QMenu@@UAEPAXPBD@Z 0046cc48     Qt5Widgets:Qt5Widgets.dll
 0002:00000c4c       __imp_?qt_metacast@QAction@@UAEPAXPBD@Z 0046cc4c     Qt5Widgets:Qt5Widgets.dll
 0002:00000c50       __imp_?qt_metacall@QMenu@@UAEHW4Call@QMetaObject@@HPAPAX@Z 0046cc50     Qt5Widgets:Qt5Widgets.dll
 0002:00000c54       __imp_?qt_metacall@QAction@@UAEHW4Call@QMetaObject@@HPAPAX@Z 0046cc54     Qt5Widgets:Qt5Widgets.dll
 0002:00000c58       __imp_?paintEvent@QMenu@@MAEXPAVQPaintEvent@@@Z 0046cc58     Qt5Widgets:Qt5Widgets.dll
 0002:00000c5c       __imp_?mouseReleaseEvent@QMenu@@MAEXPAVQMouseEvent@@@Z 0046cc5c     Qt5Widgets:Qt5Widgets.dll
 0002:00000c60       __imp_?mousePressEvent@QMenu@@MAEXPAVQMouseEvent@@@Z 0046cc60     Qt5Widgets:Qt5Widgets.dll
 0002:00000c64       __imp_?mouseMoveEvent@QMenu@@MAEXPAVQMouseEvent@@@Z 0046cc64     Qt5Widgets:Qt5Widgets.dll
 0002:00000c68       __imp_?metaObject@QMenu@@UBEPBUQMetaObject@@XZ 0046cc68     Qt5Widgets:Qt5Widgets.dll
 0002:00000c6c       __imp_?metaObject@QAction@@UBEPBUQMetaObject@@XZ 0046cc6c     Qt5Widgets:Qt5Widgets.dll
 0002:00000c70       __imp_?leaveEvent@QMenu@@MAEXPAVQEvent@@@Z 0046cc70     Qt5Widgets:Qt5Widgets.dll
 0002:00000c74       __imp_?keyPressEvent@QMenu@@MAEXPAVQKeyEvent@@@Z 0046cc74     Qt5Widgets:Qt5Widgets.dll
 0002:00000c78       __imp_?hideEvent@QMenu@@MAEXPAVQHideEvent@@@Z 0046cc78     Qt5Widgets:Qt5Widgets.dll
 0002:00000c7c       __imp_?focusNextPrevChild@QMenu@@MAE_N_N@Z 0046cc7c     Qt5Widgets:Qt5Widgets.dll
 0002:00000c80       __imp_?event@QMenu@@MAE_NPAVQEvent@@@Z 0046cc80     Qt5Widgets:Qt5Widgets.dll
 0002:00000c84       __imp_?event@QAction@@MAE_NPAVQEvent@@@Z 0046cc84     Qt5Widgets:Qt5Widgets.dll
 0002:00000c88       __imp_?enterEvent@QMenu@@MAEXPAVQEvent@@@Z 0046cc88     Qt5Widgets:Qt5Widgets.dll
 0002:00000c8c       __imp_?changeEvent@QMenu@@MAEXPAVQEvent@@@Z 0046cc8c     Qt5Widgets:Qt5Widgets.dll
 0002:00000c90       __imp_?actionEvent@QMenu@@MAEXPAVQActionEvent@@@Z 0046cc90     Qt5Widgets:Qt5Widgets.dll
 0002:00000c94       __imp_?resizeEvent@QScrollArea@@MAEXPAVQResizeEvent@@@Z 0046cc94     Qt5Widgets:Qt5Widgets.dll
 0002:00000c98       __imp_?resizeEvent@QMdiArea@@MAEXPAVQResizeEvent@@@Z 0046cc98     Qt5Widgets:Qt5Widgets.dll
 0002:00000c9c       __imp_?qt_metacast@QTabWidget@@UAEPAXPBD@Z 0046cc9c     Qt5Widgets:Qt5Widgets.dll
 0002:00000ca0       __imp_?qt_metacast@QSpinBox@@UAEPAXPBD@Z 0046cca0     Qt5Widgets:Qt5Widgets.dll
 0002:00000ca4       __imp_?qt_metacast@QScrollArea@@UAEPAXPBD@Z 0046cca4     Qt5Widgets:Qt5Widgets.dll
 0002:00000ca8       __imp_?qt_metacast@QMdiArea@@UAEPAXPBD@Z 0046cca8     Qt5Widgets:Qt5Widgets.dll
 0002:00000cac       __imp_?qt_metacast@QFrame@@UAEPAXPBD@Z 0046ccac     Qt5Widgets:Qt5Widgets.dll
 0002:00000cb0       __imp_?qt_metacast@QButtonGroup@@UAEPAXPBD@Z 0046ccb0     Qt5Widgets:Qt5Widgets.dll
 0002:00000cb4       __imp_?qt_metacall@QTabWidget@@UAEHW4Call@QMetaObject@@HPAPAX@Z 0046ccb4     Qt5Widgets:Qt5Widgets.dll
 0002:00000cb8       __imp_?qt_metacall@QSpinBox@@UAEHW4Call@QMetaObject@@HPAPAX@Z 0046ccb8     Qt5Widgets:Qt5Widgets.dll
 0002:00000cbc       __imp_?qt_metacall@QScrollArea@@UAEHW4Call@QMetaObject@@HPAPAX@Z 0046ccbc     Qt5Widgets:Qt5Widgets.dll
 0002:00000cc0       __imp_?qt_metacall@QMdiArea@@UAEHW4Call@QMetaObject@@HPAPAX@Z 0046ccc0     Qt5Widgets:Qt5Widgets.dll
 0002:00000cc4       __imp_?qt_metacall@QFrame@@UAEHW4Call@QMetaObject@@HPAPAX@Z 0046ccc4     Qt5Widgets:Qt5Widgets.dll
 0002:00000cc8       __imp_?paintEvent@QTextEdit@@MAEXPAVQPaintEvent@@@Z 0046ccc8     Qt5Widgets:Qt5Widgets.dll
 0002:00000ccc       __imp_?qt_metacall@QButtonGroup@@UAEHW4Call@QMetaObject@@HPAPAX@Z 0046cccc     Qt5Widgets:Qt5Widgets.dll
 0002:00000cd0       __imp_?setSpacing@QGridLayout@@QAEXH@Z 0046ccd0     Qt5Widgets:Qt5Widgets.dll
 0002:00000cd4       __imp_??0QGridLayout@@QAE@PAVQWidget@@@Z 0046ccd4     Qt5Widgets:Qt5Widgets.dll
 0002:00000cd8       __imp_?exec@QMenu@@QAEPAVQAction@@ABVQPoint@@PAV2@@Z 0046ccd8     Qt5Widgets:Qt5Widgets.dll
 0002:00000cdc       __imp_?addSeparator@QMenu@@QAEPAVQAction@@XZ 0046ccdc     Qt5Widgets:Qt5Widgets.dll
 0002:00000ce0       __imp_??1QMenu@@UAE@XZ     0046cce0     Qt5Widgets:Qt5Widgets.dll
 0002:00000ce4       __imp_??0QMenu@@QAE@PAVQWidget@@@Z 0046cce4     Qt5Widgets:Qt5Widgets.dll
 0002:00000ce8       __imp_?triggered@QAction@@QAEX_N@Z 0046cce8     Qt5Widgets:Qt5Widgets.dll
 0002:00000cec       __imp_?text@QAction@@QBE?AVQString@@XZ 0046ccec     Qt5Widgets:Qt5Widgets.dll
 0002:00000cf0       __imp_?setText@QAction@@QAEXABVQString@@@Z 0046ccf0     Qt5Widgets:Qt5Widgets.dll
 0002:00000cf4       __imp_??1QAction@@UAE@XZ   0046ccf4     Qt5Widgets:Qt5Widgets.dll
 0002:00000cf8       __imp_??0QAction@@QAE@PAVQObject@@@Z 0046ccf8     Qt5Widgets:Qt5Widgets.dll
 0002:00000cfc       __imp_?addAction@QWidget@@QAEXPAVQAction@@@Z 0046ccfc     Qt5Widgets:Qt5Widgets.dll
 0002:00000d00       __imp_?raise@QWidget@@QAEXXZ 0046cd00     Qt5Widgets:Qt5Widgets.dll
 0002:00000d04       __imp_?show@QWidget@@QAEXXZ 0046cd04     Qt5Widgets:Qt5Widgets.dll
 0002:00000d08       __imp_?setContextMenuPolicy@QWidget@@QAEXW4ContextMenuPolicy@Qt@@@Z 0046cd08     Qt5Widgets:Qt5Widgets.dll
 0002:00000d0c       __imp_?wheelEvent@QComboBox@@MAEXPAVQWheelEvent@@@Z 0046cd0c     Qt5Widgets:Qt5Widgets.dll
 0002:00000d10       __imp_?sizeHint@QComboBox@@UBE?AVQSize@@XZ 0046cd10     Qt5Widgets:Qt5Widgets.dll
 0002:00000d14       __imp_?sizeHint@QCheckBox@@UBE?AVQSize@@XZ 0046cd14     Qt5Widgets:Qt5Widgets.dll
 0002:00000d18       __imp_?showPopup@QComboBox@@UAEXXZ 0046cd18     Qt5Widgets:Qt5Widgets.dll
 0002:00000d1c       __imp_?showEvent@QComboBox@@MAEXPAVQShowEvent@@@Z 0046cd1c     Qt5Widgets:Qt5Widgets.dll
 0002:00000d20       __imp_?resizeEvent@QComboBox@@MAEXPAVQResizeEvent@@@Z 0046cd20     Qt5Widgets:Qt5Widgets.dll
 0002:00000d24       __imp_?qt_metacast@QComboBox@@UAEPAXPBD@Z 0046cd24     Qt5Widgets:Qt5Widgets.dll
 0002:00000d28       __imp_?qt_metacast@QCheckBox@@UAEPAXPBD@Z 0046cd28     Qt5Widgets:Qt5Widgets.dll
 0002:00000d2c       __imp_?qt_metacall@QComboBox@@UAEHW4Call@QMetaObject@@HPAPAX@Z 0046cd2c     Qt5Widgets:Qt5Widgets.dll
 0002:00000d30       __imp_?qt_metacall@QCheckBox@@UAEHW4Call@QMetaObject@@HPAPAX@Z 0046cd30     Qt5Widgets:Qt5Widgets.dll
 0002:00000d34       __imp_?paintEvent@QComboBox@@MAEXPAVQPaintEvent@@@Z 0046cd34     Qt5Widgets:Qt5Widgets.dll
 0002:00000d38       __imp_?paintEvent@QCheckBox@@MAEXPAVQPaintEvent@@@Z 0046cd38     Qt5Widgets:Qt5Widgets.dll
 0002:00000d3c       __imp_?nextCheckState@QCheckBox@@MAEXXZ 0046cd3c     Qt5Widgets:Qt5Widgets.dll
 0002:00000d40       __imp_?mouseReleaseEvent@QComboBox@@MAEXPAVQMouseEvent@@@Z 0046cd40     Qt5Widgets:Qt5Widgets.dll
 0002:00000d44       __imp_?mousePressEvent@QComboBox@@MAEXPAVQMouseEvent@@@Z 0046cd44     Qt5Widgets:Qt5Widgets.dll
 0002:00000d48       __imp_?mouseMoveEvent@QCheckBox@@MAEXPAVQMouseEvent@@@Z 0046cd48     Qt5Widgets:Qt5Widgets.dll
 0002:00000d4c       __imp_?minimumSizeHint@QComboBox@@UBE?AVQSize@@XZ 0046cd4c     Qt5Widgets:Qt5Widgets.dll
 0002:00000d50       __imp_?minimumSizeHint@QCheckBox@@UBE?AVQSize@@XZ 0046cd50     Qt5Widgets:Qt5Widgets.dll
 0002:00000d54       __imp_?metaObject@QComboBox@@UBEPBUQMetaObject@@XZ 0046cd54     Qt5Widgets:Qt5Widgets.dll
 0002:00000d58       __imp_?metaObject@QCheckBox@@UBEPBUQMetaObject@@XZ 0046cd58     Qt5Widgets:Qt5Widgets.dll
 0002:00000d5c       __imp_?keyReleaseEvent@QComboBox@@MAEXPAVQKeyEvent@@@Z 0046cd5c     Qt5Widgets:Qt5Widgets.dll
 0002:00000d60       __imp_?keyPressEvent@QComboBox@@MAEXPAVQKeyEvent@@@Z 0046cd60     Qt5Widgets:Qt5Widgets.dll
 0002:00000d64       __imp_?keyPressEvent@QAbstractButton@@MAEXPAVQKeyEvent@@@Z 0046cd64     Qt5Widgets:Qt5Widgets.dll
 0002:00000d68       __imp_?inputMethodQuery@QComboBox@@UBE?AVQVariant@@W4InputMethodQuery@Qt@@@Z 0046cd68     Qt5Widgets:Qt5Widgets.dll
 0002:00000d6c       __imp_?inputMethodEvent@QComboBox@@MAEXPAVQInputMethodEvent@@@Z 0046cd6c     Qt5Widgets:Qt5Widgets.dll
 0002:00000d70       __imp_?hitButton@QCheckBox@@MBE_NABVQPoint@@@Z 0046cd70     Qt5Widgets:Qt5Widgets.dll
 0002:00000d74       __imp_?hidePopup@QComboBox@@UAEXXZ 0046cd74     Qt5Widgets:Qt5Widgets.dll
 0002:00000d78       __imp_?hideEvent@QComboBox@@MAEXPAVQHideEvent@@@Z 0046cd78     Qt5Widgets:Qt5Widgets.dll
 0002:00000d7c       __imp_?focusOutEvent@QComboBox@@MAEXPAVQFocusEvent@@@Z 0046cd7c     Qt5Widgets:Qt5Widgets.dll
 0002:00000d80       __imp_?focusOutEvent@QAbstractButton@@MAEXPAVQFocusEvent@@@Z 0046cd80     Qt5Widgets:Qt5Widgets.dll
 0002:00000d84       __imp_?focusInEvent@QComboBox@@MAEXPAVQFocusEvent@@@Z 0046cd84     Qt5Widgets:Qt5Widgets.dll
 0002:00000d88       __imp_?focusInEvent@QAbstractButton@@MAEXPAVQFocusEvent@@@Z 0046cd88     Qt5Widgets:Qt5Widgets.dll
 0002:00000d8c       __imp_?paintEvent@QMdiArea@@MAEXPAVQPaintEvent@@@Z 0046cd8c     Qt5Widgets:Qt5Widgets.dll
 0002:00000d90       __imp_?paintEvent@QFrame@@MAEXPAVQPaintEvent@@@Z 0046cd90     Qt5Widgets:Qt5Widgets.dll
 0002:00000d94       __imp_?paintEvent@QAbstractScrollArea@@MAEXPAVQPaintEvent@@@Z 0046cd94     Qt5Widgets:Qt5Widgets.dll
 0002:00000d98       __imp_?mouseReleaseEvent@QAbstractScrollArea@@MAEXPAVQMouseEvent@@@Z 0046cd98     Qt5Widgets:Qt5Widgets.dll
 0002:00000d9c       __imp_?mousePressEvent@QAbstractScrollArea@@MAEXPAVQMouseEvent@@@Z 0046cd9c     Qt5Widgets:Qt5Widgets.dll
 0002:00000da0       __imp_?mouseMoveEvent@QAbstractScrollArea@@MAEXPAVQMouseEvent@@@Z 0046cda0     Qt5Widgets:Qt5Widgets.dll
 0002:00000da4       __imp_?mouseDoubleClickEvent@QAbstractScrollArea@@MAEXPAVQMouseEvent@@@Z 0046cda4     Qt5Widgets:Qt5Widgets.dll
 0002:00000da8       __imp_?minimumSizeHint@QTabWidget@@UBE?AVQSize@@XZ 0046cda8     Qt5Widgets:Qt5Widgets.dll
 0002:00000dac       __imp_?minimumSizeHint@QMdiArea@@UBE?AVQSize@@XZ 0046cdac     Qt5Widgets:Qt5Widgets.dll
 0002:00000db0       __imp_?metaObject@QTabWidget@@UBEPBUQMetaObject@@XZ 0046cdb0     Qt5Widgets:Qt5Widgets.dll
 0002:00000db4       __imp_?metaObject@QSpinBox@@UBEPBUQMetaObject@@XZ 0046cdb4     Qt5Widgets:Qt5Widgets.dll
 0002:00000db8       __imp_?setCurrentIndex@QTabWidget@@QAEXH@Z 0046cdb8     Qt5Widgets:Qt5Widgets.dll
 0002:00000dbc       __imp_?metaObject@QScrollArea@@UBEPBUQMetaObject@@XZ 0046cdbc     Qt5Widgets:Qt5Widgets.dll
 0002:00000dc0       __imp_?metaObject@QMdiArea@@UBEPBUQMetaObject@@XZ 0046cdc0     Qt5Widgets:Qt5Widgets.dll
 0002:00000dc4       __imp_?metaObject@QFrame@@UBEPBUQMetaObject@@XZ 0046cdc4     Qt5Widgets:Qt5Widgets.dll
 0002:00000dc8       __imp_?metaObject@QButtonGroup@@UBEPBUQMetaObject@@XZ 0046cdc8     Qt5Widgets:Qt5Widgets.dll
 0002:00000dcc       __imp_?keyPressEvent@QTabWidget@@MAEXPAVQKeyEvent@@@Z 0046cdcc     Qt5Widgets:Qt5Widgets.dll
 0002:00000dd0       __imp_?keyPressEvent@QAbstractScrollArea@@MAEXPAVQKeyEvent@@@Z 0046cdd0     Qt5Widgets:Qt5Widgets.dll
 0002:00000dd4       __imp_?heightForWidth@QTabWidget@@UBEHH@Z 0046cdd4     Qt5Widgets:Qt5Widgets.dll
 0002:00000dd8       __imp_?hasHeightForWidth@QTabWidget@@UBE_NXZ 0046cdd8     Qt5Widgets:Qt5Widgets.dll
 0002:00000ddc       __imp_?focusNextPrevChild@QScrollArea@@UAE_N_N@Z 0046cddc     Qt5Widgets:Qt5Widgets.dll
 0002:00000de0       __imp_?fixup@QSpinBox@@MBEXAAVQString@@@Z 0046cde0     Qt5Widgets:Qt5Widgets.dll
 0002:00000de4       __imp_?eventFilter@QScrollArea@@MAE_NPAVQObject@@PAVQEvent@@@Z 0046cde4     Qt5Widgets:Qt5Widgets.dll
 0002:00000de8       __imp_?eventFilter@QMdiArea@@MAE_NPAVQObject@@PAVQEvent@@@Z 0046cde8     Qt5Widgets:Qt5Widgets.dll
 0002:00000dec       __imp_?event@QTabWidget@@MAE_NPAVQEvent@@@Z 0046cdec     Qt5Widgets:Qt5Widgets.dll
 0002:00000df0       __imp_?event@QSpinBox@@MAE_NPAVQEvent@@@Z 0046cdf0     Qt5Widgets:Qt5Widgets.dll
 0002:00000df4       __imp_?event@QScrollArea@@MAE_NPAVQEvent@@@Z 0046cdf4     Qt5Widgets:Qt5Widgets.dll
 0002:00000df8       __imp_?event@QMdiArea@@MAE_NPAVQEvent@@@Z 0046cdf8     Qt5Widgets:Qt5Widgets.dll
 0002:00000dfc       __imp_?event@QFrame@@MAE_NPAVQEvent@@@Z 0046cdfc     Qt5Widgets:Qt5Widgets.dll
 0002:00000e00       __imp_?dropEvent@QAbstractScrollArea@@MAEXPAVQDropEvent@@@Z 0046ce00     Qt5Widgets:Qt5Widgets.dll
 0002:00000e04       __imp_?dragMoveEvent@QAbstractScrollArea@@MAEXPAVQDragMoveEvent@@@Z 0046ce04     Qt5Widgets:Qt5Widgets.dll
 0002:00000e08       __imp_?dragLeaveEvent@QAbstractScrollArea@@MAEXPAVQDragLeaveEvent@@@Z 0046ce08     Qt5Widgets:Qt5Widgets.dll
 0002:00000e0c       __imp_?dragEnterEvent@QAbstractScrollArea@@MAEXPAVQDragEnterEvent@@@Z 0046ce0c     Qt5Widgets:Qt5Widgets.dll
 0002:00000e10       __imp_?childEvent@QMdiArea@@MAEXPAVQChildEvent@@@Z 0046ce10     Qt5Widgets:Qt5Widgets.dll
 0002:00000e14       __imp_?changeEvent@QTabWidget@@MAEXPAVQEvent@@@Z 0046ce14     Qt5Widgets:Qt5Widgets.dll
 0002:00000e18       __imp_?getExistingDirectory@QFileDialog@@SA?AVQString@@PAVQWidget@@ABV2@1V?$QFlags@W4Option@QFileDialog@@@@@Z 0046ce18     Qt5Widgets:Qt5Widgets.dll
 0002:00000e1c       __imp_?setButtonText@QMessageBox@@QAEXHABVQString@@@Z 0046ce1c     Qt5Widgets:Qt5Widgets.dll
 0002:00000e20       __imp_??1QMessageBox@@UAE@XZ 0046ce20     Qt5Widgets:Qt5Widgets.dll
 0002:00000e24       __imp_??0QMessageBox@@QAE@W4Icon@0@ABVQString@@1V?$QFlags@W4StandardButton@QMessageBox@@@@PAVQWidget@@V?$QFlags@W4WindowType@Qt@@@@@Z 0046ce24     Qt5Widgets:Qt5Widgets.dll
 0002:00000e28       __imp_?setWidgetResizable@QScrollArea@@QAEX_N@Z 0046ce28     Qt5Widgets:Qt5Widgets.dll
 0002:00000e2c       __imp_?setWidget@QScrollArea@@QAEXPAVQWidget@@@Z 0046ce2c     Qt5Widgets:Qt5Widgets.dll
 0002:00000e30       __imp_??1QScrollArea@@UAE@XZ 0046ce30     Qt5Widgets:Qt5Widgets.dll
 0002:00000e34       __imp_??0QScrollArea@@QAE@PAVQWidget@@@Z 0046ce34     Qt5Widgets:Qt5Widgets.dll
 0002:00000e38       __imp_?setBackground@QMdiArea@@QAEXABVQBrush@@@Z 0046ce38     Qt5Widgets:Qt5Widgets.dll
 0002:00000e3c       __imp_??1QMdiArea@@UAE@XZ  0046ce3c     Qt5Widgets:Qt5Widgets.dll
 0002:00000e40       __imp_??0QMdiArea@@QAE@PAVQWidget@@@Z 0046ce40     Qt5Widgets:Qt5Widgets.dll
 0002:00000e44       __imp_?setTextFormat@QLabel@@QAEXW4TextFormat@Qt@@@Z 0046ce44     Qt5Widgets:Qt5Widgets.dll
 0002:00000e48       __imp_?setId@QButtonGroup@@QAEXPAVQAbstractButton@@H@Z 0046ce48     Qt5Widgets:Qt5Widgets.dll
 0002:00000e4c       __imp_?buttons@QButtonGroup@@QBE?AV?$QList@PAVQAbstractButton@@@@XZ 0046ce4c     Qt5Widgets:Qt5Widgets.dll
 0002:00000e50       __imp_?addButton@QButtonGroup@@QAEXPAVQAbstractButton@@H@Z 0046ce50     Qt5Widgets:Qt5Widgets.dll
 0002:00000e54       __imp_??1QButtonGroup@@UAE@XZ 0046ce54     Qt5Widgets:Qt5Widgets.dll
 0002:00000e58       __imp_??0QButtonGroup@@QAE@PAVQObject@@@Z 0046ce58     Qt5Widgets:Qt5Widgets.dll
 0002:00000e5c       __imp_?setValue@QSpinBox@@QAEXH@Z 0046ce5c     Qt5Widgets:Qt5Widgets.dll
 0002:00000e60       __imp_?setMaximum@QSpinBox@@QAEXH@Z 0046ce60     Qt5Widgets:Qt5Widgets.dll
 0002:00000e64       __imp_?setMinimum@QSpinBox@@QAEXH@Z 0046ce64     Qt5Widgets:Qt5Widgets.dll
 0002:00000e68       __imp_?value@QSpinBox@@QBEHXZ 0046ce68     Qt5Widgets:Qt5Widgets.dll
 0002:00000e6c       __imp_??1QSpinBox@@UAE@XZ  0046ce6c     Qt5Widgets:Qt5Widgets.dll
 0002:00000e70       __imp_??0QSpinBox@@QAE@PAVQWidget@@@Z 0046ce70     Qt5Widgets:Qt5Widgets.dll
 0002:00000e74       __imp_?setModel@QTreeView@@UAEXPAVQAbstractItemModel@@@Z 0046ce74     Qt5Widgets:Qt5Widgets.dll
 0002:00000e78       __imp_?checkStateSet@QCheckBox@@MAEXXZ 0046ce78     Qt5Widgets:Qt5Widgets.dll
 0002:00000e7c       __imp_?changeEvent@QComboBox@@MAEXPAVQEvent@@@Z 0046ce7c     Qt5Widgets:Qt5Widgets.dll
 0002:00000e80       __imp_?setScaledContents@QLabel@@QAEX_N@Z 0046ce80     Qt5Widgets:Qt5Widgets.dll
 0002:00000e84       __imp_?setDecimals@QDoubleSpinBox@@QAEXH@Z 0046ce84     Qt5Widgets:Qt5Widgets.dll
 0002:00000e88       __imp_?setCurrentText@QComboBox@@QAEXABVQString@@@Z 0046ce88     Qt5Widgets:Qt5Widgets.dll
 0002:00000e8c       __imp_?setItemText@QComboBox@@QAEXHABVQString@@@Z 0046ce8c     Qt5Widgets:Qt5Widgets.dll
 0002:00000e90       __imp_?insertItem@QComboBox@@QAEXHABVQIcon@@ABVQString@@ABVQVariant@@@Z 0046ce90     Qt5Widgets:Qt5Widgets.dll
 0002:00000e94       __imp_?currentText@QComboBox@@QBE?AVQString@@XZ 0046ce94     Qt5Widgets:Qt5Widgets.dll
 0002:00000e98       __imp_?count@QComboBox@@QBEHXZ 0046ce98     Qt5Widgets:Qt5Widgets.dll
 0002:00000e9c       __imp_??1QComboBox@@UAE@XZ 0046ce9c     Qt5Widgets:Qt5Widgets.dll
 0002:00000ea0       __imp_??0QComboBox@@QAE@PAVQWidget@@@Z 0046cea0     Qt5Widgets:Qt5Widgets.dll
 0002:00000ea4       __imp_??1QCheckBox@@UAE@XZ 0046cea4     Qt5Widgets:Qt5Widgets.dll
 0002:00000ea8       __imp_??0QCheckBox@@QAE@PAVQWidget@@@Z 0046cea8     Qt5Widgets:Qt5Widgets.dll
 0002:00000eac       __imp_?setChecked@QAbstractButton@@QAEX_N@Z 0046ceac     Qt5Widgets:Qt5Widgets.dll
 0002:00000eb0       __imp_?isChecked@QAbstractButton@@QBE_NXZ 0046ceb0     Qt5Widgets:Qt5Widgets.dll
 0002:00000eb4       __imp_?isEnabled@QWidget@@QBE_NXZ 0046ceb4     Qt5Widgets:Qt5Widgets.dll
 0002:00000eb8       __imp_?write@QTableWidgetItem@@UBEXAAVQDataStream@@@Z 0046ceb8     Qt5Widgets:Qt5Widgets.dll
 0002:00000ebc       __imp_?wheelEvent@QAbstractScrollArea@@MAEXPAVQWheelEvent@@@Z 0046cebc     Qt5Widgets:Qt5Widgets.dll
 0002:00000ec0       __imp_?visualRegionForSelection@QTableView@@MBE?AVQRegion@@ABVQItemSelection@@@Z 0046cec0     Qt5Widgets:Qt5Widgets.dll
 0002:00000ec4       __imp_?visualRect@QTableView@@UBE?AVQRect@@ABVQModelIndex@@@Z 0046cec4     Qt5Widgets:Qt5Widgets.dll
 0002:00000ec8       __imp_?viewportSizeHint@QTableView@@MBE?AVQSize@@XZ 0046cec8     Qt5Widgets:Qt5Widgets.dll
 0002:00000ecc       __imp_?viewportEvent@QAbstractItemView@@MAE_NPAVQEvent@@@Z 0046cecc     Qt5Widgets:Qt5Widgets.dll
 0002:00000ed0       __imp_?viewOptions@QTableView@@MBE?AVQStyleOptionViewItem@@XZ 0046ced0     Qt5Widgets:Qt5Widgets.dll
 0002:00000ed4       __imp_?verticalScrollbarValueChanged@QAbstractItemView@@MAEXH@Z 0046ced4     Qt5Widgets:Qt5Widgets.dll
 0002:00000ed8       __imp_?verticalScrollbarAction@QTableView@@MAEXH@Z 0046ced8     Qt5Widgets:Qt5Widgets.dll
 0002:00000edc       __imp_?verticalOffset@QTableView@@MBEHXZ 0046cedc     Qt5Widgets:Qt5Widgets.dll
 0002:00000ee0       __imp_?updateGeometries@QTableView@@MAEXXZ 0046cee0     Qt5Widgets:Qt5Widgets.dll
 0002:00000ee4       __imp_?updateEditorGeometries@QAbstractItemView@@MAEXXZ 0046cee4     Qt5Widgets:Qt5Widgets.dll
 0002:00000ee8       __imp_?updateEditorData@QAbstractItemView@@MAEXXZ 0046cee8     Qt5Widgets:Qt5Widgets.dll
 0002:00000eec       __imp_?timerEvent@QTableView@@MAEXPAVQTimerEvent@@@Z 0046ceec     Qt5Widgets:Qt5Widgets.dll
 0002:00000ef0       __imp_?supportedDropActions@QTableWidget@@MBE?AV?$QFlags@W4DropAction@Qt@@@@XZ 0046cef0     Qt5Widgets:Qt5Widgets.dll
 0002:00000ef4       __imp_?startDrag@QAbstractItemView@@MAEXV?$QFlags@W4DropAction@Qt@@@@@Z 0046cef4     Qt5Widgets:Qt5Widgets.dll
 0002:00000ef8       __imp_?sizeHintForRow@QTableView@@MBEHH@Z 0046cef8     Qt5Widgets:Qt5Widgets.dll
 0002:00000efc       __imp_?sizeHintForColumn@QTableView@@MBEHH@Z 0046cefc     Qt5Widgets:Qt5Widgets.dll
 0002:00000f00       __imp_?sizeHint@QAbstractScrollArea@@UBE?AVQSize@@XZ 0046cf00     Qt5Widgets:Qt5Widgets.dll
 0002:00000f04       __imp_?setupViewport@QAbstractScrollArea@@UAEXPAVQWidget@@@Z 0046cf04     Qt5Widgets:Qt5Widgets.dll
 0002:00000f08       __imp_?setSelectionModel@QTableView@@UAEXPAVQItemSelectionModel@@@Z 0046cf08     Qt5Widgets:Qt5Widgets.dll
 0002:00000f0c       __imp_?setSelection@QTableView@@MAEXABVQRect@@V?$QFlags@W4SelectionFlag@QItemSelectionModel@@@@@Z 0046cf0c     Qt5Widgets:Qt5Widgets.dll
 0002:00000f10       __imp_?setRootIndex@QTableView@@UAEXABVQModelIndex@@@Z 0046cf10     Qt5Widgets:Qt5Widgets.dll
 0002:00000f14       __imp_?setModel@QTableWidget@@EAEXPAVQAbstractItemModel@@@Z 0046cf14     Qt5Widgets:Qt5Widgets.dll
 0002:00000f18       __imp_?setData@QTableWidgetItem@@UAEXHABVQVariant@@@Z 0046cf18     Qt5Widgets:Qt5Widgets.dll
 0002:00000f1c       __imp_?selectionCommand@QAbstractItemView@@MBE?AV?$QFlags@W4SelectionFlag@QItemSelectionModel@@@@ABVQModelIndex@@PBVQEvent@@@Z 0046cf1c     Qt5Widgets:Qt5Widgets.dll
 0002:00000f20       __imp_?selectionChanged@QTableView@@MAEXABVQItemSelection@@0@Z 0046cf20     Qt5Widgets:Qt5Widgets.dll
 0002:00000f24       __imp_?selectedIndexes@QTableView@@MBE?AV?$QList@VQModelIndex@@@@XZ 0046cf24     Qt5Widgets:Qt5Widgets.dll
 0002:00000f28       __imp_?selectAll@QAbstractItemView@@UAEXXZ 0046cf28     Qt5Widgets:Qt5Widgets.dll
 0002:00000f2c       __imp_?scrollTo@QTableView@@UAEXABVQModelIndex@@W4ScrollHint@QAbstractItemView@@@Z 0046cf2c     Qt5Widgets:Qt5Widgets.dll
 0002:00000f30       __imp_?scrollContentsBy@QTableView@@MAEXHH@Z 0046cf30     Qt5Widgets:Qt5Widgets.dll
 0002:00000f34       __imp_?rowsInserted@QAbstractItemView@@MAEXABVQModelIndex@@HH@Z 0046cf34     Qt5Widgets:Qt5Widgets.dll
 0002:00000f38       __imp_?rowsAboutToBeRemoved@QAbstractItemView@@MAEXABVQModelIndex@@HH@Z 0046cf38     Qt5Widgets:Qt5Widgets.dll
 0002:00000f3c       __imp_?resizeEvent@QAbstractItemView@@MAEXPAVQResizeEvent@@@Z 0046cf3c     Qt5Widgets:Qt5Widgets.dll
 0002:00000f40       __imp_?reset@QAbstractItemView@@UAEXXZ 0046cf40     Qt5Widgets:Qt5Widgets.dll
 0002:00000f44       __imp_?read@QTableWidgetItem@@UAEXAAVQDataStream@@@Z 0046cf44     Qt5Widgets:Qt5Widgets.dll
 0002:00000f48       __imp_?qt_metacast@QTableWidget@@UAEPAXPBD@Z 0046cf48     Qt5Widgets:Qt5Widgets.dll
 0002:00000f4c       __imp_?qt_metacall@QTableWidget@@UAEHW4Call@QMetaObject@@HPAPAX@Z 0046cf4c     Qt5Widgets:Qt5Widgets.dll
 0002:00000f50       __imp_?paintEvent@QTableView@@MAEXPAVQPaintEvent@@@Z 0046cf50     Qt5Widgets:Qt5Widgets.dll
 0002:00000f54       __imp_?moveCursor@QTableView@@MAE?AVQModelIndex@@W4CursorAction@QAbstractItemView@@V?$QFlags@W4KeyboardModifier@Qt@@@@@Z 0046cf54     Qt5Widgets:Qt5Widgets.dll
 0002:00000f58       __imp_?mouseReleaseEvent@QAbstractItemView@@MAEXPAVQMouseEvent@@@Z 0046cf58     Qt5Widgets:Qt5Widgets.dll
 0002:00000f5c       __imp_?mousePressEvent@QAbstractItemView@@MAEXPAVQMouseEvent@@@Z 0046cf5c     Qt5Widgets:Qt5Widgets.dll
 0002:00000f60       __imp_?mouseMoveEvent@QAbstractItemView@@MAEXPAVQMouseEvent@@@Z 0046cf60     Qt5Widgets:Qt5Widgets.dll
 0002:00000f64       __imp_?mouseDoubleClickEvent@QAbstractItemView@@MAEXPAVQMouseEvent@@@Z 0046cf64     Qt5Widgets:Qt5Widgets.dll
 0002:00000f68       __imp_?minimumSizeHint@QAbstractScrollArea@@UBE?AVQSize@@XZ 0046cf68     Qt5Widgets:Qt5Widgets.dll
 0002:00000f6c       __imp_?mimeTypes@QTableWidget@@MBE?AVQStringList@@XZ 0046cf6c     Qt5Widgets:Qt5Widgets.dll
 0002:00000f70       __imp_?mimeData@QTableWidget@@MBEPAVQMimeData@@V?$QList@PAVQTableWidgetItem@@@@@Z 0046cf70     Qt5Widgets:Qt5Widgets.dll
 0002:00000f74       __imp_?metaObject@QTableWidget@@UBEPBUQMetaObject@@XZ 0046cf74     Qt5Widgets:Qt5Widgets.dll
 0002:00000f78       __imp_?keyboardSearch@QAbstractItemView@@UAEXABVQString@@@Z 0046cf78     Qt5Widgets:Qt5Widgets.dll
 0002:00000f7c       __imp_?keyPressEvent@QAbstractItemView@@MAEXPAVQKeyEvent@@@Z 0046cf7c     Qt5Widgets:Qt5Widgets.dll
 0002:00000f80       __imp_?isIndexHidden@QTableView@@MBE_NABVQModelIndex@@@Z 0046cf80     Qt5Widgets:Qt5Widgets.dll
 0002:00000f84       __imp_?inputMethodQuery@QAbstractItemView@@UBE?AVQVariant@@W4InputMethodQuery@Qt@@@Z 0046cf84     Qt5Widgets:Qt5Widgets.dll
 0002:00000f88       __imp_?inputMethodEvent@QAbstractItemView@@MAEXPAVQInputMethodEvent@@@Z 0046cf88     Qt5Widgets:Qt5Widgets.dll
 0002:00000f8c       __imp_?indexAt@QTableView@@UBE?AVQModelIndex@@ABVQPoint@@@Z 0046cf8c     Qt5Widgets:Qt5Widgets.dll
 0002:00000f90       __imp_?horizontalScrollbarValueChanged@QAbstractItemView@@MAEXH@Z 0046cf90     Qt5Widgets:Qt5Widgets.dll
 0002:00000f94       __imp_?horizontalScrollbarAction@QTableView@@MAEXH@Z 0046cf94     Qt5Widgets:Qt5Widgets.dll
 0002:00000f98       __imp_?horizontalOffset@QTableView@@MBEHXZ 0046cf98     Qt5Widgets:Qt5Widgets.dll
 0002:00000f9c       __imp_?focusOutEvent@QAbstractItemView@@MAEXPAVQFocusEvent@@@Z 0046cf9c     Qt5Widgets:Qt5Widgets.dll
 0002:00000fa0       __imp_?focusNextPrevChild@QAbstractItemView@@MAE_N_N@Z 0046cfa0     Qt5Widgets:Qt5Widgets.dll
 0002:00000fa4       __imp_?focusInEvent@QAbstractItemView@@MAEXPAVQFocusEvent@@@Z 0046cfa4     Qt5Widgets:Qt5Widgets.dll
 0002:00000fa8       __imp_?eventFilter@QAbstractItemView@@MAE_NPAVQObject@@PAVQEvent@@@Z 0046cfa8     Qt5Widgets:Qt5Widgets.dll
 0002:00000fac       __imp_?event@QTableWidget@@MAE_NPAVQEvent@@@Z 0046cfac     Qt5Widgets:Qt5Widgets.dll
 0002:00000fb0       __imp_?editorDestroyed@QAbstractItemView@@MAEXPAVQObject@@@Z 0046cfb0     Qt5Widgets:Qt5Widgets.dll
 0002:00000fb4       __imp_?edit@QAbstractItemView@@MAE_NABVQModelIndex@@W4EditTrigger@1@PAVQEvent@@@Z 0046cfb4     Qt5Widgets:Qt5Widgets.dll
 0002:00000fb8       __imp_?dropMimeData@QTableWidget@@MAE_NHHPBVQMimeData@@W4DropAction@Qt@@@Z 0046cfb8     Qt5Widgets:Qt5Widgets.dll
 0002:00000fbc       __imp_?dropEvent@QTableWidget@@MAEXPAVQDropEvent@@@Z 0046cfbc     Qt5Widgets:Qt5Widgets.dll
 0002:00000fc0       __imp_?dragMoveEvent@QAbstractItemView@@MAEXPAVQDragMoveEvent@@@Z 0046cfc0     Qt5Widgets:Qt5Widgets.dll
 0002:00000fc4       __imp_?dragLeaveEvent@QAbstractItemView@@MAEXPAVQDragLeaveEvent@@@Z 0046cfc4     Qt5Widgets:Qt5Widgets.dll
 0002:00000fc8       __imp_?dragEnterEvent@QAbstractItemView@@MAEXPAVQDragEnterEvent@@@Z 0046cfc8     Qt5Widgets:Qt5Widgets.dll
 0002:00000fcc       __imp_?doItemsLayout@QTableView@@UAEXXZ 0046cfcc     Qt5Widgets:Qt5Widgets.dll
 0002:00000fd0       __imp_?dataChanged@QAbstractItemView@@MAEXABVQModelIndex@@0ABV?$QVector@H@@@Z 0046cfd0     Qt5Widgets:Qt5Widgets.dll
 0002:00000fd4       __imp_?data@QTableWidgetItem@@UBE?AVQVariant@@H@Z 0046cfd4     Qt5Widgets:Qt5Widgets.dll
 0002:00000fd8       __imp_?currentChanged@QTableView@@MAEXABVQModelIndex@@0@Z 0046cfd8     Qt5Widgets:Qt5Widgets.dll
 0002:00000fdc       __imp_?contextMenuEvent@QAbstractScrollArea@@MAEXPAVQContextMenuEvent@@@Z 0046cfdc     Qt5Widgets:Qt5Widgets.dll
 0002:00000fe0       __imp_?commitData@QAbstractItemView@@MAEXPAVQWidget@@@Z 0046cfe0     Qt5Widgets:Qt5Widgets.dll
 0002:00000fe4       __imp_?closeEditor@QAbstractItemView@@MAEXPAVQWidget@@W4EndEditHint@QAbstractItemDelegate@@@Z 0046cfe4     Qt5Widgets:Qt5Widgets.dll
 0002:00000fe8       __imp_?clone@QTableWidgetItem@@UBEPAV1@XZ 0046cfe8     Qt5Widgets:Qt5Widgets.dll
 0002:00000fec       __imp_?changeEvent@QFrame@@MAEXPAVQEvent@@@Z 0046cfec     Qt5Widgets:Qt5Widgets.dll
 0002:00000ff0       __imp_??MQTableWidgetItem@@UBE_NABV0@@Z 0046cff0     Qt5Widgets:Qt5Widgets.dll
 0002:00000ff4       __imp_?text@QLabel@@QBE?AVQString@@XZ 0046cff4     Qt5Widgets:Qt5Widgets.dll
 0002:00000ff8       __imp_?setSectionResizeMode@QHeaderView@@QAEXW4ResizeMode@1@@Z 0046cff8     Qt5Widgets:Qt5Widgets.dll
 0002:00000ffc       __imp_?setHorizontalHeaderLabels@QTableWidget@@QAEXABVQStringList@@@Z 0046cffc     Qt5Widgets:Qt5Widgets.dll
 0002:00001000       __imp_?setItem@QTableWidget@@QAEXHHPAVQTableWidgetItem@@@Z 0046d000     Qt5Widgets:Qt5Widgets.dll
 0002:00001004       __imp_?columnCount@QTableWidget@@QBEHXZ 0046d004     Qt5Widgets:Qt5Widgets.dll
 0002:00001008       __imp_?setColumnCount@QTableWidget@@QAEXH@Z 0046d008     Qt5Widgets:Qt5Widgets.dll
 0002:0000100c       __imp_?setRowCount@QTableWidget@@QAEXH@Z 0046d00c     Qt5Widgets:Qt5Widgets.dll
 0002:00001010       __imp_??1QTableWidget@@UAE@XZ 0046d010     Qt5Widgets:Qt5Widgets.dll
 0002:00001014       __imp_??0QTableWidget@@QAE@PAVQWidget@@@Z 0046d014     Qt5Widgets:Qt5Widgets.dll
 0002:00001018       __imp_?setBackgroundColor@QTableWidgetItem@@QAEXABVQColor@@@Z 0046d018     Qt5Widgets:Qt5Widgets.dll
 0002:0000101c       __imp_?setTextAlignment@QTableWidgetItem@@QAEXH@Z 0046d01c     Qt5Widgets:Qt5Widgets.dll
 0002:00001020       __imp_??1QTableWidgetItem@@UAE@XZ 0046d020     Qt5Widgets:Qt5Widgets.dll
 0002:00001024       __imp_??0QTableWidgetItem@@QAE@H@Z 0046d024     Qt5Widgets:Qt5Widgets.dll
 0002:00001028       __imp_?horizontalHeader@QTableView@@QBEPAVQHeaderView@@XZ 0046d028     Qt5Widgets:Qt5Widgets.dll
 0002:0000102c       __imp_?setFixedHeight@QWidget@@QAEXH@Z 0046d02c     Qt5Widgets:Qt5Widgets.dll
 0002:00001030       __imp_??0QHBoxLayout@@QAE@XZ 0046d030     Qt5Widgets:Qt5Widgets.dll
 0002:00001034       __imp_?setWindowFlag@QWidget@@QAEXW4WindowType@Qt@@_N@Z 0046d034     Qt5Widgets:Qt5Widgets.dll
 0002:00001038       __imp_?setEnabled@QWidget@@QAEX_N@Z 0046d038     Qt5Widgets:Qt5Widgets.dll
 0002:0000103c       __imp_?timerEvent@QAbstractButton@@MAEXPAVQTimerEvent@@@Z 0046d03c     Qt5Widgets:Qt5Widgets.dll
 0002:00001040       __imp_?takeAt@QGridLayout@@UAEPAVQLayoutItem@@H@Z 0046d040     Qt5Widgets:Qt5Widgets.dll
 0002:00001044       __imp_?spacerItem@QSpacerItem@@UAEPAV1@XZ 0046d044     Qt5Widgets:Qt5Widgets.dll
 0002:00001048       __imp_?sizeHint@QSpacerItem@@UBE?AVQSize@@XZ 0046d048     Qt5Widgets:Qt5Widgets.dll
 0002:0000104c       __imp_?sizeHint@QPushButton@@UBE?AVQSize@@XZ 0046d04c     Qt5Widgets:Qt5Widgets.dll
 0002:00001050       __imp_?sizeHint@QLineEdit@@UBE?AVQSize@@XZ 0046d050     Qt5Widgets:Qt5Widgets.dll
 0002:00001054       __imp_?sizeHint@QGridLayout@@UBE?AVQSize@@XZ 0046d054     Qt5Widgets:Qt5Widgets.dll
 0002:00001058       __imp_?sizeHint@QDialog@@UBE?AVQSize@@XZ 0046d058     Qt5Widgets:Qt5Widgets.dll
 0002:0000105c       __imp_?showEvent@QDialog@@MAEXPAVQShowEvent@@@Z 0046d05c     Qt5Widgets:Qt5Widgets.dll
 0002:00001060       __imp_?setVisible@QDialog@@UAEX_N@Z 0046d060     Qt5Widgets:Qt5Widgets.dll
 0002:00001064       __imp_?setGeometry@QSpacerItem@@UAEXABVQRect@@@Z 0046d064     Qt5Widgets:Qt5Widgets.dll
 0002:00001068       __imp_?setGeometry@QGridLayout@@UAEXABVQRect@@@Z 0046d068     Qt5Widgets:Qt5Widgets.dll
 0002:0000106c       __imp_?resizeEvent@QDialog@@MAEXPAVQResizeEvent@@@Z 0046d06c     Qt5Widgets:Qt5Widgets.dll
 0002:00001070       __imp_?reject@QDialog@@UAEXXZ 0046d070     Qt5Widgets:Qt5Widgets.dll
 0002:00001074       __imp_?qt_metacast@QWidget@@UAEPAXPBD@Z 0046d074     Qt5Widgets:Qt5Widgets.dll
 0002:00001078       __imp_?qt_metacast@QVBoxLayout@@UAEPAXPBD@Z 0046d078     Qt5Widgets:Qt5Widgets.dll
 0002:0000107c       __imp_?qt_metacast@QPushButton@@UAEPAXPBD@Z 0046d07c     Qt5Widgets:Qt5Widgets.dll
 0002:00001080       __imp_?qt_metacast@QLineEdit@@UAEPAXPBD@Z 0046d080     Qt5Widgets:Qt5Widgets.dll
 0002:00001084       __imp_?qt_metacast@QGridLayout@@UAEPAXPBD@Z 0046d084     Qt5Widgets:Qt5Widgets.dll
 0002:00001088       __imp_?qt_metacall@QWidget@@UAEHW4Call@QMetaObject@@HPAPAX@Z 0046d088     Qt5Widgets:Qt5Widgets.dll
 0002:0000108c       __imp_?qt_metacall@QVBoxLayout@@UAEHW4Call@QMetaObject@@HPAPAX@Z 0046d08c     Qt5Widgets:Qt5Widgets.dll
 0002:00001090       __imp_?qt_metacall@QPushButton@@UAEHW4Call@QMetaObject@@HPAPAX@Z 0046d090     Qt5Widgets:Qt5Widgets.dll
 0002:00001094       __imp_?qt_metacall@QLineEdit@@UAEHW4Call@QMetaObject@@HPAPAX@Z 0046d094     Qt5Widgets:Qt5Widgets.dll
 0002:00001098       __imp_?qt_metacall@QGridLayout@@UAEHW4Call@QMetaObject@@HPAPAX@Z 0046d098     Qt5Widgets:Qt5Widgets.dll
 0002:0000109c       __imp_?paintEvent@QPushButton@@MAEXPAVQPaintEvent@@@Z 0046d09c     Qt5Widgets:Qt5Widgets.dll
 0002:000010a0       __imp_?paintEvent@QLineEdit@@MAEXPAVQPaintEvent@@@Z 0046d0a0     Qt5Widgets:Qt5Widgets.dll
 0002:000010a4       __imp_?open@QDialog@@UAEXXZ 0046d0a4     Qt5Widgets:Qt5Widgets.dll
 0002:000010a8       __imp_?nextCheckState@QAbstractButton@@MAEXXZ 0046d0a8     Qt5Widgets:Qt5Widgets.dll
 0002:000010ac       __imp_?mouseReleaseEvent@QLineEdit@@MAEXPAVQMouseEvent@@@Z 0046d0ac     Qt5Widgets:Qt5Widgets.dll
 0002:000010b0       __imp_?mouseReleaseEvent@QAbstractButton@@MAEXPAVQMouseEvent@@@Z 0046d0b0     Qt5Widgets:Qt5Widgets.dll
 0002:000010b4       __imp_?mousePressEvent@QLineEdit@@MAEXPAVQMouseEvent@@@Z 0046d0b4     Qt5Widgets:Qt5Widgets.dll
 0002:000010b8       __imp_?mousePressEvent@QAbstractButton@@MAEXPAVQMouseEvent@@@Z 0046d0b8     Qt5Widgets:Qt5Widgets.dll
 0002:000010bc       __imp_?mouseMoveEvent@QLineEdit@@MAEXPAVQMouseEvent@@@Z 0046d0bc     Qt5Widgets:Qt5Widgets.dll
 0002:000010c0       __imp_?mouseMoveEvent@QAbstractButton@@MAEXPAVQMouseEvent@@@Z 0046d0c0     Qt5Widgets:Qt5Widgets.dll
 0002:000010c4       __imp_?mouseDoubleClickEvent@QLineEdit@@MAEXPAVQMouseEvent@@@Z 0046d0c4     Qt5Widgets:Qt5Widgets.dll
 0002:000010c8       __imp_?minimumSizeHint@QPushButton@@UBE?AVQSize@@XZ 0046d0c8     Qt5Widgets:Qt5Widgets.dll
 0002:000010cc       __imp_?minimumSizeHint@QLineEdit@@UBE?AVQSize@@XZ 0046d0cc     Qt5Widgets:Qt5Widgets.dll
 0002:000010d0       __imp_?minimumSizeHint@QDialog@@UBE?AVQSize@@XZ 0046d0d0     Qt5Widgets:Qt5Widgets.dll
 0002:000010d4       __imp_?minimumSize@QSpacerItem@@UBE?AVQSize@@XZ 0046d0d4     Qt5Widgets:Qt5Widgets.dll
 0002:000010d8       __imp_?minimumSize@QGridLayout@@UBE?AVQSize@@XZ 0046d0d8     Qt5Widgets:Qt5Widgets.dll
 0002:000010dc       __imp_?minimumHeightForWidth@QLayoutItem@@UBEHH@Z 0046d0dc     Qt5Widgets:Qt5Widgets.dll
 0002:000010e0       __imp_?minimumHeightForWidth@QGridLayout@@UBEHH@Z 0046d0e0     Qt5Widgets:Qt5Widgets.dll
 0002:000010e4       __imp_?metaObject@QWidget@@UBEPBUQMetaObject@@XZ 0046d0e4     Qt5Widgets:Qt5Widgets.dll
 0002:000010e8       __imp_?metaObject@QVBoxLayout@@UBEPBUQMetaObject@@XZ 0046d0e8     Qt5Widgets:Qt5Widgets.dll
 0002:000010ec       __imp_?metaObject@QPushButton@@UBEPBUQMetaObject@@XZ 0046d0ec     Qt5Widgets:Qt5Widgets.dll
 0002:000010f0       __imp_?metaObject@QLineEdit@@UBEPBUQMetaObject@@XZ 0046d0f0     Qt5Widgets:Qt5Widgets.dll
 0002:000010f4       __imp_?metaObject@QGridLayout@@UBEPBUQMetaObject@@XZ 0046d0f4     Qt5Widgets:Qt5Widgets.dll
 0002:000010f8       __imp_?maximumSize@QSpacerItem@@UBE?AVQSize@@XZ 0046d0f8     Qt5Widgets:Qt5Widgets.dll
 0002:000010fc       __imp_?maximumSize@QGridLayout@@UBE?AVQSize@@XZ 0046d0fc     Qt5Widgets:Qt5Widgets.dll
 0002:00001100       __imp_?layout@QLayoutItem@@UAEPAVQLayout@@XZ 0046d100     Qt5Widgets:Qt5Widgets.dll
 0002:00001104       __imp_?keyReleaseEvent@QAbstractButton@@MAEXPAVQKeyEvent@@@Z 0046d104     Qt5Widgets:Qt5Widgets.dll
 0002:00001108       __imp_?keyPressEvent@QPushButton@@MAEXPAVQKeyEvent@@@Z 0046d108     Qt5Widgets:Qt5Widgets.dll
 0002:0000110c       __imp_?keyPressEvent@QLineEdit@@MAEXPAVQKeyEvent@@@Z 0046d10c     Qt5Widgets:Qt5Widgets.dll
 0002:00001110       __imp_?keyPressEvent@QDialog@@MAEXPAVQKeyEvent@@@Z 0046d110     Qt5Widgets:Qt5Widgets.dll
 0002:00001114       __imp_?itemAt@QGridLayout@@UBEPAVQLayoutItem@@H@Z 0046d114     Qt5Widgets:Qt5Widgets.dll
 0002:00001118       __imp_?isEmpty@QSpacerItem@@UBE_NXZ 0046d118     Qt5Widgets:Qt5Widgets.dll
 0002:0000111c       __imp_?invalidate@QLayoutItem@@UAEXXZ 0046d11c     Qt5Widgets:Qt5Widgets.dll
 0002:00001120       __imp_?invalidate@QGridLayout@@UAEXXZ 0046d120     Qt5Widgets:Qt5Widgets.dll
 0002:00001124       __imp_?inputMethodQuery@QLineEdit@@UBE?AVQVariant@@W4InputMethodQuery@Qt@@@Z 0046d124     Qt5Widgets:Qt5Widgets.dll
 0002:00001128       __imp_?inputMethodEvent@QLineEdit@@MAEXPAVQInputMethodEvent@@@Z 0046d128     Qt5Widgets:Qt5Widgets.dll
 0002:0000112c       __imp_?hitButton@QAbstractButton@@MBE_NABVQPoint@@@Z 0046d12c     Qt5Widgets:Qt5Widgets.dll
 0002:00001130       __imp_?heightForWidth@QLayoutItem@@UBEHH@Z 0046d130     Qt5Widgets:Qt5Widgets.dll
 0002:00001134       __imp_?heightForWidth@QGridLayout@@UBEHH@Z 0046d134     Qt5Widgets:Qt5Widgets.dll
 0002:00001138       __imp_?hasHeightForWidth@QLayoutItem@@UBE_NXZ 0046d138     Qt5Widgets:Qt5Widgets.dll
 0002:0000113c       __imp_?hasHeightForWidth@QGridLayout@@UBE_NXZ 0046d13c     Qt5Widgets:Qt5Widgets.dll
 0002:00001140       __imp_?geometry@QSpacerItem@@UBE?AVQRect@@XZ 0046d140     Qt5Widgets:Qt5Widgets.dll
 0002:00001144       __imp_?focusOutEvent@QPushButton@@MAEXPAVQFocusEvent@@@Z 0046d144     Qt5Widgets:Qt5Widgets.dll
 0002:00001148       __imp_?focusOutEvent@QLineEdit@@MAEXPAVQFocusEvent@@@Z 0046d148     Qt5Widgets:Qt5Widgets.dll
 0002:0000114c       __imp_?focusInEvent@QPushButton@@MAEXPAVQFocusEvent@@@Z 0046d14c     Qt5Widgets:Qt5Widgets.dll
 0002:00001150       __imp_?focusInEvent@QLineEdit@@MAEXPAVQFocusEvent@@@Z 0046d150     Qt5Widgets:Qt5Widgets.dll
 0002:00001154       __imp_?expandingDirections@QSpacerItem@@UBE?AV?$QFlags@W4Orientation@Qt@@@@XZ 0046d154     Qt5Widgets:Qt5Widgets.dll
 0002:00001158       __imp_?expandingDirections@QGridLayout@@UBE?AV?$QFlags@W4Orientation@Qt@@@@XZ 0046d158     Qt5Widgets:Qt5Widgets.dll
 0002:0000115c       __imp_?exec@QDialog@@UAEHXZ 0046d15c     Qt5Widgets:Qt5Widgets.dll
 0002:00001160       __imp_?eventFilter@QDialog@@MAE_NPAVQObject@@PAVQEvent@@@Z 0046d160     Qt5Widgets:Qt5Widgets.dll
 0002:00001164       __imp_?event@QPushButton@@MAE_NPAVQEvent@@@Z 0046d164     Qt5Widgets:Qt5Widgets.dll
 0002:00001168       __imp_?event@QLineEdit@@UAE_NPAVQEvent@@@Z 0046d168     Qt5Widgets:Qt5Widgets.dll
 0002:0000116c       __imp_?dropEvent@QLineEdit@@MAEXPAVQDropEvent@@@Z 0046d16c     Qt5Widgets:Qt5Widgets.dll
 0002:00001170       __imp_?dragMoveEvent@QLineEdit@@MAEXPAVQDragMoveEvent@@@Z 0046d170     Qt5Widgets:Qt5Widgets.dll
 0002:00001174       __imp_?dragLeaveEvent@QLineEdit@@MAEXPAVQDragLeaveEvent@@@Z 0046d174     Qt5Widgets:Qt5Widgets.dll
 0002:00001178       __imp_?dragEnterEvent@QLineEdit@@MAEXPAVQDragEnterEvent@@@Z 0046d178     Qt5Widgets:Qt5Widgets.dll
 0002:0000117c       __imp_?done@QDialog@@UAEXH@Z 0046d17c     Qt5Widgets:Qt5Widgets.dll
 0002:00001180       __imp_?count@QGridLayout@@UBEHXZ 0046d180     Qt5Widgets:Qt5Widgets.dll
 0002:00001184       __imp_?controlTypes@QLayoutItem@@UBE?AV?$QFlags@W4ControlType@QSizePolicy@@@@XZ 0046d184     Qt5Widgets:Qt5Widgets.dll
 0002:00001188       __imp_?contextMenuEvent@QLineEdit@@MAEXPAVQContextMenuEvent@@@Z 0046d188     Qt5Widgets:Qt5Widgets.dll
 0002:0000118c       __imp_?contextMenuEvent@QDialog@@MAEXPAVQContextMenuEvent@@@Z 0046d18c     Qt5Widgets:Qt5Widgets.dll
 0002:00001190       __imp_?closeEvent@QDialog@@MAEXPAVQCloseEvent@@@Z 0046d190     Qt5Widgets:Qt5Widgets.dll
 0002:00001194       __imp_?checkStateSet@QAbstractButton@@MAEXXZ 0046d194     Qt5Widgets:Qt5Widgets.dll
 0002:00001198       __imp_?changeEvent@QLineEdit@@MAEXPAVQEvent@@@Z 0046d198     Qt5Widgets:Qt5Widgets.dll
 0002:0000119c       __imp_?changeEvent@QAbstractButton@@MAEXPAVQEvent@@@Z 0046d19c     Qt5Widgets:Qt5Widgets.dll
 0002:000011a0       __imp_?addItem@QGridLayout@@MAEXPAVQLayoutItem@@@Z 0046d1a0     Qt5Widgets:Qt5Widgets.dll
 0002:000011a4       __imp_?accept@QDialog@@UAEXXZ 0046d1a4     Qt5Widgets:Qt5Widgets.dll
 0002:000011a8       __imp_??1QPushButton@@UAE@XZ 0046d1a8     Qt5Widgets:Qt5Widgets.dll
 0002:000011ac       __imp_??0QPushButton@@QAE@PAVQWidget@@@Z 0046d1ac     Qt5Widgets:Qt5Widgets.dll
 0002:000011b0       __imp_?setText@QAbstractButton@@QAEXABVQString@@@Z 0046d1b0     Qt5Widgets:Qt5Widgets.dll
 0002:000011b4       __imp_?setText@QLineEdit@@QAEXABVQString@@@Z 0046d1b4     Qt5Widgets:Qt5Widgets.dll
 0002:000011b8       __imp_?setEchoMode@QLineEdit@@QAEXW4EchoMode@1@@Z 0046d1b8     Qt5Widgets:Qt5Widgets.dll
 0002:000011bc       __imp_?setPlaceholderText@QLineEdit@@QAEXABVQString@@@Z 0046d1bc     Qt5Widgets:Qt5Widgets.dll
 0002:000011c0       __imp_?text@QLineEdit@@QBE?AVQString@@XZ 0046d1c0     Qt5Widgets:Qt5Widgets.dll
 0002:000011c4       __imp_??1QLineEdit@@UAE@XZ 0046d1c4     Qt5Widgets:Qt5Widgets.dll
 0002:000011c8       __imp_??0QLineEdit@@QAE@PAVQWidget@@@Z 0046d1c8     Qt5Widgets:Qt5Widgets.dll
 0002:000011cc       __imp_?addWidget@QGridLayout@@QAEXPAVQWidget@@HHHHV?$QFlags@W4AlignmentFlag@Qt@@@@@Z 0046d1cc     Qt5Widgets:Qt5Widgets.dll
 0002:000011d0       __imp_?setVerticalSpacing@QGridLayout@@QAEXH@Z 0046d1d0     Qt5Widgets:Qt5Widgets.dll
 0002:000011d4       __imp_??1QGridLayout@@UAE@XZ 0046d1d4     Qt5Widgets:Qt5Widgets.dll
 0002:000011d8       __imp_??0QGridLayout@@QAE@XZ 0046d1d8     Qt5Widgets:Qt5Widgets.dll
 0002:000011dc       __imp_??1QVBoxLayout@@UAE@XZ 0046d1dc     Qt5Widgets:Qt5Widgets.dll
 0002:000011e0       __imp_??0QVBoxLayout@@QAE@PAVQWidget@@@Z 0046d1e0     Qt5Widgets:Qt5Widgets.dll
 0002:000011e4       __imp_?addLayout@QBoxLayout@@QAEXPAVQLayout@@H@Z 0046d1e4     Qt5Widgets:Qt5Widgets.dll
 0002:000011e8       __imp_??1QSpacerItem@@UAE@XZ 0046d1e8     Qt5Widgets:Qt5Widgets.dll
 0002:000011ec       __imp_??0QSpacerItem@@QAE@HHW4Policy@QSizePolicy@@0@Z 0046d1ec     Qt5Widgets:Qt5Widgets.dll
 0002:000011f0       __imp_??1QDialog@@UAE@XZ   0046d1f0     Qt5Widgets:Qt5Widgets.dll
 0002:000011f4       __imp_??0QDialog@@QAE@PAVQWidget@@V?$QFlags@W4WindowType@Qt@@@@@Z 0046d1f4     Qt5Widgets:Qt5Widgets.dll
 0002:000011f8       __imp_?close@QWidget@@QAE_NXZ 0046d1f8     Qt5Widgets:Qt5Widgets.dll
 0002:000011fc       __imp_?widget@QLayoutItem@@UAEPAVQWidget@@XZ 0046d1fc     Qt5Widgets:Qt5Widgets.dll
 0002:00001200       __imp_?wheelEvent@QWidget@@MAEXPAVQWheelEvent@@@Z 0046d200     Qt5Widgets:Qt5Widgets.dll
 0002:00001204       __imp_?wheelEvent@QAbstractSpinBox@@MAEXPAVQWheelEvent@@@Z 0046d204     Qt5Widgets:Qt5Widgets.dll
 0002:00001208       __imp_?valueFromText@QDoubleSpinBox@@UBENABVQString@@@Z 0046d208     Qt5Widgets:Qt5Widgets.dll
 0002:0000120c       __imp_?validate@QDoubleSpinBox@@UBE?AW4State@QValidator@@AAVQString@@AAH@Z 0046d20c     Qt5Widgets:Qt5Widgets.dll
 0002:00001210       __imp_?timerEvent@QAbstractSpinBox@@MAEXPAVQTimerEvent@@@Z 0046d210     Qt5Widgets:Qt5Widgets.dll
 0002:00001214       __imp_?textFromValue@QDoubleSpinBox@@UBE?AVQString@@N@Z 0046d214     Qt5Widgets:Qt5Widgets.dll
 0002:00001218       __imp_?takeAt@QBoxLayout@@UAEPAVQLayoutItem@@H@Z 0046d218     Qt5Widgets:Qt5Widgets.dll
 0002:0000121c       __imp_?tabletEvent@QWidget@@MAEXPAVQTabletEvent@@@Z 0046d21c     Qt5Widgets:Qt5Widgets.dll
 0002:00001220       __imp_?stepEnabled@QAbstractSpinBox@@MBE?AV?$QFlags@W4StepEnabledFlag@QAbstractSpinBox@@@@XZ 0046d220     Qt5Widgets:Qt5Widgets.dll
 0002:00001224       __imp_?stepBy@QAbstractSpinBox@@UAEXH@Z 0046d224     Qt5Widgets:Qt5Widgets.dll
 0002:00001228       __imp_?spacerItem@QLayoutItem@@UAEPAVQSpacerItem@@XZ 0046d228     Qt5Widgets:Qt5Widgets.dll
 0002:0000122c       __imp_?sizeHint@QWidget@@UBE?AVQSize@@XZ 0046d22c     Qt5Widgets:Qt5Widgets.dll
 0002:00001230       __imp_?sizeHint@QLabel@@UBE?AVQSize@@XZ 0046d230     Qt5Widgets:Qt5Widgets.dll
 0002:00001234       __imp_?sizeHint@QBoxLayout@@UBE?AVQSize@@XZ 0046d234     Qt5Widgets:Qt5Widgets.dll
 0002:00001238       __imp_?sizeHint@QAbstractSpinBox@@UBE?AVQSize@@XZ 0046d238     Qt5Widgets:Qt5Widgets.dll
 0002:0000123c       __imp_?showEvent@QWidget@@MAEXPAVQShowEvent@@@Z 0046d23c     Qt5Widgets:Qt5Widgets.dll
 0002:00001240       __imp_?showEvent@QAbstractSpinBox@@MAEXPAVQShowEvent@@@Z 0046d240     Qt5Widgets:Qt5Widgets.dll
 0002:00001244       __imp_?sharedPainter@QWidget@@MBEPAVQPainter@@XZ 0046d244     Qt5Widgets:Qt5Widgets.dll
 0002:00001248       __imp_?setVisible@QWidget@@UAEX_N@Z 0046d248     Qt5Widgets:Qt5Widgets.dll
 0002:0000124c       __imp_?setGeometry@QBoxLayout@@UAEXABVQRect@@@Z 0046d24c     Qt5Widgets:Qt5Widgets.dll
 0002:00001250       __imp_?resizeEvent@QWidget@@MAEXPAVQResizeEvent@@@Z 0046d250     Qt5Widgets:Qt5Widgets.dll
 0002:00001254       __imp_?resizeEvent@QAbstractSpinBox@@MAEXPAVQResizeEvent@@@Z 0046d254     Qt5Widgets:Qt5Widgets.dll
 0002:00001258       __imp_?redirected@QWidget@@MBEPAVQPaintDevice@@PAVQPoint@@@Z 0046d258     Qt5Widgets:Qt5Widgets.dll
 0002:0000125c       __imp_?qt_metacast@QLabel@@UAEPAXPBD@Z 0046d25c     Qt5Widgets:Qt5Widgets.dll
 0002:00001260       __imp_?qt_metacast@QHBoxLayout@@UAEPAXPBD@Z 0046d260     Qt5Widgets:Qt5Widgets.dll
 0002:00001264       __imp_?qt_metacast@QDoubleSpinBox@@UAEPAXPBD@Z 0046d264     Qt5Widgets:Qt5Widgets.dll
 0002:00001268       __imp_?qt_metacall@QLabel@@UAEHW4Call@QMetaObject@@HPAPAX@Z 0046d268     Qt5Widgets:Qt5Widgets.dll
 0002:0000126c       __imp_?qt_metacall@QHBoxLayout@@UAEHW4Call@QMetaObject@@HPAPAX@Z 0046d26c     Qt5Widgets:Qt5Widgets.dll
 0002:00001270       __imp_?qt_metacall@QDoubleSpinBox@@UAEHW4Call@QMetaObject@@HPAPAX@Z 0046d270     Qt5Widgets:Qt5Widgets.dll
 0002:00001274       __imp_?paintEvent@QWidget@@MAEXPAVQPaintEvent@@@Z 0046d274     Qt5Widgets:Qt5Widgets.dll
 0002:00001278       __imp_?paintEvent@QLabel@@MAEXPAVQPaintEvent@@@Z 0046d278     Qt5Widgets:Qt5Widgets.dll
 0002:0000127c       __imp_?paintEvent@QAbstractSpinBox@@MAEXPAVQPaintEvent@@@Z 0046d27c     Qt5Widgets:Qt5Widgets.dll
 0002:00001280       __imp_?paintEngine@QWidget@@UBEPAVQPaintEngine@@XZ 0046d280     Qt5Widgets:Qt5Widgets.dll
 0002:00001284       __imp_?nativeEvent@QWidget@@MAE_NABVQByteArray@@PAXPAJ@Z 0046d284     Qt5Widgets:Qt5Widgets.dll
 0002:00001288       __imp_?moveEvent@QWidget@@MAEXPAVQMoveEvent@@@Z 0046d288     Qt5Widgets:Qt5Widgets.dll
 0002:0000128c       __imp_?mouseReleaseEvent@QWidget@@MAEXPAVQMouseEvent@@@Z 0046d28c     Qt5Widgets:Qt5Widgets.dll
 0002:00001290       __imp_?mouseReleaseEvent@QLabel@@MAEXPAVQMouseEvent@@@Z 0046d290     Qt5Widgets:Qt5Widgets.dll
 0002:00001294       __imp_?mouseReleaseEvent@QAbstractSpinBox@@MAEXPAVQMouseEvent@@@Z 0046d294     Qt5Widgets:Qt5Widgets.dll
 0002:00001298       __imp_?mousePressEvent@QWidget@@MAEXPAVQMouseEvent@@@Z 0046d298     Qt5Widgets:Qt5Widgets.dll
 0002:0000129c       __imp_?mousePressEvent@QLabel@@MAEXPAVQMouseEvent@@@Z 0046d29c     Qt5Widgets:Qt5Widgets.dll
 0002:000012a0       __imp_?mousePressEvent@QAbstractSpinBox@@MAEXPAVQMouseEvent@@@Z 0046d2a0     Qt5Widgets:Qt5Widgets.dll
 0002:000012a4       __imp_?mouseMoveEvent@QWidget@@MAEXPAVQMouseEvent@@@Z 0046d2a4     Qt5Widgets:Qt5Widgets.dll
 0002:000012a8       __imp_?mouseMoveEvent@QLabel@@MAEXPAVQMouseEvent@@@Z 0046d2a8     Qt5Widgets:Qt5Widgets.dll
 0002:000012ac       __imp_?mouseMoveEvent@QAbstractSpinBox@@MAEXPAVQMouseEvent@@@Z 0046d2ac     Qt5Widgets:Qt5Widgets.dll
 0002:000012b0       __imp_?mouseDoubleClickEvent@QWidget@@MAEXPAVQMouseEvent@@@Z 0046d2b0     Qt5Widgets:Qt5Widgets.dll
 0002:000012b4       __imp_?minimumSizeHint@QWidget@@UBE?AVQSize@@XZ 0046d2b4     Qt5Widgets:Qt5Widgets.dll
 0002:000012b8       __imp_?minimumSizeHint@QLabel@@UBE?AVQSize@@XZ 0046d2b8     Qt5Widgets:Qt5Widgets.dll
 0002:000012bc       __imp_?minimumSizeHint@QAbstractSpinBox@@UBE?AVQSize@@XZ 0046d2bc     Qt5Widgets:Qt5Widgets.dll
 0002:000012c0       __imp_?minimumSize@QBoxLayout@@UBE?AVQSize@@XZ 0046d2c0     Qt5Widgets:Qt5Widgets.dll
 0002:000012c4       __imp_?minimumHeightForWidth@QBoxLayout@@UBEHH@Z 0046d2c4     Qt5Widgets:Qt5Widgets.dll
 0002:000012c8       __imp_?metric@QWidget@@MBEHW4PaintDeviceMetric@QPaintDevice@@@Z 0046d2c8     Qt5Widgets:Qt5Widgets.dll
 0002:000012cc       __imp_?metaObject@QLabel@@UBEPBUQMetaObject@@XZ 0046d2cc     Qt5Widgets:Qt5Widgets.dll
 0002:000012d0       __imp_?metaObject@QHBoxLayout@@UBEPBUQMetaObject@@XZ 0046d2d0     Qt5Widgets:Qt5Widgets.dll
 0002:000012d4       __imp_?metaObject@QDoubleSpinBox@@UBEPBUQMetaObject@@XZ 0046d2d4     Qt5Widgets:Qt5Widgets.dll
 0002:000012d8       __imp_?maximumSize@QBoxLayout@@UBE?AVQSize@@XZ 0046d2d8     Qt5Widgets:Qt5Widgets.dll
 0002:000012dc       __imp_?leaveEvent@QWidget@@MAEXPAVQEvent@@@Z 0046d2dc     Qt5Widgets:Qt5Widgets.dll
 0002:000012e0       __imp_?layout@QLayout@@UAEPAV1@XZ 0046d2e0     Qt5Widgets:Qt5Widgets.dll
 0002:000012e4       __imp_?keyReleaseEvent@QWidget@@MAEXPAVQKeyEvent@@@Z 0046d2e4     Qt5Widgets:Qt5Widgets.dll
 0002:000012e8       __imp_?keyReleaseEvent@QAbstractSpinBox@@MAEXPAVQKeyEvent@@@Z 0046d2e8     Qt5Widgets:Qt5Widgets.dll
 0002:000012ec       __imp_?keyPressEvent@QWidget@@MAEXPAVQKeyEvent@@@Z 0046d2ec     Qt5Widgets:Qt5Widgets.dll
 0002:000012f0       __imp_?keyPressEvent@QLabel@@MAEXPAVQKeyEvent@@@Z 0046d2f0     Qt5Widgets:Qt5Widgets.dll
 0002:000012f4       __imp_?keyPressEvent@QAbstractSpinBox@@MAEXPAVQKeyEvent@@@Z 0046d2f4     Qt5Widgets:Qt5Widgets.dll
 0002:000012f8       __imp_?itemAt@QBoxLayout@@UBEPAVQLayoutItem@@H@Z 0046d2f8     Qt5Widgets:Qt5Widgets.dll
 0002:000012fc       __imp_?isEmpty@QLayout@@UBE_NXZ 0046d2fc     Qt5Widgets:Qt5Widgets.dll
 0002:00001300       __imp_?invalidate@QBoxLayout@@UAEXXZ 0046d300     Qt5Widgets:Qt5Widgets.dll
 0002:00001304       __imp_?inputMethodQuery@QWidget@@UBE?AVQVariant@@W4InputMethodQuery@Qt@@@Z 0046d304     Qt5Widgets:Qt5Widgets.dll
 0002:00001308       __imp_?inputMethodQuery@QAbstractSpinBox@@UBE?AVQVariant@@W4InputMethodQuery@Qt@@@Z 0046d308     Qt5Widgets:Qt5Widgets.dll
 0002:0000130c       __imp_?inputMethodEvent@QWidget@@MAEXPAVQInputMethodEvent@@@Z 0046d30c     Qt5Widgets:Qt5Widgets.dll
 0002:00001310       __imp_?initPainter@QWidget@@MBEXPAVQPainter@@@Z 0046d310     Qt5Widgets:Qt5Widgets.dll
 0002:00001314       __imp_?indexOf@QLayout@@UBEHPAVQWidget@@@Z 0046d314     Qt5Widgets:Qt5Widgets.dll
 0002:00001318       __imp_?hideEvent@QWidget@@MAEXPAVQHideEvent@@@Z 0046d318     Qt5Widgets:Qt5Widgets.dll
 0002:0000131c       __imp_?hideEvent@QAbstractSpinBox@@MAEXPAVQHideEvent@@@Z 0046d31c     Qt5Widgets:Qt5Widgets.dll
 0002:00001320       __imp_?heightForWidth@QWidget@@UBEHH@Z 0046d320     Qt5Widgets:Qt5Widgets.dll
 0002:00001324       __imp_?heightForWidth@QLabel@@UBEHH@Z 0046d324     Qt5Widgets:Qt5Widgets.dll
 0002:00001328       __imp_?heightForWidth@QBoxLayout@@UBEHH@Z 0046d328     Qt5Widgets:Qt5Widgets.dll
 0002:0000132c       __imp_?hasHeightForWidth@QWidget@@UBE_NXZ 0046d32c     Qt5Widgets:Qt5Widgets.dll
 0002:00001330       __imp_?hasHeightForWidth@QBoxLayout@@UBE_NXZ 0046d330     Qt5Widgets:Qt5Widgets.dll
 0002:00001334       __imp_?geometry@QLayout@@UBE?AVQRect@@XZ 0046d334     Qt5Widgets:Qt5Widgets.dll
 0002:00001338       __imp_?focusOutEvent@QWidget@@MAEXPAVQFocusEvent@@@Z 0046d338     Qt5Widgets:Qt5Widgets.dll
 0002:0000133c       __imp_?focusOutEvent@QLabel@@MAEXPAVQFocusEvent@@@Z 0046d33c     Qt5Widgets:Qt5Widgets.dll
 0002:00001340       __imp_?focusOutEvent@QAbstractSpinBox@@MAEXPAVQFocusEvent@@@Z 0046d340     Qt5Widgets:Qt5Widgets.dll
 0002:00001344       __imp_?focusNextPrevChild@QWidget@@MAE_N_N@Z 0046d344     Qt5Widgets:Qt5Widgets.dll
 0002:00001348       __imp_?focusNextPrevChild@QLabel@@MAE_N_N@Z 0046d348     Qt5Widgets:Qt5Widgets.dll
 0002:0000134c       __imp_?focusInEvent@QWidget@@MAEXPAVQFocusEvent@@@Z 0046d34c     Qt5Widgets:Qt5Widgets.dll
 0002:00001350       __imp_?focusInEvent@QLabel@@MAEXPAVQFocusEvent@@@Z 0046d350     Qt5Widgets:Qt5Widgets.dll
 0002:00001354       __imp_?focusInEvent@QAbstractSpinBox@@MAEXPAVQFocusEvent@@@Z 0046d354     Qt5Widgets:Qt5Widgets.dll
 0002:00001358       __imp_?fixup@QDoubleSpinBox@@UBEXAAVQString@@@Z 0046d358     Qt5Widgets:Qt5Widgets.dll
 0002:0000135c       __imp_?expandingDirections@QBoxLayout@@UBE?AV?$QFlags@W4Orientation@Qt@@@@XZ 0046d35c     Qt5Widgets:Qt5Widgets.dll
 0002:00001360       __imp_?event@QWidget@@MAE_NPAVQEvent@@@Z 0046d360     Qt5Widgets:Qt5Widgets.dll
 0002:00001364       __imp_?event@QLabel@@MAE_NPAVQEvent@@@Z 0046d364     Qt5Widgets:Qt5Widgets.dll
 0002:00001368       __imp_?event@QAbstractSpinBox@@UAE_NPAVQEvent@@@Z 0046d368     Qt5Widgets:Qt5Widgets.dll
 0002:0000136c       __imp_?enterEvent@QWidget@@MAEXPAVQEvent@@@Z 0046d36c     Qt5Widgets:Qt5Widgets.dll
 0002:00001370       __imp_?dropEvent@QWidget@@MAEXPAVQDropEvent@@@Z 0046d370     Qt5Widgets:Qt5Widgets.dll
 0002:00001374       __imp_?dragMoveEvent@QWidget@@MAEXPAVQDragMoveEvent@@@Z 0046d374     Qt5Widgets:Qt5Widgets.dll
 0002:00001378       __imp_?dragLeaveEvent@QWidget@@MAEXPAVQDragLeaveEvent@@@Z 0046d378     Qt5Widgets:Qt5Widgets.dll
 0002:0000137c       __imp_?dragEnterEvent@QWidget@@MAEXPAVQDragEnterEvent@@@Z 0046d37c     Qt5Widgets:Qt5Widgets.dll
 0002:00001380       __imp_?devType@QWidget@@UBEHXZ 0046d380     Qt5Widgets:Qt5Widgets.dll
 0002:00001384       __imp_?count@QBoxLayout@@UBEHXZ 0046d384     Qt5Widgets:Qt5Widgets.dll
 0002:00001388       __imp_?controlTypes@QLayout@@UBE?AV?$QFlags@W4ControlType@QSizePolicy@@@@XZ 0046d388     Qt5Widgets:Qt5Widgets.dll
 0002:0000138c       __imp_?contextMenuEvent@QWidget@@MAEXPAVQContextMenuEvent@@@Z 0046d38c     Qt5Widgets:Qt5Widgets.dll
 0002:00001390       __imp_?contextMenuEvent@QLabel@@MAEXPAVQContextMenuEvent@@@Z 0046d390     Qt5Widgets:Qt5Widgets.dll
 0002:00001394       __imp_?contextMenuEvent@QAbstractSpinBox@@MAEXPAVQContextMenuEvent@@@Z 0046d394     Qt5Widgets:Qt5Widgets.dll
 0002:00001398       __imp_?closeEvent@QWidget@@MAEXPAVQCloseEvent@@@Z 0046d398     Qt5Widgets:Qt5Widgets.dll
 0002:0000139c       __imp_?closeEvent@QAbstractSpinBox@@MAEXPAVQCloseEvent@@@Z 0046d39c     Qt5Widgets:Qt5Widgets.dll
 0002:000013a0       __imp_?clear@QAbstractSpinBox@@UAEXXZ 0046d3a0     Qt5Widgets:Qt5Widgets.dll
 0002:000013a4       __imp_?childEvent@QLayout@@MAEXPAVQChildEvent@@@Z 0046d3a4     Qt5Widgets:Qt5Widgets.dll
 0002:000013a8       __imp_?changeEvent@QWidget@@MAEXPAVQEvent@@@Z 0046d3a8     Qt5Widgets:Qt5Widgets.dll
 0002:000013ac       __imp_?changeEvent@QLabel@@MAEXPAVQEvent@@@Z 0046d3ac     Qt5Widgets:Qt5Widgets.dll
 0002:000013b0       __imp_?changeEvent@QAbstractSpinBox@@MAEXPAVQEvent@@@Z 0046d3b0     Qt5Widgets:Qt5Widgets.dll
 0002:000013b4       __imp_?addItem@QBoxLayout@@UAEXPAVQLayoutItem@@@Z 0046d3b4     Qt5Widgets:Qt5Widgets.dll
 0002:000013b8       __imp_?actionEvent@QWidget@@MAEXPAVQActionEvent@@@Z 0046d3b8     Qt5Widgets:Qt5Widgets.dll
 0002:000013bc       __imp_?setText@QLabel@@QAEXABVQString@@@Z 0046d3bc     Qt5Widgets:Qt5Widgets.dll
 0002:000013c0       __imp_??1QLabel@@UAE@XZ    0046d3c0     Qt5Widgets:Qt5Widgets.dll
 0002:000013c4       __imp_??0QLabel@@QAE@PAVQWidget@@V?$QFlags@W4WindowType@Qt@@@@@Z 0046d3c4     Qt5Widgets:Qt5Widgets.dll
 0002:000013c8       __imp_??1QHBoxLayout@@UAE@XZ 0046d3c8     Qt5Widgets:Qt5Widgets.dll
 0002:000013cc       __imp_??0QHBoxLayout@@QAE@PAVQWidget@@@Z 0046d3cc     Qt5Widgets:Qt5Widgets.dll
 0002:000013d0       __imp_?setStretch@QBoxLayout@@QAEXHH@Z 0046d3d0     Qt5Widgets:Qt5Widgets.dll
 0002:000013d4       __imp_?setSpacing@QBoxLayout@@QAEXH@Z 0046d3d4     Qt5Widgets:Qt5Widgets.dll
 0002:000013d8       __imp_?addWidget@QBoxLayout@@QAEXPAVQWidget@@HV?$QFlags@W4AlignmentFlag@Qt@@@@@Z 0046d3d8     Qt5Widgets:Qt5Widgets.dll
 0002:000013dc       __imp_?setContentsMargins@QLayout@@QAEXHHHH@Z 0046d3dc     Qt5Widgets:Qt5Widgets.dll
 0002:000013e0       __imp_?setValue@QDoubleSpinBox@@QAEXN@Z 0046d3e0     Qt5Widgets:Qt5Widgets.dll
 0002:000013e4       __imp_?setMaximum@QDoubleSpinBox@@QAEXN@Z 0046d3e4     Qt5Widgets:Qt5Widgets.dll
 0002:000013e8       __imp_?setSingleStep@QDoubleSpinBox@@QAEXN@Z 0046d3e8     Qt5Widgets:Qt5Widgets.dll
 0002:000013ec       __imp_?value@QDoubleSpinBox@@QBENXZ 0046d3ec     Qt5Widgets:Qt5Widgets.dll
 0002:000013f0       __imp_??1QDoubleSpinBox@@UAE@XZ 0046d3f0     Qt5Widgets:Qt5Widgets.dll
 0002:000013f4       __imp_??0QDoubleSpinBox@@QAE@PAVQWidget@@@Z 0046d3f4     Qt5Widgets:Qt5Widgets.dll
 0002:000013f8       __imp_?setAlignment@QAbstractSpinBox@@QAEXV?$QFlags@W4AlignmentFlag@Qt@@@@@Z 0046d3f8     Qt5Widgets:Qt5Widgets.dll
 0002:000013fc       __imp_?setButtonSymbols@QAbstractSpinBox@@QAEXW4ButtonSymbols@1@@Z 0046d3fc     Qt5Widgets:Qt5Widgets.dll
 0002:00001400       __imp_?setSizePolicy@QWidget@@QAEXVQSizePolicy@@@Z 0046d400     Qt5Widgets:Qt5Widgets.dll
 0002:00001404       __imp_?sizePolicy@QWidget@@QBE?AVQSizePolicy@@XZ 0046d404     Qt5Widgets:Qt5Widgets.dll
 0002:00001408       __imp_?resize@QWidget@@QAEXHH@Z 0046d408     Qt5Widgets:Qt5Widgets.dll
 0002:0000140c       __imp_?setWindowTitle@QWidget@@QAEXABVQString@@@Z 0046d40c     Qt5Widgets:Qt5Widgets.dll
 0002:00001410       __imp_??1QWidget@@UAE@XZ   0046d410     Qt5Widgets:Qt5Widgets.dll
 0002:00001414       __imp_??0QWidget@@QAE@PAV0@V?$QFlags@W4WindowType@Qt@@@@@Z 0046d414     Qt5Widgets:Qt5Widgets.dll
 0002:00001418       __imp_?setVerticalStretch@QSizePolicy@@QAEXH@Z 0046d418     Qt5Widgets:Qt5Widgets.dll
 0002:0000141c       __imp_?setHorizontalStretch@QSizePolicy@@QAEXH@Z 0046d41c     Qt5Widgets:Qt5Widgets.dll
 0002:00001420       __imp_?hasHeightForWidth@QSizePolicy@@QBE_NXZ 0046d420     Qt5Widgets:Qt5Widgets.dll
 0002:00001424       __imp_?setHeightForWidth@QSizePolicy@@QAEX_N@Z 0046d424     Qt5Widgets:Qt5Widgets.dll
 0002:00001428       __imp_??0QSizePolicy@@QAE@W4Policy@0@0W4ControlType@0@@Z 0046d428     Qt5Widgets:Qt5Widgets.dll
 0002:0000142c       __imp_?event@QComboBox@@UAE_NPAVQEvent@@@Z 0046d42c     Qt5Widgets:Qt5Widgets.dll
 0002:00001430       __imp_?dragMoveEvent@QTextEdit@@MAEXPAVQDragMoveEvent@@@Z 0046d430     Qt5Widgets:Qt5Widgets.dll
 0002:00001434       \177Qt5Widgets_NULL_THUNK_DATA 0046d434     Qt5Widgets:Qt5Widgets.dll
 0002:00001438       __imp__CommandLineToArgvW@8 0046d438     shell32:SHELL32.dll
 0002:0000143c       \177SHELL32_NULL_THUNK_DATA 0046d43c     shell32:SHELL32.dll
 0002:00001440       __imp_?SetCustomWidgetCreator@Builder@tt@@QAEXABVQString@@ABV?$function@$$A6APAVQWidget@@XZ@std@@@Z 0046d440     TabToolbar:TabToolbar.dll
 0002:00001444       __imp_?CreateTabToolbar@Builder@tt@@QAEPAVTabToolbar@2@ABVQString@@@Z 0046d444     TabToolbar:TabToolbar.dll
 0002:00001448       __imp_??0Builder@tt@@QAE@PAVQWidget@@@Z 0046d448     TabToolbar:TabToolbar.dll
 0002:0000144c       __imp_??1Builder@tt@@UAE@XZ 0046d44c     TabToolbar:TabToolbar.dll
 0002:00001450       \177TabToolbar_NULL_THUNK_DATA 0046d450     TabToolbar:TabToolbar.dll
 0002:00001454       __imp____std_exception_destroy 0046d454     vcruntime:VCRUNTIME140.dll
 0002:00001458       __imp____std_exception_copy 0046d458     vcruntime:VCRUNTIME140.dll
 0002:0000145c       __imp___except_handler4_common 0046d45c     vcruntime:VCRUNTIME140.dll
 0002:00001460       __imp____current_exception_context 0046d460     vcruntime:VCRUNTIME140.dll
 0002:00001464       __imp____current_exception 0046d464     vcruntime:VCRUNTIME140.dll
 0002:00001468       __imp___CxxThrowException@8 0046d468     vcruntime:VCRUNTIME140.dll
 0002:0000146c       __imp__memset              0046d46c     vcruntime:VCRUNTIME140.dll
 0002:00001470       __imp__memcpy              0046d470     vcruntime:VCRUNTIME140.dll
 0002:00001474       __imp____CxxFrameHandler3  0046d474     vcruntime:VCRUNTIME140.dll
 0002:00001478       __imp____std_terminate     0046d478     vcruntime:VCRUNTIME140.dll
 0002:0000147c       __imp__memchr              0046d47c     vcruntime:VCRUNTIME140.dll
 0002:00001480       \177VCRUNTIME140_NULL_THUNK_DATA 0046d480     vcruntime:VCRUNTIME140.dll
 0002:00001484       __imp__strtoul             0046d484     ucrt:api-ms-win-crt-convert-l1-1-0.dll
 0002:00001488       \177api-ms-win-crt-convert-l1-1-0_NULL_THUNK_DATA 0046d488     ucrt:api-ms-win-crt-convert-l1-1-0.dll
 0002:0000148c       __imp___set_new_mode       0046d48c     ucrt:api-ms-win-crt-heap-l1-1-0.dll
 0002:00001490       __imp__free                0046d490     ucrt:api-ms-win-crt-heap-l1-1-0.dll
 0002:00001494       __imp__malloc              0046d494     ucrt:api-ms-win-crt-heap-l1-1-0.dll
 0002:00001498       __imp___callnewh           0046d498     ucrt:api-ms-win-crt-heap-l1-1-0.dll
 0002:0000149c       \177api-ms-win-crt-heap-l1-1-0_NULL_THUNK_DATA 0046d49c     ucrt:api-ms-win-crt-heap-l1-1-0.dll
 0002:000014a0       __imp___configthreadlocale 0046d4a0     ucrt:api-ms-win-crt-locale-l1-1-0.dll
 0002:000014a4       \177api-ms-win-crt-locale-l1-1-0_NULL_THUNK_DATA 0046d4a4     ucrt:api-ms-win-crt-locale-l1-1-0.dll
 0002:000014a8       __imp____setusermatherr    0046d4a8     ucrt:api-ms-win-crt-math-l1-1-0.dll
 0002:000014ac       \177api-ms-win-crt-math-l1-1-0_NULL_THUNK_DATA 0046d4ac     ucrt:api-ms-win-crt-math-l1-1-0.dll
 0002:000014b0       __imp___initterm           0046d4b0     ucrt:api-ms-win-crt-runtime-l1-1-0.dll
 0002:000014b4       __imp___get_narrow_winmain_command_line 0046d4b4     ucrt:api-ms-win-crt-runtime-l1-1-0.dll
 0002:000014b8       __imp__exit                0046d4b8     ucrt:api-ms-win-crt-runtime-l1-1-0.dll
 0002:000014bc       __imp___set_app_type       0046d4bc     ucrt:api-ms-win-crt-runtime-l1-1-0.dll
 0002:000014c0       __imp___register_thread_local_exe_atexit_callback 0046d4c0     ucrt:api-ms-win-crt-runtime-l1-1-0.dll
 0002:000014c4       __imp___exit               0046d4c4     ucrt:api-ms-win-crt-runtime-l1-1-0.dll
 0002:000014c8       __imp___cexit              0046d4c8     ucrt:api-ms-win-crt-runtime-l1-1-0.dll
 0002:000014cc       __imp___crt_atexit         0046d4cc     ucrt:api-ms-win-crt-runtime-l1-1-0.dll
 0002:000014d0       __imp___register_onexit_function 0046d4d0     ucrt:api-ms-win-crt-runtime-l1-1-0.dll
 0002:000014d4       __imp___initialize_onexit_table 0046d4d4     ucrt:api-ms-win-crt-runtime-l1-1-0.dll
 0002:000014d8       __imp___initialize_narrow_environment 0046d4d8     ucrt:api-ms-win-crt-runtime-l1-1-0.dll
 0002:000014dc       __imp___configure_narrow_argv 0046d4dc     ucrt:api-ms-win-crt-runtime-l1-1-0.dll
 0002:000014e0       __imp___initterm_e         0046d4e0     ucrt:api-ms-win-crt-runtime-l1-1-0.dll
 0002:000014e4       __imp__terminate           0046d4e4     ucrt:api-ms-win-crt-runtime-l1-1-0.dll
 0002:000014e8       __imp___controlfp_s        0046d4e8     ucrt:api-ms-win-crt-runtime-l1-1-0.dll
 0002:000014ec       __imp___c_exit             0046d4ec     ucrt:api-ms-win-crt-runtime-l1-1-0.dll
 0002:000014f0       __imp___seh_filter_exe     0046d4f0     ucrt:api-ms-win-crt-runtime-l1-1-0.dll
 0002:000014f4       \177api-ms-win-crt-runtime-l1-1-0_NULL_THUNK_DATA 0046d4f4     ucrt:api-ms-win-crt-runtime-l1-1-0.dll
 0002:000014f8       __imp___set_fmode          0046d4f8     ucrt:api-ms-win-crt-stdio-l1-1-0.dll
 0002:000014fc       __imp____p__commode        0046d4fc     ucrt:api-ms-win-crt-stdio-l1-1-0.dll
 0002:00001500       \177api-ms-win-crt-stdio-l1-1-0_NULL_THUNK_DATA 0046d500     ucrt:api-ms-win-crt-stdio-l1-1-0.dll
 0002:00001504       __imp__MiniDumpWriteDump@28 0046d504     Dbghelp:dbghelp.dll
 0002:00001508       \177dbghelp_NULL_THUNK_DATA 0046d508     Dbghelp:dbghelp.dll
 0002:0000150c       __imp_?getIP@IPAddress@@QBE?AVQString@@XZ 0046d50c     quc:quc.dll
 0002:00001510       __imp_??0IPAddress@@QAE@PAVQWidget@@@Z 0046d510     quc:quc.dll
 0002:00001514       __imp_?setTitleText@PanelItem@@QAEXABVQString@@@Z 0046d514     quc:quc.dll
 0002:00001518       __imp_?getBorderColor@PanelItem@@QBE?AVQColor@@XZ 0046d518     quc:quc.dll
 0002:0000151c       __imp_??0PanelItem@@QAE@PAVQWidget@@@Z 0046d51c     quc:quc.dll
 0002:00001520       __imp_?setBorderColor@PanelItem@@QAEXABVQColor@@@Z 0046d520     quc:quc.dll
 0002:00001524       __imp_?setIP@IPAddress@@QAEXABVQString@@@Z 0046d524     quc:quc.dll
 0002:00001528       \177quc_NULL_THUNK_DATA    0046d528     quc:quc.dll
 0002:0000152c       __imp_?onMouseMovePoint@customPlot@@AAEXPAVQMouseEvent@@@Z 0046d52c     yecplot:yecplot.dll
 0002:00001530       __imp_?graphToPNG@customPlot@@AAEXXZ 0046d530     yecplot:yecplot.dll
 0002:00001534       __imp_?stoppedDrag@customPlot@@AAEXPAVQMouseEvent@@@Z 0046d534     yecplot:yecplot.dll
 0002:00001538       __imp_?onMouseMoveBand@customPlot@@AAEXPAVQMouseEvent@@@Z 0046d538     yecplot:yecplot.dll
 0002:0000153c       __imp_?onMouseMoveBand2@customPlot@@AAEXPAVQMouseEvent@@@Z 0046d53c     yecplot:yecplot.dll
 0002:00001540       __imp_?stoppedBand@customPlot@@AAEXXZ 0046d540     yecplot:yecplot.dll
 0002:00001544       __imp_?xLogModeChange@customPlot@@AAEXXZ 0046d544     yecplot:yecplot.dll
 0002:00001548       __imp_?copyGraphData@customPlot@@AAEXXZ 0046d548     yecplot:yecplot.dll
 0002:0000154c       __imp_?graphPause@customPlot@@AAEXXZ 0046d54c     yecplot:yecplot.dll
 0002:00001550       __imp_?graphToExel@customPlot@@AAEXXZ 0046d550     yecplot:yecplot.dll
 0002:00001554       __imp_?legendDoubleClick@customPlot@@AAEXPAVQCPLegend@@PAVQCPAbstractLegendItem@@@Z 0046d554     yecplot:yecplot.dll
 0002:00001558       __imp_??0customPlot@@QAE@PAVQWidget@@@Z 0046d558     yecplot:yecplot.dll
 0002:0000155c       __imp_?addLine@customPlot@@QAEXVQString@@@Z 0046d55c     yecplot:yecplot.dll
 0002:00001560       __imp_?clearAllLines@customPlot@@QAEXXZ 0046d560     yecplot:yecplot.dll
 0002:00001564       __imp_?setData@customPlot@@QAEXV?$QVector@N@@0H@Z 0046d564     yecplot:yecplot.dll
 0002:00001568       __imp_?getLineCount@customPlot@@QAEHXZ 0046d568     yecplot:yecplot.dll
 0002:0000156c       __imp_?setMouseType@customPlot@@QAEXW4mouseType@1@@Z 0046d56c     yecplot:yecplot.dll
 0002:00001570       __imp_?showTracer@customPlot@@QAEX_N@Z 0046d570     yecplot:yecplot.dll
 0002:00001574       __imp_?setChartName@customPlot@@QAEXVQString@@@Z 0046d574     yecplot:yecplot.dll
 0002:00001578       __imp_?setXLabel@customPlot@@QAEXVQString@@@Z 0046d578     yecplot:yecplot.dll
 0002:0000157c       __imp_?setYLabel@customPlot@@QAEXVQString@@@Z 0046d57c     yecplot:yecplot.dll
 0002:00001580       __imp_?setXLogMode@customPlot@@QAEX_N@Z 0046d580     yecplot:yecplot.dll
 0002:00001584       __imp_?setYLogMode@customPlot@@QAEX_N@Z 0046d584     yecplot:yecplot.dll
 0002:00001588       __imp_?plotContextMenuEvent@customPlot@@QAEXVQPoint@@@Z 0046d588     yecplot:yecplot.dll
 0002:0000158c       __imp_?setLineVisible@customPlot@@QAEXH_N@Z 0046d58c     yecplot:yecplot.dll
 0002:00001590       __imp_?isShowTracer@customPlot@@QAE_NXZ 0046d590     yecplot:yecplot.dll
 0002:00001594       __imp_?mousePressSignal@customPlot@@AAEXPAVQMouseEvent@@@Z 0046d594     yecplot:yecplot.dll
 0002:00001598       __imp_?mouseReleaseSignal@customPlot@@AAEXPAVQMouseEvent@@@Z 0046d598     yecplot:yecplot.dll
 0002:0000159c       __imp_?onMouseMoveZoom@customPlot@@AAEXPAVQMouseEvent@@@Z 0046d59c     yecplot:yecplot.dll
 0002:000015a0       __imp_?stoppedZoom@customPlot@@AAEXXZ 0046d5a0     yecplot:yecplot.dll
 0002:000015a4       __imp_?setMinMaxType@customPlot@@AAEXH@Z 0046d5a4     yecplot:yecplot.dll
 0002:000015a8       __imp_?hideShow@customPlot@@AAEXXZ 0046d5a8     yecplot:yecplot.dll
 0002:000015ac       __imp_?mouseWheel@customPlot@@AAEXXZ 0046d5ac     yecplot:yecplot.dll
 0002:000015b0       __imp_?pressDrag@customPlot@@AAEXPAVQMouseEvent@@@Z 0046d5b0     yecplot:yecplot.dll
 0002:000015b4       __imp_?titleDoubleClick@customPlot@@AAEXPAVQMouseEvent@@@Z 0046d5b4     yecplot:yecplot.dll
 0002:000015b8       __imp_?onMouseMoveDrag@customPlot@@AAEXPAVQMouseEvent@@@Z 0046d5b8     yecplot:yecplot.dll
 0002:000015bc       __imp_?zoomGroupTriggered@customPlot@@AAEXH@Z 0046d5bc     yecplot:yecplot.dll
 0002:000015c0       __imp_?minMaxGroupTriggered@customPlot@@AAEXH@Z 0046d5c0     yecplot:yecplot.dll
 0002:000015c4       __imp_?contextActTriggered@customPlot@@AAEXPAVQAction@@@Z 0046d5c4     yecplot:yecplot.dll
 0002:000015c8       __imp_?yLogModeChange@customPlot@@AAEXXZ 0046d5c8     yecplot:yecplot.dll
 0002:000015cc       \177yecplot_NULL_THUNK_DATA 0046d5cc     yecplot:yecplot.dll
 0002:000015d0       ___guard_check_icall_fptr  0046d5d0     MSVCRT:guard_support.obj
 0002:000015d4       ___xc_a                    0046d5d4     MSVCRT:initializers.obj
 0002:00001698       ___xc_z                    0046d698     MSVCRT:initializers.obj
 0002:0000169c       ___xi_a                    0046d69c     MSVCRT:initializers.obj
 0002:000016ac       ___xi_z                    0046d6ac     MSVCRT:initializers.obj
 0002:000016b0       ___xl_a                    0046d6b0     MSVCRT:tlssup.obj
 0002:000016b4       ___xl_z                    0046d6b4     MSVCRT:tlssup.obj
 0002:000016b8       ___xp_a                    0046d6b8     MSVCRT:initializers.obj
 0002:000016bc       ___xp_z                    0046d6bc     MSVCRT:initializers.obj
 0002:000016c0       ___xt_a                    0046d6c0     MSVCRT:initializers.obj
 0002:000016c4       ___xt_z                    0046d6c4     MSVCRT:initializers.obj
 0002:000016d0       ??_C@_0BL@HCMDKCOP@?9?f?$LD?$KC?e?$LN?$KC?f?$JF?$LA?f?$IN?$KO?9?f?$IM?$KP?e?$IK?$KI?i?$IA?$JK?i?$IB?$JD@ 0046d6d0     mysave.obj
 0002:000016ec       ??_C@_0BL@LABIDNNC@?9?h?$IH?$KK?e?$IK?$KI?d?$LI?$IK?d?$LM?$KA?f?$JF?$LA?f?$IN?$KO?9?i?$IA?$JK?i?$IB?$JD@ 0046d6ec     mysave.obj
 0002:00001708       ??_C@_0BL@NDHCGPEL@?9?e?$IN?$JF?f?$KM?$KB?h?$KP?$LH?f?$LB?$IC?f?$LD?$KC?e?$LN?$KC?9?i?$IA?$JK?i?$IB?$JD@ 0046d708     mysave.obj
 0002:0000172c       ??_SQFile@@6B@             0046d72c     mysave.obj
 0002:000017ac       ??_SQTextStream@@6B@       0046d7ac     mysave.obj
 0002:000017b0       ??_C@_04LCMACLFG@?4txt@    0046d7b0     mysave.obj
 0002:000017b8       ??_C@_0P@BABBNOBC@yyyy?9M?9d?9H?9m?9s@ 0046d7b8     mysave.obj
 0002:000017c8       ??_C@_01JOAMLHOP@?9@       0046d7c8     mysave.obj
 0002:000017cc       ??_C@_0M@JNBIKINJ@?1dataFiles?1@ 0046d7cc     mysave.obj
 0002:000017d8       ??_C@_0BC@LDIBJBEO@?$CF1?9?$CF2?9?$CF3?9?$CF4?9?$CF5?9?$CF6@ 0046d7d8     mysave.obj
 0002:000017f0       ??_7MySocket@@6B@          0046d7f0     mysocket.obj
 0002:00001888       ??_C@_0M@BLMLJBME@1recvData?$CI?$CJ@ 0046d888     mysocket.obj
 0002:00001894       ??_C@_0N@HMJECBDI@2readyRead?$CI?$CJ@ 0046d894     mysocket.obj
 0002:000018a4       ??_C@_0BB@OAGDADFL@1sendHeartBeat?$CI?$CJ@ 0046d8a4     mysocket.obj
 0002:000018b8       ??_C@_0L@CHKJBFLD@2timeout?$CI?$CJ@ 0046d8b8     mysocket.obj
 0002:000018c4       ??_C@_0BG@EPMMCIGI@sock?5count?5after?5add?3@ 0046d8c4     mysocket.obj
 0002:000018dc       ??_C@_0BB@CIEFJCBL@mysocket?5count?3?5@ 0046d8dc     mysocket.obj
 0002:000018fe       ??_C@_00CNPNBAHC@@         0046d8fe     tcpdataanalysis.obj
 0002:00001904       ??_7tcpDataAnalysis@@6B@   0046d904     tcpdataanalysis.obj
 0002:00001930       ??_C@_0BH@FFDDDFEN@1sendDataImmediately?$CI?$CJ@ 0046d930     tcpdataanalysis.obj
 0002:00001948       ??_C@_0BJ@DAGNHBKJ@1sendSingleImmediately?$CI?$CJ@ 0046d948     tcpdataanalysis.obj
 0002:00001964       ??_C@_0BB@FKIMOFOE@analysis?5count?3?5@ 0046d964     tcpdataanalysis.obj
 0002:00001978       ??_C@_0CB@FGGKMCI@command?53?5internal?5length?5error@ 0046d978     tcpdataanalysis.obj
 0002:0000199c       ??_C@_0CD@OOJMHJDC@network?5parameters?5internal?5err@ 0046d99c     tcpdataanalysis.obj
 0002:000019c0       ??_C@_0CC@JILIFCDH@sample?5parameters?5internal?5erro@ 0046d9c0     tcpdataanalysis.obj
 0002:000019e4       ??_C@_07FNKNBFNL@set?5fs?3@ 0046d9e4     tcpdataanalysis.obj
 0002:000019ec       ??_C@_0L@EPOLBFIG@?5ch1name?3?5@ 0046d9ec     tcpdataanalysis.obj
 0002:000019f8       ??_C@_0M@HICDNBBO@?5chs?5count?3@ 0046d9f8     tcpdataanalysis.obj
 0002:00001a04       ??_C@_04GKMDNCOD@chs?3@    0046da04     tcpdataanalysis.obj
 0002:00001a0c       ??_C@_05BAJFEBII@chs1?3@   0046da0c     tcpdataanalysis.obj
 0002:00001a14       ??_C@_0BL@CKKLBFIO@command?50b?5internal?5error?$CB@ 0046da14     tcpdataanalysis.obj
 0002:00001a30       ??_C@_0BJ@NODAHJLG@?h?$KP?$LH?f?$LB?$IC?f?$JF?$LA?f?$IN?$KO?e?$IP?$JB?g?$JE?$JP?d?$LI?$KC?e?$IM?$IF@ 0046da30     tcpdataanalysis.obj
 0002:00001a4c       ??_C@_0BP@LDPLCELP@?f?$JF?$LA?f?$IN?$KO?i?$IA?$JK?i?$IB?$JD?e?$LH?$LC?e?$II?$IH?f?$IN?$KC?o?$LM?$IM?i?$IA?$JK?i?$IB?$JD@ 0046da4c     tcpdataanalysis.obj
 0002:00001a6c       ??_C@_0BA@KIMBKCMJ@?d?$LI?$KC?e?$KE?$LB?e?$IM?$IF?f?$JF?$LA?o?$LM?$JK@ 0046da6c     tcpdataanalysis.obj
 0002:00001a7c       ??_C@_0BA@IGJMMMKM@?e?$LN?$JD?e?$IJ?$IN?e?$IM?$IF?e?$IP?$LH?o?$LM?$JK@ 0046da7c     tcpdataanalysis.obj
 0002:00001a8c       ??_C@_0BA@COCKBJCA@?d?$LI?$IK?d?$LI?$KK?e?$IM?$IF?e?$IP?$LH?o?$LM?$JK@ 0046da8c     tcpdataanalysis.obj
 0002:00001a9c       ??_C@_0DL@OJLJDAD@?3?f?$JF?$LA?f?$IN?$KO?e?$IM?$IF?e?$IP?$LH?d?$LI?$IN?h?$LP?$JO?g?$LL?$KN?o?$LM?$IM?e?$IN?$JF?f?$KM?$KB@ 0046da9c     tcpdataanalysis.obj
 0002:00001ad8       ??_C@_0DI@KMOBEBC@?3?f?$JH?$LG?i?$JH?$LE?f?$II?$LD?e?$LH?$LC?f?$JL?$LE?f?$JG?$LA?o?$LM?$IM?e?$IN?$JF?f?$KM?$KB?f?$JF?$LA@ 0046dad8     tcpdataanalysis.obj
 0002:00001b10       ??_C@_0EB@NCELCGIG@?3?f?$JF?$LA?f?$IN?$KO?e?$IM?$IF?e?$IP?$LH?d?$LI?$IN?h?$LP?$JO?g?$LL?$KN?o?$LM?$IM?e?$KO?$JO?f?$JH?$LG@ 0046db10     tcpdataanalysis.obj
 0002:00001b54       ??_C@_01JLIPDDHJ@?3@       0046db54     tcpdataanalysis.obj
 0002:00001b58       ??_C@_01CLKCMJKC@?5@       0046db58     tcpdataanalysis.obj
 0002:00001b5c       ??_C@_01LFCBOECM@?4@       0046db5c     tcpdataanalysis.obj
 0002:00001b60       ??_C@_0BP@GPOOOGAF@?h?$IH?$KK?e?$IK?$KI?d?$LI?$IK?d?$LM?$KA?f?$LD?$KC?e?$LN?$KC?e?$IP?$JB?g?$JE?$JP?d?$LI?$KC?e?$IM?$IF@ 0046db60     tcpdataanalysis.obj
 0002:00001b80       ??_C@_0BK@HBNENFMO@?3?i?$IA?$JK?i?$IB?$JD?e?$LH?$LC?e?$II?$IH?f?$IN?$KC?o?$LM?$IM?i?$IA?$JK?i?$IB?$JD@ 0046db80     tcpdataanalysis.obj
 0002:00001b9c       ??_C@_0BA@EKBJMOHD@?d?$LI?$IK?d?$LI?$IA?e?$IM?$IF?e?$IP?$LH?o?$LM?$JK@ 0046db9c     tcpdataanalysis.obj
 0002:00001bb0       ??_C@_0EB@KGOLOKLI@?3?f?$JF?$LA?f?$IN?$KO?e?$IM?$IF?e?$IP?$LH?d?$LI?$IN?h?$LP?$JO?g?$LL?$KN?o?$LM?$IM?h?$IH?$KK?e?$IK?$KI@ 0046dbb0     tcpdataanalysis.obj
 0002:00001bf4       ??_C@_0DO@ICOJIOKH@?3?f?$JH?$LG?i?$JH?$LE?f?$II?$LD?e?$LH?$LC?f?$JL?$LE?f?$JG?$LA?o?$LM?$IM?d?$LI?$IK?d?$LI?$IA?e?$LI?$KH@ 0046dbf4     tcpdataanalysis.obj
 0002:00001c38       ??_C@_0FH@JCJBCAKG@?3?f?$JH?$LG?i?$JH?$LE?f?$II?$LD?e?$LH?$LC?f?$JL?$LE?f?$JG?$LA?o?$LM?$IM?d?$LI?$IK?d?$LI?$IA?e?$LI?$KH@ 0046dc38     tcpdataanalysis.obj
 0002:00001c90       ??_C@_09CNCABHLC@0x17?5out?3@ 0046dc90     tcpdataanalysis.obj
 0002:00001c9c       ??_C@_0BD@GJJKNDC@?h?$KH?$KG?e?$IP?$JB?f?$IK?$KF?h?$KN?$KG?h?$KH?$IE?e?$II?$JJ@ 0046dc9c     tcpdataanalysis.obj
 0002:00001cb0       ??_C@_01IHBHIGKO@?0@       0046dcb0     tcpdataanalysis.obj
 0002:00001cb4       ??_C@_05OMFPNNGA@0x72?3@   0046dcb4     tcpdataanalysis.obj
 0002:00001cbc       ??_C@_0O@JFKHBDC@wrong?5packet?3@ 0046dcbc     tcpdataanalysis.obj
 0002:00001ccc       ??_C@_0O@NICNEKPF@?3?f?$JE?$LG?e?$II?$LA?i?$JE?$JJ?e?$IM?$IF@ 0046dccc     tcpdataanalysis.obj
 0002:00001ce0       __real@3f00000000000000    0046dce0     tcpdataanalysis.obj
 0002:00001ce8       ??_C@_0CL@GGBGAILI@QtMetaTypePrivate?3?3QSequentialI@ 0046dce8     tcpserver.obj
 0002:00001d18       ??_7tcpServer@@6B@         0046dd18     tcpserver.obj
 0002:00001d50       ??_C@_0BF@JPACOHKP@back?5remain?5counts?3?5@ 0046dd50     tcpserver.obj
 0002:00001d68       ??_C@_0BA@DPFMDDMD@server?5start?5ok@ 0046dd68     tcpserver.obj
 0002:00001d78       ??_C@_0BD@IIEEJLGL@sever?5start?5failed@ 0046dd78     tcpserver.obj
 0002:00001d90       ??_C@_0EB@BFMCMDEP@?f?$KD?$IA?f?$LF?$IL?e?$II?$LA?f?$JG?$LA?h?$LP?$JO?f?$IO?$KF?o?$LM?$IM?e?$IH?$IG?e?$KE?$IH?f?$JP?$KF?h@ 0046dd90     tcpserver.obj
 0002:00001dd4       ??_C@_0P@ENNEIMJB@new?5connection@ 0046ddd4     tcpserver.obj
 0002:00001de4       ??_C@_0BM@OOLAEIN@1aboutToStart?$CIQString?0bool?$CJ@ 0046dde4     tcpserver.obj
 0002:00001e00       ??_C@_0BM@MDFADKK@2aboutToStart?$CIQString?0bool?$CJ@ 0046de00     tcpserver.obj
 0002:00001e1c       ??_C@_0BB@LJAIHBAH@1delDaq?$CIQString?$CJ@ 0046de1c     tcpserver.obj
 0002:00001e30       ??_C@_0BB@OKJCCKID@2delDaq?$CIQString?$CJ@ 0046de30     tcpserver.obj
 0002:00001e44       ??_C@_0CL@PCPFFNED@2updateCurrentFirmwareVer?$CIQStri@ 0046de44     tcpserver.obj
 0002:00001e70       ??_C@_0P@BPOMNCBJ@1deleteLater?$CI?$CJ@ 0046de70     tcpserver.obj
 0002:00001e80       ??_C@_0M@BMAHFEDH@2finished?$CI?$CJ@ 0046de80     tcpserver.obj
 0002:00001e8c       ??_C@_0BI@COJJIEF@2updateMessage?$CIQString?$CJ@ 0046de8c     tcpserver.obj
 0002:00001ea4       ??_C@_0BE@OBFFHMEI@2errerInfo?$CIQString?$CJ@ 0046dea4     tcpserver.obj
 0002:00001eb8       ??_C@_0CH@OLBCPNIJ@2updateDeviceInfo?$CIint?0QString?0Q@ 0046deb8     tcpserver.obj
 0002:00001ee0       ??_C@_0CD@MPLMAKFD@2createWidget?$CIint?0QString?0QStri@ 0046dee0     tcpserver.obj
 0002:00001f04       ??_C@_0DB@OFNGAFFJ@2updateCurrentVValue?$CIQString?0QL@ 0046df04     tcpserver.obj
 0002:00001f38       ??_C@_0CP@FHMMINFL@2updateCurrentTemperature?$CIQStri@ 0046df38     tcpserver.obj
 0002:00001f68       ??_C@_0CG@OBDNNIHL@2updateWave?$CIQString?0QVector?$DMdou@ 0046df68     tcpserver.obj
 0002:00001f90       ??_C@_0CF@CHGAHFLC@2updateFFT?$CIQString?0QVector?$DMdoub@ 0046df90     tcpserver.obj
 0002:00001fb8       ??_C@_0CA@HPNIFHKP@2updateAlertStatus?$CIQString?0int?$CJ@ 0046dfb8     tcpserver.obj
 0002:00001fd8       ??_C@_0CF@INMDDIPI@2updateAlertData?$CIQString?0float?$CK@ 0046dfd8     tcpserver.obj
 0002:00002000       ??_C@_0CE@EMFFGJIJ@2updateAPdata?$CIQString?0WifiApPar@ 0046e000     tcpserver.obj
 0002:00002024       ??_C@_0CG@HLILJNIB@2updateTCPServer?$CIQString?0QStrin@ 0046e024     tcpserver.obj
 0002:0000204c       ??_C@_0CI@EHNMGKCM@2updateNetParas?$CIQString?0WifiNet@ 0046e04c     tcpserver.obj
 0002:00002074       ??_C@_0CG@LPCNAEPF@2updateFsParas?$CIQString?0WifiFsPa@ 0046e074     tcpserver.obj
 0002:0000209c       ??_C@_0BM@CBHCGKCL@2updateFsMode?$CIQString?0int?5?$CJ@ 0046e09c     tcpserver.obj
 0002:000020b8       ??_C@_0CF@OGFGJLBN@2updateChParas?$CIQString?0WifiChPa@ 0046e0b8     tcpserver.obj
 0002:000020e0       ??_C@_0CB@DNANFCGH@2updateChStatus?$CIQString?0quint16@ 0046e0e0     tcpserver.obj
 0002:00002104       ??_C@_0DB@EJPDFCPB@2updateSingleWave?$CIQString?0int?5?0@ 0046e104     tcpserver.obj
 0002:00002138       ??_C@_0CL@CPEKMIHJ@2saveErrorData?$CIQString?0QString?0@ 0046e138     tcpserver.obj
 0002:00002164       ??_C@_0DK@LDPMEHEI@2updateAutoWave2?$CIQString?0QByteA@ 0046e164     tcpserver.obj
 0002:000021a0       ??_C@_0M@JNHEKGCN@1stopByMe?$CI?$CJ@ 0046e1a0     tcpserver.obj
 0002:000021ac       ??_C@_0L@CKMCPBDN@2stopAll?$CI?$CJ@ 0046e1ac     tcpserver.obj
 0002:000021b8       ??_C@_0DD@BBCKPMPH@1setPowerMode?$CIQString?0quint8?0qu@ 0046e1b8     tcpserver.obj
 0002:000021ec       ??_C@_0DD@JEBIOOAD@2setPowerMode?$CIQString?0quint8?0qu@ 0046e1ec     tcpserver.obj
 0002:00002220       ??_C@_0EC@PAELBCJG@2updateCharactersJunyue?$CIQString@ 0046e220     tcpserver.obj
 0002:00002264       ??_C@_0CP@EAOCLHGN@2updatePowerMode?$CIQString?0quint8@ 0046e264     tcpserver.obj
 0002:00002294       ??_C@_0DH@FIGDBKJP@2updatePowerMode2?$CIQString?0quint@ 0046e294     tcpserver.obj
 0002:000022cc       ??_C@_0DG@DDAJGCBB@2updatePowerMode?$CIQString?0quint8@ 0046e2cc     tcpserver.obj
 0002:00002304       ??_C@_0CG@DEAINGCM@2updateAlertTimeSpan?$CIQString?0in@ 0046e304     tcpserver.obj
 0002:0000232c       ??_C@_0CJ@PGIBFOBB@2updateAlertJunyue?$CIQString?0QLis@ 0046e32c     tcpserver.obj
 0002:00002358       ??_C@_0BO@GGFFGPKC@1setAP?$CIQString?0WifiApParas?5?$CK?$CJ@ 0046e358     tcpserver.obj
 0002:00002378       ??_C@_0CB@HOEEDHDO@2changeAP?$CIQString?0WifiApParas?5?$CK@ 0046e378     tcpserver.obj
 0002:0000239c       ??_C@_0CE@COBOCFLC@1setNetParas?$CIQString?0WifiNetPar@ 0046e39c     tcpserver.obj
 0002:000023c0       ??_C@_0CH@LGEJLFLC@2changeNetParas?$CIQString?0WifiNet@ 0046e3c0     tcpserver.obj
 0002:000023e8       ??_C@_0BI@JLIBDELB@1setFsMode?$CIQString?0int?$CJ@ 0046e3e8     tcpserver.obj
 0002:00002400       ??_C@_0BM@PGJAIEDA@2changeFsMode?$CIQString?0int?5?$CJ@ 0046e400     tcpserver.obj
 0002:0000241c       ??_C@_0BO@GAJDMNHF@1setChStatus?$CIQString?0quint16?$CJ@ 0046e41c     tcpserver.obj
 0002:0000243c       ??_C@_0CB@HIICJFOJ@2changeChStatus?$CIQString?0quint16@ 0046e43c     tcpserver.obj
 0002:00002460       ??_C@_0BG@GHBNDAFK@1applyNewNet?$CIQString?$CJ@ 0046e460     tcpserver.obj
 0002:00002478       ??_C@_0BD@NHJPBEFA@2applyNet?$CIQString?$CJ@ 0046e478     tcpserver.obj
 0002:0000248c       ??_C@_0BJ@GJENEMCL@1tempZeroAdjust?$CIQString?$CJ@ 0046e48c     tcpserver.obj
 0002:000024a8       ??_C@_0BJ@FMKAPKHI@2tempZeroAdjust?$CIQString?$CJ@ 0046e4a8     tcpserver.obj
 0002:000024c4       ??_C@_0BJ@ICGAAIHE@1tempGainAdjust?$CIQString?$CJ@ 0046e4c4     tcpserver.obj
 0002:000024e0       ??_C@_0BJ@LHINLOCH@2tempGainAdjust?$CIQString?$CJ@ 0046e4e0     tcpserver.obj
 0002:000024fc       ??_C@_0BI@JPEFELDJ@1setSN?$CIQString?0QString?$CJ@ 0046e4fc     tcpserver.obj
 0002:00002514       ??_C@_0BL@LOBGDHHI@2changeSN?$CIQString?0QString?$CJ@ 0046e514     tcpserver.obj
 0002:00002530       ??_C@_0BI@PEJEAKNE@1adjustADC?$CIQString?0int?$CJ@ 0046e530     tcpserver.obj
 0002:00002548       ??_C@_0BI@NNDKFIKG@2adcAdjust?$CIQString?0int?$CJ@ 0046e548     tcpserver.obj
 0002:00002560       ??_C@_0CO@MJPKPLKJ@1changeTCPServer?$CIQString?0QStrin@ 0046e560     tcpserver.obj
 0002:00002590       ??_C@_0CO@EJKAFHBM@2changeTCPServer?$CIQString?0QStrin@ 0046e590     tcpserver.obj
 0002:000025c0       ??_C@_0CA@EMGAIOMF@1setHeartSpan?$CIQString?0int?0bool?$CJ@ 0046e5c0     tcpserver.obj
 0002:000025e0       ??_C@_0CA@IFHPIGHK@2setHeartSpan?$CIQString?0int?0bool?$CJ@ 0046e5e0     tcpserver.obj
 0002:00002600       ??_C@_0CA@CHEBNIGE@1showDisconnection?$CIint?0QString?$CJ@ 0046e600     tcpserver.obj
 0002:00002620       ??_C@_0BK@PBKBAFGA@2disconnInfo?$CIint?0QString?$CJ@ 0046e620     tcpserver.obj
 0002:0000263c       ??_C@_0BK@LLIOFIJH@1commandSent?$CIQStringList?$CJ@ 0046e63c     tcpserver.obj
 0002:00002658       ??_C@_0BK@EJNJLFGP@2commandSent?$CIQStringList?$CJ@ 0046e658     tcpserver.obj
 0002:00002674       ??_C@_0BJ@CGEBJCFL@1commandsToSend?$CIQString?$CJ@ 0046e674     tcpserver.obj
 0002:00002690       ??_C@_0BN@BEMCHDNE@2aboutTosendCommand?$CIQString?$CJ@ 0046e690     tcpserver.obj
 0002:000026b0       ??_C@_0DA@JDCIFNPD@1sendCommands?$CIQString?0QStringLi@ 0046e6b0     tcpserver.obj
 0002:000026e0       ??_C@_0DA@NFPKGIJH@2sendCommands?$CIQString?0QStringLi@ 0046e6e0     tcpserver.obj
 0002:00002710       ??_C@_03KDBLNKAE@?301@     0046e710     tcpserver.obj
 0002:00002714       ??_C@_03IIDGIJMH@?302@     0046e714     tcpserver.obj
 0002:00002718       ??_C@_03JBCNLIIG@?303@     0046e718     tcpserver.obj
 0002:0000271c       ??_C@_03NOGMCOEB@?304@     0046e71c     tcpserver.obj
 0002:00002720       ??_C@_05PBJBIFJL@?5SN?3?5@ 0046e720     tcpserver.obj
 0002:00002728       ??_C@_0CA@MDMMLEEG@?h?$KO?$LO?e?$KE?$IH?f?$JG?$KN?e?$LM?$IA?h?$LP?$JO?f?$IO?$KF?0socket?e?$IP?$LH?o?$LM?$JK@ 0046e728     tcpserver.obj
 0002:00002748       ??_C@_0CF@OPNPJBFM@in?5tcpServer?3?5rec?5setAlertSpanJ@ 0046e748     tcpserver.obj
 0002:00002770       ??_C@_04JCOFCNJJ@?0IP?3@   0046e770     tcpserver.obj
 0002:00002778       ??_C@_0BP@DEAEICJG@?h?$KO?$LO?e?$KE?$IH?e?$LH?$LC?h?$LP?$JO?f?$IO?$KF?o?$LM?$IM?e?$LK?$IP?e?$II?$JH?e?$IP?$LH?o?$LM?$JK@ 0046e778     tcpserver.obj
 0002:00002798       ??_C@_05EPCGOCDE@QList@    0046e798     tcpserver.obj
 0002:000027b4       ??_7tcpServerThread@@6B@   0046e7b4     tcpserverthread.obj
 0002:000027e4       ??_C@_0BJ@NEBEOLFG@tcpserver?5thread?5count?3?5@ 0046e7e4     tcpserverthread.obj
 0002:00002800       ??_C@_08KPIGKKMG@send?573?3@ 0046e800     tcpserverthread.obj
 0002:0000280c       ??_C@_08EHOLDBJB@send?5SN?3@ 0046e80c     tcpserverthread.obj
 0002:00002818       ??_C@_07IGOCLENP@alerts?3@ 0046e818     tcpserverthread.obj
 0002:00002820       ??_C@_07JMMMDOKH@1stop?$CI?$CJ@ 0046e820     tcpserverthread.obj
 0002:00002828       ??_C@_0O@CMAFGKIG@2stopSocket?$CI?$CJ@ 0046e828     tcpserverthread.obj
 0002:00002838       ??_C@_0BH@ENNGICAF@1recErrorInfo?$CIQString?$CJ@ 0046e838     tcpserverthread.obj
 0002:00002850       ??_C@_0BD@GJEMIHDM@2dataInfo?$CIQString?$CJ@ 0046e850     tcpserverthread.obj
 0002:00002864       ??_C@_0BP@LODPKFHH@1recvData?$CIQString?0?5QByteArray?$CJ@ 0046e864     tcpserverthread.obj
 0002:00002884       ??_C@_0BO@FJPEDCGN@2revData?$CIQString?0?5QByteArray?$CJ@ 0046e884     tcpserverthread.obj
 0002:000028a4       ??_C@_0BK@MDDCNJLF@1sendMsg?$CIQByteArray?0?5int?$CJ@ 0046e8a4     tcpserverthread.obj
 0002:000028c0       ??_C@_0BK@BBFBNOKP@2sendDat?$CIQByteArray?0?5int?$CJ@ 0046e8c0     tcpserverthread.obj
 0002:000028dc       ??_C@_0BN@EHLBPIBN@1readSN?$CIint?0QString?0QString?$CJ@ 0046e8dc     tcpserverthread.obj
 0002:000028fc       ??_C@_0CH@KKNBNJH@2updateNetParas?$CIQString?0WifiNet@ 0046e8fc     tcpserverthread.obj
 0002:00002924       ??_C@_0CF@GOBFMABG@2updateFsParas?$CIQString?0WifiFsPa@ 0046e924     tcpserverthread.obj
 0002:0000294c       ??_C@_0BL@FFOOLNBB@2updateFsMode?$CIQString?0int?$CJ@ 0046e94c     tcpserverthread.obj
 0002:00002968       ??_C@_0O@JPDOCEMO@1reset30?$CIint?$CJ@ 0046e968     tcpserverthread.obj
 0002:00002978       ??_C@_0O@ODFPABBF@2reset30?$CIint?$CJ@ 0046e978     tcpserverthread.obj
 0002:00002988       ??_C@_0BC@CMDEOCKD@1requireData?$CIint?$CJ@ 0046e988     tcpserverthread.obj
 0002:0000299c       ??_C@_0BD@KOPHAIOF@2readyForRead?$CIint?$CJ@ 0046e99c     tcpserverthread.obj
 0002:000029b0       ??_C@_0BD@PAOAKJIL@2sendOver?$CIQString?$CJ@ 0046e9b0     tcpserverthread.obj
 0002:000029c4       ??_C@_0CJ@OFNBPAGD@2updateAlertRule?$CIQString?0int?0QB@ 0046e9c4     tcpserverthread.obj
 0002:000029f0       ??_C@_0CM@DCLGCBNM@2updateAlertRuleFitness?$CIQString@ 0046e9f0     tcpserverthread.obj
 0002:00002a1c       ??_C@_0O@DHNPKBFM@2noResponse?$CI?$CJ@ 0046ea1c     tcpserverthread.obj
 0002:00002a2c       ??_C@_0BA@IEKCMBLA@1sendFirmData?$CI?$CJ@ 0046ea2c     tcpserverthread.obj
 0002:00002a3c       ??_C@_0BI@NFNDPAFC@2readyForsendFirmware?$CI?$CJ@ 0046ea3c     tcpserverthread.obj
 0002:00002a54       ??_C@_0BA@LABDJJIM@1finishUpdate?$CI?$CJ@ 0046ea54     tcpserverthread.obj
 0002:00002a64       ??_C@_0O@CLJNKDKL@2stopUpdate?$CI?$CJ@ 0046ea64     tcpserverthread.obj
 0002:00002a74       ??_C@_0CC@PGLJEJPP@2updateUpdateResult?$CIQString?0boo@ 0046ea74     tcpserverthread.obj
 0002:00002a98       ??_C@_0BO@KBIMDFDH@2updateComplete?$CIQString?0bool?$CJ@ 0046ea98     tcpserverthread.obj
 0002:00002ab8       ??_C@_0N@JPLNFOGI@stoped?5by?5ui@ 0046eab8     tcpserverthread.obj
 0002:00002ac8       ??_C@_0L@KCBDAPNI@?5fs?5paras?3@ 0046eac8     tcpserverthread.obj
 0002:00002ad4       ??_C@_0L@LJONHHII@alertSpan?3@ 0046ead4     tcpserverthread.obj
 0002:00002ae0       ??_C@_0O@INMMPCEG@into?5sendOver@ 0046eae0     tcpserverthread.obj
 0002:00002af4       ??_7WifiApParas@@6B@       0046eaf4     wifiapparas.obj
 0002:00002b24       ??_7WifiChParas@@6B@       0046eb24     wifichparas.obj
 0002:00002b54       ??_7WifiFsParas@@6B@       0046eb54     wififsparas.obj
 0002:00002b84       ??_7WifiNetParas@@6B@      0046eb84     wifinetparas.obj
 0002:00002bb4       ??_SQDoubleSpinBox@@6BQObject@@@ 0046ebb4     alertchjunyue.obj
 0002:00002c88       ??_SQDoubleSpinBox@@6BQPaintDevice@@@ 0046ec88     alertchjunyue.obj
 0002:00002ca8       ??_7alertChJunyue@@6BQObject@@@ 0046eca8     alertchjunyue.obj
 0002:00002d60       ??_7alertChJunyue@@6BQPaintDevice@@@ 0046ed60     alertchjunyue.obj
 0002:00002d84       ??_SQHBoxLayout@@6BQObject@@@ 0046ed84     alertchjunyue.obj
 0002:00002dcc       ??_SQHBoxLayout@@6BQLayoutItem@@@ 0046edcc     alertchjunyue.obj
 0002:00002e14       ??_SQLabel@@6BQObject@@@   0046ee14     alertchjunyue.obj
 0002:00002ecc       ??_SQLabel@@6BQPaintDevice@@@ 0046eecc     alertchjunyue.obj
 0002:00002ee8       ??_C@_0O@GHMCHPOA@alertChJunyue@ 0046eee8     alertchjunyue.obj
 0002:00002ef8       ??_C@_0BB@LNMDAGHP@horizontalLayout@ 0046eef8     alertchjunyue.obj
 0002:00002f0c       ??_C@_05OJHFALHP@lblCH@    0046ef0c     alertchjunyue.obj
 0002:00002f14       ??_C@_03FJGAPNJI@acc@      0046ef14     alertchjunyue.obj
 0002:00002f18       ??_C@_03BHLLPCMD@vel@      0046ef18     alertchjunyue.obj
 0002:00002f1c       ??_C@_04GKMJMOBJ@disp@     0046ef1c     alertchjunyue.obj
 0002:00002f24       ??_C@_06NNPGPCGL@qiaodu@   0046ef24     alertchjunyue.obj
 0002:00002f2c       ??_C@_07EILCBCEA@envelop@  0046ef2c     alertchjunyue.obj
 0002:00002f34       ??_C@_04KANOLIK@Form@      0046ef34     alertchjunyue.obj
 0002:00002f40       __real@411e848000000000    0046ef40     alertchjunyue.obj
 0002:00002f4c       ??_SQWidget@@6BQObject@@@  0046ef4c     apdialog.obj
 0002:00003004       ??_SQWidget@@6BQPaintDevice@@@ 0046f004     apdialog.obj
 0002:00003024       ??_7apDialog@@6BQObject@@@ 0046f024     apdialog.obj
 0002:000030f0       ??_7apDialog@@6BQPaintDevice@@@ 0046f0f0     apdialog.obj
 0002:00003114       ??_SQSpacerItem@@6B@       0046f114     apdialog.obj
 0002:0000315c       ??_SQVBoxLayout@@6BQObject@@@ 0046f15c     apdialog.obj
 0002:000031a4       ??_SQVBoxLayout@@6BQLayoutItem@@@ 0046f1a4     apdialog.obj
 0002:000031ec       ??_SQGridLayout@@6BQObject@@@ 0046f1ec     apdialog.obj
 0002:00003234       ??_SQGridLayout@@6BQLayoutItem@@@ 0046f234     apdialog.obj
 0002:0000327c       ??_SQLineEdit@@6BQObject@@@ 0046f27c     apdialog.obj
 0002:00003334       ??_SQLineEdit@@6BQPaintDevice@@@ 0046f334     apdialog.obj
 0002:00003354       ??_SQPushButton@@6BQObject@@@ 0046f354     apdialog.obj
 0002:00003418       ??_SQPushButton@@6BQPaintDevice@@@ 0046f418     apdialog.obj
 0002:00003434       ??_C@_08NNJEIHOF@apDialog@ 0046f434     apdialog.obj
 0002:00003440       ??_C@_0P@OKOIOHML@verticalLayout@ 0046f440     apdialog.obj
 0002:00003450       ??_C@_0L@HFKHLBOD@gridLayout@ 0046f450     apdialog.obj
 0002:0000345c       ??_C@_05IDCCNNGI@label@    0046f45c     apdialog.obj
 0002:00003464       ??_C@_06HIKMNLMO@apName@   0046f464     apdialog.obj
 0002:0000346c       ??_C@_07NPNGPBBI@label_2@  0046f46c     apdialog.obj
 0002:00003474       ??_C@_07NJNLGIMB@usrName@  0046f474     apdialog.obj
 0002:0000347c       ??_C@_0L@ECOPBNHN@label_Pass@ 0046f47c     apdialog.obj
 0002:00003488       ??_C@_07MCLHKIP@usrPass@   0046f488     apdialog.obj
 0002:00003490       ??_C@_06KLKLDLLI@widget@   0046f490     apdialog.obj
 0002:00003498       ??_C@_05LEOBGKAB@btnOK@    0046f498     apdialog.obj
 0002:000034a0       ??_C@_09JPMHGMCO@btnCancel@ 0046f4a0     apdialog.obj
 0002:000034ac       ??_C@_0P@JEEDKAFL@AP?e?$IP?$IC?f?$JF?$LA?h?$KO?$LO?g?$LN?$KO@ 0046f4ac     apdialog.obj
 0002:000034bc       ??_C@_09DDDGPKEE@AP?e?$JA?$IN?g?$KH?$LA?3@ 0046f4bc     apdialog.obj
 0002:000034c8       ??_C@_0BI@PNAFLIPG@?h?$KP?$LH?h?$LO?$JD?e?$IF?$KF?f?$JG?$LA?g?$JK?$IEAP?e?$JA?$IN?g?$KH?$LA@ 0046f4c8     apdialog.obj
 0002:000034e0       ??_C@_0L@GFPDKEEP@?g?$JE?$KI?f?$II?$LH?e?$JA?$IN?3@ 0046f4e0     apdialog.obj
 0002:000034ec       ??_C@_0BD@MJNFEKDB@?h?$KP?$LH?h?$LO?$JD?e?$IF?$KF?g?$JE?$KI?f?$II?$LH?e?$JA?$IN@ 0046f4ec     apdialog.obj
 0002:00003500       ??_C@_07DKCGPCNF@?e?$KP?$IG?g?$KA?$IB?3@ 0046f500     apdialog.obj
 0002:00003508       ??_C@_0BA@NLGBPOLM@?h?$KP?$LH?h?$LO?$JD?e?$IF?$KF?e?$KP?$IG?g?$KA?$IB@ 0046f508     apdialog.obj
 0002:00003518       ??_C@_06CKPIFE@?g?$KB?$KO?e?$KO?$JK@ 0046f518     apdialog.obj
 0002:00003520       ??_C@_06EDDGFDIJ@?e?$IP?$JG?f?$LG?$II@ 0046f520     apdialog.obj
 0002:00003528       ??_C@_0N@JLNFPJLA@?e?$KO?$JO?f?$JH?$LG?f?$LD?$KC?e?$LN?$KC@ 0046f528     baseform2.obj
 0002:00003538       ??_C@_0BD@IKOJIIOB@?h?$IH?$KK?e?$IK?$KI?d?$LI?$IK?d?$LM?$KA?f?$LD?$KC?e?$LN?$KC@ 0046f538     baseform2.obj
 0002:0000354c       ??_C@_03MHPPIDFM@fft@      0046f54c     baseform2.obj
 0002:00003550       ??_C@_0N@OENHNLGK@1?13?e?$IA?$IN?i?$KC?$JB?g?$KI?$IL@ 0046f550     baseform2.obj
 0002:00003560       ??_C@_06DGCHCEDB@?h?$LG?$IL?e?$IK?$LP@ 0046f560     baseform2.obj
 0002:00003568       ??_C@_09CFFPELN@?e?$IK?$JP?g?$IO?$IH?h?$LA?$LB@ 0046f568     baseform2.obj
 0002:00003574       ??_C@_0BA@LCPGGDNC@?e?$IK?$JP?g?$IO?$IH?h?$LA?$LB?e?$KP?$IG?e?$LK?$KG@ 0046f574     baseform2.obj
 0002:00003584       ??_C@_06HMCIOPBG@?e?$IM?$IF?g?$LL?$JM@ 0046f584     baseform2.obj
 0002:0000358c       ??_C@_09NPLDJAFJ@?e?$IM?$IF?g?$LL?$JM?h?$LA?$LB@ 0046f58c     baseform2.obj
 0002:0000359c       ??_7baseForm2@@6BQObject@@@ 0046f59c     baseform2.obj
 0002:00003668       ??_7baseForm2@@6BQPaintDevice@@@ 0046f668     baseform2.obj
 0002:00003684       ??_C@_09NHAEEOOK@baseForm2@ 0046f684     baseform2.obj
 0002:00003690       ??_C@_09GMMNPHKA@freshTime@ 0046f690     baseform2.obj
 0002:0000369c       ??_C@_0BA@LILDIOBB@?e?$II?$LH?f?$JG?$LA?f?$KM?$KB?f?$JF?$LA?o?$LM?$JK@ 0046f69c     baseform2.obj
 0002:000036ac       ??_C@_02OHALLCDL@ch@       0046f6ac     baseform2.obj
 0002:000036b4       ??_SQTableWidgetItem@@6B@  0046f6b4     characterform.obj
 0002:000036d4       ??_SQTableWidget@@6BQObject@@@ 0046f6d4     characterform.obj
 0002:00003844       ??_SQTableWidget@@6BQPaintDevice@@@ 0046f844     characterform.obj
 0002:00003864       ??_7characterForm@@6BQObject@@@ 0046f864     characterform.obj
 0002:00003930       ??_7characterForm@@6BQPaintDevice@@@ 0046f930     characterform.obj
 0002:0000394c       ??_C@_0O@EANEIPAJ@characterForm@ 0046f94c     characterform.obj
 0002:0000395c       ??_C@_0M@MDPHOAGE@tableWidget@ 0046f95c     characterform.obj
 0002:00003968       ??_C@_07NANNEIDA@lblTemp@  0046f968     characterform.obj
 0002:00003970       ??_C@_07MGMNMAFJ@label_3@  0046f970     characterform.obj
 0002:00003978       ??_C@_0L@NOBLBOLI@lblBattery@ 0046f978     characterform.obj
 0002:00003984       ??_C@_07KNLOBBJM@lblTime@  0046f984     characterform.obj
 0002:0000398c       ??_C@_09HPDONDLA@?g?$IJ?$LJ?e?$LO?$IB?e?$IA?$LM@ 0046f98c     characterform.obj
 0002:00003998       ??_C@_09LMGPJDIC@?f?$LI?$KJ?e?$LK?$KG?o?$LM?$JK@ 0046f998     characterform.obj
 0002:000039a4       ??_C@_09KPOJJOBN@?g?$JE?$LF?i?$IH?$IP?o?$LM?$JK@ 0046f9a4     characterform.obj
 0002:000039b0       ??_C@_0BA@CMBPPLBB@?f?$JL?$LE?f?$JG?$LA?f?$JH?$LG?i?$JH?$LE?o?$LM?$JK@ 0046f9b0     characterform.obj
 0002:000039c0       ??_C@_0N@GHNMEBJC@?g?$IJ?$LJ?e?$LO?$IB?e?$IA?$LM?o?$LM?$JK@ 0046f9c0     characterform.obj
 0002:000039d0       ??_C@_09EIHKIPMB@?i?$IA?$JK?i?$IB?$JD?e?$JA?$IN@ 0046f9d0     characterform.obj
 0002:000039dc       ??_C@_09JOGDKKJP@?e?$IK?$KA?i?$IA?$JP?e?$LK?$KG@ 0046f9dc     characterform.obj
 0002:000039e8       ??_C@_06GIHILGPP@?i?$IA?$JP?e?$LK?$KG@ 0046f9e8     characterform.obj
 0002:000039f0       ??_C@_06OKPAJDBK@?d?$LN?$IN?g?$KH?$LL@ 0046f9f0     characterform.obj
 0002:000039f8       ??_C@_06PGNHECGO@?e?$LD?$KN?e?$LK?$KG@ 0046f9f8     characterform.obj
 0002:00003a00       ??_C@_07MPLPGEAO@?i?$IA?$JK?i?$IB?$JDX@ 0046fa00     characterform.obj
 0002:00003a08       ??_C@_07NGKEFFEP@?i?$IA?$JK?i?$IB?$JDY@ 0046fa08     characterform.obj
 0002:00003a10       ??_C@_07PNIJAGIM@?i?$IA?$JK?i?$IB?$JDZ@ 0046fa10     characterform.obj
 0002:00003a18       ??_C@_0N@LDPKOAJN@?$DMfont?5color?$DN@ 0046fa18     characterform.obj
 0002:00003a28       ??_C@_04LICMMEPN@red?$DO@  0046fa28     characterform.obj
 0002:00003a30       ??_C@_06IJAKILMA@black?$DO@ 0046fa30     characterform.obj
 0002:00003a38       ??_C@_07HNEBHIML@?$DM?1font?$DO@ 0046fa38     characterform.obj
 0002:00003a40       ??_C@_07JJNHAPIE@AC?5Mode@ 0046fa40     characterform.obj
 0002:00003a48       ??_C@_01FGNFDNOH@?$CF@     0046fa48     characterform.obj
 0002:00003a4c       ??_C@_0M@LEOIDFKC@?5?b?$IE?$ID?$DM?1font?$DO@ 0046fa4c     characterform.obj
 0002:00003a58       __real@3f800000            0046fa58     characterform.obj
 0002:00003a5c       __real@437f0000            0046fa5c     characterform.obj
 0002:00003a64       ??_7chControlAFD@@6BQObject@@@ 0046fa64     chcontrolafd.obj
 0002:00003b1c       ??_7chControlAFD@@6BQPaintDevice@@@ 0046fb1c     chcontrolafd.obj
 0002:00003b3c       ??_SQCheckBox@@6BQObject@@@ 0046fb3c     chcontrolafd.obj
 0002:00003c00       ??_SQCheckBox@@6BQPaintDevice@@@ 0046fc00     chcontrolafd.obj
 0002:00003c24       ??_SQComboBox@@6BQObject@@@ 0046fc24     chcontrolafd.obj
 0002:00003ce4       ??_SQComboBox@@6BQPaintDevice@@@ 0046fce4     chcontrolafd.obj
 0002:00003d00       ??_C@_0N@KDCMFCLO@chControlAFD@ 0046fd00     chcontrolafd.obj
 0002:00003d10       ??_C@_06LGEKBB@chName@     0046fd10     chcontrolafd.obj
 0002:00003d18       ??_C@_08EDGHBAAC@sampFreq@ 0046fd18     chcontrolafd.obj
 0002:00003d24       ??_C@_03BCFDGAHD@sen@      0046fd24     chcontrolafd.obj
 0002:00003d28       ??_C@_0L@GLJKINNO@alertValue@ 0046fd28     chcontrolafd.obj
 0002:00003d34       ??_C@_05CCGOGOBM@range@    0046fd34     chcontrolafd.obj
 0002:00003d3c       ??_C@_05KLANBDFN@useit@    0046fd3c     chcontrolafd.obj
 0002:00003d44       ??_C@_09BHFPINEP@TextLabel@ 0046fd44     chcontrolafd.obj
 0002:00003d50       ??_C@_04MJHCKDHM@1024@     0046fd50     chcontrolafd.obj
 0002:00003d58       ??_C@_05ENLHCFHI@32768@    0046fd58     chcontrolafd.obj
 0002:00003d60       ??_C@_04CGOKOKBC@2048@     0046fd60     chcontrolafd.obj
 0002:00003d68       ??_C@_04DPPBKBGP@4096@     0046fd68     chcontrolafd.obj
 0002:00003d70       ??_C@_04CGNBOOAP@8192@     0046fd70     chcontrolafd.obj
 0002:00003d78       ??_C@_05NMLGNHOC@16384@    0046fd78     chcontrolafd.obj
 0002:00003d80       ??_C@_03PANGFEPN@600@      0046fd80     chcontrolafd.obj
 0002:00003d84       ??_C@_05JEEIGCJP@12800@    0046fd84     chcontrolafd.obj
 0002:00003d8c       ??_C@_05EACDLLBC@25600@    0046fd8c     chcontrolafd.obj
 0002:00003d94       ??_C@_05CHMELKDN@51200@    0046fd94     chcontrolafd.obj
 0002:00003d9c       ??_C@_06LHGOIHJ@?e?$JA?$KP?g?$JE?$KI@ 0046fd9c     chcontrolafd.obj
 0002:00003da8       __real@3ff0000000000000    0046fda8     chcontrolafd.obj
 0002:00003db0       __real@4049000000000000    0046fdb0     chcontrolafd.obj
 0002:00003db8       __real@40f869f000000000    0046fdb8     chcontrolafd.obj
 0002:00003dc0       __real@4202a05f1ff80000    0046fdc0     chcontrolafd.obj
 0002:00003dcc       ??_SQAction@@6B@           0046fdcc     daqinfo.obj
 0002:00003dfc       ??_SQMenu@@6BQObject@@@    0046fdfc     daqinfo.obj
 0002:00003eb4       ??_SQMenu@@6BQPaintDevice@@@ 0046feb4     daqinfo.obj
 0002:00003ed4       ??_SQThread@@6B@           0046fed4     daqinfo.obj
 0002:00003f08       ??_7daqInfo@@6BQObject@@@  0046ff08     daqinfo.obj
 0002:00003fc0       ??_7daqInfo@@6BQPaintDevice@@@ 0046ffc0     daqinfo.obj
 0002:00003fdc       ??_C@_07DOGGNBA@daqInfo@   0046ffdc     daqinfo.obj
 0002:00003fe4       ??_C@_09DNAIEFFD@actionDel@ 0046ffe4     daqinfo.obj
 0002:00003ff0       ??_C@_0O@IECKHEHG@actionSetting@ 0046fff0     daqinfo.obj
 0002:00004000       ??_C@_0BE@NEFDJCNB@actionViewCharacter@ 00470000     daqinfo.obj
 0002:00004014       ??_C@_0P@KAPLALLN@actionViewWave@ 00470014     daqinfo.obj
 0002:00004024       ??_C@_0BF@JJLAALGC@actionUpdateFirmware@ 00470024     daqinfo.obj
 0002:0000403c       ??_C@_0BA@KNMNDNA@actionStartStop@ 0047003c     daqinfo.obj
 0002:0000404c       ??_C@_0BD@JCKDNMOA@actionViewAutoWave@ 0047004c     daqinfo.obj
 0002:00004060       ??_C@_0L@EGKAFPBC@alarmCount@ 00470060     daqinfo.obj
 0002:0000406c       ??_C@_05NCCFOPHA@model@    0047006c     daqinfo.obj
 0002:00004074       ??_C@_07IJIMFGJO@label_4@  00470074     daqinfo.obj
 0002:0000407c       ??_C@_0BA@HOHDHJND@firmWareVersion@ 0047007c     daqinfo.obj
 0002:0000408c       ??_C@_07CFDJBJJC@label_8@  0047008c     daqinfo.obj
 0002:00004094       ??_C@_07LHEPONKL@address@  00470094     daqinfo.obj
 0002:0000409c       ??_C@_0M@FBAFOCA@currentTemp@ 0047009c     daqinfo.obj
 0002:000040a8       ??_C@_07LLLKDEBM@label_6@  004700a8     daqinfo.obj
 0002:000040b0       ??_C@_0L@OJAKNHAD@alertCount@ 004700b0     daqinfo.obj
 0002:000040bc       ??_C@_07JAJHGHNP@label_5@  004700bc     daqinfo.obj
 0002:000040c4       ??_C@_07KCKBAFFN@label_7@  004700c4     daqinfo.obj
 0002:000040cc       ??_C@_02LONEIP@SN@         004700cc     daqinfo.obj
 0002:000040d0       ??_C@_0L@GDKMDJHF@updateTime@ 004700d0     daqinfo.obj
 0002:000040dc       ??_C@_07DMCCCIND@label_9@  004700dc     daqinfo.obj
 0002:000040e4       ??_C@_0P@DLHALGMH@currentBattery@ 004700e4     daqinfo.obj
 0002:000040f4       ??_C@_0N@KAPBAJHI@?e?$II?$KA?i?$JJ?$KE?h?$KO?$LO?e?$KE?$IH@ 004700f4     daqinfo.obj
 0002:00004104       ??_C@_0N@NCKIGFKO@?h?$KO?$LO?g?$LN?$KO?e?$IP?$IC?f?$JF?$LA@ 00470104     daqinfo.obj
 0002:00004114       ??_C@_0BA@DMAECIGN@?f?$JP?$KF?g?$JM?$IL?g?$IJ?$LJ?e?$LO?$IB?e?$IA?$LM@ 00470114     daqinfo.obj
 0002:00004124       ??_C@_0N@NBIHJAAC@?f?$JP?$KF?g?$JM?$IL?f?$LD?$KC?e?$LN?$KC@ 00470124     daqinfo.obj
 0002:00004134       ??_C@_0N@BFLELIIO@?e?$IN?$IH?g?$LK?$KH?e?$JL?$LK?d?$LL?$LG@ 00470134     daqinfo.obj
 0002:00004144       ??_C@_06LHMHKOII@?e?$JA?$KP?e?$IK?$KI@ 00470144     daqinfo.obj
 0002:0000414c       ??_C@_0BJ@EIHPKEEN@?f?$JP?$KF?g?$JM?$IL?h?$IH?$KK?e?$IK?$KI?d?$LI?$IK?d?$LM?$KA?f?$LD?$KC?e?$LN?$KC@ 0047014c     daqinfo.obj
 0002:00004168       ??_C@_0N@IJHMGAEK@temperature?3@ 00470168     daqinfo.obj
 0002:00004178       ??_C@_0M@FKFPHPD@updateTime?3@ 00470178     daqinfo.obj
 0002:00004184       ??_C@_03FIKOPOBM@SN?3@     00470184     daqinfo.obj
 0002:00004188       ??_C@_07DAGCOONM@alarms?3@ 00470188     daqinfo.obj
 0002:00004190       ??_C@_08OGOLGJFH@Address?3@ 00470190     daqinfo.obj
 0002:0000419c       ??_C@_06LKMDLDDG@Model?3@  0047019c     daqinfo.obj
 0002:000041a4       ??_C@_09CMKOLDKI@firmware?3@ 004701a4     daqinfo.obj
 0002:000041b0       ??_C@_08BBNLEEDF@battery?3@ 004701b0     daqinfo.obj
 0002:000041bc       ??_C@_03FEFPNBIE@?b?$IE?$ID@ 004701bc     daqinfo.obj
 0002:000041c0       ??_C@_0P@LKGPEBLF@yyyy?9M?9d?5H?3m?3s@ 004701c0     daqinfo.obj
 0002:000041d0       ??_C@_0L@EPFPMAEB@wifiJunyue@ 004701d0     daqinfo.obj
 0002:000041dc       ??_C@_06EMJEKKOB@?e?$IB?$JM?f?$KN?$KC@ 004701dc     daqinfo.obj
 0002:000041e8       __real@406fe00000000000    004701e8     daqinfo.obj
 0002:000041f0       ??_C@_06FKDAMKFP@DELETE@   004701f0     http_parser.obj
 0002:000041f8       ??_C@_03HAPOJHBM@GET@      004701f8     http_parser.obj
 0002:000041fc       ??_C@_04BINJNOJD@HEAD@     004701fc     http_parser.obj
 0002:00004204       ??_C@_04HCJEIHPL@POST@     00470204     http_parser.obj
 0002:0000420c       ??_C@_03KBBGFLEK@PUT@      0047020c     http_parser.obj
 0002:00004210       ??_C@_07FNNMGOPK@CONNECT@  00470210     http_parser.obj
 0002:00004218       ??_C@_07KDKMIPIP@OPTIONS@  00470218     http_parser.obj
 0002:00004220       ??_C@_05EHILDPJH@TRACE@    00470220     http_parser.obj
 0002:00004228       ??_C@_04OCDMKKLN@COPY@     00470228     http_parser.obj
 0002:00004230       ??_C@_04GPIFAJG@LOCK@      00470230     http_parser.obj
 0002:00004238       ??_C@_05HMHDBDJB@MKCOL@    00470238     http_parser.obj
 0002:00004240       ??_C@_04LPPGDFDD@MOVE@     00470240     http_parser.obj
 0002:00004248       ??_C@_08BNNEMDGO@PROPFIND@ 00470248     http_parser.obj
 0002:00004254       ??_C@_09ENKDFGKI@PROPPATCH@ 00470254     http_parser.obj
 0002:00004260       ??_C@_06GBNAAIDA@SEARCH@   00470260     http_parser.obj
 0002:00004268       ??_C@_06BJAJNFPJ@UNLOCK@   00470268     http_parser.obj
 0002:00004270       ??_C@_04BDODDOLH@BIND@     00470270     http_parser.obj
 0002:00004278       ??_C@_06KDHCHFJF@REBIND@   00470278     http_parser.obj
 0002:00004280       ??_C@_06MBCLLNI@UNBIND@    00470280     http_parser.obj
 0002:00004288       ??_C@_03NDADCMCL@ACL@      00470288     http_parser.obj
 0002:0000428c       ??_C@_06MDMHKGOO@REPORT@   0047028c     http_parser.obj
 0002:00004294       ??_C@_0L@CPELOPEL@MKACTIVITY@ 00470294     http_parser.obj
 0002:000042a0       ??_C@_08MDJKHKOP@CHECKOUT@ 004702a0     http_parser.obj
 0002:000042ac       ??_C@_05PEDHHHPL@MERGE@    004702ac     http_parser.obj
 0002:000042b4       ??_C@_08FHBLFADH@M?9SEARCH@ 004702b4     http_parser.obj
 0002:000042c0       ??_C@_06LMEIPPMP@NOTIFY@   004702c0     http_parser.obj
 0002:000042c8       ??_C@_09NMAFIJHB@SUBSCRIBE@ 004702c8     http_parser.obj
 0002:000042d4       ??_C@_0M@GELMDIJN@UNSUBSCRIBE@ 004702d4     http_parser.obj
 0002:000042e0       ??_C@_05CJDDEJDD@PATCH@    004702e0     http_parser.obj
 0002:000042e8       ??_C@_05CLJPPBDM@PURGE@    004702e8     http_parser.obj
 0002:000042f0       ??_C@_0L@DLIIGOKM@MKCALENDAR@ 004702f0     http_parser.obj
 0002:000042fc       ??_C@_04CLELJMBJ@LINK@     004702fc     http_parser.obj
 0002:00004304       ??_C@_06DELKBJHG@UNLINK@   00470304     http_parser.obj
 0002:00004530       ??_C@_06HCMPIHJG@HPE_OK@   00470530     http_parser.obj
 0002:00004538       ??_C@_07IPNMCAN@success@   00470538     http_parser.obj
 0002:00004540       ??_C@_0BF@IPCPDMDP@HPE_CB_message_begin@ 00470540     http_parser.obj
 0002:00004558       ??_C@_0CF@FIKLBLKE@the?5on_message_begin?5callback?5f@ 00470558     http_parser.obj
 0002:00004580       ??_C@_0L@BGAIMDHB@HPE_CB_url@ 00470580     http_parser.obj
 0002:0000458c       ??_C@_0BL@FHNPBLJD@the?5on_url?5callback?5failed@ 0047058c     http_parser.obj
 0002:000045a8       ??_C@_0BE@EGJFLKIM@HPE_CB_header_field@ 004705a8     http_parser.obj
 0002:000045bc       ??_C@_0CE@NCPJEBFC@the?5on_header_field?5callback?5fa@ 004705bc     http_parser.obj
 0002:000045e0       ??_C@_0BE@CNHBFOC@HPE_CB_header_value@ 004705e0     http_parser.obj
 0002:000045f4       ??_C@_0CE@IEBDPPKH@the?5on_header_value?5callback?5fa@ 004705f4     http_parser.obj
 0002:00004618       ??_C@_0BI@MFDJEDCB@HPE_CB_headers_complete@ 00470618     http_parser.obj
 0002:00004630       ??_C@_0CI@FJODALIB@the?5on_headers_complete?5callbac@ 00470630     http_parser.obj
 0002:00004658       ??_C@_0M@KHEJBOLO@HPE_CB_body@ 00470658     http_parser.obj
 0002:00004664       ??_C@_0BM@OEICKNJO@the?5on_body?5callback?5failed@ 00470664     http_parser.obj
 0002:00004680       ??_C@_0BI@MMENOJCN@HPE_CB_message_complete@ 00470680     http_parser.obj
 0002:00004698       ??_C@_0CI@CLNKFNMM@the?5on_message_complete?5callbac@ 00470698     http_parser.obj
 0002:000046c0       ??_C@_0O@EEFDKLBN@HPE_CB_status@ 004706c0     http_parser.obj
 0002:000046d0       ??_C@_0BO@LICKLEHA@the?5on_status?5callback?5failed@ 004706d0     http_parser.obj
 0002:000046f0       ??_C@_0BE@OMJKMENK@HPE_CB_chunk_header@ 004706f0     http_parser.obj
 0002:00004704       ??_C@_0CE@NNMBJODJ@the?5on_chunk_header?5callback?5fa@ 00470704     http_parser.obj
 0002:00004728       ??_C@_0BG@CAAADNHD@HPE_CB_chunk_complete@ 00470728     http_parser.obj
 0002:00004740       ??_C@_0CG@MFPHODCA@the?5on_chunk_complete?5callback?5@ 00470740     http_parser.obj
 0002:00004768       ??_C@_0BG@GGGHMKAI@HPE_INVALID_EOF_STATE@ 00470768     http_parser.obj
 0002:00004780       ??_C@_0CD@BNLCGJEB@stream?5ended?5at?5an?5unexpected?5t@ 00470780     http_parser.obj
 0002:000047a4       ??_C@_0BE@FMGFKNKB@HPE_HEADER_OVERFLOW@ 004707a4     http_parser.obj
 0002:000047b8       ??_C@_0CO@GGIKFED@too?5many?5header?5bytes?5seen?$DL?5ove@ 004707b8     http_parser.obj
 0002:000047e8       ??_C@_0BG@GCINOCIP@HPE_CLOSED_CONNECTION@ 004707e8     http_parser.obj
 0002:00004800       ??_C@_0DI@CKAHDGDC@data?5received?5after?5completed?5c@ 00470800     http_parser.obj
 0002:00004838       ??_C@_0BE@FFIHLPNJ@HPE_INVALID_VERSION@ 00470838     http_parser.obj
 0002:0000484c       ??_C@_0BF@CFOPGFMA@invalid?5HTTP?5version@ 0047084c     http_parser.obj
 0002:00004864       ??_C@_0BD@MAJDLGBL@HPE_INVALID_STATUS@ 00470864     http_parser.obj
 0002:00004878       ??_C@_0BJ@KBCLEIIE@invalid?5HTTP?5status?5code@ 00470878     http_parser.obj
 0002:00004894       ??_C@_0BD@JJAFNCFD@HPE_INVALID_METHOD@ 00470894     http_parser.obj
 0002:000048a8       ??_C@_0BE@KAEFGEJO@invalid?5HTTP?5method@ 004708a8     http_parser.obj
 0002:000048bc       ??_C@_0BA@DBELOOBJ@HPE_INVALID_URL@ 004708bc     http_parser.obj
 0002:000048cc       ??_C@_0M@IHNFGJMC@invalid?5URL@ 004708cc     http_parser.obj
 0002:000048d8       ??_C@_0BB@JHPEEDEC@HPE_INVALID_HOST@ 004708d8     http_parser.obj
 0002:000048ec       ??_C@_0N@EKHJDEOB@invalid?5host@ 004708ec     http_parser.obj
 0002:000048fc       ??_C@_0BB@MGKGPFDG@HPE_INVALID_PORT@ 004708fc     http_parser.obj
 0002:00004910       ??_C@_0N@BLCLICJF@invalid?5port@ 00470910     http_parser.obj
 0002:00004920       ??_C@_0BB@MEIDKDOK@HPE_INVALID_PATH@ 00470920     http_parser.obj
 0002:00004934       ??_C@_0N@BJAONEEJ@invalid?5path@ 00470934     http_parser.obj
 0002:00004944       ??_C@_0BJ@NLLIIAID@HPE_INVALID_QUERY_STRING@ 00470944     http_parser.obj
 0002:00004960       ??_C@_0BF@PGFEONOK@invalid?5query?5string@ 00470960     http_parser.obj
 0002:00004978       ??_C@_0BF@KPHPIPKG@HPE_INVALID_FRAGMENT@ 00470978     http_parser.obj
 0002:00004990       ??_C@_0BB@BLGKONIP@invalid?5fragment@ 00470990     http_parser.obj
 0002:000049a4       ??_C@_0BA@LPCFBFPI@HPE_LF_EXPECTED@ 004709a4     http_parser.obj
 0002:000049b4       ??_C@_0BG@HEBLPMDJ@LF?5character?5expected@ 004709b4     http_parser.obj
 0002:000049cc       ??_C@_0BJ@IHOEECLA@HPE_INVALID_HEADER_TOKEN@ 004709cc     http_parser.obj
 0002:000049e8       ??_C@_0BM@JNNMENMG@invalid?5character?5in?5header@ 004709e8     http_parser.obj
 0002:00004a04       ??_C@_0BL@OLDOOILG@HPE_INVALID_CONTENT_LENGTH@ 00470a04     http_parser.obj
 0002:00004a20       ??_C@_0CL@NJOOFCA@invalid?5character?5in?5content?9le@ 00470a20     http_parser.obj
 0002:00004a4c       ??_C@_0BO@GDGKAFKO@HPE_UNEXPECTED_CONTENT_LENGTH@ 00470a4c     http_parser.obj
 0002:00004a6c       ??_C@_0CB@GJJNEHCK@unexpected?5content?9length?5heade@ 00470a6c     http_parser.obj
 0002:00004a90       ??_C@_0BH@DNFJEHAE@HPE_INVALID_CHUNK_SIZE@ 00470a90     http_parser.obj
 0002:00004aa8       ??_C@_0CH@KJBEIJMP@invalid?5character?5in?5chunk?5size@ 00470aa8     http_parser.obj
 0002:00004ad0       ??_C@_0BF@IOMLLMND@HPE_INVALID_CONSTANT@ 00470ad0     http_parser.obj
 0002:00004ae8       ??_C@_0BI@FIOFDGGO@invalid?5constant?5string@ 00470ae8     http_parser.obj
 0002:00004b00       ??_C@_0BL@KCFJDMGA@HPE_INVALID_INTERNAL_STATE@ 00470b00     http_parser.obj
 0002:00004b1c       ??_C@_0CG@MCDPPGMC@encountered?5unexpected?5internal@ 00470b1c     http_parser.obj
 0002:00004b44       ??_C@_0L@NEACAOMN@HPE_STRICT@ 00470b44     http_parser.obj
 0002:00004b50       ??_C@_0BN@FGOIJDFH@strict?5mode?5assertion?5failed@ 00470b50     http_parser.obj
 0002:00004b70       ??_C@_0L@HFDKICHA@HPE_PAUSED@ 00470b70     http_parser.obj
 0002:00004b7c       ??_C@_0BB@JFDHKBPI@parser?5is?5paused@ 00470b7c     http_parser.obj
 0002:00004b90       ??_C@_0M@FAFDJKCN@HPE_UNKNOWN@ 00470b90     http_parser.obj
 0002:00004b9c       ??_C@_0BK@FGOEOOHP@an?5unknown?5error?5occurred@ 00470b9c     http_parser.obj
 0002:00004bb8       ??_C@_0L@IJAFCDGM@connection@ 00470bb8     http_parser.obj
 0002:00004bc4       ??_C@_0BB@GDGALMED@proxy?9connection@ 00470bc4     http_parser.obj
 0002:00004bd8       ??_C@_0P@DJOOPABC@content?9length@ 00470bd8     http_parser.obj
 0002:00004be8       ??_C@_0BC@JEMMGIEE@transfer?9encoding@ 00470be8     http_parser.obj
 0002:00004bfc       ??_C@_07NACIIPHM@upgrade@  00470bfc     http_parser.obj
 0002:00004c04       ??_C@_07KCKHAHHI@chunked@  00470c04     http_parser.obj
 0002:00004c0c       ??_C@_0L@FFDPOIEG@keep?9alive@ 00470c0c     http_parser.obj
 0002:00004c18       ??_C@_05LBOHBHFK@close@    00470c18     http_parser.obj
 0002:00004c20       ??_C@_0BM@JDFAKCJE@?1api?1remoteservice_plcalert@ 00470c20     qasynhttpsocket.obj
 0002:00004c3c       ??_C@_0BM@FJNIIAAO@?1api?1remoteservice_plcsetup@ 00470c3c     qasynhttpsocket.obj
 0002:00004c58       ??_C@_08CHOMKDC@api?1lora@ 00470c58     qasynhttpsocket.obj
 0002:00004c64       ??_C@_05LAPONLG@false@     00470c64     qasynhttpsocket.obj
 0002:00004c6c       ??_C@_04LOAJBDKD@true@     00470c6c     qasynhttpsocket.obj
 0002:00004c78       ??_7QAsynHttpSocket@@6B@   00470c78     qasynhttpsocket.obj
 0002:00004d10       ??_C@_05JNKNAC@State@      00470d10     qasynhttpsocket.obj
 0002:00004d18       ??_C@_04KOACHJEN@Type@     00470d18     qasynhttpsocket.obj
 0002:00004d20       ??_C@_0BC@IBBAJFEJ@1doParseRequest?$CI?$CJ@ 00470d20     qasynhttpsocket.obj
 0002:00004d34       ??_C@_0BC@DECAJDGD@1doDisconnected?$CI?$CJ@ 00470d34     qasynhttpsocket.obj
 0002:00004d48       ??_C@_0BA@GKAMIBNA@2disconnected?$CI?$CJ@ 00470d48     qasynhttpsocket.obj
 0002:00004d58       ??_C@_0BM@LCJLBABI@1doUpdateWriteCount?$CIqint64?$CJ@ 00470d58     qasynhttpsocket.obj
 0002:00004d74       ??_C@_0BG@IMKMHMAI@2bytesWritten?$CIqint64?$CJ@ 00470d74     qasynhttpsocket.obj
 0002:00004d8c       ??_C@_0DA@LGEJHEMP@1handleRequest?$CIQHttpRequest?5?$CK?0?5@ 00470d8c     qasynhttpsocket.obj
 0002:00004dbc       ??_C@_0CN@PLHMEFDN@2newRequest?$CIQHttpRequest?5?$CK?0?5QHt@ 00470dbc     qasynhttpsocket.obj
 0002:00004dec       ??_C@_05GGHNHOEK@path?3@   00470dec     qasynhttpsocket.obj
 0002:00004df4       ??_C@_02JFDKPACN@Sn@       00470df4     qasynhttpsocket.obj
 0002:00004df8       ??_C@_0M@HNCDJEJD@AlertValues@ 00470df8     qasynhttpsocket.obj
 0002:00004e04       ??_C@_09KABDMIOB@text?1html@ 00470e04     qasynhttpsocket.obj
 0002:00004e10       ??_C@_0N@LAFFMKKA@Content?9Type@ 00470e10     qasynhttpsocket.obj
 0002:00004e20       ??_C@_0P@HOJGPHBA@Content?9Length@ 00470e20     qasynhttpsocket.obj
 0002:00004e30       ??_C@_0BF@BCJILHHO@http?3?1?1www?4baidu?4com@ 00470e30     qasynhttpsocket.obj
 0002:00004e48       ??_C@_08CBBFJFMD@location@ 00470e48     qasynhttpsocket.obj
 0002:00004e54       ??_C@_0BC@EJNHAAMF@SamplingFrequency@ 00470e54     qasynhttpsocket.obj
 0002:00004e68       ??_C@_0M@ININPOCK@Sensitivity@ 00470e68     qasynhttpsocket.obj
 0002:00004e74       ??_C@_0BF@NPHBKAON@TemperatureDeviation@ 00470e74     qasynhttpsocket.obj
 0002:00004e8c       ??_C@_09CPCFLBE@AlertSpan@ 00470e8c     qasynhttpsocket.obj
 0002:00004e98       ??_C@_08HODLJMFI@00?300?310@ 00470e98     qasynhttpsocket.obj
 0002:00004ea4       ??_C@_0L@FBABAHPH@NormalSpan@ 00470ea4     qasynhttpsocket.obj
 0002:00004eb0       ??_C@_08PBHGPBIM@03?300?300@ 00470eb0     qasynhttpsocket.obj
 0002:00004ebc       ??_C@_0BB@JHJMKOEP@status?5response?3@ 00470ebc     qasynhttpsocket.obj
 0002:00004ed0       ??_C@_02FAMKOJFE@Ip@       00470ed0     qasynhttpsocket.obj
 0002:00004ed4       ??_C@_02NPEGPENL@Ch@       00470ed4     qasynhttpsocket.obj
 0002:00004ed8       ??_C@_0O@BHJDPFAF@FsBottomLimit@ 00470ed8     qasynhttpsocket.obj
 0002:00004ee8       ??_C@_0L@FEEHGNMK@FsTopLimit@ 00470ee8     qasynhttpsocket.obj
 0002:00004ef4       ??_C@_0L@FIFPBHCO@SensorType@ 00470ef4     qasynhttpsocket.obj
 0002:00004f00       ??_C@_09OOJJFHMJ@ChartType@ 00470f00     qasynhttpsocket.obj
 0002:00004f0c       ??_C@_0N@BPGDFIPP@TsTimeLength@ 00470f0c     qasynhttpsocket.obj
 0002:00004f1c       ??_C@_0BA@IPDHDGKH@?h?$KP?$LH?f?$LB?$IC?h?$LG?$IF?f?$JH?$LG?o?$LM?$IB@ 00470f1c     qasynhttpsocket.obj
 0002:00004f2c       ??_C@_04DICKPMGH@Data@     00470f2c     qasynhttpsocket.obj
 0002:00004f34       ??_C@_0BP@NGKHJABA@Error?3?5Not?5valid?5data?5request?$CB@ 00470f34     qasynhttpsocket.obj
 0002:00004f54       ??_C@_0L@HLLELPDH@dealThread@ 00470f54     qasynhttpsocket.obj
 0002:00004f60       ??_C@_07CNNPNLPM@man_num@  00470f60     qasynhttpsocket.obj
 0002:00004f68       ??_C@_0P@IMICPPG@20150601113432@ 00470f68     qasynhttpsocket.obj
 0002:00004f78       ??_C@_04CLCEDBPF@time@     00470f78     qasynhttpsocket.obj
 0002:00004f80       ??_C@_0BC@PBONDLJB@handleRequest?5end@ 00470f80     qasynhttpsocket.obj
 0002:00004f94       ??_C@_0CC@NAFHIKGH@QAsynHttpSocket?3?3?$HOQAsynHttpSock@ 00470f94     qasynhttpsocket.obj
 0002:00004fb8       ??_C@_0CA@OIHAIMNL@QAsynHttpSocket?3?3doDisconnected@ 00470fb8     qasynhttpsocket.obj
 0002:00004fd8       ??_C@_0CO@GMOFBFKF@QAsynHttpSocket?3?3doUpdateWriteC@ 00470fd8     qasynhttpsocket.obj
 0002:00005008       ??_C@_0CH@FEBPPLKM@QHttpConnection?3parseRequest?0Th@ 00471008     qasynhttpsocket.obj
 0002:00005030       ??_C@_05BGAGFDJI@?$CF1?4?$CF2@ 00471030     qasynhttpsocket.obj
 0002:00005038       ??_C@_0BI@IKIIJKKF@QAsynHttpSocket?3?3doBody@ 00471038     qasynhttpsocket.obj
 0002:00005050       __real@bff0000000000000    00471050     qasynhttpsocket.obj
 0002:0000505c       ??_7QAsynTcpServer@@6B@    0047105c     qasyntcpserver.obj
 0002:00005094       ??_C@_0CC@HLMGLFNJ@QAsynTcpServer?3incomingConnecti@ 00471094     qasyntcpserver.obj
 0002:000050bc       ??_7QAsynTcpSocket@@6B@    004710bc     qasyntcpsocket.obj
 0002:00005158       ??_7QHttpRequest@@6B@      00471158     qhttprequest.obj
 0002:00005184       ??_C@_0BC@HNLDCEOJ@http?3?1?1localhost?1@ 00471184     qhttprequest.obj
 0002:00005198       ??_C@_0BM@HMOEOONG@QHttpRequest?3?3?$HOQHttpRequest@ 00471198     qhttprequest.obj
 0002:000051b4       ??_C@_02LMMGGCAJ@?3?5@     004711b4     qhttpresponse.obj
 0002:000051bc       ??_7QHttpResponse@@6B@     004711bc     qhttpresponse.obj
 0002:000051e8       ??_C@_0BD@KFCEFLGM@2allBytesWritten?$CI?$CJ@ 004711e8     qhttpresponse.obj
 0002:000051fc       ??_C@_08LJHDLOLO@Continue@ 004711fc     qhttpresponse.obj
 0002:00005208       ??_C@_0BE@FGMIEJDD@Switching?5Protocols@ 00471208     qhttpresponse.obj
 0002:0000521c       ??_C@_0L@HFFAKEO@Processing@ 0047121c     qhttpresponse.obj
 0002:00005228       ??_C@_02GIPFHKNO@OK@       00471228     qhttpresponse.obj
 0002:0000522c       ??_C@_07BBIDHECN@Created@  0047122c     qhttpresponse.obj
 0002:00005234       ??_C@_08DOBOODLA@Accepted@ 00471234     qhttpresponse.obj
 0002:00005240       ??_C@_0BO@NKBPKPBI@Non?9Authoritative?5Information@ 00471240     qhttpresponse.obj
 0002:00005260       ??_C@_0L@FDPJCNGK@No?5Content@ 00471260     qhttpresponse.obj
 0002:0000526c       ??_C@_0O@BFFLKCLE@Reset?5Content@ 0047126c     qhttpresponse.obj
 0002:0000527c       ??_C@_0BA@NNLNHGMN@Partial?5Content@ 0047127c     qhttpresponse.obj
 0002:0000528c       ??_C@_0N@BFLFIKGM@Multi?9Status@ 0047128c     qhttpresponse.obj
 0002:0000529c       ??_C@_0BB@HLFEHKPE@Multiple?5Choices@ 0047129c     qhttpresponse.obj
 0002:000052b0       ??_C@_0BC@BPBCNFPI@Moved?5Permanently@ 004712b0     qhttpresponse.obj
 0002:000052c4       ??_C@_0BC@LODIMCJL@Moved?5Temporarily@ 004712c4     qhttpresponse.obj
 0002:000052d8       ??_C@_09FAMPMKIP@See?5Other@ 004712d8     qhttpresponse.obj
 0002:000052e4       ??_C@_0N@IFEFAIJB@Not?5Modified@ 004712e4     qhttpresponse.obj
 0002:000052f4       ??_C@_09JFBGBFIM@Use?5Proxy@ 004712f4     qhttpresponse.obj
 0002:00005300       ??_C@_0BD@PJMNAMDM@Temporary?5Redirect@ 00471300     qhttpresponse.obj
 0002:00005314       ??_C@_0M@LNAIDEEG@Bad?5Request@ 00471314     qhttpresponse.obj
 0002:00005320       ??_C@_0N@OOAPMOJA@Unauthorized@ 00471320     qhttpresponse.obj
 0002:00005330       ??_C@_0BB@LMPIHCBH@Payment?5Required@ 00471330     qhttpresponse.obj
 0002:00005344       ??_C@_09LMDIMFJD@Forbidden@ 00471344     qhttpresponse.obj
 0002:00005350       ??_C@_09CFCBFJND@Not?5Found@ 00471350     qhttpresponse.obj
 0002:0000535c       ??_C@_0BD@CCIPIALO@Method?5Not?5Allowed@ 0047135c     qhttpresponse.obj
 0002:00005370       ??_C@_0P@HHIDFAOI@Not?5Acceptable@ 00471370     qhttpresponse.obj
 0002:00005380       ??_C@_0BO@ONPAAOGI@Proxy?5Authentication?5Required@ 00471380     qhttpresponse.obj
 0002:000053a0       ??_C@_0BB@GKNJPEJG@Request?5Time?9out@ 004713a0     qhttpresponse.obj
 0002:000053b4       ??_C@_08OJCIFGDF@Conflict@ 004713b4     qhttpresponse.obj
 0002:000053c0       ??_C@_04OKIIBCCG@Gone@     004713c0     qhttpresponse.obj
 0002:000053c8       ??_C@_0BA@JCKHPIPI@Length?5Required@ 004713c8     qhttpresponse.obj
 0002:000053d8       ??_C@_0BE@BBDBJOM@Precondition?5Failed@ 004713d8     qhttpresponse.obj
 0002:000053ec       ??_C@_0BJ@MMEIEOIG@Request?5Entity?5Too?5Large@ 004713ec     qhttpresponse.obj
 0002:00005408       ??_C@_0BG@PMALKKB@Request?9URI?5Too?5Large@ 00471408     qhttpresponse.obj
 0002:00005420       ??_C@_0BH@HLJJIAEN@Unsupported?5Media?5Type@ 00471420     qhttpresponse.obj
 0002:00005438       ??_C@_0CA@CBAMGINK@Requested?5Range?5Not?5Satisfiable@ 00471438     qhttpresponse.obj
 0002:00005458       ??_C@_0BD@NDMHPAED@Expectation?5Failed@ 00471458     qhttpresponse.obj
 0002:0000546c       ??_C@_0N@NPEBOMFI@I?$CCm?5a?5teapot@ 0047146c     qhttpresponse.obj
 0002:0000547c       ??_C@_0BF@BHJGKCEF@Unprocessable?5Entity@ 0047147c     qhttpresponse.obj
 0002:00005494       ??_C@_06GFKCFIPE@Locked@   00471494     qhttpresponse.obj
 0002:0000549c       ??_C@_0BC@KKPOPIFM@Failed?5Dependency@ 0047149c     qhttpresponse.obj
 0002:000054b0       ??_C@_0BF@JKJGKGEF@Unordered?5Collection@ 004714b0     qhttpresponse.obj
 0002:000054c8       ??_C@_0BB@NMNIKHMI@Upgrade?5Required@ 004714c8     qhttpresponse.obj
 0002:000054dc       ??_C@_0BG@NJGANGCC@Internal?5Server?5Error@ 004714dc     qhttpresponse.obj
 0002:000054f4       ??_C@_0BA@JGKGKAME@Not?5Implemented@ 004714f4     qhttpresponse.obj
 0002:00005504       ??_C@_0M@BNCNLPGM@Bad?5Gateway@ 00471504     qhttpresponse.obj
 0002:00005510       ??_C@_0BE@NGHLFKBN@Service?5Unavailable@ 00471510     qhttpresponse.obj
 0002:00005524       ??_C@_0BB@PHMOGCPC@Gateway?5Time?9out@ 00471524     qhttpresponse.obj
 0002:00005538       ??_C@_0BL@GBBFKFHI@HTTP?5Version?5not?5supported@ 00471538     qhttpresponse.obj
 0002:00005554       ??_C@_0BI@PDOLHBJO@Variant?5Also?5Negotiates@ 00471554     qhttpresponse.obj
 0002:0000556c       ??_C@_0BF@GDOFGFPB@Insufficient?5Storage@ 0047156c     qhttpresponse.obj
 0002:00005584       ??_C@_0BJ@DHMPCKNA@Bandwidth?5Limit?5Exceeded@ 00471584     qhttpresponse.obj
 0002:000055a0       ??_C@_0N@JKOFFNBC@Not?5Extended@ 004715a0     qhttpresponse.obj
 0002:000055b0       ??_C@_0EL@HOHFGBME@QHttpResponse?3?3setHeader?$CI?$CJ?5Cann@ 004715b0     qhttpresponse.obj
 0002:000055fc       ??_C@_02PCIJFNDE@?$AN?6@   004715fc     qhttpresponse.obj
 0002:00005600       ??_C@_0EP@FGLBOIGK@QHttpResponse?3?3writeHeader?$CI?$CJ?5Ca@ 00471600     qhttpresponse.obj
 0002:00005650       ??_C@_04JNIHBGGH@date@     00471650     qhttpresponse.obj
 0002:00005658       ??_C@_0L@PJJKMLL@Connection@ 00471658     qhttpresponse.obj
 0002:00005664       ??_C@_0BC@ELHLFCNH@Transfer?9Encoding@ 00471664     qhttpresponse.obj
 0002:00005678       ??_C@_04FIEKMBKB@?5GMT@    00471678     qhttpresponse.obj
 0002:00005680       ??_C@_0BK@JPODEMDG@ddd?0?5dd?5MMM?5yyyy?5hh?3mm?3ss@ 00471680     qhttpresponse.obj
 0002:0000569c       ??_C@_04FMEGDJGD@Date@     0047169c     qhttpresponse.obj
 0002:000056a8       ??_C@_0EN@BDNBEEHD@QHttpResponse?3?3writeHead?$CI?$CJ?5Cann@ 004716a8     qhttpresponse.obj
 0002:000056f8       ??_C@_0EC@FFBLMGBD@QHttpResponse?3?3writeHead?$CI?$CJ?5Alre@ 004716f8     qhttpresponse.obj
 0002:0000573c       ??_C@_0BB@GBHCONLN@HTTP?11?41?5?$CF1?5?$CF2?$AN?6@ 0047173c     qhttpresponse.obj
 0002:00005750       ??_C@_0EG@FLBNPCCO@QHttpResponse?3?3write?$CI?$CJ?5Cannot?5w@ 00471750     qhttpresponse.obj
 0002:00005798       ??_C@_0EL@LAIDCBDG@QHttpResponse?3?3write?$CI?$CJ?5You?5must@ 00471798     qhttpresponse.obj
 0002:000057e8       ??_C@_0ED@GJINGODK@QHttpResponse?3?3end?$CI?$CJ?5Cannot?5wri@ 004717e8     qhttpresponse.obj
 0002:0000582c       ??_C@_0CA@JPJECMJP@QHttpResponse?3?3connectionClosed@ 0047182c     qhttpresponse.obj
 0002:00005850       ??_7QHttpServer@@6B@       00471850     qhttpserver.obj
 0002:00005888       ??_C@_0EJ@EEIJPDEE@1sockDisConnectSlot?$CIconst?5int?5?0@ 00471888     qhttpserver.obj
 0002:000058d8       ??_C@_0EF@OPIKGHMN@2sockDisConnect?$CIconst?5int?5?0cons@ 004718d8     qhttpserver.obj
 0002:00005920       ??_C@_0EL@BIEOGPP@2getAlertData?$CIQString?0quint8?0qu@ 00471920     qhttpserver.obj
 0002:00005970       ??_C@_0EG@OIJEPHOF@2getData?$CIQString?0quint8?0int?0int@ 00471970     qhttpserver.obj
 0002:000059b8       ??_C@_0CC@PMGKFAEF@2setAlert?$CIQString?0quint8?0quint6@ 004719b8     qhttpserver.obj
 0002:000059dc       ??_C@_0DK@IJMCKNKC@2setChParas?$CIQString?0quint8?0floa@ 004719dc     qhttpserver.obj
 0002:00005a18       ??_C@_0BL@GBFMCINE@2timeOut?$CIConditionPointer?$CJ@ 00471a18     qhttpserver.obj
 0002:00005a34       ??_C@_0BC@BJFHOMHN@2message?$CIQString?$CJ@ 00471a34     qhttpserver.obj
 0002:00005a48       ??_C@_05EGJIMALK@UTF?98@   00471a48     staticfilecontroller.obj
 0002:00005a50       ??_C@_09HFNLPLGF@Thread?$CI0x@ 00471a50     threadhandle.obj
 0002:00005a5c       ??_C@_01PKGAHCOL@?$CJ@     00471a5c     threadhandle.obj
 0002:00005a60       ??_C@_1BK@MGMFAEKH@?$AAk?$AAe?$AAr?$AAn?$AAe?$AAl?$AA3?$AA2?$AA?4?$AAd?$AAl?$AAl@ 00471a60     main.obj
 0002:00005a7c       ??_C@_0BM@EBDAABIF@SetUnhandledExceptionFilter@ 00471a7c     main.obj
 0002:00005a98       ??_C@_09ELOIGFDA@errCode?3?5@ 00471a98     main.obj
 0002:00005aa4       ??_C@_09HLHOOLPM@errAddr?3?5@ 00471aa4     main.obj
 0002:00005ab0       ??_C@_09PNKNHPMC@errFlag?3?5@ 00471ab0     main.obj
 0002:00005abc       ??_C@_09EHBGHHGG@errPara?3?5@ 00471abc     main.obj
 0002:00005ac8       ??_C@_1BE@EJCCJHCK@?$AAc?$AAr?$AAa?$AAs?$AAh?$AA?4?$AAd?$AAm?$AAp@ 00471ac8     main.obj
 0002:00005adc       ??_C@_0BA@GEJHMDAN@hDumpFile?$DN?$DNNULL@ 00471adc     main.obj
 0002:00005aec       ??_C@_0BA@HEHOPGBN@Microsoft?5Yahei@ 00471aec     main.obj
 0002:00005afc       ??_C@_06FNMMJIFN@Debug?3@  00471afc     main.obj
 0002:00005b04       ??_C@_05DIAHDGGP@Info?3@   00471b04     main.obj
 0002:00005b0c       ??_C@_08HNGHFODD@Warning?3@ 00471b0c     main.obj
 0002:00005b18       ??_C@_09HGLJKAIF@Critical?3@ 00471b18     main.obj
 0002:00005b24       ??_C@_06GNEMIGGJ@Fatal?3@  00471b24     main.obj
 0002:00005b2c       ??_C@_0BI@OPAEGIIN@yyyy?9MM?9dd?5hh?3mm?3ss?5ddd@ 00471b2c     main.obj
 0002:00005b44       ??_C@_0BH@KNPDNJPO@DateTime?3?$CF1?5Message?3?$CF2@ 00471b44     main.obj
 0002:00005b5c       ??_C@_07POILLFDI@log?4txt@ 00471b5c     main.obj
 0002:00005b64       ??_C@_0L@ILPNADAC@logold?4txt@ 00471b64     main.obj
 0002:00005b74       ??_SQFrame@@6BQObject@@@   00471b74     maintab.obj
 0002:00005c2c       ??_SQFrame@@6BQPaintDevice@@@ 00471c2c     maintab.obj
 0002:00005c4c       ??_SQTabWidget@@6BQObject@@@ 00471c4c     maintab.obj
 0002:00005d0c       ??_SQTabWidget@@6BQPaintDevice@@@ 00471d0c     maintab.obj
 0002:00005d2c       ??_SQSpinBox@@6BQObject@@@ 00471d2c     maintab.obj
 0002:00005e00       ??_SQSpinBox@@6BQPaintDevice@@@ 00471e00     maintab.obj
 0002:00005e20       ??_7mainTab@@6BQObject@@@  00471e20     maintab.obj
 0002:00005ed8       ??_7mainTab@@6BQPaintDevice@@@ 00471ed8     maintab.obj
 0002:00005ef8       ??_SQButtonGroup@@6B@      00471ef8     maintab.obj
 0002:00005f2c       ??_SQMdiArea@@6BQObject@@@ 00471f2c     maintab.obj
 0002:00005ff4       ??_SQMdiArea@@6BQPaintDevice@@@ 00471ff4     maintab.obj
 0002:00006014       ??_SQScrollArea@@6BQObject@@@ 00472014     maintab.obj
 0002:000060dc       ??_SQScrollArea@@6BQPaintDevice@@@ 004720dc     maintab.obj
 0002:000060f8       ??_C@_07KPLKHFNE@mainTab@  004720f8     maintab.obj
 0002:00006100       ??_C@_0BD@LGCDLEHG@horizontalLayout_7@ 00472100     maintab.obj
 0002:00006114       ??_C@_09DMIEKCOP@tabWidget@ 00472114     maintab.obj
 0002:00006120       ??_C@_0L@IKDKNCOL@tabWelcome@ 00472120     maintab.obj
 0002:0000612c       ??_C@_0L@JEEJIDE@tabDaqView@ 0047212c     maintab.obj
 0002:00006138       ??_C@_0BB@GGBPEGMA@verticalLayout_8@ 00472138     maintab.obj
 0002:0000614c       ??_C@_0L@LLIJDPKF@scrollArea@ 0047214c     maintab.obj
 0002:00006158       ??_C@_0BJ@GIOELLGD@scrollAreaWidgetContents@ 00472158     maintab.obj
 0002:00006174       ??_C@_0L@MDMIKCPE@tabDUTview@ 00472174     maintab.obj
 0002:00006180       ??_C@_0M@HMIBKAFP@tabDataView@ 00472180     maintab.obj
 0002:0000618c       ??_C@_0BB@JMPAKOEK@verticalLayout_2@ 0047218c     maintab.obj
 0002:000061a0       ??_C@_07BHGOOJFL@mdiArea@  004721a0     maintab.obj
 0002:000061a8       ??_C@_0P@CJFAFMPF@tabHistoryData@ 004721a8     maintab.obj
 0002:000061b8       ??_C@_0M@LKDPBELB@tabSettings@ 004721b8     maintab.obj
 0002:000061c4       ??_C@_0BB@MKKKAJMM@verticalLayout_4@ 004721c4     maintab.obj
 0002:000061d8       ??_C@_0BB@IFOLJPAL@verticalLayout_3@ 004721d8     maintab.obj
 0002:000061ec       ??_C@_0O@BNDJPAN@btnGrpSetLeft@ 004721ec     maintab.obj
 0002:000061fc       ??_C@_0N@BGNMOIIN@btnTcpServer@ 004721fc     maintab.obj
 0002:0000620c       ??_C@_0O@JDHKOPKM@btnDutSetting@ 0047220c     maintab.obj
 0002:0000621c       ??_C@_09MKBIPFLC@btnPosMap@ 0047221c     maintab.obj
 0002:00006228       ??_C@_09LLJNNLFM@tabForSet@ 00472228     maintab.obj
 0002:00006234       ??_C@_0L@EOKCHKAE@tabGeneral@ 00472234     maintab.obj
 0002:00006240       ??_C@_0BC@EJNDGOND@verticalLayout_20@ 00472240     maintab.obj
 0002:00006254       ??_C@_0BD@DBLLKILJ@horizontalLayout_8@ 00472254     maintab.obj
 0002:00006268       ??_C@_0BE@HEFIBKOJ@localTcpServerFrame@ 00472268     maintab.obj
 0002:0000627c       ??_C@_0BB@NDLBDIIN@verticalLayout_5@ 0047227c     maintab.obj
 0002:00006290       ??_C@_0BD@MLFEEADD@horizontalLayout_2@ 00472290     maintab.obj
 0002:000062a4       ??_C@_05LJNFHEHL@ipTcp@    004722a4     maintab.obj
 0002:000062ac       ??_C@_0BD@NCEPHBHC@horizontalLayout_3@ 004722ac     maintab.obj
 0002:000062c0       ??_C@_07CAAKPDLF@portTcp@  004722c0     maintab.obj
 0002:000062c8       ??_C@_0BD@IAMCGMNO@autoStartTcpServer@ 004722c8     maintab.obj
 0002:000062dc       ??_C@_0M@OCHCFBKP@btnApplyTcp@ 004722dc     maintab.obj
 0002:000062e8       ??_C@_0BF@HOBFCLPP@localHttpServerFrame@ 004722e8     maintab.obj
 0002:00006300       ??_C@_0BC@DGOCCEMP@verticalLayout_15@ 00472300     maintab.obj
 0002:00006314       ??_C@_0BC@ELJFNAIK@verticalLayout_10@ 00472314     maintab.obj
 0002:00006328       ??_C@_08KKNPADAJ@label_14@ 00472328     maintab.obj
 0002:00006334       ??_C@_0BE@EJDGOODP@horizontalLayout_13@ 00472334     maintab.obj
 0002:00006348       ??_C@_08LDMEDCEI@label_15@ 00472348     maintab.obj
 0002:00006354       ??_C@_0N@BLMGAFKN@ipHttpServer@ 00472354     maintab.obj
 0002:00006364       ??_C@_0BE@GHHHIPI@horizontalLayout_14@ 00472364     maintab.obj
 0002:00006378       ??_C@_08JIOJGBIL@label_16@ 00472378     maintab.obj
 0002:00006384       ??_C@_0P@EPLMIDLN@portHttpServer@ 00472384     maintab.obj
 0002:00006394       ??_C@_0BE@EMEMJHOA@autoStartHttpServer@ 00472394     maintab.obj
 0002:000063a8       ??_C@_0BD@MNCAHNFL@btnApplyHttpServer@ 004723a8     maintab.obj
 0002:000063bc       ??_C@_0BL@DCCFCPNA@remoteWebSocketServerFrame@ 004723bc     maintab.obj
 0002:000063d8       ??_C@_0BC@FAMIFPJC@verticalLayout_21@ 004723d8     maintab.obj
 0002:000063ec       ??_C@_0BC@HLOFAMFB@verticalLayout_22@ 004723ec     maintab.obj
 0002:00006400       ??_C@_08MOLDMGAN@label_10@ 00472400     maintab.obj
 0002:0000640c       ??_C@_0BE@FCGLGBCH@horizontalLayout_22@ 0047240c     maintab.obj
 0002:00006420       ??_C@_08JKKPNPNC@label_26@ 00472420     maintab.obj
 0002:0000642c       ??_C@_0BI@PILFLCIL@ipRemoteWebsocketServer@ 0047242c     maintab.obj
 0002:00006444       ??_C@_0BE@ELHAFAGG@horizontalLayout_23@ 00472444     maintab.obj
 0002:00006458       ??_C@_08IDLEOOJD@label_27@ 00472458     maintab.obj
 0002:00006464       ??_C@_0BD@GFGPJLNK@portRemoteWSserver@ 00472464     maintab.obj
 0002:00006478       ??_C@_0BJ@GEFGNAPG@autoStartRemoteWebSocket@ 00472478     maintab.obj
 0002:00006494       ??_C@_0BI@NJNGNDOB@btnApplyRemoteWebSocket@ 00472494     maintab.obj
 0002:000064ac       ??_C@_0BE@KIGOGLMB@localUdpServerFrame@ 004724ac     maintab.obj
 0002:000064c0       ??_C@_0BC@CPPJBFIO@verticalLayout_14@ 004724c0     maintab.obj
 0002:000064d4       ??_C@_0BB@PIJMGLEO@verticalLayout_6@ 004724d4     maintab.obj
 0002:000064e8       ??_C@_0BD@JNAOOHLF@horizontalLayout_4@ 004724e8     maintab.obj
 0002:000064fc       ??_C@_0M@OJEGACFN@ipUdpServer@ 004724fc     maintab.obj
 0002:00006508       ??_C@_0BD@IEBFNGPE@horizontalLayout_5@ 00472508     maintab.obj
 0002:0000651c       ??_C@_07JNPJICFF@portUdp@  0047251c     maintab.obj
 0002:00006524       ??_C@_0BD@LGBGKCJ@autoStartUdpServer@ 00472524     maintab.obj
 0002:00006538       ??_C@_0O@LPGDBOMK@btnApplyTcp_2@ 00472538     maintab.obj
 0002:00006548       ??_C@_0BE@BPGMEJLJ@horizontalLayout_15@ 00472548     maintab.obj
 0002:0000655c       ??_C@_0BK@LHPKCDGF@localWebSocketServerFrame@ 0047255c     maintab.obj
 0002:00006578       ??_C@_0BC@JKFHGLMD@verticalLayout_19@ 00472578     maintab.obj
 0002:0000658c       ??_C@_0BC@HJKDLCAI@verticalLayout_12@ 0047258c     maintab.obj
 0002:000065a0       ??_C@_08MMPFHIFE@label_20@ 004725a0     maintab.obj
 0002:000065ac       ??_C@_0BE@KKMCDHPE@horizontalLayout_18@ 004725ac     maintab.obj
 0002:000065c0       ??_C@_08NFOOEJBF@label_21@ 004725c0     maintab.obj
 0002:000065cc       ??_C@_0BC@CODMGBOL@ipWebSocketServer@ 004725cc     maintab.obj
 0002:000065e0       ??_C@_0BE@LDNJAGLF@horizontalLayout_19@ 004725e0     maintab.obj
 0002:000065f4       ??_C@_08POMDBKNG@label_22@ 004725f4     maintab.obj
 0002:00006600       ??_C@_0BE@BFPGKFI@portWebSocketServer@ 00472600     maintab.obj
 0002:00006614       ??_C@_0BJ@DDDAMKAM@autoStartWebsocketServer@ 00472614     maintab.obj
 0002:00006630       ??_C@_0BI@DNMOICOO@btnApplyWebSocketServer@ 00472630     maintab.obj
 0002:00006648       ??_C@_0BH@CGCHDCOA@localModbusServerFrame@ 00472648     maintab.obj
 0002:00006660       ??_C@_0BC@IDEMFKIC@verticalLayout_18@ 00472660     maintab.obj
 0002:00006674       ??_C@_0BB@HPAEHHIB@verticalLayout_9@ 00472674     maintab.obj
 0002:00006688       ??_C@_08NHKIPHEM@label_11@ 00472688     maintab.obj
 0002:00006694       ??_C@_0BE@HLAAIMLN@horizontalLayout_11@ 00472694     maintab.obj
 0002:000066a8       ??_C@_08PMIFKEIP@label_12@ 004726a8     maintab.obj
 0002:000066b4       ??_C@_0P@CPMLANPA@ipModbusServer@ 004726b4     maintab.obj
 0002:000066c4       ??_C@_0BE@FACNNPHO@horizontalLayout_12@ 004726c4     maintab.obj
 0002:000066d8       ??_C@_08OFJOJFMO@label_13@ 004726d8     maintab.obj
 0002:000066e4       ??_C@_0BB@GBNCGNMO@portModbusServer@ 004726e4     maintab.obj
 0002:000066f8       ??_C@_0BG@HEBNJJFK@autoStartModbusServer@ 004726f8     maintab.obj
 0002:00006710       ??_C@_0BF@DDPDGECD@btnApplyModbusServer@ 00472710     maintab.obj
 0002:00006728       ??_C@_0BF@FIPFNGHH@remoteTcpServerFrame@ 00472728     maintab.obj
 0002:00006740       ??_C@_0BC@ENEEGEN@verticalLayout_17@ 00472740     maintab.obj
 0002:00006754       ??_C@_0BC@GALIIDEJ@verticalLayout_13@ 00472754     maintab.obj
 0002:00006768       ??_C@_08OHNICLJH@label_23@ 00472768     maintab.obj
 0002:00006774       ??_C@_0BE@GAFNADKF@horizontalLayout_20@ 00472774     maintab.obj
 0002:00006788       ??_C@_08KIJJLNFA@label_24@ 00472788     maintab.obj
 0002:00006794       ??_C@_0BC@GEKFHBKL@ipRemoteTcpServer@ 00472794     maintab.obj
 0002:000067a8       ??_C@_0BE@HJEGDCOE@horizontalLayout_21@ 004727a8     maintab.obj
 0002:000067bc       ??_C@_08LBICIMBB@label_25@ 004727bc     maintab.obj
 0002:000067c8       ??_C@_0BE@ELMGHKBI@portRemoteTcpServer@ 004727c8     maintab.obj
 0002:000067dc       ??_C@_0BD@MPIALHFN@autoStartTcpClient@ 004727dc     maintab.obj
 0002:000067f0       ??_C@_0BC@BNHMMBIJ@btnApplyTcpClient@ 004727f0     maintab.obj
 0002:00006804       ??_C@_0BG@GJIODIHA@remoteHttpServerFrame@ 00472804     maintab.obj
 0002:0000681c       ??_C@_0BC@BNMPHHAM@verticalLayout_16@ 0047281c     maintab.obj
 0002:00006830       ??_C@_0BC@FCIOOBML@verticalLayout_11@ 00472830     maintab.obj
 0002:00006844       ??_C@_08IBPCFAMK@label_17@ 00472844     maintab.obj
 0002:00006850       ??_C@_0BE@DEEBBKHK@horizontalLayout_16@ 00472850     maintab.obj
 0002:00006864       ??_C@_08GGKEMAF@label_18@  00472864     maintab.obj
 0002:00006870       ??_C@_0BD@GMMHHFEO@ipRemoteHttpServer@ 00472870     maintab.obj
 0002:00006884       ??_C@_0BE@CNFKCLDL@horizontalLayout_17@ 00472884     maintab.obj
 0002:00006898       ??_C@_08BPHBHNEE@label_19@ 00472898     maintab.obj
 0002:000068a4       ??_C@_0BF@DOIAPEHD@portRemoteHttpServer@ 004728a4     maintab.obj
 0002:000068bc       ??_C@_0BE@DAOEMGD@autoStartHttpClient@ 004728bc     maintab.obj
 0002:000068d0       ??_C@_0BJ@BMLOHDCC@btnApplyRemoteHttpServer@ 004728d0     maintab.obj
 0002:000068ec       ??_C@_0BB@OBIHFKAP@verticalLayout_7@ 004728ec     maintab.obj
 0002:00006900       ??_C@_0BD@CIKAJJPI@horizontalLayout_9@ 00472900     maintab.obj
 0002:00006914       ??_C@_0N@GEPOHKLD@saveDataPath@ 00472914     maintab.obj
 0002:00006924       ??_C@_0BC@PGLDINJJ@btnChangeLocation@ 00472924     maintab.obj
 0002:00006938       ??_C@_0BE@GCBLLNPM@horizontalLayout_10@ 00472938     maintab.obj
 0002:0000694c       ??_C@_08FKEHMHCB@saveWave@ 0047294c     maintab.obj
 0002:00006958       ??_C@_0O@NOCJAHDN@saveCharacter@ 00472958     maintab.obj
 0002:00006968       ??_C@_0BC@GHGDHCJE@saveOrignalPacket@ 00472968     maintab.obj
 0002:0000697c       ??_C@_0BD@KPDIIFDH@horizontalLayout_6@ 0047297c     maintab.obj
 0002:00006990       ??_C@_0L@GIJLFFPA@pushButton@ 00472990     maintab.obj
 0002:0000699c       ??_C@_0O@GMIEEBEN@tabDUTSetting@ 0047299c     maintab.obj
 0002:000069ac       ??_C@_0BB@GCCGFNGH@tabPosMapSetting@ 004729ac     maintab.obj
 0002:000069c0       ??_C@_06NMGEPFMN@tabSys@   004729c0     maintab.obj
 0002:000069c8       ??_C@_0O@FEMCKONB@tabDataExport@ 004729c8     maintab.obj
 0002:000069d8       ??_C@_07NALDAJPH@tabHelp@  004729d8     maintab.obj
 0002:000069e0       ??_C@_0EJ@LOLOMIBC@?f?$KM?$KC?h?$LP?$IO?i?$KB?$LF?o?$LM?$IM?f?$IP?$JA?d?$LO?$JL?f?$JM?$IA?h?$LP?$JB?d?$LN?$LP?g?$JE?$KI?g@ 004729e0     maintab.obj
 0002:00006a2c       ??_C@_0N@KNBCMHEF@?e?$LI?$LI?h?$KH?$IE?h?$KO?$LO?g?$LN?$KO@ 00472a2c     maintab.obj
 0002:00006a3c       ??_C@_0N@BIFKFNLF@?f?$LF?$IL?g?$IC?$LJ?h?$KO?$LO?g?$LN?$KO@ 00472a3c     maintab.obj
 0002:00006a4c       ??_C@_0N@IKBODDLH@?f?$LF?$IL?g?$IC?$LJ?e?$KP?$LJ?e?$LK?$JE@ 00472a4c     maintab.obj
 0002:00006a5c       ??_C@_0BG@IEEOBPDO@?g?$JE?$KI?d?$LK?$IO?h?$LP?$JO?f?$IO?$KF?d?$LM?$KA?f?$IE?$JP?e?$JJ?$KI@ 00472a5c     maintab.obj
 0002:00006a74       ??_C@_0BA@GJDILKPO@?f?$JM?$KM?e?$JM?$LAtcpServer@ 00472a74     maintab.obj
 0002:00006a84       ??_C@_0M@PCLCMAFI@IP?e?$JM?$LA?e?$JN?$IA?o?$LM?$JK@ 00472a84     maintab.obj
 0002:00006a90       ??_C@_0N@FFNHDPMM@?5?g?$KL?$KP?5?e?$IP?$KD?5?o?$LM?$JK@ 00472a90     maintab.obj
 0002:00006aa0       ??_C@_09NEKNMCMH@?h?$IH?$KK?e?$JA?$KP?e?$IK?$KI@ 00472aa0     maintab.obj
 0002:00006aac       ??_C@_0BD@IFCCEKEP@?g?$JE?$KI?d?$LK?$IO?f?$IO?$KF?f?$JE?$LG?h?$KP?$LH?f?$LB?$IC@ 00472aac     maintab.obj
 0002:00006ac0       ??_C@_0BC@BOIBNAFO@?f?$JM?$KM?e?$JM?$LAhttp?5Server@ 00472ac0     maintab.obj
 0002:00006ad4       ??_C@_0DB@KCCNKJPL@?h?$LP?$JM?g?$KI?$ILwebSocketServer?o?$LM?$IM?g?$JE?$KI?d?$LK?$IO?f@ 00472ad4     maintab.obj
 0002:00006b08       ??_C@_0BA@NIJBKDKJ@?h?$LP?$JM?g?$KI?$ILWS?5Server@ 00472b08     maintab.obj
 0002:00006b18       ??_C@_0BA@OCJLLMAJ@?f?$JM?$KM?e?$JM?$LAudpServer@ 00472b18     maintab.obj
 0002:00006b28       ??_C@_0BH@OPFPDIAJ@?f?$JM?$KM?e?$JM?$LAwebsocket?5Server@ 00472b28     maintab.obj
 0002:00006b40       ??_C@_0BE@NBIKNECM@?f?$JM?$KM?e?$JM?$LAmodbus?5Server@ 00472b40     maintab.obj
 0002:00006b54       ??_C@_0BP@FGGNPFF@?g?$JE?$KI?d?$LK?$IO?d?$LI?$IK?d?$LM?$KA?f?$JF?$LA?f?$IN?$KO?e?$II?$LA?f?$JM?$IN?e?$IK?$KB?e?$JJ?$KI@ 00472b54     maintab.obj
 0002:00006b74       ??_C@_0BA@HOMCIGO@?h?$LP?$JM?g?$KI?$ILtcpServer@ 00472b74     maintab.obj
 0002:00006b84       ??_C@_0CO@LEKFLDDD@?g?$JE?$KI?d?$LK?$IO?d?$LI?$IK?d?$LM?$KA?f?$JF?$LA?f?$IN?$KO?h?$IH?$LDweb?f?$JM?$IN?e?$IK?$KB?e@ 00472b84     maintab.obj
 0002:00006bb4       ??_C@_0BC@HBMBMGPI@?h?$LP?$JM?g?$KI?$ILhttp?5Server@ 00472bb4     maintab.obj
 0002:00006bc8       ??_C@_0N@CMHEOJDL@?e?$KN?$JI?e?$IC?$KI?h?$KO?$LO?g?$LN?$KO@ 00472bc8     maintab.obj
 0002:00006bd8       ??_C@_0BA@BOAEAIGJ@?f?$JG?$IH?d?$LL?$LG?d?$LN?$IN?g?$LN?$KO?o?$LM?$JK@ 00472bd8     maintab.obj
 0002:00006be8       ??_C@_03KHICJKCI@?4?4?4@   00472be8     maintab.obj
 0002:00006bec       ??_C@_0N@GAKPHOCH@?e?$KN?$JI?e?$IC?$KI?f?$LD?$KC?e?$LN?$KC@ 00472bec     maintab.obj
 0002:00006bfc       ??_C@_0BA@PHMKNKEP@?e?$KN?$JI?e?$IC?$KI?g?$IJ?$LJ?e?$LO?$IB?e?$IA?$LM@ 00472bfc     maintab.obj
 0002:00006c0c       ??_C@_0BD@BDCFCFKB@?e?$KN?$JI?e?$IC?$KI?e?$IO?$JP?e?$KH?$IL?f?$IK?$KF?f?$JG?$IH@ 00472c0c     maintab.obj
 0002:00006c20       ??_C@_0N@LIBDPBJA@?d?$LP?$JN?e?$KN?$JI?h?$KO?$LO?g?$LN?$KO@ 00472c20     maintab.obj
 0002:00006c30       ??_C@_07ECEMPDJM@General@  00472c30     maintab.obj
 0002:00006c38       ??_C@_0L@HJEHEKNA@dutSetting@ 00472c38     maintab.obj
 0002:00006c44       ??_C@_0BD@HGJGDJGB@?f?$LF?$IL?g?$IC?$LJ?i?$IA?$JK?i?$IB?$JD?e?$KP?$LJ?e?$LK?$JE@ 00472c44     maintab.obj
 0002:00006c58       ??_C@_06CLKHBOGD@?g?$LD?$LL?g?$LL?$JP@ 00472c58     maintab.obj
 0002:00006c60       ??_C@_0BH@BNHNABFI@1changeSettingTab?$CIint?$CJ@ 00472c60     maintab.obj
 0002:00006c78       ??_C@_0BE@JGHJFAF@2buttonClicked?$CIint?$CJ@ 00472c78     maintab.obj
 0002:00006c8c       ??_C@_03BOJFLAKG@ADD@      00472c8c     maintab.obj
 0002:00006c90       ??_C@_0BA@LOLLACPK@?e?$KC?$JO?e?$IK?$KA?i?$IH?$IH?i?$JL?$IG?e?$JJ?$KI@ 00472c90     maintab.obj
 0002:00006ca0       ??_C@_0O@DJPCLHNO@1testAddDaq?$CI?$CJ@ 00472ca0     maintab.obj
 0002:00006cb0       ??_C@_0L@OELOHDKG@2clicked?$CI?$CJ@ 00472cb0     maintab.obj
 0002:00006cbc       ??_C@_0BH@NBGLEHHJ@?5?e?$LN?$JD?e?$IJ?$IN?h?$KO?$LO?e?$KE?$IH?f?$JF?$LA?i?$IH?$IP?o?$LM?$JK@ 00472cbc     maintab.obj
 0002:00006cd4       ??_C@_0BA@FLMDEDMM@?f?$JG?$LA?e?$KC?$JO?h?$KO?$LO?e?$KE?$IH?o?$LM?$JK@ 00472cd4     maintab.obj
 0002:00006ce4       ??_C@_0BG@CBGKNNBI@?e?$IN?$LD?e?$LA?$IG?e?$II?$KA?i?$JJ?$KE?h?$KO?$LO?e?$KE?$IH?o?$LM?$JK@ 00472ce4     maintab.obj
 0002:00006cfc       ??_C@_0BG@CHPCCKOC@?g?$KB?$KO?h?$KO?$KE?e?$II?$KA?i?$JJ?$KE?f?$KN?$KE?h?$KO?$LO?e?$KE?$IH@ 00472cfc     maintab.obj
 0002:00006d14       ??_C@_05CKMGOEBL@type?3@   00472d14     maintab.obj
 0002:00006d1c       ??_C@_04EDLMILMO@add?3@    00472d1c     maintab.obj
 0002:00006d24       ??_C@_08LMPOEDEP@guid?5is?3@ 00472d24     maintab.obj
 0002:00006d30       ??_C@_0BD@MPICGIEL@?i?$IA?$IJ?f?$IL?$KJ?d?$LP?$JN?e?$KN?$JI?h?$LH?$KP?e?$LO?$IE@ 00472d30     maintab.obj
 0002:00006d44       ??_C@_0L@HLODIJDH@ws?3?1?1?$CF1?3?$CF2@ 00472d44     maintab.obj
 0002:00006d54       ??_SQTextEdit@@6BQObject@@@ 00472d54     mainwindow.obj
 0002:00006e30       ??_SQTextEdit@@6BQPaintDevice@@@ 00472e30     mainwindow.obj
 0002:00006e54       ??_SQTextBrowser@@6BQObject@@@ 00472e54     mainwindow.obj
 0002:00006f44       ??_SQTextBrowser@@6BQPaintDevice@@@ 00472f44     mainwindow.obj
 0002:00006f64       ??_SQSqlTableModel@@6B@    00472f64     mainwindow.obj
 0002:00007058       ??_7CMainWindow@@6BQObject@@@ 00473058     mainwindow.obj
 0002:00007114       ??_7CMainWindow@@6BQPaintDevice@@@ 00473114     mainwindow.obj
 0002:00007134       ??_SQDockWidget@@6BQObject@@@ 00473134     mainwindow.obj
 0002:000071ec       ??_SQDockWidget@@6BQPaintDevice@@@ 004731ec     mainwindow.obj
 0002:0000720c       ??_SQStatusBar@@6BQObject@@@ 0047320c     mainwindow.obj
 0002:000072c4       ??_SQStatusBar@@6BQPaintDevice@@@ 004732c4     mainwindow.obj
 0002:000072e4       ??_SQTreeView@@6BQObject@@@ 004732e4     mainwindow.obj
 0002:0000744c       ??_SQTreeView@@6BQPaintDevice@@@ 0047344c     mainwindow.obj
 0002:00007468       ??_C@_0L@PKBKLDDM@MainWindow@ 00473468     mainwindow.obj
 0002:00007474       ??_C@_0BO@GOJANJF@?3?1icons?1icons?1stupid_logo?4png@ 00473474     mainwindow.obj
 0002:00007494       ??_C@_0N@IHCFAGCA@actionSaveAs@ 00473494     mainwindow.obj
 0002:000074a4       ??_C@_0CI@OMGJIPDP@?3?1icons?1icons?148px?9Document?9sav@ 004734a4     mainwindow.obj
 0002:000074cc       ??_C@_0L@BGOHODBB@actionOpen@ 004734cc     mainwindow.obj
 0002:000074d8       ??_C@_0CF@LMCJFBNI@?3?1icons?1icons?148px?9Document?9ope@ 004734d8     mainwindow.obj
 0002:00007500       ??_C@_0L@KGMGGNIK@actionSave@ 00473500     mainwindow.obj
 0002:0000750c       ??_C@_0CF@HKDNKHJI@?3?1icons?1icons?148px?9Document?9sav@ 0047350c     mainwindow.obj
 0002:00007534       ??_C@_0M@KNJODEHI@actionScale@ 00473534     mainwindow.obj
 0002:00007540       ??_C@_0BI@KMHFBFIH@?3?1icons?1icons?1Scale?4png@ 00473540     mainwindow.obj
 0002:00007558       ??_C@_0BA@NBNBHMNF@actionPolypaint@ 00473558     mainwindow.obj
 0002:00007568       ??_C@_0CB@OPPFLICH@?3?1icons?1icons?148px?9Polypaint?4pn@ 00473568     mainwindow.obj
 0002:0000758c       ??_C@_0P@LNPANEEI@actionSettings@ 0047358c     mainwindow.obj
 0002:0000759c       ??_C@_0CK@PNCDHCDE@?3?1icons?1icons?148px?9Preferences?9@ 0047359c     mainwindow.obj
 0002:000075c8       ??_C@_0M@PBIOOMKL@actionDummy@ 004735c8     mainwindow.obj
 0002:000075d4       ??_C@_0L@PBIJEMPJ@actionRedo@ 004735d4     mainwindow.obj
 0002:000075e0       ??_C@_0CB@PKHDKEIH@?3?1icons?1icons?148px?9Edit?9redo?4pn@ 004735e0     mainwindow.obj
 0002:00007604       ??_C@_0L@JEKIBHOI@actionUndo@ 00473604     mainwindow.obj
 0002:00007610       ??_C@_0CB@MDHINFBI@?3?1icons?1icons?148px?9Edit?9undo?4pn@ 00473610     mainwindow.obj
 0002:00007634       ??_C@_0M@NLLNDCEM@actionClose@ 00473634     mainwindow.obj
 0002:00007640       ??_C@_0BI@JPCDKGHL@?3?1icons?1icons?1close?4png@ 00473640     mainwindow.obj
 0002:00007658       ??_C@_0L@BIJAJMPM@actionHelp@ 00473658     mainwindow.obj
 0002:00007664       ??_C@_0BP@GACPOOOJ@?3?1icons?1icons?1Help?9browser?4png@ 00473664     mainwindow.obj
 0002:00007684       ??_C@_0O@OJPNIIDF@actionDAQmode@ 00473684     mainwindow.obj
 0002:00007694       ??_C@_0N@JIOBBOPD@actionNewDAQ@ 00473694     mainwindow.obj
 0002:000076a4       ??_C@_0CE@JPANDDMG@?3?1icons?1icons?148px?9Document?9new@ 004736a4     mainwindow.obj
 0002:000076c8       ??_C@_0N@POLJOBBK@actionNewDUT@ 004736c8     mainwindow.obj
 0002:000076d8       ??_C@_0CC@KHFKCEGO@?3?1icons?1icons?148px?9AddTexture?4p@ 004736d8     mainwindow.obj
 0002:000076fc       ??_C@_0BH@LBMPKMGL@actionTcpServerSetting@ 004736fc     mainwindow.obj
 0002:00007714       ??_C@_0BH@MLJAJPFN@actionUdpServerSetting@ 00473714     mainwindow.obj
 0002:0000772c       ??_C@_0BN@DCGGKMDL@?3?1icons?1icons?1light_bulb?4png@ 0047372c     mainwindow.obj
 0002:0000774c       ??_C@_0BC@CGEEMPOG@actionSaveSetting@ 0047374c     mainwindow.obj
 0002:00007760       ??_C@_0O@KCJAGLJO@actionDAQview@ 00473760     mainwindow.obj
 0002:00007770       ??_C@_0CH@OEHBBHAC@?3?1icons?1icons?148px?9Image?9x?9gene@ 00473770     mainwindow.obj
 0002:00007798       ??_C@_0O@GBMMECPA@actionDUTview@ 00473798     mainwindow.obj
 0002:000077a8       ??_C@_0P@HLEOGAKG@actionDataView@ 004737a8     mainwindow.obj
 0002:000077b8       ??_C@_0BC@FDGEBMMC@actionHistoryData@ 004737b8     mainwindow.obj
 0002:000077cc       ??_C@_0N@COGDCEEN@actionExport@ 004737cc     mainwindow.obj
 0002:000077dc       ??_C@_0BA@OFBCCGOP@actionAutoScale@ 004737dc     mainwindow.obj
 0002:000077ec       ??_C@_0BE@PFNNGCJD@actionCharacterView@ 004737ec     mainwindow.obj
 0002:00007800       ??_C@_0CK@IAJOGELB@?3?1icons?1icons?148px?9Antialias_Ic@ 00473800     mainwindow.obj
 0002:0000782c       ??_C@_0P@GNGCBHON@actionAutoWave@ 0047382c     mainwindow.obj
 0002:0000783c       ??_C@_0O@HKNJIMPD@centralWidget@ 0047383c     mainwindow.obj
 0002:0000784c       ??_C@_09CILOEDGO@statusBar@ 0047384c     mainwindow.obj
 0002:00007858       ??_C@_08FGFOJKBH@dockMain@ 00473858     mainwindow.obj
 0002:00007864       ??_C@_0BG@IAHNDAFE@dockWidgetContents_14@ 00473864     mainwindow.obj
 0002:0000787c       ??_C@_0BD@DONPPACK@dockAnalysisOption@ 0047387c     mainwindow.obj
 0002:00007890       ??_C@_0BG@JJGGABBF@dockWidgetContents_15@ 00473890     mainwindow.obj
 0002:000078a8       ??_C@_0P@IDJDENPH@dockPlotOption@ 004738a8     mainwindow.obj
 0002:000078b8       ??_C@_0BG@LCELFCNG@dockWidgetContents_16@ 004738b8     mainwindow.obj
 0002:000078d0       ??_C@_0L@DFGJANJ@dockLegend@ 004738d0     mainwindow.obj
 0002:000078dc       ??_C@_0BG@KLFAGDJH@dockWidgetContents_17@ 004738dc     mainwindow.obj
 0002:000078f4       ??_C@_0M@IMGNNBDL@dockStatics@ 004738f4     mainwindow.obj
 0002:00007900       ??_C@_0BG@CMMIHPFI@dockWidgetContents_18@ 00473900     mainwindow.obj
 0002:00007918       ??_C@_0M@GOOCPDM@dockMessage@ 00473918     mainwindow.obj
 0002:00007924       ??_C@_0BB@MPCHNPIJ@messageContainer@ 00473924     mainwindow.obj
 0002:00007938       ??_C@_0P@ICKECKAH@dockChsettings@ 00473938     mainwindow.obj
 0002:00007948       ??_C@_0BF@BCMODIOD@dockWidgetContents_2@ 00473948     mainwindow.obj
 0002:00007960       ??_C@_0M@KANHMMHC@tabLeftMain@ 00473960     mainwindow.obj
 0002:0000796c       ??_C@_06PKDIJHAK@tabDUT@   0047396c     mainwindow.obj
 0002:00007974       ??_C@_0M@EAMKKKJA@dutTreeView@ 00473974     mainwindow.obj
 0002:00007980       ??_C@_06JMGAGIOD@tabDAQ@   00473980     mainwindow.obj
 0002:00007988       ??_C@_0M@LIMMNGJN@daqTreeView@ 00473988     mainwindow.obj
 0002:00007994       ??_C@_0BA@MMFIAEKK@TabToolbar?5Test@ 00473994     mainwindow.obj
 0002:000079a4       ??_C@_07DFGEOHPP@Save?5As@ 004739a4     mainwindow.obj
 0002:000079ac       ??_C@_04DNCDCIAE@Open@     004739ac     mainwindow.obj
 0002:000079b4       ??_C@_04INACKGJP@Save@     004739b4     mainwindow.obj
 0002:000079bc       ??_C@_05MAGIBEFI@Scale@    004739bc     mainwindow.obj
 0002:000079c4       ??_C@_09DIELMONF@Polypaint@ 004739c4     mainwindow.obj
 0002:000079d0       ??_C@_08EEOHOBEO@Settings@ 004739d0     mainwindow.obj
 0002:000079dc       ??_C@_05JLNEMJLN@dummy@    004739dc     mainwindow.obj
 0002:000079e4       ??_C@_04BLIMKIOI@redo@     004739e4     mainwindow.obj
 0002:000079ec       ??_C@_04HOKNPDPJ@undo@     004739ec     mainwindow.obj
 0002:000079f4       ??_C@_04DDFEFHOJ@Help@     004739f4     mainwindow.obj
 0002:000079fc       ??_C@_07EHBHOBKJ@DAQmode@  004739fc     mainwindow.obj
 0002:00007a04       ??_C@_06KDOCMIBL@NewDAQ@   00473a04     mainwindow.obj
 0002:00007a0c       ??_C@_06MFLKDHPC@NewDUT@   00473a0c     mainwindow.obj
 0002:00007a14       ??_C@_0BB@NGAMCPBG@TcpServerSetting@ 00473a14     mainwindow.obj
 0002:00007a28       ??_C@_0BB@KMFDBMCA@UdpServerSetting@ 00473a28     mainwindow.obj
 0002:00007a3c       ??_C@_0M@DCLPENM@SaveSetting@ 00473a3c     mainwindow.obj
 0002:00007a48       ??_C@_07MHKACAC@DAQview@   00473a48     mainwindow.obj
 0002:00007a50       ??_C@_07MPCGCLGM@DUTview@  00473a50     mainwindow.obj
 0002:00007a58       ??_C@_08ICFJFFKA@DataView@ 00473a58     mainwindow.obj
 0002:00007a64       ??_C@_0M@HGALCHPI@HistoryData@ 00473a64     mainwindow.obj
 0002:00007a70       ??_C@_06BFGAPCKF@Export@   00473a70     mainwindow.obj
 0002:00007a78       ??_C@_09EDNFJHDP@autoScale@ 00473a78     mainwindow.obj
 0002:00007a84       ??_C@_0BF@OAGGKJLJ@auto?5Fits?5Data?5Range@ 00473a84     mainwindow.obj
 0002:00007a9c       ??_C@_0O@GBHPHAKB@CharacterView@ 00473a9c     mainwindow.obj
 0002:00007aac       ??_C@_08JEHFCCOL@AutoWave@ 00473aac     mainwindow.obj
 0002:00007ab8       ??_C@_0BF@FHAKBPBH@dockAnalysissettings@ 00473ab8     mainwindow.obj
 0002:00007ad0       ??_C@_0L@EBKJBFOC@plotOption@ 00473ad0     mainwindow.obj
 0002:00007adc       ??_C@_06BCIOHMBM@legend@   00473adc     mainwindow.obj
 0002:00007ae4       ??_C@_07GHHCDPOI@statics@  00473ae4     mainwindow.obj
 0002:00007aec       ??_C@_07ONPBMBOP@message@  00473aec     mainwindow.obj
 0002:00007af4       ??_C@_0L@MCGPPALB@chSettings@ 00473af4     mainwindow.obj
 0002:00007b00       ??_C@_0N@MEKELCKI@?h?$KO?$LO?e?$KE?$IH?e?$II?$JH?h?$KB?$KI@ 00473b00     mainwindow.obj
 0002:00007b10       ??_C@_0BA@JAAJAOOG@?i?$IH?$IH?i?$JL?$IG?e?$JJ?$KI?e?$II?$JH?h?$KB?$KI@ 00473b10     mainwindow.obj
 0002:00007b20       ??_C@_04HKFDNBLD@init@     00473b20     mainwindow.obj
 0002:00007b28       ??_C@_08ELIEPNPM@textEdit@ 00473b28     mainwindow.obj
 0002:00007b34       ??_C@_08FDGKFKIB@checkBox@ 00473b34     mainwindow.obj
 0002:00007b40       ??_C@_0BF@PBOAIEEH@?3?1tt?1tabtoolbar?4json@ 00473b40     mainwindow.obj
 0002:00007b58       ??_C@_0BK@HFLJKGNN@QTextBrowser?$HLborder?30px?$DL?$HN@ 00473b58     mainwindow.obj
 0002:00007b74       ??_C@_0P@NKDKBAPO@192?4168?499?4102@ 00473b74     mainwindow.obj
 0002:00007b84       ??_C@_05GLAHCKBE@?5IP?3?5@ 00473b84     mainwindow.obj
 0002:00007b8c       ??_C@_0BF@IFHGAJAH@?f?$JG?$LA?h?$KO?$LO?e?$KE?$IH?h?$LP?$JO?f?$IO?$KF?0SN?3?5@ 00473b8c     mainwindow.obj
 0002:00007ba4       ??_C@_05KBOMEDGA@total@    00473ba4     mainwindow.obj
 0002:00007bac       ??_C@_07ELBKGEGF@QSQLITE@  00473bac     mainwindow.obj
 0002:00007bb4       ??_C@_08BLFAGDGE@?1conf?4db@ 00473bb4     mainwindow.obj
 0002:00007bc0       ??_C@_0BA@BMKMIIHG@?3?1icons?1conf?4db@ 00473bc0     mainwindow.obj
 0002:00007bd0       ??_C@_0DK@EGBKDLLO@?f?$JH?$KA?f?$LD?$JF?f?$IJ?$JD?e?$LM?$IA?i?$IF?$IN?g?$LN?$KO?f?$JG?$IH?d?$LL?$LG?o?$LM?$IM?h?$KP?$LH?f@ 00473bd0     mainwindow.obj
 0002:00007c0c       ??_C@_05NPAPGJEJ@basic@    00473c0c     mainwindow.obj
 0002:00007c14       ??_C@_0BB@JBNAGKJB@localTcpServerIP@ 00473c14     mainwindow.obj
 0002:00007c28       ??_C@_0BD@BMKDLPAF@localTcpServerPort@ 00473c28     mainwindow.obj
 0002:00007c3c       ??_C@_0BB@CDEODDHN@localUdpServerIP@ 00473c3c     mainwindow.obj
 0002:00007c50       ??_C@_0BD@PMNPFICL@localUdpServerPort@ 00473c50     mainwindow.obj
 0002:00007c64       ??_C@_0BE@BHLOEFBO@localModbusServerIP@ 00473c64     mainwindow.obj
 0002:00007c78       ??_C@_0BG@LGJIALG@localModbusServerPort@ 00473c78     mainwindow.obj
 0002:00007c90       ??_C@_0BD@CACOKDON@remoteHttpServerIP@ 00473c90     mainwindow.obj
 0002:00007ca4       ??_C@_0BF@HNJBECBF@remoteHttpServerPort@ 00473ca4     mainwindow.obj
 0002:00007cbc       ??_C@_0N@OIJIBHGO@saveAutoWave@ 00473cbc     mainwindow.obj
 0002:00007ccc       ??_C@_0BC@MDOJIHGO@localHttpServerIP@ 00473ccc     mainwindow.obj
 0002:00007ce0       ??_C@_0BE@FBDMIOIL@localHttpServerPort@ 00473ce0     mainwindow.obj
 0002:00007cf4       ??_C@_0BC@NBGNOINH@showOrignalPacket@ 00473cf4     mainwindow.obj
 0002:00007d08       ??_C@_0BJ@IAEOIBPJ@autoStartWebSocketServer@ 00473d08     mainwindow.obj
 0002:00007d24       ??_C@_0BH@NAFMEIEL@localWebSocketServerIP@ 00473d24     mainwindow.obj
 0002:00007d3c       ??_C@_0BJ@LCBEJCPI@localWebSocketServerPort@ 00473d3c     mainwindow.obj
 0002:00007d58       ??_C@_0BC@DFPPPLBJ@remoteTcpServerIP@ 00473d58     mainwindow.obj
 0002:00007d6c       ??_C@_0BE@GIPBKKLL@remoteTcpServerPort@ 00473d6c     mainwindow.obj
 0002:00007d80       ??_C@_0BA@GOODEBMH@enableTcpClient@ 00473d80     mainwindow.obj
 0002:00007d90       ??_C@_0BB@BDHFFFMP@enableHttpClient@ 00473d90     mainwindow.obj
 0002:00007da4       ??_C@_0BF@DPMIPKGF@enableLocalTcpServer@ 00473da4     mainwindow.obj
 0002:00007dbc       ??_C@_0BF@LEGLPMJC@enableLocalUdpServer@ 00473dbc     mainwindow.obj
 0002:00007dd4       ??_C@_0BG@BAEAPHHC@enableLocalHttpServer@ 00473dd4     mainwindow.obj
 0002:00007dec       ??_C@_0BL@LMMEKCED@enableLocalWebsocketServer@ 00473dec     mainwindow.obj
 0002:00007e08       ??_C@_0BI@HKNIEMJG@enableLocalModbusServer@ 00473e08     mainwindow.obj
 0002:00007e20       ??_C@_0BI@GADMKEBE@remoteWebsocketServerIP@ 00473e20     mainwindow.obj
 0002:00007e38       ??_C@_0BK@CGILMNFA@remoteWebsocketServerPort@ 00473e38     mainwindow.obj
 0002:00007e54       ??_C@_0BG@CBELBGAI@enableRemoteWebsocket@ 00473e54     mainwindow.obj
 0002:00007e6c       ??_C@_0BP@IMKPMOLJ@autoStartRemoteWebsocketServer@ 00473e6c     mainwindow.obj
 0002:00007ee4       ??_SQRegExpValidator@@6B@  00473ee4     settingwifijunyue.obj
 0002:00007f1c       ??_7settingWifiJunyue@@6BQObject@@@ 00473f1c     settingwifijunyue.obj
 0002:00007fe8       ??_7settingWifiJunyue@@6BQPaintDevice@@@ 00473fe8     settingwifijunyue.obj
 0002:0000800c       ??_SQGroupBox@@6BQObject@@@ 0047400c     settingwifijunyue.obj
 0002:000080c4       ??_SQGroupBox@@6BQPaintDevice@@@ 004740c4     settingwifijunyue.obj
 0002:000080e0       ??_C@_0BC@GMNJKAMO@settingWifiJunyue@ 004740e0     settingwifijunyue.obj
 0002:000080f4       ??_C@_06CEGKLGFM@tabNet@   004740f4     settingwifijunyue.obj
 0002:000080fc       ??_C@_0N@PBNLJLML@lblCurrentAP@ 004740fc     settingwifijunyue.obj
 0002:0000810c       ??_C@_0M@NGLBGFMN@btnChangeAP@ 0047410c     settingwifijunyue.obj
 0002:00008118       ??_C@_0L@OJMAGHND@groupBox_2@ 00474118     settingwifijunyue.obj
 0002:00008124       ??_C@_0N@BGHEJMPN@chkEnableWWW@ 00474124     settingwifijunyue.obj
 0002:00008134       ??_C@_0M@LMFFHBDJ@tcpServerIP@ 00474134     settingwifijunyue.obj
 0002:00008140       ??_C@_0M@MGBABPHF@lblPortName@ 00474140     settingwifijunyue.obj
 0002:0000814c       ??_C@_0O@PABIGNIN@tcpServerPort@ 0047414c     settingwifijunyue.obj
 0002:0000815c       ??_C@_0L@BHNCJGPF@wwwAddress@ 0047415c     settingwifijunyue.obj
 0002:00008168       ??_C@_0BA@GCPAJCKB@btnChangeServer@ 00474168     settingwifijunyue.obj
 0002:00008178       ??_C@_08IFDCDODF@groupBox@ 00474178     settingwifijunyue.obj
 0002:00008184       ??_C@_0O@ENLEAGFO@chkEnableDHCP@ 00474184     settingwifijunyue.obj
 0002:00008194       ??_C@_05HCOPPHG@devIP@     00474194     settingwifijunyue.obj
 0002:0000819c       ??_C@_07DJMOGLLC@devMask@  0047419c     settingwifijunyue.obj
 0002:000081a4       ??_C@_0L@EOPKBOAA@devGateway@ 004741a4     settingwifijunyue.obj
 0002:000081b0       ??_C@_06MIJPFDDK@lblDNS@   004741b0     settingwifijunyue.obj
 0002:000081b8       ??_C@_06MMCFKCMG@devDNS@   004741b8     settingwifijunyue.obj
 0002:000081c0       ??_C@_0M@LNDHFPOC@btnApplyNet@ 004741c0     settingwifijunyue.obj
 0002:000081cc       ??_C@_06DBKJAKKB@tabDaq@   004741cc     settingwifijunyue.obj
 0002:000081d4       ??_C@_0L@PANLFGJC@groupBox_3@ 004741d4     settingwifijunyue.obj
 0002:000081e0       ??_C@_05NKIMFBFD@daqFs@    004741e0     settingwifijunyue.obj
 0002:000081e8       ??_C@_0N@GAECEEHH@sampleReriod@ 004741e8     settingwifijunyue.obj
 0002:000081f8       ??_C@_0L@HOCJKIAN@sampleSpan@ 004741f8     settingwifijunyue.obj
 0002:00008204       ??_C@_0BC@CKHDHHEI@chkEnableAutoWave@ 00474204     settingwifijunyue.obj
 0002:00008218       ??_C@_08KJFLNHGH@label_34@ 00474218     settingwifijunyue.obj
 0002:00008224       ??_C@_0N@IKAEDHBF@autoWaveSpan@ 00474224     settingwifijunyue.obj
 0002:00008234       ??_C@_0BH@FLCEGICB@chkEnableAutoCharacter@ 00474234     settingwifijunyue.obj
 0002:0000824c       ??_C@_07LHLBJAFB@daqMode@  0047424c     settingwifijunyue.obj
 0002:00008254       ??_C@_0M@JGGGPPK@enableHeart@ 00474254     settingwifijunyue.obj
 0002:00008260       ??_C@_09JJFDMLKP@heartSpan@ 00474260     settingwifijunyue.obj
 0002:0000826c       ??_C@_08JLGNLFOF@label_36@ 0047426c     settingwifijunyue.obj
 0002:00008278       ??_C@_08GEADNJPL@IEPEtime@ 00474278     settingwifijunyue.obj
 0002:00008284       ??_C@_08FOOJIGL@label_38@  00474284     settingwifijunyue.obj
 0002:00008290       ??_C@_08OGBKEBKA@label_33@ 00474290     settingwifijunyue.obj
 0002:0000829c       ??_C@_09MEGFIMNG@powerMode@ 0047429c     settingwifijunyue.obj
 0002:000082a8       ??_C@_0M@BCAANANK@scanChannel@ 004742a8     settingwifijunyue.obj
 0002:000082b4       ??_C@_08MMNALFJK@waitTime@ 004742b4     settingwifijunyue.obj
 0002:000082c0       ??_C@_08NBGDDFKH@label_41@ 004742c0     settingwifijunyue.obj
 0002:000082cc       ??_C@_0L@PKPDBAN@tempAdjust@ 004742cc     settingwifijunyue.obj
 0002:000082d8       ??_C@_08PKEOGGGE@label_42@ 004742d8     settingwifijunyue.obj
 0002:000082e4       ??_C@_0BB@CCOCLKOB@groupBox_Factory@ 004742e4     settingwifijunyue.obj
 0002:000082f8       ??_C@_06KFOPHPCN@snEdit@   004742f8     settingwifijunyue.obj
 0002:00008300       ??_C@_0M@BNFCCNAM@btnChangeSN@ 00474300     settingwifijunyue.obj
 0002:0000830c       ??_C@_0L@LEJMOBGG@btnPrepare@ 0047430c     settingwifijunyue.obj
 0002:00008318       ??_C@_08FIINAICG@btnADch1@ 00474318     settingwifijunyue.obj
 0002:00008324       ??_C@_08HDKAFLOF@btnADch2@ 00474324     settingwifijunyue.obj
 0002:00008330       ??_C@_08GKLLGKKE@btnADch3@ 00474330     settingwifijunyue.obj
 0002:0000833c       ??_C@_08CFPKPMGD@btnADch4@ 0047433c     settingwifijunyue.obj
 0002:00008348       ??_C@_08DMOBMNCC@btnADch5@ 00474348     settingwifijunyue.obj
 0002:00008354       ??_C@_08BHMMJOOB@btnADch6@ 00474354     settingwifijunyue.obj
 0002:00008360       ??_C@_08ONHKPKA@btnADch7@  00474360     settingwifijunyue.obj
 0002:0000836c       ??_C@_08IJEPLDGP@btnADch8@ 0047436c     settingwifijunyue.obj
 0002:00008378       ??_C@_0M@FMCLFLPJ@btnTempZero@ 00474378     settingwifijunyue.obj
 0002:00008384       ??_C@_07IMJBFCPN@btnTemp@  00474384     settingwifijunyue.obj
 0002:0000838c       ??_C@_0M@KIPEODBP@btnApplyDaq@ 0047438c     settingwifijunyue.obj
 0002:00008398       ??_C@_05DEALKCMI@tabCh@    00474398     settingwifijunyue.obj
 0002:000083a0       ??_C@_08FIMGMNAE@widget_5@ 004743a0     settingwifijunyue.obj
 0002:000083ac       ??_C@_08ECMPCFM@label_28@  004743ac     settingwifijunyue.obj
 0002:000083b8       ??_C@_08BNDHMDBN@label_29@ 004743b8     settingwifijunyue.obj
 0002:000083c4       ??_C@_08MNDHBCGD@label_30@ 004743c4     settingwifijunyue.obj
 0002:000083d0       ??_C@_08NECMCDCC@label_31@ 004743d0     settingwifijunyue.obj
 0002:000083dc       ??_C@_08PPABHAOB@label_32@ 004743dc     settingwifijunyue.obj
 0002:000083e8       ??_C@_08BMPFKJCK@label_39@ 004743e8     settingwifijunyue.obj
 0002:000083f4       ??_C@_0M@MFIGBPDO@chContainer@ 004743f4     settingwifijunyue.obj
 0002:00008400       ??_C@_0L@GALDKGML@btnApplyCh@ 00474400     settingwifijunyue.obj
 0002:0000840c       ??_C@_08DMMJMABJ@tabAlert@ 0047440c     settingwifijunyue.obj
 0002:00008418       ??_C@_08MIHIAEOG@label_40@ 00474418     settingwifijunyue.obj
 0002:00008424       ??_C@_0BF@JEHNMMBL@widgetAlertContainer@ 00474424     settingwifijunyue.obj
 0002:0000843c       ??_C@_09NKLNFHLJ@tempAlert@ 0047443c     settingwifijunyue.obj
 0002:00008448       ??_C@_0N@JFODHBBK@batteryAlert@ 00474448     settingwifijunyue.obj
 0002:00008458       ??_C@_08LAEAOGCG@label_35@ 00474458     settingwifijunyue.obj
 0002:00008464       ??_C@_09ENKPFIME@alertSpan@ 00474464     settingwifijunyue.obj
 0002:00008470       ??_C@_08ICHGIEKE@label_37@ 00474470     settingwifijunyue.obj
 0002:0000847c       ??_C@_0O@JPFJIAKO@btnApplyAlert@ 0047447c     settingwifijunyue.obj
 0002:0000848c       ??_C@_06EBLJEIEC@Dialog@   0047448c     settingwifijunyue.obj
 0002:00008494       ??_C@_0M@KGKLOOJ@?e?$LN?$JD?e?$IJ?$INAP?o?$LM?$JK@ 00474494     settingwifijunyue.obj
 0002:000084a0       ??_C@_08LJAIBCNI@?f?$JL?$LE?f?$JE?$LJAP@ 004744a0     settingwifijunyue.obj
 0002:000084ac       ??_C@_0BG@CFKKNCHN@TCP?f?$JM?$IN?e?$IK?$KB?e?$JJ?$KI?e?$JM?$LA?e?$JN?$IA?o?$LM?$JK@ 004744ac     settingwifijunyue.obj
 0002:000084c4       ??_C@_0N@PPBHHFPF@?d?$LN?$LP?g?$JE?$KI?e?$JP?$JP?e?$JA?$IN@ 004744c4     settingwifijunyue.obj
 0002:000084d4       ??_C@_07BFLHPLMD@?g?$KL?$KP?e?$IP?$KD?3@ 004744d4     settingwifijunyue.obj
 0002:000084dc       ??_C@_0N@HDDOBLHN@?f?$JL?$LE?f?$JE?$LJserver@ 004744dc     settingwifijunyue.obj
 0002:000084ec       ??_C@_08CBMFNPBP@?h?$KO?$LO?e?$KE?$IHIP@ 004744ec     settingwifijunyue.obj
 0002:000084f8       ??_C@_04CGJOIHE@DHCP@      004744f8     settingwifijunyue.obj
 0002:00008500       ??_C@_0N@DFGNALEA@?5IP?e?$JM?$LA?e?$JN?$IA?o?$LM?$JK@ 00474500     settingwifijunyue.obj
 0002:00008510       ??_C@_0BA@EJBMJHHE@?e?$KN?$JA?g?$LN?$JB?f?$IO?$KJ?g?$KA?$IB?o?$LM?$JK@ 00474510     settingwifijunyue.obj
 0002:00008520       ??_C@_09BCDOFILB@?g?$LN?$JB?e?$IF?$LD?o?$LM?$JK@ 00474520     settingwifijunyue.obj
 0002:0000852c       ??_C@_06FBMAJLGG@DNS?o?$LM?$JK@ 0047452c     settingwifijunyue.obj
 0002:00008534       ??_C@_0BD@FKLMNGID@?d?$LI?$IL?e?$IP?$JB?g?$LN?$JB?g?$LL?$JM?e?$IP?$IC?f?$JF?$LA@ 00474534     settingwifijunyue.obj
 0002:00008548       ??_C@_0N@CPMINJAM@?g?$LN?$JB?g?$LL?$JM?e?$IP?$IC?f?$JF?$LA@ 00474548     settingwifijunyue.obj
 0002:00008558       ??_C@_0N@KFBFKENF@?g?$JE?$KI?f?$II?$LH?e?$IP?$IC?f?$JF?$LA@ 00474558     settingwifijunyue.obj
 0002:00008568       ??_C@_0N@LJOEHPPC@?i?$IH?$IH?f?$KA?$LH?g?$IO?$IH?o?$LM?$JK@ 00474568     settingwifijunyue.obj
 0002:00008578       ??_C@_02KLOHGLOJ@Hz@       00474578     settingwifijunyue.obj
 0002:0000857c       ??_C@_0BA@HNHIDCCH@?i?$IH?$IH?f?$KA?$LH?e?$JB?$KI?f?$JM?$JP?o?$LM?$JK@ 0047457c     settingwifijunyue.obj
 0002:0000858c       ??_C@_01LKDEMHDF@s@        0047458c     settingwifijunyue.obj
 0002:00008590       ??_C@_0BA@GIILCNKC@?i?$IH?$IH?f?$KA?$LH?i?$JH?$LE?i?$JK?$JE?o?$LM?$JK@ 00474590     settingwifijunyue.obj
 0002:000085a0       ??_C@_0BD@LCDOBHNO@?h?$IH?$KK?e?$IK?$KI?e?$IP?$JB?i?$IA?$IB?f?$LD?$KC?e?$LN?$KC@ 004745a0     settingwifijunyue.obj
 0002:000085b4       ??_C@_0BG@NFPCLPMF@?f?$LD?$KC?e?$LN?$KC?e?$IP?$JB?i?$IA?$IB?i?$JH?$LE?i?$JK?$JE?o?$LM?$JK@ 004745b4     settingwifijunyue.obj
 0002:000085cc       ??_C@_0BG@HOOIOBPO@?h?$IH?$KK?e?$IK?$KI?e?$IP?$JB?i?$IA?$IB?g?$IJ?$LJ?e?$LO?$IB?e?$IA?$LM@ 004745cc     settingwifijunyue.obj
 0002:000085e4       ??_C@_0BA@ENOPPDAJ@?e?$LH?$KF?d?$LN?$JM?f?$KI?$KB?e?$LM?$IP?o?$LM?$JK@ 004745e4     settingwifijunyue.obj
 0002:000085f4       ??_C@_0BG@DOLIPNCI@?f?$JH?$LG?e?$JP?$JP?g?$IJ?$LJ?e?$LO?$IB?e?$IA?$LM?f?$KI?$KB?e?$LM?$IP@ 004745f4     settingwifijunyue.obj
 0002:0000860c       ??_C@_0N@CKEPCPEP@?f?$JH?$LG?e?$JP?$JP?f?$KI?$KB?e?$LM?$IP@ 0047460c     settingwifijunyue.obj
 0002:0000861c       ??_C@_09LKLDODKN@FFT?f?$KI?$KB?e?$LM?$IP@ 0047461c     settingwifijunyue.obj
 0002:00008628       ??_C@_0BG@EIJFKDOB@?i?$KC?$JB?e?$JP?$JP?g?$IJ?$LJ?e?$LO?$IB?e?$IA?$LM?f?$KI?$KB?e?$LM?$IP@ 00474628     settingwifijunyue.obj
 0002:00008640       ??_C@_0N@MDEMLEAG@?g?$KJ?$LK?i?$JH?$LC?f?$KI?$KB?e?$LM?$IP@ 00474640     settingwifijunyue.obj
 0002:00008650       ??_C@_0N@NOPHNCPP@?d?$LN?$LP?h?$ID?$LN?e?$LP?$ID?h?$LH?$LD@ 00474650     settingwifijunyue.obj
 0002:00008660       ??_C@_0BA@PCGHHIOD@?e?$LP?$ID?h?$LH?$LD?e?$JB?$KI?f?$JM?$JP?o?$LM?$JK@ 00474660     settingwifijunyue.obj
 0002:00008670       ??_C@_0BE@JBNCKJCH@IEPE?g?$KI?$LD?e?$KO?$JK?f?$JH?$LG?i?$JH?$LE?o?$LM?$JK@ 00474670     settingwifijunyue.obj
 0002:00008684       ??_C@_0BA@DHLKLHKO@?e?$IK?$JP?h?$IA?$JH?f?$KI?$KB?e?$LM?$IP?o?$LM?$JK@ 00474684     settingwifijunyue.obj
 0002:00008694       ??_C@_0N@BONDBNIG@?f?$KN?$KD?e?$LI?$LI?f?$KI?$KB?e?$LM?$IP@ 00474694     settingwifijunyue.obj
 0002:000086a4       ??_C@_0BA@MJAFLLED@?d?$LN?$IO?e?$IK?$JP?h?$IA?$JH?f?$KI?$KB?e?$LM?$IP@ 004746a4     settingwifijunyue.obj
 0002:000086b4       ??_C@_0BA@OLODCEFM@?f?$IJ?$KL?f?$IP?$IP?i?$IA?$JK?i?$IB?$JD?o?$LM?$JK@ 004746b4     settingwifijunyue.obj
 0002:000086c4       ??_C@_0BA@IKMMANNK@?g?$KN?$IJ?e?$LO?$IF?f?$JH?$LG?i?$JH?$LE?o?$LM?$JK@ 004746c4     settingwifijunyue.obj
 0002:000086d4       ??_C@_0BD@GJNEHJAN@?f?$LI?$KJ?e?$LK?$KG?f?$KA?$KB?e?$IH?$IG?e?$IA?$LM?o?$LM?$JK@ 004746d4     settingwifijunyue.obj
 0002:000086e8       ??_C@_0N@BNFFMMAI@?e?$IH?$LK?e?$IO?$IC?e?$IP?$IC?f?$JF?$LA@ 004746e8     settingwifijunyue.obj
 0002:000086f8       ??_C@_05OKBCPGKH@SN?o?$LM?$JK@ 004746f8     settingwifijunyue.obj
 0002:00008700       ??_C@_0BC@KGIGKDEC@?h?$KP?$LH?h?$LO?$JD?e?$IF?$KF?f?$JG?$LA?g?$JK?$IESN@ 00474700     settingwifijunyue.obj
 0002:00008714       ??_C@_08HCOLFKBJ@?f?$JL?$LE?f?$JE?$LJSN@ 00474714     settingwifijunyue.obj
 0002:00008720       ??_C@_0N@KFGCKCKF@?e?$IH?$IG?e?$KE?$IH?f?$KA?$KB?e?$IH?$IG@ 00474720     settingwifijunyue.obj
 0002:00008730       ??_C@_09PJDEELLK@?f?$KA?$KB?e?$IH?$IGCH1@ 00474730     settingwifijunyue.obj
 0002:0000873c       ??_C@_09NCBJBIHJ@?f?$KA?$KB?e?$IH?$IGCH2@ 0047473c     settingwifijunyue.obj
 0002:00008748       ??_C@_09MLACCJDI@?f?$KA?$KB?e?$IH?$IGCH3@ 00474748     settingwifijunyue.obj
 0002:00008754       ??_C@_09IEEDLPPP@?f?$KA?$KB?e?$IH?$IGCH4@ 00474754     settingwifijunyue.obj
 0002:00008760       ??_C@_09JNFIIOLO@?f?$KA?$KB?e?$IH?$IGCH5@ 00474760     settingwifijunyue.obj
 0002:0000876c       ??_C@_09LGHFNNHN@?f?$KA?$KB?e?$IH?$IGCH6@ 0047476c     settingwifijunyue.obj
 0002:00008778       ??_C@_09KPGOOMDM@?f?$KA?$KB?e?$IH?$IGCH7@ 00474778     settingwifijunyue.obj
 0002:00008784       ??_C@_09CIPGPAPD@?f?$KA?$KB?e?$IH?$IGCH8@ 00474784     settingwifijunyue.obj
 0002:00008790       ??_C@_0BD@LBJNMAAJ@?f?$LI?$KJ?e?$LK?$KG?i?$JL?$LG?g?$IC?$LJ?f?$KA?$KB?e?$IH?$IG@ 00474790     settingwifijunyue.obj
 0002:000087a4       ??_C@_0BD@JFNJLLEB@?f?$LI?$KJ?e?$LK?$KG?e?$KC?$JO?g?$JL?$IK?f?$KA?$KB?e?$IH?$IG@ 004747a4     settingwifijunyue.obj
 0002:000087b8       ??_C@_0BG@FODDHBKI@?d?$LI?$IL?e?$IP?$JB?i?$IH?$IH?i?$JL?$IG?e?$JJ?$KI?e?$IP?$IC?f?$JF?$LA@ 004747b8     settingwifijunyue.obj
 0002:000087d0       ??_C@_0BA@GEKKIEIK@?i?$IH?$IH?i?$JL?$IG?e?$JJ?$KI?e?$IP?$IC?f?$JF?$LA@ 004747d0     settingwifijunyue.obj
 0002:000087e0       ??_C@_06GAEBEOPA@?i?$IA?$JK?i?$IB?$JD@ 004747e0     settingwifijunyue.obj
 0002:000087e8       ??_C@_0M@NDOGLKAB@?i?$IH?$IH?f?$KA?$LH?g?$IO?$IHHz@ 004747e8     settingwifijunyue.obj
 0002:000087f4       ??_C@_09OJCLKPHD@?g?$IB?$LF?f?$JF?$IP?e?$LK?$KG@ 004747f4     settingwifijunyue.obj
 0002:00008800       ??_C@_09HFABAOCH@?f?$IK?$KF?h?$KN?$KG?i?$JJ?$JA@ 00474800     settingwifijunyue.obj
 0002:0000880c       ??_C@_06IABMPELP@?i?$IH?$IP?g?$KI?$IL@ 0047480c     settingwifijunyue.obj
 0002:00008814       ??_C@_0M@JPBHMBAO@?e?$JA?$KP?g?$JE?$KI?5?5?5?5?5@ 00474814     settingwifijunyue.obj
 0002:00008820       ??_C@_0BD@HFALACMO@?d?$LI?$IL?e?$IP?$JB?i?$IA?$JK?i?$IB?$JD?e?$IP?$IC?f?$JF?$LA@ 00474820     settingwifijunyue.obj
 0002:00008834       ??_C@_0N@HPANEB@?i?$IA?$JK?i?$IB?$JD?e?$IP?$IC?f?$JF?$LA@ 00474834     settingwifijunyue.obj
 0002:00008844       ??_C@_0N@NDGJGLPD@?5?5?5?5?5?5?f?$LI?$KJ?e?$LK?$KG@ 00474844     settingwifijunyue.obj
 0002:00008854       ??_C@_06JFCOMBK@?g?$JE?$LF?i?$IH?$IP@ 00474854     settingwifijunyue.obj
 0002:0000885c       ??_C@_0BM@PMEBCAL@?f?$IK?$KF?h?$KN?$KG?f?$LD?$KC?e?$LN?$KC?e?$IP?$JB?i?$IA?$IB?i?$JH?$LE?i?$JK?$JE?o?$LM?$JK@ 0047485c     settingwifijunyue.obj
 0002:00008878       ??_C@_0BD@EFPEMHNA@?d?$LI?$IL?e?$IP?$JB?f?$IK?$KF?h?$KN?$KG?e?$IP?$IC?f?$JF?$LA@ 00474878     settingwifijunyue.obj
 0002:0000888c       ??_C@_0N@DAIAMIFP@?f?$IK?$KF?h?$KN?$KG?e?$IP?$IC?f?$JF?$LA@ 0047488c     settingwifijunyue.obj
 0002:0000889c       ??_C@_0BO@EDANLIKP@1changeAPinside?$CIWifiApParas?$CK?$CJ@ 0047489c     settingwifijunyue.obj
 0002:000088bc       ??_C@_0BI@HFNNFDL@2changeAP?$CIWifiApParas?$CK?$CJ@ 004748bc     settingwifijunyue.obj
 0002:000088d4       ??_C@_07NBGGDJJD@?$FL0?99?$FN?$CL$@ 004748d4     settingwifijunyue.obj
 0002:000088dc       ??_C@_0BC@IKACNMMJ@1enabledFac?$CIbool?$CJ@ 004748dc     settingwifijunyue.obj
 0002:000088f0       ??_C@_0BB@CGDKPOPA@2triggered?$CIbool?$CJ@ 004748f0     settingwifijunyue.obj
 0002:00008904       ??_C@_07HLJMGDHJ@?h?$KO?$LO?g?$LN?$KO?9@ 00474904     settingwifijunyue.obj
 0002:0000890c       ??_C@_0N@KAHFCLKK@?f?$IM?$KP?e?$IK?$KI?i?$IA?$JK?i?$IB?$JD@ 0047490c     settingwifijunyue.obj
 0002:0000891c       ??_C@_0N@GEFEDOHC@?f?$LI?$KJ?e?$LK?$KG?i?$IA?$JK?i?$IB?$JD@ 0047491c     settingwifijunyue.obj
 0002:0000892c       ??_C@_0BH@FFDKKPEJ@SN?i?$JF?$LP?e?$LK?$KG?e?$LP?$IF?i?$KB?$LL?d?$LI?$LK16?o?$LM?$IB@ 0047492c     settingwifijunyue.obj
 0002:00008944       ??_C@_0P@MPNIOLHM@SN?f?$KA?$LM?e?$LM?$IP?i?$JE?$JJ?h?$KP?$KP@ 00474944     settingwifijunyue.obj
 0002:00008958       __real@4024000000000000    00474958     settingwifijunyue.obj
 0002:00008960       __real@40e86a0000000000    00474960     settingwifijunyue.obj
 0002:00008968       __real@416312d000000000    00474968     settingwifijunyue.obj
 0002:00008970       __real@c16312d000000000    00474970     settingwifijunyue.obj
 0002:00008978       ??_C@_01MMEEDKFM@X@        00474978     tcpclient.obj
 0002:0000897c       ??_C@_01NFFPALBN@Y@        0047497c     tcpclient.obj
 0002:00008980       ??_C@_01POHCFINO@Z@        00474980     tcpclient.obj
 0002:00008988       ??_7tcpClient@@6B@         00474988     tcpclient.obj
 0002:000089b4       ??_C@_0L@LAPNHMFE@CreateTime@ 004749b4     tcpclient.obj
 0002:000089c0       ??_C@_06KLBDMJOP@Values@   004749c0     tcpclient.obj
 0002:000089c8       ??_C@_04GPMDFGEJ@type@     004749c8     tcpclient.obj
 0002:000089d0       ??_C@_05BJKDBEGO@myObj@    004749d0     tcpclient.obj
 0002:000089d8       ??_C@_01GBGANLPD@0@        004749d8     tcpclient.obj
 0002:000089dc       ??_C@_05LPIJGKJ@Value@     004749dc     tcpclient.obj
 0002:000089e4       ??_C@_08BFOPGFLN@DateTime@ 004749e4     tcpclient.obj
 0002:000089f0       ??_C@_0BN@JPAPCPBM@tcp?5not?5connected?0data?5abort@ 004749f0     tcpclient.obj
 0002:00008a10       ??_C@_0BE@HAPPMMON@yyyy?9MM?9dd?5HH?3mm?3ss@ 00474a10     tcpclient.obj
 0002:00008a24       ??_C@_04BLOJIGAO@m?1s2@    00474a24     tcpclient.obj
 0002:00008a2c       ??_C@_06CGMNKLGA@Symbol@   00474a2c     tcpclient.obj
 0002:00008a34       ??_C@_06CPODCDOI@Signal@   00474a34     tcpclient.obj
 0002:00008a40       __xmm@4058c00000000000c049000000000000 00474a40     tcpclient.obj
 0002:00008a50       ??_C@_0BN@GAIPNHLC@QAbstractSocket?3?3SocketState@ 00474a50     wsclient.obj
 0002:00008a74       ??_SQWebSocket@@6B@        00474a74     wsclient.obj
 0002:00008aa4       ??_7wsClient@@6B@          00474aa4     wsclient.obj
 0002:00008ad0       ??_C@_03KCHOJKKI@set@      00474ad0     wsclient.obj
 0002:00008ad4       ??_C@_0BG@JOMMDIJN@rec?5alertSetting?4?5SN?3@ 00474ad4     wsclient.obj
 0002:00008aec       ??_C@_0P@IAGBDCMJ@rec?5paras?4?5SN?3@ 00474aec     wsclient.obj
 0002:0002d188       ??_C@_07HPCADMJF@QVector@  00499188     moc_customplot.obj
 0002:0002e8f0       ??_7netParas@@6B@          0049a8f0     moc_daqinfo.obj
 0002:0002fc68       ?staticMetaObject@QHttpServer@@2UQMetaObject@@B 0049bc68     moc_qhttpserver.obj
 0002:0003031c       ?staticMetaObject@StaticFileController@@2UQMetaObject@@B 0049c31c     moc_staticfilecontroller.obj
 0002:000349b0       ??_7type_info@@6B@         004a09b0     MSVCRT:std_type_info_static.obj
 0002:000349b8       ??_C@_1EC@JIJBPKFM@?$AAa?$AAp?$AAi?$AA?9?$AAm?$AAs?$AA?9?$AAw?$AAi?$AAn?$AA?9?$AAc?$AAo?$AAr?$AAe@ 004a09b8     MSVCRT:thread_safe_statics.obj
 0002:000349fc       ??_C@_0BJ@JEBJOJFJ@SleepConditionVariableCS@ 004a09fc     MSVCRT:thread_safe_statics.obj
 0002:00034a18       ??_C@_0BJ@PGPPEPCC@WakeAllConditionVariable@ 004a0a18     MSVCRT:thread_safe_statics.obj
 0002:00034a5c       ??_7exception@std@@6B@     004a0a5c     MSVCRT:throw_bad_alloc.obj
 0002:00034a64       ??_C@_0BC@EOODALEL@Unknown?5exception@ 004a0a64     MSVCRT:throw_bad_alloc.obj
 0002:00034a7c       ??_7bad_alloc@std@@6B@     004a0a7c     MSVCRT:throw_bad_alloc.obj
 0002:00034a84       ??_C@_0P@GHFPNOJB@bad?5allocation@ 004a0a84     MSVCRT:throw_bad_alloc.obj
 0002:00034a98       ??_7bad_array_new_length@std@@6B@ 004a0a98     MSVCRT:throw_bad_alloc.obj
 0002:00034aa0       ??_C@_0BF@KINCDENJ@bad?5array?5new?5length@ 004a0aa0     MSVCRT:throw_bad_alloc.obj
 0002:00034b18       __load_config_used         004a0b18     MSVCRT:loadcfg.obj
 0002:00034bbc       __tls_used                 004a0bbc     MSVCRT:tlssup.obj
 0002:00034bd4       ??_R4QFile@@6B@            004a0bd4     mysave.obj
 0002:00034be8       ??_R3QFile@@8              004a0be8     mysave.obj
 0002:00034bf8       ??_R2QFile@@8              004a0bf8     mysave.obj
 0002:00034c0c       ??_R1A@?0A@EA@QFile@@8     004a0c0c     mysave.obj
 0002:00034c28       ??_R1A@?0A@EA@QFileDevice@@8 004a0c28     mysave.obj
 0002:00034c44       ??_R3QFileDevice@@8        004a0c44     mysave.obj
 0002:00034c54       ??_R2QFileDevice@@8        004a0c54     mysave.obj
 0002:00034c64       ??_R1A@?0A@EA@QIODevice@@8 004a0c64     mysave.obj
 0002:00034c80       ??_R3QIODevice@@8          004a0c80     mysave.obj
 0002:00034c90       ??_R2QIODevice@@8          004a0c90     mysave.obj
 0002:00034c9c       ??_R1A@?0A@EA@QObject@@8   004a0c9c     mysave.obj
 0002:00034cb8       ??_R3QObject@@8            004a0cb8     mysave.obj
 0002:00034cc8       ??_R2QObject@@8            004a0cc8     mysave.obj
 0002:00034cd0       ??_R4QTextStream@@6B@      004a0cd0     mysave.obj
 0002:00034ce4       ??_R3QTextStream@@8        004a0ce4     mysave.obj
 0002:00034cf4       ??_R2QTextStream@@8        004a0cf4     mysave.obj
 0002:00034cfc       ??_R1A@?0A@EA@QTextStream@@8 004a0cfc     mysave.obj
 0002:00034d18       ??_R4MySocket@@6B@         004a0d18     mysocket.obj
 0002:00034d2c       ??_R3MySocket@@8           004a0d2c     mysocket.obj
 0002:00034d3c       ??_R2MySocket@@8           004a0d3c     mysocket.obj
 0002:00034d54       ??_R1A@?0A@EA@MySocket@@8  004a0d54     mysocket.obj
 0002:00034d70       ??_R1A@?0A@EA@QTcpSocket@@8 004a0d70     mysocket.obj
 0002:00034d8c       ??_R3QTcpSocket@@8         004a0d8c     mysocket.obj
 0002:00034d9c       ??_R2QTcpSocket@@8         004a0d9c     mysocket.obj
 0002:00034db0       ??_R1A@?0A@EA@QAbstractSocket@@8 004a0db0     mysocket.obj
 0002:00034dcc       ??_R3QAbstractSocket@@8    004a0dcc     mysocket.obj
 0002:00034ddc       ??_R2QAbstractSocket@@8    004a0ddc     mysocket.obj
 0002:00034dec       ??_R1A@?0A@EA@QThread@@8   004a0dec     savedatathread.obj
 0002:00034e08       ??_R3QThread@@8            004a0e08     savedatathread.obj
 0002:00034e18       ??_R2QThread@@8            004a0e18     savedatathread.obj
 0002:00034e24       ??_R4tcpDataAnalysis@@6B@  004a0e24     tcpdataanalysis.obj
 0002:00034e38       ??_R3tcpDataAnalysis@@8    004a0e38     tcpdataanalysis.obj
 0002:00034e48       ??_R2tcpDataAnalysis@@8    004a0e48     tcpdataanalysis.obj
 0002:00034e54       ??_R1A@?0A@EA@tcpDataAnalysis@@8 004a0e54     tcpdataanalysis.obj
 0002:00034e70       ??_R4tcpServer@@6B@        004a0e70     tcpserver.obj
 0002:00034e84       ??_R3tcpServer@@8          004a0e84     tcpserver.obj
 0002:00034e94       ??_R2tcpServer@@8          004a0e94     tcpserver.obj
 0002:00034ea4       ??_R1A@?0A@EA@tcpServer@@8 004a0ea4     tcpserver.obj
 0002:00034ec0       ??_R1A@?0A@EA@QTcpServer@@8 004a0ec0     tcpserver.obj
 0002:00034edc       ??_R3QTcpServer@@8         004a0edc     tcpserver.obj
 0002:00034eec       ??_R2QTcpServer@@8         004a0eec     tcpserver.obj
 0002:00034ef8       ??_R4tcpServerThread@@6B@  004a0ef8     tcpserverthread.obj
 0002:00034f0c       ??_R3tcpServerThread@@8    004a0f0c     tcpserverthread.obj
 0002:00034f1c       ??_R2tcpServerThread@@8    004a0f1c     tcpserverthread.obj
 0002:00034f2c       ??_R1A@?0A@EA@tcpServerThread@@8 004a0f2c     tcpserverthread.obj
 0002:00034f48       ??_R4WifiApParas@@6B@      004a0f48     wifiapparas.obj
 0002:00034f5c       ??_R3WifiApParas@@8        004a0f5c     wifiapparas.obj
 0002:00034f6c       ??_R2WifiApParas@@8        004a0f6c     wifiapparas.obj
 0002:00034f78       ??_R1A@?0A@EA@WifiApParas@@8 004a0f78     wifiapparas.obj
 0002:00034f94       ??_R4WifiChParas@@6B@      004a0f94     wifichparas.obj
 0002:00034fa8       ??_R3WifiChParas@@8        004a0fa8     wifichparas.obj
 0002:00034fb8       ??_R2WifiChParas@@8        004a0fb8     wifichparas.obj
 0002:00034fc4       ??_R1A@?0A@EA@WifiChParas@@8 004a0fc4     wifichparas.obj
 0002:00034fe0       ??_R4WifiFsParas@@6B@      004a0fe0     wififsparas.obj
 0002:00034ff4       ??_R3WifiFsParas@@8        004a0ff4     wififsparas.obj
 0002:00035004       ??_R2WifiFsParas@@8        004a1004     wififsparas.obj
 0002:00035010       ??_R1A@?0A@EA@WifiFsParas@@8 004a1010     wififsparas.obj
 0002:0003502c       ??_R4WifiNetParas@@6B@     004a102c     wifinetparas.obj
 0002:00035040       ??_R3WifiNetParas@@8       004a1040     wifinetparas.obj
 0002:00035050       ??_R2WifiNetParas@@8       004a1050     wifinetparas.obj
 0002:0003505c       ??_R1A@?0A@EA@WifiNetParas@@8 004a105c     wifinetparas.obj
 0002:00035078       ??_R4QDoubleSpinBox@@6BQObject@@@ 004a1078     alertchjunyue.obj
 0002:0003508c       ??_R3QDoubleSpinBox@@8     004a108c     alertchjunyue.obj
 0002:0003509c       ??_R2QDoubleSpinBox@@8     004a109c     alertchjunyue.obj
 0002:000350b4       ??_R1A@?0A@EA@QDoubleSpinBox@@8 004a10b4     alertchjunyue.obj
 0002:000350d0       ??_R1A@?0A@EA@QAbstractSpinBox@@8 004a10d0     alertchjunyue.obj
 0002:000350ec       ??_R3QAbstractSpinBox@@8   004a10ec     alertchjunyue.obj
 0002:000350fc       ??_R2QAbstractSpinBox@@8   004a10fc     alertchjunyue.obj
 0002:00035110       ??_R1A@?0A@EA@QWidget@@8   004a1110     alertchjunyue.obj
 0002:0003512c       ??_R3QWidget@@8            004a112c     alertchjunyue.obj
 0002:0003513c       ??_R2QWidget@@8            004a113c     alertchjunyue.obj
 0002:0003514c       ??_R17?0A@EA@QPaintDevice@@8 004a114c     alertchjunyue.obj
 0002:00035168       ??_R3QPaintDevice@@8       004a1168     alertchjunyue.obj
 0002:00035178       ??_R2QPaintDevice@@8       004a1178     alertchjunyue.obj
 0002:00035180       ??_R1A@?0A@EA@QPaintDevice@@8 004a1180     alertchjunyue.obj
 0002:0003519c       ??_R4QDoubleSpinBox@@6BQPaintDevice@@@ 004a119c     alertchjunyue.obj
 0002:000351b0       ??_R4alertChJunyue@@6BQObject@@@ 004a11b0     alertchjunyue.obj
 0002:000351c4       ??_R3alertChJunyue@@8      004a11c4     alertchjunyue.obj
 0002:000351d4       ??_R2alertChJunyue@@8      004a11d4     alertchjunyue.obj
 0002:000351e8       ??_R1A@?0A@EA@alertChJunyue@@8 004a11e8     alertchjunyue.obj
 0002:00035204       ??_R4alertChJunyue@@6BQPaintDevice@@@ 004a1204     alertchjunyue.obj
 0002:00035218       ??_R4QHBoxLayout@@6BQObject@@@ 004a1218     alertchjunyue.obj
 0002:0003522c       ??_R3QHBoxLayout@@8        004a122c     alertchjunyue.obj
 0002:0003523c       ??_R2QHBoxLayout@@8        004a123c     alertchjunyue.obj
 0002:00035254       ??_R1A@?0A@EA@QHBoxLayout@@8 004a1254     alertchjunyue.obj
 0002:00035270       ??_R1A@?0A@EA@QBoxLayout@@8 004a1270     alertchjunyue.obj
 0002:0003528c       ??_R3QBoxLayout@@8         004a128c     alertchjunyue.obj
 0002:0003529c       ??_R2QBoxLayout@@8         004a129c     alertchjunyue.obj
 0002:000352b0       ??_R1A@?0A@EA@QLayout@@8   004a12b0     alertchjunyue.obj
 0002:000352cc       ??_R3QLayout@@8            004a12cc     alertchjunyue.obj
 0002:000352dc       ??_R2QLayout@@8            004a12dc     alertchjunyue.obj
 0002:000352ec       ??_R17?0A@EA@QLayoutItem@@8 004a12ec     alertchjunyue.obj
 0002:00035308       ??_R3QLayoutItem@@8        004a1308     alertchjunyue.obj
