 universalDAQTest2

 Timestamp is 5de0d32f (Fri Nov 29 16:13:35 2019)

 Preferred load address is 00400000

 Start         Length     Name                   Class
 0001:00000000 00000ad0H .text$di                CODE
 0001:00000ad0 000601f0H .text$mn                CODE
 0001:00060cc0 0000a9f0H .text$x                 CODE
 0001:0006b6b0 000005bdH .text$yd                CODE
 0002:00000000 000015b8H .idata$5                DATA
 0002:000015b8 00000004H .00cfg                  DATA
 0002:000015bc 00000004H .CRT$XCA                DATA
 0002:000015c0 00000004H .CRT$XCAA               DATA
 0002:000015c4 000000c8H .CRT$XCU                DATA
 0002:0000168c 00000004H .CRT$XCZ                DATA
 0002:00001690 00000004H .CRT$XIA                DATA
 0002:00001694 00000004H .CRT$XIAA               DATA
 0002:00001698 00000004H .CRT$XIAC               DATA
 0002:0000169c 00000004H .CRT$XIC                DATA
 0002:000016a0 00000004H .CRT$XIZ                DATA
 0002:000016a4 00000004H .CRT$XLA                DATA
 0002:000016a8 00000004H .CRT$XLZ                DATA
 0002:000016ac 00000004H .CRT$XPA                DATA
 0002:000016b0 00000004H .CRT$XPZ                DATA
 0002:000016b4 00000004H .CRT$XTA                DATA
 0002:000016b8 00000008H .CRT$XTZ                DATA
 0002:000016bc 00000000H .gfids$y                DATA
 0002:000016c0 00033ddcH .rdata                  DATA
 0002:0003549c 00000018H .rdata$T                DATA
 0002:000354b4 00001cacH .rdata$r                DATA
 0002:00037160 00000468H .rdata$sxdata           DATA
 0002:000375c8 000003e4H .rdata$zzzdbg           DATA
 0002:000379ac 00000004H .rtc$IAA                DATA
 0002:000379b0 00000004H .rtc$IZZ                DATA
 0002:000379b4 00000004H .rtc$TAA                DATA
 0002:000379b8 00000004H .rtc$TZZ                DATA
 0002:000379bc 00000004H .tls                    DATA
 0002:000379c0 00000004H .tls$                   DATA
 0002:000379c4 00000004H .tls$ZZZ                DATA
 0002:000379c8 00009624H .xdata$x                DATA
 0002:00040fec 00000000H .edata                  DATA
 0002:00040fec 0000017cH .idata$2                DATA
 0002:00041168 00000014H .idata$3                DATA
 0002:0004117c 000015b8H .idata$4                DATA
 0002:00042734 0000efa6H .idata$6                DATA
 0003:00000000 000004d0H .data                   DATA
 0003:000004d0 00000ae8H .data$r                 DATA
 0003:00000fb8 00000528H .bss                    DATA
 0004:00000000 00000060H .rsrc$01                DATA
 0004:00000060 00000280H .rsrc$02                DATA

  Address         Publics by Value              Rva+Base       Lib:Object

 0000:00000000       ___hybrid_code_map_count   00000000     <absolute>
 0000:00000000       ___guard_fids_count        00000000     <absolute>
 0000:00000000       ___volatile_metadata       00000000     <absolute>
 0000:00000000       ___enclave_config          00000000     <absolute>
 0000:00000000       ___guard_iat_table         00000000     <absolute>
 0000:00000000       ___hybrid_auxiliary_iat    00000000     <absolute>
 0000:00000000       ___AbsoluteZero            00000000     <absolute>
 0000:00000000       ___dynamic_value_reloc_table 00000000     <absolute>
 0000:00000000       ___guard_longjmp_table     00000000     <absolute>
 0000:00000000       ___guard_iat_count         00000000     <absolute>
 0000:00000000       ___guard_fids_table        00000000     <absolute>
 0000:00000000       ___guard_longjmp_count     00000000     <absolute>
 0000:00000000       ___hybrid_code_map         00000000     <absolute>
 0000:0000002c       __tls_array                0000002c     <absolute>
 0000:00000100       ___guard_flags             00000100     <absolute>
 0000:0000011a       ___safe_se_handler_count   0000011a     <absolute>
 0000:00000000       ___ImageBase               00400000     <linker-defined>
 0001:00000ad0       ??0?$QList@_N@@QAE@ABV0@@Z 00401ad0 f i tcpdataanalysis.obj
 0001:00000ad0       ??0?$QList@PAVQAction@@@@QAE@ABV0@@Z 00401ad0 f i mainwindow.obj
 0001:00000ad0       ??0?$QList@M@@QAE@ABV0@@Z  00401ad0 f i tcpdataanalysis.obj
 0001:00000ad0       ??0?$QList@H@@QAE@ABV0@@Z  00401ad0 f i mysave.obj
 0001:00000ad0       ??0?$QList@E@@QAE@ABV0@@Z  00401ad0 f i moc_tcpclient.obj
 0001:00000b80       ??1?$QList@_N@@QAE@XZ      00401b80 f i tcpdataanalysis.obj
 0001:00000b80       ??1?$QList@PAVQDockWidget@@@@QAE@XZ 00401b80 f i mainwindow.obj
 0001:00000b80       ??1?$QList@E@@QAE@XZ       00401b80 f i tcpclient.obj
 0001:00000b80       ??1?$QList@PAVQAction@@@@QAE@XZ 00401b80 f i daqinfo.obj
 0001:00000b80       ??1?$QList@PAVQAbstractButton@@@@QAE@XZ 00401b80 f i maintab.obj
 0001:00000b80       ??1?$QList@PAVbaseForm2@@@@QAE@XZ 00401b80 f i maintab.obj
 0001:00000b80       ??1?$QList@PAVQWidget@@@@QAE@XZ 00401b80 f i maintab.obj
 0001:00000b80       ??1?$QList@H@@QAE@XZ       00401b80 f i mysave.obj
 0001:00000b80       ??1?$QList@M@@QAE@XZ       00401b80 f i tcpdataanalysis.obj
 0001:00000b80       ??1?$QList@PAVQDoubleSpinBox@@@@QAE@XZ 00401b80 f i alertchjunyue.obj
 0001:00000b80       ??1?$QList@PAVvirbValue@@@@QAE@XZ 00401b80 f i maintab.obj
 0001:00000be0       ??1?$QList@VQString@@@@QAE@XZ 00401be0 f i mysave.obj
 0001:00000c70       ??1?$QVector@N@@QAE@XZ     00401c70 f i mysave.obj
 0001:00000ca0       ??H@YA?BVQString@@ABV0@PBD@Z 00401ca0 f i mysave.obj
 0001:00000d30       ??_EQFile@@UAEPAXI@Z       00401d30 f i mysave.obj
 0001:00000dd0       ??_GQTextStream@@UAEPAXI@Z 00401dd0 f i mysave.obj
 0001:00000dd0       ??_EQTextStream@@UAEPAXI@Z 00401dd0 f i mysave.obj
 0001:00000e00       ??_TQFile@@QAEXXZ          00401e00 f i mysave.obj
 0001:00000e20       ?append@?$QList@PAVQTextStream@@@@QAEXABQAVQTextStream@@@Z 00401e20 f i mysave.obj
 0001:00000e20       ?append@?$QList@PAVQAction@@@@QAEXABQAVQAction@@@Z 00401e20 f i daqinfo.obj
 0001:00000e20       ?append@?$QList@PAVQDockWidget@@@@QAEXABQAVQDockWidget@@@Z 00401e20 f i mainwindow.obj
 0001:00000e20       ?append@?$QList@M@@QAEXABM@Z 00401e20 f i tcpdataanalysis.obj
 0001:00000e20       ?append@?$QList@PAVQFile@@@@QAEXABQAVQFile@@@Z 00401e20 f i mysave.obj
 0001:00000e20       ?append@?$QList@PAVvirbValue@@@@QAEXABQAVvirbValue@@@Z 00401e20 f i tcpdataanalysis.obj
 0001:00000e20       ?append@?$QList@PAVQDoubleSpinBox@@@@QAEXABQAVQDoubleSpinBox@@@Z 00401e20 f i alertchjunyue.obj
 0001:00000e20       ?append@?$QList@H@@QAEXABH@Z 00401e20 f i mysave.obj
 0001:00000e20       ?append@?$QList@PAVQWidget@@@@QAEXABQAVQWidget@@@Z 00401e20 f i maintab.obj
 0001:00000ed0       ?append@?$QList@VQString@@@@QAEXABVQString@@@Z 00401ed0 f i mysave.obj
 0001:00000f90       ?clear@?$QList@_N@@QAEXXZ  00401f90 f i maintab.obj
 0001:00000f90       ?clear@?$QList@PAVQTextStream@@@@QAEXXZ 00401f90 f i mysave.obj
 0001:00000f90       ?clear@?$QList@M@@QAEXXZ   00401f90 f i tcpdataanalysis.obj
 0001:00000f90       ?clear@?$QList@E@@QAEXXZ   00401f90 f i tcpclient.obj
 0001:00001030       ?detach_helper@?$QList@VQString@@@@AAEXH@Z 00402030 f i mysave.obj
 0001:00001120       ?detach_helper_grow@?$QList@_N@@AAEPAUNode@1@HH@Z 00402120 f i tcpdataanalysis.obj
 0001:00001120       ?detach_helper_grow@?$QList@PAVQAction@@@@AAEPAUNode@1@HH@Z 00402120 f i daqinfo.obj
 0001:00001120       ?detach_helper_grow@?$QList@M@@AAEPAUNode@1@HH@Z 00402120 f i tcpdataanalysis.obj
 0001:00001120       ?detach_helper_grow@?$QList@H@@AAEPAUNode@1@HH@Z 00402120 f i mysave.obj
 0001:00001120       ?detach_helper_grow@?$QList@E@@AAEPAUNode@1@HH@Z 00402120 f i tcpdataanalysis.obj
 0001:00001120       ?detach_helper_grow@?$QList@PAVQDoubleSpinBox@@@@AAEPAUNode@1@HH@Z 00402120 f i alertchjunyue.obj
 0001:00001120       ?detach_helper_grow@?$QList@PAVQWidget@@@@AAEPAUNode@1@HH@Z 00402120 f i maintab.obj
 0001:00001120       ?detach_helper_grow@?$QList@PAVQTextStream@@@@AAEPAUNode@1@HH@Z 00402120 f i mysave.obj
 0001:00001120       ?detach_helper_grow@?$QList@PAVQDockWidget@@@@AAEPAUNode@1@HH@Z 00402120 f i mainwindow.obj
 0001:00001120       ?detach_helper_grow@?$QList@PAVQFile@@@@AAEPAUNode@1@HH@Z 00402120 f i mysave.obj
 0001:00001120       ?detach_helper_grow@?$QList@G@@AAEPAUNode@1@HH@Z 00402120 f i tcpdataanalysis.obj
 0001:00001120       ?detach_helper_grow@?$QList@PAVvirbValue@@@@AAEPAUNode@1@HH@Z 00402120 f i tcpdataanalysis.obj
 0001:00001250       ?detach_helper_grow@?$QList@VQString@@@@AAEPAUNode@1@HH@Z 00402250 f i mysave.obj
 0001:000013b0       ?node_copy@?$QList@H@@AAEXPAUNode@1@00@Z 004023b0 f i mysave.obj
 0001:000013b0       ?node_copy@?$QList@PAVbaseForm2@@@@AAEXPAUNode@1@00@Z 004023b0 f i maintab.obj
 0001:000013b0       ?node_copy@?$QList@PAVvirbValue@@@@AAEXPAUNode@1@00@Z 004023b0 f i tcpdataanalysis.obj
 0001:000013b0       ?node_copy@?$QList@E@@AAEXPAUNode@1@00@Z 004023b0 f i tcpdataanalysis.obj
 0001:000013b0       ?node_copy@?$QList@PAVQFile@@@@AAEXPAUNode@1@00@Z 004023b0 f i mysave.obj
 0001:000013b0       ?node_copy@?$QList@PAVQDockWidget@@@@AAEXPAUNode@1@00@Z 004023b0 f i mainwindow.obj
 0001:000013b0       ?node_copy@?$QList@_N@@AAEXPAUNode@1@00@Z 004023b0 f i tcpdataanalysis.obj
 0001:000013b0       ?node_copy@?$QList@G@@AAEXPAUNode@1@00@Z 004023b0 f i tcpdataanalysis.obj
 0001:000013b0       ?node_copy@?$QList@M@@AAEXPAUNode@1@00@Z 004023b0 f i tcpdataanalysis.obj
 0001:000013b0       ?node_copy@?$QList@PAVQDoubleSpinBox@@@@AAEXPAUNode@1@00@Z 004023b0 f i alertchjunyue.obj
 0001:000013b0       ?node_copy@?$QList@PAVQWidget@@@@AAEXPAUNode@1@00@Z 004023b0 f i maintab.obj
 0001:000013b0       ?node_copy@?$QList@PAVQTextStream@@@@AAEXPAUNode@1@00@Z 004023b0 f i mysave.obj
 0001:000013b0       ?node_copy@?$QList@PAVQAction@@@@AAEXPAUNode@1@00@Z 004023b0 f i daqinfo.obj
 0001:000013e0       ?node_copy@?$QList@VQString@@@@AAEXPAUNode@1@00@Z 004023e0 f i mysave.obj
 0001:00001410       ?node_destruct@?$QList@_N@@AAEXPAUNode@1@0@Z 00402410 f i tcpdataanalysis.obj
 0001:00001410       ?node_destruct@?$QList@G@@AAEXPAUNode@1@0@Z 00402410 f i tcpdataanalysis.obj
 0001:00001410       ?node_destruct@?$QList@E@@AAEXPAUNode@1@0@Z 00402410 f i tcpdataanalysis.obj
 0001:00001410       ?node_destruct@?$QList@H@@AAEXPAUNode@1@0@Z 00402410 f i mysave.obj
 0001:00001410       ?node_destruct@?$QList@PAVQDoubleSpinBox@@@@AAEXPAUNode@1@0@Z 00402410 f i alertchjunyue.obj
 0001:00001410       ?node_destruct@?$QList@PAVvirbValue@@@@AAEXPAUNode@1@0@Z 00402410 f i tcpdataanalysis.obj
 0001:00001410       ?node_destruct@?$QList@PAVQWidget@@@@AAEXPAUNode@1@0@Z 00402410 f i maintab.obj
 0001:00001410       ?node_destruct@?$QList@PAVQAction@@@@AAEXPAUNode@1@0@Z 00402410 f i daqinfo.obj
 0001:00001410       ?node_destruct@?$QList@PAVQTextStream@@@@AAEXPAUNode@1@0@Z 00402410 f i mysave.obj
 0001:00001410       ?node_destruct@?$QList@PAVQDockWidget@@@@AAEXPAUNode@1@0@Z 00402410 f i mainwindow.obj
 0001:00001410       ?node_destruct@?$QList@PAVQFile@@@@AAEXPAUNode@1@0@Z 00402410 f i mysave.obj
 0001:00001410       ?updateWave@daqInfo@@QAEXPAV?$QVector@N@@H@Z 00402410 f i daqinfo.obj
 0001:00001410       ?node_destruct@?$QList@M@@AAEXPAUNode@1@0@Z 00402410 f i tcpdataanalysis.obj
 0001:00001420       ?node_destruct@?$QList@PAVQTextStream@@@@AAEXPAUNode@1@@Z 00402420 f i mysave.obj
 0001:00001420       ?node_destruct@?$QList@PAVvirbValue@@@@AAEXPAUNode@1@@Z 00402420 f i tcpdataanalysis.obj
 0001:00001420       ?node_destruct@?$QList@PAVQAction@@@@AAEXPAUNode@1@@Z 00402420 f i daqinfo.obj
 0001:00001420       ?node_destruct@?$QList@PAVQFile@@@@AAEXPAUNode@1@@Z 00402420 f i mysave.obj
 0001:00001420       ?node_destruct@?$QList@M@@AAEXPAUNode@1@@Z 00402420 f i tcpdataanalysis.obj
 0001:00001420       ?node_destruct@?$QList@PAVQDoubleSpinBox@@@@AAEXPAUNode@1@@Z 00402420 f i alertchjunyue.obj
 0001:00001420       ?node_destruct@?$QList@E@@AAEXPAUNode@1@@Z 00402420 f i tcpdataanalysis.obj
 0001:00001420       ?node_destruct@?$QList@G@@AAEXPAUNode@1@@Z 00402420 f i tcpdataanalysis.obj
 0001:00001420       ?node_destruct@?$QList@PAVQWidget@@@@AAEXPAUNode@1@@Z 00402420 f i maintab.obj
 0001:00001420       ?node_destruct@?$QList@PAVQDockWidget@@@@AAEXPAUNode@1@@Z 00402420 f i mainwindow.obj
 0001:00001420       ?node_destruct@?$QList@H@@AAEXPAUNode@1@@Z 00402420 f i mysave.obj
 0001:00001420       ?node_destruct@?$QList@_N@@AAEXPAUNode@1@@Z 00402420 f i tcpdataanalysis.obj
 0001:00001430       ?node_destruct@?$QList@VQString@@@@AAEXPAUNode@1@0@Z 00402430 f i mysave.obj
 0001:00001460       ?node_destruct@?$QList@VQString@@@@AAEXPAUNode@1@@Z 00402460 f i mysave.obj
 0001:00001470       ?saveData@mySave@@QAEXHPAV?$QVector@N@@@Z 00402470 f   mysave.obj
 0001:000017a0       ?saveData@mySave@@QAEXPAV?$QVector@N@@@Z 004027a0 f   mysave.obj
 0001:000018a0       ?saveData@mySave@@QAEXVQByteArray@@HPAV?$QVector@N@@@Z 004028a0 f   mysave.obj
 0001:00001d40       ?setEnabledch@mySave@@QAEXG@Z 00402d40 f   mysave.obj
 0001:00001e30       ?setFsMode@mySave@@QAEXH@Z 00402e30 f   mysave.obj
 0001:00001e40       ?setName@mySave@@QAEXVQString@@PAHHH@Z 00402e40 f   mysave.obj
 0001:00002190       ?setName@mySave@@QAEXVQString@@V?$QList@H@@@Z 00403190 f   mysave.obj
 0001:00002570       ?setName@mySave@@QAEXXZ    00403570 f   mysave.obj
 0001:00002920       ?setSave@mySave@@QAEX_N@Z  00403920 f   mysave.obj
 0001:00002930       ?setType@mySave@@QAEXVQString@@HH@Z 00403930 f   mysave.obj
 0001:00002960       ?startSave@mySave@@QAEXXZ  00403960 f   mysave.obj
 0001:000029a0       ?stopSave@mySave@@QAEXXZ   004039a0 f   mysave.obj
 0001:00002a50       ??0MySocket@@QAE@HPAVQObject@@@Z 00403a50 f   mysocket.obj
 0001:00002bd0       ??_EMySocket@@UAEPAXI@Z    00403bd0 f i mysocket.obj
 0001:00002bd0       ??_GMySocket@@UAEPAXI@Z    00403bd0 f i mysocket.obj
 0001:00002c70       ?recvData@MySocket@@QAEXXZ 00403c70 f   mysocket.obj
 0001:00002d80       ?sendHeartBeat@MySocket@@AAEXXZ 00403d80 f   mysocket.obj
 0001:00002e30       ?sendMsg@MySocket@@QAEXVQByteArray@@H@Z 00403e30 f   mysocket.obj
 0001:00002ed0       ?stop@MySocket@@QAEXXZ     00403ed0 f   mysocket.obj
 0001:00002ef0       ??0tcpDataAnalysis@@QAE@PAVQObject@@@Z 00403ef0 f   tcpdataanalysis.obj
 0001:000032c0       ??1WifiChParas@@UAE@XZ     004042c0 f i tcpdataanalysis.obj
 0001:00003330       ??1WifiNetParas@@QAE@XZ    00404330 f i tcpdataanalysis.obj
 0001:00003330       ??1WifiApParas@@QAE@XZ     00404330 f i wifiapparas.obj
 0001:00003350       ??1tcpDataAnalysis@@UAE@XZ 00404350 f   tcpdataanalysis.obj
 0001:000039f0       ??1wifiCharacterTest@@QAE@XZ 004049f0 f i tcpdataanalysis.obj
 0001:00003a00       ??H@YA?BVQString@@ABV0@0@Z 00404a00 f i tcpdataanalysis.obj
 0001:00003a70       ??_G?$QList@N@@QAEPAXI@Z   00404a70 f i tcpdataanalysis.obj
 0001:00003af0       ??_GWifiSingleChannel@@QAEPAXI@Z 00404af0 f i tcpdataanalysis.obj
 0001:00003b10       ??_GtcpDataAnalysis@@UAEPAXI@Z 00404b10 f i tcpdataanalysis.obj
 0001:00003b10       ??_EtcpDataAnalysis@@UAEPAXI@Z 00404b10 f i tcpdataanalysis.obj
 0001:00003b40       ?append@?$QList@E@@QAEXABE@Z 00404b40 f i tcpdataanalysis.obj
 0001:00003b40       ?append@?$QList@_N@@QAEXAB_N@Z 00404b40 f i tcpdataanalysis.obj
 0001:00003bf0       ?append@?$QList@G@@QAEXABG@Z 00404bf0 f i tcpdataanalysis.obj
 0001:00003ca0       ?append@?$QList@N@@QAEXABN@Z 00404ca0 f i tcpdataanalysis.obj
 0001:00003d40       ?append@?$QList@VWifiSingleChannel@@@@QAEXABVWifiSingleChannel@@@Z 00404d40 f i tcpdataanalysis.obj
 0001:00003e00       ?calCharacter2@tcpDataAnalysis@@AAEXVQByteArray@@HPAV?$QVector@N@@H@Z 00404e00 f   tcpdataanalysis.obj
 0001:00003e10       ?clear@?$QList@N@@QAEXXZ   00404e10 f i tcpdataanalysis.obj
 0001:00003eb0       ?dealPacket@tcpDataAnalysis@@QAEXXZ 00404eb0 f   tcpdataanalysis.obj
 0001:00007e10       ?dealloc@?$QList@N@@AAEXPAUData@QListData@@@Z 00408e10 f i tcpdataanalysis.obj
 0001:00007e60       ?dealloc@?$QList@VWifiSingleChannel@@@@AAEXPAUData@QListData@@@Z 00408e60 f i tcpdataanalysis.obj
 0001:00007ec0       ?detach_helper@?$QList@E@@AAEXH@Z 00408ec0 f i tcpdataanalysis.obj
 0001:00007ec0       ?detach_helper@?$QList@G@@AAEXH@Z 00408ec0 f i tcpdataanalysis.obj
 0001:00007ec0       ?detach_helper@?$QList@H@@AAEXH@Z 00408ec0 f i tcpserver.obj
 0001:00007ec0       ?detach_helper@?$QList@PAVQWidget@@@@AAEXH@Z 00408ec0 f i maintab.obj
 0001:00007ec0       ?detach_helper@?$QList@_N@@AAEXH@Z 00408ec0 f i characterform.obj
 0001:00007ec0       ?detach_helper@?$QList@PAVbaseForm2@@@@AAEXH@Z 00408ec0 f i maintab.obj
 0001:00007ec0       ?detach_helper@?$QList@M@@AAEXH@Z 00408ec0 f i characterform.obj
 0001:00007f90       ?detach_helper@?$QList@VWifiSingleChannel@@@@AAEXH@Z 00408f90 f i tcpdataanalysis.obj
 0001:00008050       ?detach_helper_grow@?$QList@N@@AAEPAUNode@1@HH@Z 00409050 f i tcpdataanalysis.obj
 0001:00008180       ?detach_helper_grow@?$QList@VWifiSingleChannel@@@@AAEPAUNode@1@HH@Z 00409180 f i tcpdataanalysis.obj
 0001:000082b0       ?node_copy@?$QList@N@@AAEXPAUNode@1@00@Z 004092b0 f i tcpdataanalysis.obj
 0001:00008360       ?node_copy@?$QList@VWifiSingleChannel@@@@AAEXPAUNode@1@00@Z 00409360 f i tcpdataanalysis.obj
 0001:00008410       ?node_destruct@?$QList@N@@AAEXPAUNode@1@0@Z 00409410 f i tcpdataanalysis.obj
 0001:00008440       ?node_destruct@?$QList@VWifiSingleChannel@@@@AAEXPAUNode@1@0@Z 00409440 f i tcpdataanalysis.obj
 0001:00008480       ?recvData@tcpDataAnalysis@@QAEXVQString@@VQByteArray@@@Z 00409480 f   tcpdataanalysis.obj
 0001:00008630       ?reset30@tcpDataAnalysis@@QAEXH@Z 00409630 f   tcpdataanalysis.obj
 0001:00008640       ?run@tcpDataAnalysis@@UAEXXZ 00409640 f   tcpdataanalysis.obj
 0001:00008650       ?sendDataImmediately@tcpDataAnalysis@@AAEXXZ 00409650 f   tcpdataanalysis.obj
 0001:000086a0       ?sendSingleImmediately@tcpDataAnalysis@@AAEXXZ 004096a0 f   tcpdataanalysis.obj
 0001:000086e0       ?widgetReady@tcpDataAnalysis@@QAEXVQString@@@Z 004096e0 f   tcpdataanalysis.obj
 0001:00008710       ??$atImpl@V?$QList@H@@@QSequentialIterableImpl@QtMetaTypePrivate@@SAPBXPBXH@Z 00409710 f i tcpserver.obj
 0001:00008710       ??$atImpl@V?$QList@M@@@QSequentialIterableImpl@QtMetaTypePrivate@@SAPBXPBXH@Z 00409710 f i daqinfo.obj
 0001:00008710       ??$atImpl@V?$QList@_N@@@QSequentialIterableImpl@QtMetaTypePrivate@@SAPBXPBXH@Z 00409710 f i daqinfo.obj
 0001:00008710       ??$atImpl@V?$QList@E@@@QSequentialIterableImpl@QtMetaTypePrivate@@SAPBXPBXH@Z 00409710 f i moc_tcpclient.obj
 0001:00008730       ??$atImpl@V?$QList@N@@@QSequentialIterableImpl@QtMetaTypePrivate@@SAPBXPBXH@Z 00409730 f i tcpserver.obj
 0001:00008750       ??$getImpl@V?$QList@_N@@@QSequentialIterableImpl@QtMetaTypePrivate@@SA?AUVariantData@1@PBQAXHI@Z 00409750 f i daqinfo.obj
 0001:00008750       ??$getImpl@V?$QList@H@@@QSequentialIterableImpl@QtMetaTypePrivate@@SA?AUVariantData@1@PBQAXHI@Z 00409750 f i tcpserver.obj
 0001:00008750       ??$getImpl@V?$QList@E@@@QSequentialIterableImpl@QtMetaTypePrivate@@SA?AUVariantData@1@PBQAXHI@Z 00409750 f i moc_tcpclient.obj
 0001:00008750       ??$getImpl@V?$QList@M@@@QSequentialIterableImpl@QtMetaTypePrivate@@SA?AUVariantData@1@PBQAXHI@Z 00409750 f i daqinfo.obj
 0001:00008770       ??$getImpl@V?$QList@N@@@QSequentialIterableImpl@QtMetaTypePrivate@@SA?AUVariantData@1@PBQAXHI@Z 00409770 f i tcpserver.obj
 0001:00008790       ??$moveToBeginImpl@V?$QList@M@@@QSequentialIterableImpl@QtMetaTypePrivate@@SAXPBXPAPAX@Z 00409790 f i daqinfo.obj
 0001:00008790       ??$moveToBeginImpl@V?$QList@E@@@QSequentialIterableImpl@QtMetaTypePrivate@@SAXPBXPAPAX@Z 00409790 f i moc_tcpclient.obj
 0001:00008790       ??$moveToBeginImpl@V?$QList@H@@@QSequentialIterableImpl@QtMetaTypePrivate@@SAXPBXPAPAX@Z 00409790 f i tcpserver.obj
 0001:00008790       ??$moveToBeginImpl@V?$QList@N@@@QSequentialIterableImpl@QtMetaTypePrivate@@SAXPBXPAPAX@Z 00409790 f i tcpserver.obj
 0001:00008790       ??$moveToBeginImpl@V?$QList@_N@@@QSequentialIterableImpl@QtMetaTypePrivate@@SAXPBXPAPAX@Z 00409790 f i daqinfo.obj
 0001:000087c0       ??$moveToEndImpl@V?$QList@H@@@QSequentialIterableImpl@QtMetaTypePrivate@@SAXPBXPAPAX@Z 004097c0 f i tcpserver.obj
 0001:000087c0       ??$moveToEndImpl@V?$QList@E@@@QSequentialIterableImpl@QtMetaTypePrivate@@SAXPBXPAPAX@Z 004097c0 f i moc_tcpclient.obj
 0001:000087c0       ??$moveToEndImpl@V?$QList@_N@@@QSequentialIterableImpl@QtMetaTypePrivate@@SAXPBXPAPAX@Z 004097c0 f i daqinfo.obj
 0001:000087c0       ??$moveToEndImpl@V?$QList@N@@@QSequentialIterableImpl@QtMetaTypePrivate@@SAXPBXPAPAX@Z 004097c0 f i tcpserver.obj
 0001:000087c0       ??$moveToEndImpl@V?$QList@M@@@QSequentialIterableImpl@QtMetaTypePrivate@@SAXPBXPAPAX@Z 004097c0 f i daqinfo.obj
 0001:000087f0       ??$setValue@PAVWifiChParas@@@QVariant@@QAEXABQAVWifiChParas@@@Z 004097f0 f i tcpserver.obj
 0001:00008880       ??$setValue@PAVWifiFsParas@@@QVariant@@QAEXABQAVWifiFsParas@@@Z 00409880 f i tcpserver.obj
 0001:00008910       ??$sizeImpl@V?$QList@E@@@QSequentialIterableImpl@QtMetaTypePrivate@@SAHPBX@Z 00409910 f i moc_tcpclient.obj
 0001:00008910       ??$sizeImpl@V?$QList@N@@@QSequentialIterableImpl@QtMetaTypePrivate@@SAHPBX@Z 00409910 f i tcpserver.obj
 0001:00008910       ??$sizeImpl@V?$QList@_N@@@QSequentialIterableImpl@QtMetaTypePrivate@@SAHPBX@Z 00409910 f i daqinfo.obj
 0001:00008910       ??$sizeImpl@V?$QList@H@@@QSequentialIterableImpl@QtMetaTypePrivate@@SAHPBX@Z 00409910 f i tcpserver.obj
 0001:00008910       ??$sizeImpl@V?$QList@M@@@QSequentialIterableImpl@QtMetaTypePrivate@@SAHPBX@Z 00409910 f i daqinfo.obj
 0001:00008920       ??0?$QList@N@@QAE@ABV0@@Z  00409920 f i tcpserver.obj
 0001:000089d0       ??0?$QList@VQString@@@@QAE@ABV0@@Z 004099d0 f i tcpserver.obj
 0001:00008a80       ??0?$QList@VQVariant@@@@QAE@ABV0@@Z 00409a80 f i tcpserver.obj
 0001:00008b30       ??0QSequentialIterableImpl@QtMetaTypePrivate@@QAE@XZ 00409b30 f i tcpserver.obj
 0001:00008ba0       ??0tcpServer@@QAE@PAVCMainWindow@@PAVQObject@@@Z 00409ba0 f   tcpserver.obj
 0001:00008be0       ??1?$QList@N@@QAE@XZ       00409be0 f i tcpserver.obj
 0001:00008c70       ??1?$QList@VQVariant@@@@QAE@XZ 00409c70 f i tcpserver.obj
 0001:00008cf0       ??1?$QForeachContainer@V?$QList@VQString@@@@@QtPrivate@@QAE@XZ 00409cf0 f i qhttpresponse.obj
 0001:00008cf0       ??1QStringList@@QAE@XZ     00409cf0 f i tcpserver.obj
 0001:00008d00       ??1tcpServer@@UAE@XZ       00409d00 f   tcpserver.obj
 0001:00008de0       ??A?$QMap@VQString@@VQVariant@@@@QAEAAVQVariant@@ABVQString@@@Z 00409de0 f i tcpserver.obj
 0001:00008e70       ??H@YA?BVQString@@PBDABV0@@Z 00409e70 f i tcpserver.obj
 0001:00008ee0       ??_GQString@@QAEPAXI@Z     00409ee0 f i tcpserver.obj
 0001:00008f10       ??_GQVariant@@QAEPAXI@Z    00409f10 f i tcpserver.obj
 0001:00008f40       ??_EtcpServer@@UAEPAXI@Z   00409f40 f i tcpserver.obj
 0001:00008f40       ??_GtcpServer@@UAEPAXI@Z   00409f40 f i tcpserver.obj
 0001:00009030       ?Construct@?$QMetaTypeFunctionHelper@W4SocketState@QAbstractSocket@@$00@QtMetaTypePrivate@@SAPAXPAXPBX@Z 0040a030 f i wsclient.obj
 0001:00009030       ?Construct@?$QMetaTypeFunctionHelper@PAVQAction@@$00@QtMetaTypePrivate@@SAPAXPAXPBX@Z 0040a030 f i moc_customplot.obj
 0001:00009030       ?Construct@?$QMetaTypeFunctionHelper@PAVQThread@@$00@QtMetaTypePrivate@@SAPAXPAXPBX@Z 0040a030 f i qasyntcpserver.obj
 0001:00009030       ?Construct@?$QMetaTypeFunctionHelper@PAVWifiFsParas@@$00@QtMetaTypePrivate@@SAPAXPAXPBX@Z 0040a030 f i tcpserver.obj
 0001:00009030       ?Construct@?$QMetaTypeFunctionHelper@PAVWifiChParas@@$00@QtMetaTypePrivate@@SAPAXPAXPBX@Z 0040a030 f i tcpserver.obj
 0001:00009050       ?Construct@?$QMetaTypeFunctionHelper@V?$QList@E@@$00@QtMetaTypePrivate@@SAPAXPAXPBX@Z 0040a050 f i moc_tcpclient.obj
 0001:00009050       ?Construct@?$QMetaTypeFunctionHelper@V?$QList@M@@$00@QtMetaTypePrivate@@SAPAXPAXPBX@Z 0040a050 f i daqinfo.obj
 0001:00009050       ?Construct@?$QMetaTypeFunctionHelper@V?$QList@H@@$00@QtMetaTypePrivate@@SAPAXPAXPBX@Z 0040a050 f i tcpserver.obj
 0001:00009050       ?Construct@?$QMetaTypeFunctionHelper@V?$QList@_N@@$00@QtMetaTypePrivate@@SAPAXPAXPBX@Z 0040a050 f i daqinfo.obj
 0001:00009070       ?Construct@?$QMetaTypeFunctionHelper@V?$QList@N@@$00@QtMetaTypePrivate@@SAPAXPAXPBX@Z 0040a070 f i tcpserver.obj
 0001:00009090       ?Construct@?$QMetaTypeFunctionHelper@VQSequentialIterableImpl@QtMetaTypePrivate@@$00@QtMetaTypePrivate@@SAPAXPAXPBX@Z 0040a090 f i tcpserver.obj
 0001:000090d0       ?qt_static_metacall@netParas@@CAXPAVQObject@@W4Call@QMetaObject@@HPAPAX@Z 0040a0d0 f i moc_structs.obj
 0001:000090d0       ?on_btnApplyTcp_2_clicked@mainTab@@AAEXXZ 0040a0d0 f i maintab.obj
 0001:000090d0       ?enableSharedFromThis@?$QSharedPointer@VQWaitCondition@@@@AAAXZZ 0040a0d0 f i qasynhttpsocket.obj
 0001:000090d0       ?destroy@?$IteratorOwner@PBN@QtMetaTypePrivate@@SAXPAPAX@Z 0040a0d0 f i main.obj
 0001:000090d0       ?on_snEdit_editingFinished@settingWifiJunyue@@AAEXXZ 0040a0d0 f i settingwifijunyue.obj
 0001:000090d0       ?Destruct@?$QMetaTypeFunctionHelper@VQSequentialIterableImpl@QtMetaTypePrivate@@$00@QtMetaTypePrivate@@SAXPAX@Z 0040a0d0 f i tcpserver.obj
 0001:000090d0       ?qt_static_metacall@StaticFileController@@CAXPAVQObject@@W4Call@QMetaObject@@HPAPAX@Z 0040a0d0 f i moc_staticfilecontroller.obj
 0001:000090d0       ??1WifiSingleChannel@@QAE@XZ 0040a0d0 f i wifisinglechannel.obj
 0001:000090d0       @_guard_check_icall_nop@4  0040a0d0 f i MSVCRT:guard_support.obj
 0001:000090d0       ?qt_static_metacall@objectConnect@@CAXPAVQObject@@W4Call@QMetaObject@@HPAPAX@Z 0040a0d0 f i moc_objectconnect.obj
 0001:000090d0       ?deleteNode2@?$QHash@HPAVQTcpSocket@@@@CAXPAUNode@QHashData@@@Z 0040a0d0 f i qasyntcpserver.obj
 0001:000090d0       ?Destruct@?$QMetaTypeFunctionHelper@PAVWifiFsParas@@$00@QtMetaTypePrivate@@SAXPAX@Z 0040a0d0 f i tcpserver.obj
 0001:000090d0       __initialize_invalid_parameter_handler 0040a0d0 f i MSVCRT:invalid_parameter_handler.obj
 0001:000090d0       ?Destruct@?$QMetaTypeFunctionHelper@PAVQThread@@$00@QtMetaTypePrivate@@SAXPAX@Z 0040a0d0 f i qasyntcpserver.obj
 0001:000090d0       ?qt_static_metacall@WifiChParas@@CAXPAVQObject@@W4Call@QMetaObject@@HPAPAX@Z 0040a0d0 f i moc_wifichparas.obj
 0001:000090d0       ?qt_static_metacall@virbValue@@CAXPAVQObject@@W4Call@QMetaObject@@HPAPAX@Z 0040a0d0 f i moc_virbvalue.obj
 0001:000090d0       ?Destruct@?$QMetaTypeFunctionHelper@W4SocketState@QAbstractSocket@@$00@QtMetaTypePrivate@@SAXPAX@Z 0040a0d0 f i wsclient.obj
 0001:000090d0       ?deleteNode2@?$QHash@PAVQThread@@I@@CAXPAUNode@QHashData@@@Z 0040a0d0 f i threadhandle.obj
 0001:000090d0       ?Destruct@?$QMetaTypeFunctionHelper@PAVQAction@@$00@QtMetaTypePrivate@@SAXPAX@Z 0040a0d0 f i moc_customplot.obj
 0001:000090d0       ?qt_static_metacall@singleAlertJunyue@@CAXPAVQObject@@W4Call@QMetaObject@@HPAPAX@Z 0040a0d0 f i moc_structs.obj
 0001:000090d0       __initialize_denormal_control 0040a0d0 f i MSVCRT:denormal_control.obj
 0001:000090d0       ?qt_static_metacall@fsParas@@CAXPAVQObject@@W4Call@QMetaObject@@HPAPAX@Z 0040a0d0 f i moc_structs.obj
 0001:000090d0       ?qt_static_metacall@QHttpHandler@@CAXPAVQObject@@W4Call@QMetaObject@@HPAPAX@Z 0040a0d0 f i moc_httphandler.obj
 0001:000090d0       ?qt_static_metacall@waveDataModel@@CAXPAVQObject@@W4Call@QMetaObject@@HPAPAX@Z 0040a0d0 f i moc_wavedatamodel.obj
 0001:000090d0       ?setQObjectShared@ExternalRefCountData@QtSharedPointer@@QAAXZZ 0040a0d0 f i qasynhttpsocket.obj
 0001:000090d0       ?qt_static_metacall@alertChJunyue@@CAXPAVQObject@@W4Call@QMetaObject@@HPAPAX@Z 0040a0d0 f i moc_alertchjunyue.obj
 0001:000090d0       ?qt_static_metacall@apParas@@CAXPAVQObject@@W4Call@QMetaObject@@HPAPAX@Z 0040a0d0 f i moc_structs.obj
 0001:000090d0       ?qt_static_metacall@chControlAFD@@CAXPAVQObject@@W4Call@QMetaObject@@HPAPAX@Z 0040a0d0 f i moc_chcontrolafd.obj
 0001:000090d0       ?Destruct@?$QMetaTypeFunctionHelper@PAVWifiChParas@@$00@QtMetaTypePrivate@@SAXPAX@Z 0040a0d0 f i tcpserver.obj
 0001:000090d0       ?qt_static_metacall@chParas@@CAXPAVQObject@@W4Call@QMetaObject@@HPAPAX@Z 0040a0d0 f i moc_structs.obj
 0001:000090d0       ?Destruct@?$QMetaTypeFunctionHelper@VWifiFsParas@@$00@QtMetaTypePrivate@@SAXPAX@Z 0040a0d0 f i main.obj
 0001:000090e0       ?Destruct@?$QMetaTypeFunctionHelper@V?$QList@_N@@$00@QtMetaTypePrivate@@SAXPAX@Z 0040a0e0 f i daqinfo.obj
 0001:000090e0       ?Destruct@?$QMetaTypeFunctionHelper@V?$QList@E@@$00@QtMetaTypePrivate@@SAXPAX@Z 0040a0e0 f i moc_tcpclient.obj
 0001:000090e0       ?Destruct@?$QMetaTypeFunctionHelper@V?$QList@M@@$00@QtMetaTypePrivate@@SAXPAX@Z 0040a0e0 f i daqinfo.obj
 0001:000090e0       ?Destruct@?$QMetaTypeFunctionHelper@V?$QList@H@@$00@QtMetaTypePrivate@@SAXPAX@Z 0040a0e0 f i tcpserver.obj
 0001:00009150       ?Destruct@?$QMetaTypeFunctionHelper@V?$QList@N@@$00@QtMetaTypePrivate@@SAXPAX@Z 0040a150 f i tcpserver.obj
 0001:00009160       ?advance@?$IteratorOwnerCommon@Vconst_iterator@?$QList@H@@@QtMetaTypePrivate@@SAXPAPAXH@Z 0040a160 f i tcpserver.obj
 0001:00009160       ?advance@?$IteratorOwnerCommon@Vconst_iterator@?$QList@_N@@@QtMetaTypePrivate@@SAXPAPAXH@Z 0040a160 f i daqinfo.obj
 0001:00009160       ?advance@?$IteratorOwnerCommon@Vconst_iterator@?$QList@M@@@QtMetaTypePrivate@@SAXPAPAXH@Z 0040a160 f i daqinfo.obj
 0001:00009160       ?advance@?$IteratorOwnerCommon@Vconst_iterator@?$QList@E@@@QtMetaTypePrivate@@SAXPAPAXH@Z 0040a160 f i moc_tcpclient.obj
 0001:00009160       ?advance@?$IteratorOwnerCommon@Vconst_iterator@?$QList@N@@@QtMetaTypePrivate@@SAXPAPAXH@Z 0040a160 f i tcpserver.obj
 0001:00009170       ?append@?$QList@VQVariant@@@@QAEXABVQVariant@@@Z 0040a170 f i tcpserver.obj
 0001:00009230       ?assign@?$IteratorOwnerCommon@Vconst_iterator@?$QList@N@@@QtMetaTypePrivate@@SAXPAPAXPBQAX@Z 0040a230 f i tcpserver.obj
 0001:00009230       ?assign@?$IteratorOwnerCommon@Vconst_iterator@?$QList@_N@@@QtMetaTypePrivate@@SAXPAPAXPBQAX@Z 0040a230 f i daqinfo.obj
 0001:00009230       ?assign@?$IteratorOwnerCommon@Vconst_iterator@?$QList@E@@@QtMetaTypePrivate@@SAXPAPAXPBQAX@Z 0040a230 f i moc_tcpclient.obj
 0001:00009230       ?assign@?$IteratorOwnerCommon@Vconst_iterator@?$QList@M@@@QtMetaTypePrivate@@SAXPAPAXPBQAX@Z 0040a230 f i daqinfo.obj
 0001:00009230       ?assign@?$IteratorOwnerCommon@Vconst_iterator@?$QList@H@@@QtMetaTypePrivate@@SAXPAPAXPBQAX@Z 0040a230 f i tcpserver.obj
 0001:00009250       ?changeChParas@tcpServer@@QAEXVQString@@PAVWifiChParas@@@Z 0040a250 f   tcpserver.obj
 0001:00009390       ?changeFsParas@tcpServer@@QAEXVQString@@PAVWifiFsParas@@@Z 0040a390 f   tcpserver.obj
 0001:000094d0       ?commandSent@tcpServer@@QAEXVQStringList@@@Z 0040a4d0 f   tcpserver.obj
 0001:00009650       ?commandsToSend@tcpServer@@QAEXVQString@@@Z 0040a650 f   tcpserver.obj
 0001:00009a00       ?convert@?$ConverterFunctor@V?$QList@H@@VQSequentialIterableImpl@QtMetaTypePrivate@@U?$QSequentialIterableConvertFunctor@V?$QList@H@@@3@@QtPrivate@@SA_NPBUAbstractConverterFunction@2@PBXPAX@Z 0040aa00 f i tcpserver.obj
 0001:00009a70       ?convert@?$ConverterFunctor@V?$QList@N@@VQSequentialIterableImpl@QtMetaTypePrivate@@U?$QSequentialIterableConvertFunctor@V?$QList@N@@@3@@QtPrivate@@SA_NPBUAbstractConverterFunction@2@PBXPAX@Z 0040aa70 f i tcpserver.obj
 0001:00009ae0       ?copy@?$QMapNode@VQString@@VQVariant@@@@QBEPAU1@PAU?$QMapData@VQString@@VQVariant@@@@@Z 0040aae0 f i tcpserver.obj
 0001:00009b70       ?createNode@?$QMapData@VQString@@VQVariant@@@@QAEPAU?$QMapNode@VQString@@VQVariant@@@@ABVQString@@ABVQVariant@@PAU2@_N@Z 0040ab70 f i tcpserver.obj
 0001:00009c20       ?createWidget@tcpServer@@AAEXHVQString@@0@Z 0040ac20 f   tcpserver.obj
 0001:00009c90       ?destroy@?$IteratorOwnerCommon@Vconst_iterator@?$QList@E@@@QtMetaTypePrivate@@SAXPAPAX@Z 0040ac90 f i moc_tcpclient.obj
 0001:00009c90       ?destroy@?$IteratorOwnerCommon@Vconst_iterator@?$QList@M@@@QtMetaTypePrivate@@SAXPAPAX@Z 0040ac90 f i daqinfo.obj
 0001:00009c90       ?destroy@?$IteratorOwnerCommon@Vconst_iterator@?$QList@N@@@QtMetaTypePrivate@@SAXPAPAX@Z 0040ac90 f i tcpserver.obj
 0001:00009c90       ?destroy@?$IteratorOwnerCommon@Vconst_iterator@?$QList@_N@@@QtMetaTypePrivate@@SAXPAPAX@Z 0040ac90 f i daqinfo.obj
 0001:00009c90       ?destroy@?$IteratorOwnerCommon@Vconst_iterator@?$QList@H@@@QtMetaTypePrivate@@SAXPAPAX@Z 0040ac90 f i tcpserver.obj
 0001:00009cb0       ?destroySubTree@?$QMapNode@VQString@@VQVariant@@@@QAEXXZ 0040acb0 f i tcpserver.obj
 0001:00009cf0       ?detach@?$QMap@VQString@@VQVariant@@@@QAEXXZ 0040acf0 f i tcpserver.obj
 0001:00009d80       ?detach_helper_grow@?$QList@VQVariant@@@@AAEPAUNode@1@HH@Z 0040ad80 f i tcpserver.obj
 0001:00009ed0       ?equal@?$IteratorOwnerCommon@Vconst_iterator@?$QList@_N@@@QtMetaTypePrivate@@SA_NPBQAX0@Z 0040aed0 f i daqinfo.obj
 0001:00009ed0       ?equal@?$IteratorOwnerCommon@Vconst_iterator@?$QList@M@@@QtMetaTypePrivate@@SA_NPBQAX0@Z 0040aed0 f i daqinfo.obj
 0001:00009ed0       ?equal@?$IteratorOwnerCommon@Vconst_iterator@?$QList@E@@@QtMetaTypePrivate@@SA_NPBQAX0@Z 0040aed0 f i moc_tcpclient.obj
 0001:00009ed0       ?equal@?$IteratorOwnerCommon@Vconst_iterator@?$QList@N@@@QtMetaTypePrivate@@SA_NPBQAX0@Z 0040aed0 f i tcpserver.obj
 0001:00009ed0       ?equal@?$IteratorOwnerCommon@Vconst_iterator@?$QList@H@@@QtMetaTypePrivate@@SA_NPBQAX0@Z 0040aed0 f i tcpserver.obj
 0001:00009ef0       ?findNode@?$QMapData@VQString@@H@@QBEPAU?$QMapNode@VQString@@H@@ABVQString@@@Z 0040aef0 f i maintab.obj
 0001:00009ef0       ?findNode@?$QMapData@VQString@@VQVariant@@@@QBEPAU?$QMapNode@VQString@@VQVariant@@@@ABVQString@@@Z 0040aef0 f i tcpserver.obj
 0001:00009f50       ?impl@?$QSlotObject@P8tcpServer@@AEXVQString@@V?$QList@N@@@ZU?$List@VQString@@V?$QList@N@@@QtPrivate@@X@QtPrivate@@CAXHPAVQSlotObjectBase@2@PAVQObject@@PAPAXPA_N@Z 0040af50 f i main.obj
 0001:00009f50       ?impl@?$QSlotObject@P8tcpServerThread@@AEXVQString@@V?$QList@N@@@ZU?$List@VQString@@V?$QList@N@@@QtPrivate@@X@QtPrivate@@CAXHPAVQSlotObjectBase@2@PAVQObject@@PAPAXPA_N@Z 0040af50 f i tcpserver.obj
 0001:00009fc0       ?incomingConnection@tcpServer@@EAEXH@Z 0040afc0 f   tcpserver.obj
 0001:0000a640       ?insert@?$QMap@VQString@@VQVariant@@@@QAE?AViterator@1@ABVQString@@ABVQVariant@@@Z 0040b640 f i tcpserver.obj
 0001:0000a700       ?node_copy@?$QList@VQVariant@@@@AAEXPAUNode@1@00@Z 0040b700 f i tcpserver.obj
 0001:0000a7b0       ?node_destruct@?$QList@VQVariant@@@@AAEXPAUNode@1@0@Z 0040b7b0 f i tcpserver.obj
 0001:0000a7f0       ?qt_metatype_id@?$QMetaTypeIdHelper@PAVWifiChParas@@$00@QtPrivate@@SAHXZ 0040b7f0 f i daqinfo.obj
 0001:0000a7f0       ?qt_metatype_id@?$QMetaTypeId2@PAVWifiChParas@@@@SAHXZ 0040b7f0 f i tcpserver.obj
 0001:0000a910       ?qt_metatype_id@?$QMetaTypeId2@PAVWifiFsParas@@@@SAHXZ 0040b910 f i tcpserver.obj
 0001:0000a910       ?qt_metatype_id@?$QMetaTypeIdHelper@PAVWifiFsParas@@$00@QtPrivate@@SAHXZ 0040b910 f i daqinfo.obj
 0001:0000a9f0       ?qt_metatype_id@?$QMetaTypeId2@V?$QList@H@@@@SAHXZ 0040b9f0 f i tcpserver.obj
 0001:0000abd0       ?qt_metatype_id@?$QMetaTypeId2@V?$QList@N@@@@SAHXZ 0040bbd0 f i tcpserver.obj
 0001:0000abd0       ?qt_metatype_id@?$QMetaTypeId@V?$QList@N@@@@SAHXZ 0040bbd0 f i tcpserver.obj
 0001:0000adb0       ?qt_metatype_id@?$QMetaTypeId2@VQSequentialIterableImpl@QtMetaTypePrivate@@@@SAHXZ 0040bdb0 f i tcpserver.obj
 0001:0000ae90       ?setAlertSpanJunyue@tcpServer@@QAEXVQString@@HH@Z 0040be90 f   tcpserver.obj
 0001:0000b0d0       ?setAlerts@tcpServer@@QAEXVQString@@V?$QList@N@@@Z 0040c0d0 f   tcpserver.obj
 0001:0000b260       ?showDisconnection@tcpServer@@AAEXHVQString@@@Z 0040c260 f   tcpserver.obj
 0001:0000b510       ?startListen@tcpServer@@QAEXVQString@@G@Z 0040c510 f   tcpserver.obj
 0001:0000b5f0       ??0tcpServerThread@@QAE@HPAVQObject@@@Z 0040c5f0 f   tcpserverthread.obj
 0001:0000ba80       ??1?$QMap@VQString@@VQVariant@@@@QAE@XZ 0040ca80 f i tcpserverthread.obj
 0001:0000bb00       ??1tcpServerThread@@UAE@XZ 0040cb00 f   tcpserverthread.obj
 0001:0000bd20       ??_GtcpServerThread@@UAEPAXI@Z 0040cd20 f i tcpserverthread.obj
 0001:0000bd20       ??_EtcpServerThread@@UAEPAXI@Z 0040cd20 f i tcpserverthread.obj
 0001:0000bd50       ?aboutToStart@tcpServerThread@@QAEXVQString@@_N@Z 0040cd50 f   tcpserverthread.obj
 0001:0000bde0       ?adjustADC@tcpServerThread@@QAEXVQString@@H@Z 0040cde0 f   tcpserverthread.obj
 0001:0000bf50       ?adjustTime@tcpServerThread@@QAEXXZ 0040cf50 f   tcpserverthread.obj
 0001:0000c190       ?applyNewNet@tcpServerThread@@QAEXVQString@@@Z 0040d190 f   tcpserverthread.obj
 0001:0000c210       ?changeTCPServer@tcpServerThread@@QAEXVQString@@0H0@Z 0040d210 f   tcpserverthread.obj
 0001:0000c380       ?delDaq@tcpServerThread@@QAEXVQString@@@Z 0040d380 f   tcpserverthread.obj
 0001:0000c3f0       ?disconnectToHost@tcpServerThread@@QAEXXZ 0040d3f0 f   tcpserverthread.obj
 0001:0000c410       ?finishUpdate@tcpServerThread@@QAEXXZ 0040d410 f   tcpserverthread.obj
 0001:0000c520       ?impl@?$QSlotObject@P8QAbstractSocket@@AEXXZU?$List@$$V@QtPrivate@@X@QtPrivate@@CAXHPAVQSlotObjectBase@2@PAVQObject@@PAPAXPA_N@Z 0040d520 f i qasyntcpserver.obj
 0001:0000c520       ?impl@?$QSlotObject@P8tcpServerThread@@AEXXZU?$List@$$V@QtPrivate@@X@QtPrivate@@CAXHPAVQSlotObjectBase@2@PAVQObject@@PAPAXPA_N@Z 0040d520 f i tcpserverthread.obj
 0001:0000c520       ?impl@?$QSlotObject@P8QObject@@AEXXZU?$List@$$V@QtPrivate@@X@QtPrivate@@CAXHPAVQSlotObjectBase@2@PAVQObject@@PAPAXPA_N@Z 0040d520 f i daqinfo.obj
 0001:0000c520       ?impl@?$QSlotObject@P8wsClient@@AEXXZU?$List@$$V@QtPrivate@@X@QtPrivate@@CAXHPAVQSlotObjectBase@2@PAVQObject@@PAPAXPA_N@Z 0040d520 f i wsclient.obj
 0001:0000c570       ?metaType@?$QVariantValueHelper@V?$QList@H@@@QtPrivate@@SA?AV?$QList@H@@ABVQVariant@@@Z 0040d570 f i tcpserverthread.obj
 0001:0000c660       ?queryAP@tcpServerThread@@QAEXXZ 0040d660 f   tcpserverthread.obj
 0001:0000c690       ?queryAlertJunyue@tcpServerThread@@QAEXXZ 0040d690 f   tcpserverthread.obj
 0001:0000c740       ?queryAlertRules@tcpServerThread@@QAEXXZ 0040d740 f   tcpserverthread.obj
 0001:0000c800       ?queryAlertSpan@tcpServerThread@@QAEXXZ 0040d800 f   tcpserverthread.obj
 0001:0000c8b0       ?queryChParas@tcpServerThread@@QAEXXZ 0040d8b0 f   tcpserverthread.obj
 0001:0000c950       ?queryChStatus@tcpServerThread@@QAEXXZ 0040d950 f   tcpserverthread.obj
 0001:0000c9f0       ?queryFirmwareVer@tcpServerThread@@QAEXXZ 0040d9f0 f   tcpserverthread.obj
 0001:0000ca90       ?queryFsMode@tcpServerThread@@QAEXXZ 0040da90 f   tcpserverthread.obj
 0001:0000cb30       ?queryFsParas@tcpServerThread@@QAEXXZ 0040db30 f   tcpserverthread.obj
 0001:0000cbd0       ?queryNet@tcpServerThread@@QAEXXZ 0040dbd0 f   tcpserverthread.obj
 0001:0000cc00       ?queryPowerMode@tcpServerThread@@QAEXXZ 0040dc00 f   tcpserverthread.obj
 0001:0000cc20       ?querySN@tcpServerThread@@QAEXXZ 0040dc20 f   tcpserverthread.obj
 0001:0000cc50       ?queryTCP@tcpServerThread@@QAEXXZ 0040dc50 f   tcpserverthread.obj
 0001:0000cc80       ?queryType@tcpServerThread@@QAEXXZ 0040dc80 f   tcpserverthread.obj
 0001:0000ccb0       ?readSN@tcpServerThread@@AAEXHVQString@@0@Z 0040dcb0 f   tcpserverthread.obj
 0001:0000d1f0       ?recErrorInfo@tcpServerThread@@AAEXVQString@@@Z 0040e1f0 f   tcpserverthread.obj
 0001:0000d250       ?requireData@tcpServerThread@@QAEXH@Z 0040e250 f   tcpserverthread.obj
 0001:0000d320       ?run@tcpServerThread@@UAEXXZ 0040e320 f   tcpserverthread.obj
 0001:0000d9a0       ?sendCommands@tcpServerThread@@QAEXVQString@@VQStringList@@V?$QList@VQVariant@@@@@Z 0040e9a0 f   tcpserverthread.obj
 0001:0000de60       ?sendData@tcpServerThread@@AAEXVQByteArray@@@Z 0040ee60 f   tcpserverthread.obj
 0001:0000df00       ?sendData@tcpServerThread@@AAEXVQByteArray@@H@Z 0040ef00 f   tcpserverthread.obj
 0001:0000df90       ?sendFirmData@tcpServerThread@@QAEXXZ 0040ef90 f   tcpserverthread.obj
 0001:0000e170       ?sendOver2@tcpServerThread@@AAEXXZ 0040f170 f   tcpserverthread.obj
 0001:0000e190       ?sendOver@tcpServerThread@@AAEXXZ 0040f190 f   tcpserverthread.obj
 0001:0000e1c0       ?setAP@tcpServerThread@@QAEXVQString@@PAVWifiApParas@@@Z 0040f1c0 f   tcpserverthread.obj
 0001:0000e330       ?setAlertJunyue@tcpServerThread@@QAEXVQString@@V?$QList@N@@@Z 0040f330 f   tcpserverthread.obj
 0001:0000e530       ?setAlertRule@tcpServerThread@@QAEXVQByteArray@@@Z 0040f530 f   tcpserverthread.obj
 0001:0000e610       ?setAlertSpanJunyue@tcpServerThread@@QAEXVQString@@HH@Z 0040f610 f   tcpserverthread.obj
 0001:0000e740       ?setChParas@tcpServerThread@@QAEXVQString@@PAVWifiChParas@@@Z 0040f740 f   tcpserverthread.obj
 0001:0000e9e0       ?setChStatus@tcpServerThread@@QAEXVQString@@G@Z 0040f9e0 f   tcpserverthread.obj
 0001:0000eae0       ?setFsMode@tcpServerThread@@QAEXVQString@@H@Z 0040fae0 f   tcpserverthread.obj
 0001:0000ebd0       ?setHeartSpan@tcpServerThread@@QAEXVQString@@H_N@Z 0040fbd0 f   tcpserverthread.obj
 0001:0000eca0       ?setNetParas@tcpServerThread@@QAEXVQString@@PAVWifiNetParas@@@Z 0040fca0 f   tcpserverthread.obj
 0001:0000ee30       ?setPowerMode@tcpServerThread@@QAEXVQString@@EEEE@Z 0040fe30 f   tcpserverthread.obj
 0001:0000ef90       ?setSN@tcpServerThread@@QAEXVQString@@0@Z 0040ff90 f   tcpserverthread.obj
 0001:0000f2e0       ?setTCPserver@tcpServerThread@@QAEXVQString@@H@Z 004102e0 f   tcpserverthread.obj
 0001:0000f420       ?setfsParas@tcpServerThread@@QAEXVQString@@PAVWifiFsParas@@@Z 00410420 f   tcpserverthread.obj
 0001:0000f5e0       ?startNow@tcpServerThread@@QAEXXZ 004105e0 f   tcpserverthread.obj
 0001:0000f6a0       ?stopByMe@tcpServerThread@@QAEXXZ 004106a0 f   tcpserverthread.obj
 0001:0000f6b0       ?stopNow@tcpServerThread@@QAEXXZ 004106b0 f   tcpserverthread.obj
 0001:0000f6e0       ?sum@tcpServerThread@@AAEEVQByteArray@@@Z 004106e0 f   tcpserverthread.obj
 0001:0000f7a0       ?tempGainAdjust@tcpServerThread@@QAEXVQString@@@Z 004107a0 f   tcpserverthread.obj
 0001:0000f890       ?tempZeroAdjust@tcpServerThread@@QAEXVQString@@@Z 00410890 f   tcpserverthread.obj
 0001:0000f980       ?updateCurrentFirm@tcpServerThread@@AAEXVQString@@0@Z 00410980 f   tcpserverthread.obj
 0001:0000fa00       ?updateFirmware@tcpServerThread@@QAEXVQString@@0@Z 00410a00 f   tcpserverthread.obj
 0001:0000fbf0       ??0virbValue@@QAE@PAVQObject@@@Z 00410bf0 f   virbvalue.obj
 0001:0000fc30       ??_GvirbValue@@UAEPAXI@Z   00410c30 f i virbvalue.obj
 0001:0000fc30       ??_EvirbValue@@UAEPAXI@Z   00410c30 f i virbvalue.obj
 0001:0000fc60       ??0WifiApParas@@QAE@ABV0@@Z 00410c60 f   wifiapparas.obj
 0001:0000fcc0       ??0WifiNetParas@@QAE@XZ    00410cc0 f   wifinetparas.obj
 0001:0000fcc0       ??0WifiApParas@@QAE@XZ     00410cc0 f   wifiapparas.obj
 0001:0000fd50       ??0wifiCharacterTest@@QAE@XZ 00410d50 f   wificharactertest.obj
 0001:0000fd70       ??0?$QList@VWifiSingleChannel@@@@QAE@ABV0@@Z 00410d70 f i wifichparas.obj
 0001:0000fe20       ??0WifiChParas@@QAE@ABV0@@Z 00410e20 f   wifichparas.obj
 0001:0000fec0       ??0WifiChParas@@QAE@XZ     00410ec0 f   wifichparas.obj
 0001:0000ff20       ??1?$QList@VWifiSingleChannel@@@@QAE@XZ 00410f20 f i wifichparas.obj
 0001:0000ffc0       ??_EWifiChParas@@UAEPAXI@Z 00410fc0 f i wifichparas.obj
 0001:0000ffc0       ??_GWifiChParas@@UAEPAXI@Z 00410fc0 f i wifichparas.obj
 0001:0000fff0       ??0WifiFsParas@@QAE@ABV0@@Z 00410ff0 f   wififsparas.obj
 0001:00010030       ??0WifiFsParas@@QAE@XZ     00411030 f   wififsparas.obj
 0001:00010050       ??0WifiNetParas@@QAE@ABV0@@Z 00411050 f   wifinetparas.obj
 0001:000100b0       ??0WifiSingleChannel@@QAE@ABV0@@Z 004110b0 f   wifisinglechannel.obj
 0001:000100e0       ??0WifiSingleChannel@@QAE@XZ 004110e0 f   wifisinglechannel.obj
 0001:00010100       ??0alertChJunyue@@QAE@PAVQWidget@@@Z 00411100 f   alertchjunyue.obj
 0001:000101cb       ??_EQDoubleSpinBox@@W7AEPAXI@Z 004111cb f i alertchjunyue.obj
 0001:000101d3       ??_EQHBoxLayout@@W7AEPAXI@Z 004111d3 f i alertchjunyue.obj
 0001:000101db       ??_EQLabel@@W7AEPAXI@Z     004111db f i alertchjunyue.obj
 0001:000101e3       ??_EalertChJunyue@@W7AEPAXI@Z 004111e3 f i alertchjunyue.obj
 0001:000101f0       ??_EQDoubleSpinBox@@UAEPAXI@Z 004111f0 f i alertchjunyue.obj
 0001:000101f0       ??_GQDoubleSpinBox@@UAEPAXI@Z 004111f0 f i alertchjunyue.obj
 0001:00010220       ??_GQHBoxLayout@@UAEPAXI@Z 00411220 f i alertchjunyue.obj
 0001:00010220       ??_EQHBoxLayout@@UAEPAXI@Z 00411220 f i alertchjunyue.obj
 0001:00010250       ??_GQLabel@@UAEPAXI@Z      00411250 f i alertchjunyue.obj
 0001:00010250       ??_EQLabel@@UAEPAXI@Z      00411250 f i alertchjunyue.obj
 0001:00010280       ??_GalertChJunyue@@UAEPAXI@Z 00411280 f i alertchjunyue.obj
 0001:00010280       ??_EalertChJunyue@@UAEPAXI@Z 00411280 f i alertchjunyue.obj
 0001:00010320       ?getValues@alertChJunyue@@QBE?AV?$QList@N@@XZ 00411320 f   alertchjunyue.obj
 0001:000103d0       ?setupUi@Ui_alertChJunyue@@QAEXPAVQWidget@@@Z 004113d0 f i alertchjunyue.obj
 0001:00010b30       ?updateName@chControlAFD@@QAEXVQString@@@Z 00411b30 f   chcontrolafd.obj
 0001:00010b30       ?updateName@alertChJunyue@@QAEXVQString@@@Z 00411b30 f   alertchjunyue.obj
 0001:00010b90       ?updateParas@alertChJunyue@@QAEXV?$QList@N@@@Z 00411b90 f   alertchjunyue.obj
 0001:00010ca0       ??0apDialog@@QAE@PAVQWidget@@@Z 00411ca0 f   apdialog.obj
 0001:00010d50       ??1apDialog@@UAE@XZ        00411d50 f   apdialog.obj
 0001:00010d7e       ??_EQGridLayout@@W7AEPAXI@Z 00411d7e f i apdialog.obj
 0001:00010d86       ??_EQLineEdit@@W7AEPAXI@Z  00411d86 f i apdialog.obj
 0001:00010d8e       ??_EQPushButton@@W7AEPAXI@Z 00411d8e f i apdialog.obj
 0001:00010d96       ??_EQVBoxLayout@@W7AEPAXI@Z 00411d96 f i apdialog.obj
 0001:00010d9e       ??_EQWidget@@W7AEPAXI@Z    00411d9e f i apdialog.obj
 0001:00010da6       ??_EapDialog@@W7AEPAXI@Z   00411da6 f i apdialog.obj
 0001:00010db0       ??_GQGridLayout@@UAEPAXI@Z 00411db0 f i apdialog.obj
 0001:00010db0       ??_EQGridLayout@@UAEPAXI@Z 00411db0 f i apdialog.obj
 0001:00010de0       ??_GQLineEdit@@UAEPAXI@Z   00411de0 f i apdialog.obj
 0001:00010de0       ??_EQLineEdit@@UAEPAXI@Z   00411de0 f i apdialog.obj
 0001:00010e10       ??_GQPushButton@@UAEPAXI@Z 00411e10 f i apdialog.obj
 0001:00010e10       ??_EQPushButton@@UAEPAXI@Z 00411e10 f i apdialog.obj
 0001:00010e40       ??_GQSpacerItem@@UAEPAXI@Z 00411e40 f i apdialog.obj
 0001:00010e40       ??_EQSpacerItem@@UAEPAXI@Z 00411e40 f i apdialog.obj
 0001:00010e70       ??_EQVBoxLayout@@UAEPAXI@Z 00411e70 f i apdialog.obj
 0001:00010e70       ??_GQVBoxLayout@@UAEPAXI@Z 00411e70 f i apdialog.obj
 0001:00010ea0       ??_GQWidget@@UAEPAXI@Z     00411ea0 f i apdialog.obj
 0001:00010ea0       ??_EQWidget@@UAEPAXI@Z     00411ea0 f i apdialog.obj
 0001:00010ed0       ??_EapDialog@@UAEPAXI@Z    00411ed0 f i apdialog.obj
 0001:00010ed0       ??_GapDialog@@UAEPAXI@Z    00411ed0 f i apdialog.obj
 0001:00010f20       ?on_btnCancel_clicked@apDialog@@AAEXXZ 00411f20 f   apdialog.obj
 0001:00010f30       ?on_btnOK_clicked@apDialog@@AAEXXZ 00411f30 f   apdialog.obj
 0001:00010fc0       ?retranslateUi@Ui_apDialog@@QAEXPAVQDialog@@@Z 00411fc0 f i apdialog.obj
 0001:00011200       ?setupUi@Ui_apDialog@@QAEXPAVQDialog@@@Z 00412200 f i apdialog.obj
 0001:00011990       ?updateAP@apDialog@@QAEXPAVWifiApParas@@@Z 00412990 f   apdialog.obj
 0001:000119c0       ??0?$QVector@N@@QAE@ABV0@@Z 004129c0 f i baseform2.obj
 0001:00011a90       ??0baseForm2@@QAE@HHVQString@@PAV?$QVector@N@@PAVQWidget@@@Z 00412a90 f   baseform2.obj
 0001:00011c61       ??_EbaseForm2@@W7AEPAXI@Z  00412c61 f i baseform2.obj
 0001:00011c70       ??_EbaseForm2@@UAEPAXI@Z   00412c70 f i baseform2.obj
 0001:00011c70       ??_GbaseForm2@@UAEPAXI@Z   00412c70 f i baseform2.obj
 0001:00011d20       ?changeColor@baseForm2@@QAEXXZ 00412d20 f   baseform2.obj
 0001:00011d30       ?closeEvent@baseForm2@@MAEXPAVQCloseEvent@@@Z 00412d30 f   baseform2.obj
 0001:00011d60       ?deallocate@?$QTypedArrayData@N@@SAXPAUQArrayData@@@Z 00412d60 f i baseform2.obj
 0001:00011d80       ?reallocData@?$QVector@N@@AAEXHHV?$QFlags@W4AllocationOption@QArrayData@@@@@Z 00412d80 f i baseform2.obj
 0001:00011f20       ?setCh@baseForm2@@QAEXH@Z  00412f20 f   baseform2.obj
 0001:00011fc0       ?setSN@baseForm2@@QAEXVQString@@@Z 00412fc0 f   baseform2.obj
 0001:000120e0       ?setupUi@Ui_baseForm2@@QAEXPAVQDialog@@@Z 004130e0 f i baseform2.obj
 0001:00012520       ?updateAutoWave@baseForm2@@QAEXHVQByteArray@@PAV?$QList@N@@@Z 00413520 f   baseform2.obj
 0001:00012730       ?updateWave@baseForm2@@QAEXPAV?$QVector@N@@@Z 00413730 f   baseform2.obj
 0001:00012a50       ??0characterForm@@QAE@HHVQString@@PAVQWidget@@@Z 00413a50 f   characterform.obj
 0001:00012f5a       ??_EQTableWidget@@W7AEPAXI@Z 00413f5a f i characterform.obj
 0001:00012f70       ??_EQTableWidgetItem@@UAEPAXI@Z 00413f70 f i characterform.obj
 0001:00013011       ??_EcharacterForm@@W7AEPAXI@Z 00414011 f i characterform.obj
 0001:00013020       ??_EQTableWidget@@UAEPAXI@Z 00414020 f i characterform.obj
 0001:00013020       ??_GQTableWidget@@UAEPAXI@Z 00414020 f i characterform.obj
 0001:00013050       ??_EcharacterForm@@UAEPAXI@Z 00414050 f i characterform.obj
 0001:00013050       ??_GcharacterForm@@UAEPAXI@Z 00414050 f i characterform.obj
 0001:00013100       ??_TQTableWidgetItem@@QAEXXZ 00414100 f i characterform.obj
 0001:00013120       ?setSN@characterForm@@QAEXVQString@@@Z 00414120 f   characterform.obj
 0001:000131d0       ?setType@characterForm@@QAEXH@Z 004141d0 f   characterform.obj
 0001:000136a0       ?setupUi@Ui_characterForm@@QAEXPAVQDialog@@@Z 004146a0 f i characterform.obj
 0001:00013d40       ?updateCharacterJunyue@characterForm@@QAEXVQString@@V?$QList@M@@V?$QList@_N@@@Z 00414d40 f   characterform.obj
 0001:00014480       ?updateTemp@characterForm@@QAEXPANH@Z 00415480 f   characterform.obj
 0001:000144f0       ?updateVirb@characterForm@@QAEXPAV?$QList@PAVvirbValue@@@@@Z 004154f0 f   characterform.obj
 0001:000146a0       ??0chControlAFD@@QAE@PAVQWidget@@@Z 004156a0 f   chcontrolafd.obj
 0001:00014741       ??_EQCheckBox@@W7AEPAXI@Z  00415741 f i chcontrolafd.obj
 0001:00014749       ??_EQComboBox@@W7AEPAXI@Z  00415749 f i chcontrolafd.obj
 0001:00014751       ??_EchControlAFD@@W7AEPAXI@Z 00415751 f i chcontrolafd.obj
 0001:00014760       ??_GQCheckBox@@UAEPAXI@Z   00415760 f i chcontrolafd.obj
 0001:00014760       ??_EQCheckBox@@UAEPAXI@Z   00415760 f i chcontrolafd.obj
 0001:00014790       ??_GQComboBox@@UAEPAXI@Z   00415790 f i chcontrolafd.obj
 0001:00014790       ??_EQComboBox@@UAEPAXI@Z   00415790 f i chcontrolafd.obj
 0001:000147c0       ??_GchControlAFD@@UAEPAXI@Z 004157c0 f i chcontrolafd.obj
 0001:000147c0       ??_EchControlAFD@@UAEPAXI@Z 004157c0 f i chcontrolafd.obj
 0001:00014800       ?enabledFac@chControlAFD@@QAEXXZ 00415800 f   chcontrolafd.obj
 0001:00014890       ?getParas@chControlAFD@@QAE?AVWifiSingleChannel@@XZ 00415890 f   chcontrolafd.obj
 0001:00014950       ?getValidate@chControlAFD@@QAE_NXZ 00415950 f   chcontrolafd.obj
 0001:00014960       ?retranslateUi@Ui_chControlAFD@@QAEXPAVQWidget@@@Z 00415960 f i chcontrolafd.obj
 0001:00014c70       ?setupUi@Ui_chControlAFD@@QAEXPAVQWidget@@@Z 00415c70 f i chcontrolafd.obj
 0001:00015600       ?updateParas@chControlAFD@@QAEXVWifiSingleChannel@@@Z 00416600 f   chcontrolafd.obj
 0001:000156d0       ?updateValidate@chControlAFD@@QAEX_N@Z 004166d0 f   chcontrolafd.obj
 0001:000156e0       ??$connect@P8QAction@@AEX_N@ZP8daqInfo@@AEXXZ@QObject@@SA?AVConnection@QMetaObject@@PBVQAction@@P83@AEX_N@ZPBVdaqInfo@@P84@AEXXZW4ConnectionType@Qt@@@Z 004166e0 f i daqinfo.obj
 0001:000157a0       ??$connect@P8settingWifiJunyue@@AEXVQString@@PAVWifiChParas@@@ZP8daqInfo@@AEX01@Z@QObject@@SA?AVConnection@QMetaObject@@PBVsettingWifiJunyue@@P83@AEXVQString@@PAVWifiChParas@@@ZPBVdaqInfo@@P86@AEX12@ZW4ConnectionType@Qt@@@Z 004167a0 f i daqinfo.obj
 0001:000158b0       ??$connect@P8settingWifiJunyue@@AEXVQString@@PAVWifiFsParas@@@ZP8daqInfo@@AEX01@Z@QObject@@SA?AVConnection@QMetaObject@@PBVsettingWifiJunyue@@P83@AEXVQString@@PAVWifiFsParas@@@ZPBVdaqInfo@@P86@AEX12@ZW4ConnectionType@Qt@@@Z 004168b0 f i daqinfo.obj
 0001:000159c0       ??0daqInfo@@QAE@PAV?$QVector@N@@_NPAVQWidget@@@Z 004169c0 f   daqinfo.obj
 0001:000166c9       ??_EQMenu@@W7AEPAXI@Z      004176c9 f i daqinfo.obj
 0001:000166d1       ??_EdaqInfo@@W7AEPAXI@Z    004176d1 f i daqinfo.obj
 0001:000166e0       ??_GQAction@@UAEPAXI@Z     004176e0 f i daqinfo.obj
 0001:000166e0       ??_EQAction@@UAEPAXI@Z     004176e0 f i daqinfo.obj
 0001:00016710       ??_GQMenu@@UAEPAXI@Z       00417710 f i daqinfo.obj
 0001:00016710       ??_EQMenu@@UAEPAXI@Z       00417710 f i daqinfo.obj
 0001:00016740       ??_EQThread@@UAEPAXI@Z     00417740 f i daqinfo.obj
 0001:00016740       ??_GQThread@@UAEPAXI@Z     00417740 f i daqinfo.obj
 0001:00016770       ??_EdaqInfo@@UAEPAXI@Z     00417770 f i daqinfo.obj
 0001:00016770       ??_GdaqInfo@@UAEPAXI@Z     00417770 f i daqinfo.obj
 0001:000168b0       ?changeLabelJunyue@daqInfo@@QAEXVQString@@00@Z 004178b0 f   daqinfo.obj
 0001:00016940       ?changeTcpAvilablity@daqInfo@@QAEX_N@Z 00417940 f   daqinfo.obj
 0001:00016950       ?contextMenuEvent@daqInfo@@MAEXPAVQContextMenuEvent@@@Z 00417950 f   daqinfo.obj
 0001:00016980       ?convert@?$ConverterFunctor@V?$QList@M@@VQSequentialIterableImpl@QtMetaTypePrivate@@U?$QSequentialIterableConvertFunctor@V?$QList@M@@@3@@QtPrivate@@SA_NPBUAbstractConverterFunction@2@PBXPAX@Z 00417980 f i daqinfo.obj
 0001:000169f0       ?convert@?$ConverterFunctor@V?$QList@_N@@VQSequentialIterableImpl@QtMetaTypePrivate@@U?$QSequentialIterableConvertFunctor@V?$QList@_N@@@3@@QtPrivate@@SA_NPBUAbstractConverterFunction@2@PBXPAX@Z 004179f0 f i daqinfo.obj
 0001:00016a60       ?getAddress@daqInfo@@QBE?AVQString@@XZ 00417a60 f   daqinfo.obj
 0001:00016a80       ?getModel@daqInfo@@QBE?AVQString@@XZ 00417a80 f   daqinfo.obj
 0001:00016aa0       ?getSN@daqInfo@@QBE?AVQString@@XZ 00417aa0 f   daqinfo.obj
 0001:00016ac0       ?getVersion@daqInfo@@QBE?AVQString@@XZ 00417ac0 f   daqinfo.obj
 0001:00016ae0       ?impl@?$QSlotObject@P8daqInfo@@AEXVQString@@00@ZU?$List@VQString@@V1@V1@@QtPrivate@@X@QtPrivate@@CAXHPAVQSlotObjectBase@2@PAVQObject@@PAPAXPA_N@Z 00417ae0 f i daqinfo.obj
 0001:00016ba0       ?impl@?$QSlotObject@P8daqInfo@@AEXVQString@@0@ZU?$List@VQString@@V1@@QtPrivate@@X@QtPrivate@@CAXHPAVQSlotObjectBase@2@PAVQObject@@PAPAXPA_N@Z 00417ba0 f i daqinfo.obj
 0001:00016ba0       ?impl@?$QSlotObject@P8CMainWindow@@AEXVQString@@0@ZU?$List@VQString@@V1@@QtPrivate@@X@QtPrivate@@CAXHPAVQSlotObjectBase@2@PAVQObject@@PAPAXPA_N@Z 00417ba0 f i main.obj
 0001:00016ba0       ?impl@?$QSlotObject@P8mainTab@@AEXVQString@@0@ZU?$List@VQString@@V1@@QtPrivate@@X@QtPrivate@@CAXHPAVQSlotObjectBase@2@PAVQObject@@PAPAXPA_N@Z 00417ba0 f i maintab.obj
 0001:00016c50       ?impl@?$QSlotObject@P8mainTab@@AEXVQString@@0H0@ZU?$List@VQString@@V1@HV1@@QtPrivate@@X@QtPrivate@@CAXHPAVQSlotObjectBase@2@PAVQObject@@PAPAXPA_N@Z 00417c50 f i maintab.obj
 0001:00016c50       ?impl@?$QSlotObject@P8daqInfo@@AEXVQString@@0H0@ZU?$List@VQString@@V1@HV1@@QtPrivate@@X@QtPrivate@@CAXHPAVQSlotObjectBase@2@PAVQObject@@PAPAXPA_N@Z 00417c50 f i daqinfo.obj
 0001:00016c50       ?impl@?$QSlotObject@P8CMainWindow@@AEXVQString@@0H0@ZU?$List@VQString@@V1@HV1@@QtPrivate@@X@QtPrivate@@CAXHPAVQSlotObjectBase@2@PAVQObject@@PAPAXPA_N@Z 00417c50 f i mainwindow.obj
 0001:00016d10       ?impl@?$QSlotObject@P8daqInfo@@AEXVQString@@@ZU?$List@VQString@@@QtPrivate@@X@QtPrivate@@CAXHPAVQSlotObjectBase@2@PAVQObject@@PAPAXPA_N@Z 00417d10 f i daqinfo.obj
 0001:00016d10       ?impl@?$QSlotObject@P8mainTab@@AEXVQString@@@ZU?$List@VQString@@@QtPrivate@@X@QtPrivate@@CAXHPAVQSlotObjectBase@2@PAVQObject@@PAPAXPA_N@Z 00417d10 f i maintab.obj
 0001:00016d10       ?impl@?$QSlotObject@P8CMainWindow@@AEXVQString@@@ZU?$List@VQString@@@QtPrivate@@X@QtPrivate@@CAXHPAVQSlotObjectBase@2@PAVQObject@@PAPAXPA_N@Z 00417d10 f i main.obj
 0001:00016db0       ?impl@?$QSlotObject@P8daqInfo@@AEXVQString@@EEEE@ZU?$List@VQString@@EEEE@QtPrivate@@X@QtPrivate@@CAXHPAVQSlotObjectBase@2@PAVQObject@@PAPAXPA_N@Z 00417db0 f i daqinfo.obj
 0001:00016db0       ?impl@?$QSlotObject@P8mainTab@@AEXVQString@@EEEE@ZU?$List@VQString@@EEEE@QtPrivate@@X@QtPrivate@@CAXHPAVQSlotObjectBase@2@PAVQObject@@PAPAXPA_N@Z 00417db0 f i maintab.obj
 0001:00016db0       ?impl@?$QSlotObject@P8CMainWindow@@AEXVQString@@EEEE@ZU?$List@VQString@@EEEE@QtPrivate@@X@QtPrivate@@CAXHPAVQSlotObjectBase@2@PAVQObject@@PAPAXPA_N@Z 00417db0 f i main.obj
 0001:00016e70       ?impl@?$QSlotObject@P8CMainWindow@@AEXVQString@@G@ZU?$List@VQString@@G@QtPrivate@@X@QtPrivate@@CAXHPAVQSlotObjectBase@2@PAVQObject@@PAPAXPA_N@Z 00417e70 f i main.obj
 0001:00016e70       ?impl@?$QSlotObject@P8daqInfo@@AEXVQString@@G@ZU?$List@VQString@@G@QtPrivate@@X@QtPrivate@@CAXHPAVQSlotObjectBase@2@PAVQObject@@PAPAXPA_N@Z 00417e70 f i daqinfo.obj
 0001:00016e70       ?impl@?$QSlotObject@P8mainTab@@AEXVQString@@G@ZU?$List@VQString@@G@QtPrivate@@X@QtPrivate@@CAXHPAVQSlotObjectBase@2@PAVQObject@@PAPAXPA_N@Z 00417e70 f i maintab.obj
 0001:00016f10       ?impl@?$QSlotObject@P8mainTab@@AEXVQString@@PAV?$QList@PAVvirbValue@@@@@ZU?$List@VQString@@PAV?$QList@PAVvirbValue@@@@@QtPrivate@@X@QtPrivate@@CAXHPAVQSlotObjectBase@2@PAVQObject@@PAPAXPA_N@Z 00417f10 f i mainwindow.obj
 0001:00016f10       ?impl@?$QSlotObject@P8CMainWindow@@AEXVQString@@PAV?$QVector@N@@@ZU?$List@VQString@@PAV?$QVector@N@@@QtPrivate@@X@QtPrivate@@CAXHPAVQSlotObjectBase@2@PAVQObject@@PAPAXPA_N@Z 00417f10 f i main.obj
 0001:00016f10       ?impl@?$QSlotObject@P8mainTab@@AEXVQString@@H@ZU?$List@VQString@@H@QtPrivate@@X@QtPrivate@@CAXHPAVQSlotObjectBase@2@PAVQObject@@PAPAXPA_N@Z 00417f10 f i maintab.obj
 0001:00016f10       ?impl@?$QSlotObject@P8daqInfo@@AEXVQString@@PAVWifiFsParas@@@ZU?$List@VQString@@PAVWifiFsParas@@@QtPrivate@@X@QtPrivate@@CAXHPAVQSlotObjectBase@2@PAVQObject@@PAPAXPA_N@Z 00417f10 f i daqinfo.obj
 0001:00016f10       ?impl@?$QSlotObject@P8CMainWindow@@AEXVQString@@H@ZU?$List@VQString@@H@QtPrivate@@X@QtPrivate@@CAXHPAVQSlotObjectBase@2@PAVQObject@@PAPAXPA_N@Z 00417f10 f i main.obj
 0001:00016f10       ?impl@?$QSlotObject@P8mainTab@@AEXVQString@@PAVWifiApParas@@@ZU?$List@VQString@@PAVWifiApParas@@@QtPrivate@@X@QtPrivate@@CAXHPAVQSlotObjectBase@2@PAVQObject@@PAPAXPA_N@Z 00417f10 f i maintab.obj
 0001:00016f10       ?impl@?$QSlotObject@P8daqInfo@@AEXVQString@@PAVWifiNetParas@@@ZU?$List@VQString@@PAVWifiNetParas@@@QtPrivate@@X@QtPrivate@@CAXHPAVQSlotObjectBase@2@PAVQObject@@PAPAXPA_N@Z 00417f10 f i daqinfo.obj
 0001:00016f10       ?impl@?$QSlotObject@P8daqInfo@@AEXVQString@@H@ZU?$List@VQString@@H@QtPrivate@@X@QtPrivate@@CAXHPAVQSlotObjectBase@2@PAVQObject@@PAPAXPA_N@Z 00417f10 f i daqinfo.obj
 0001:00016f10       ?impl@?$QSlotObject@P8CMainWindow@@AEXVQString@@PAVWifiApParas@@@ZU?$List@VQString@@PAVWifiApParas@@@QtPrivate@@X@QtPrivate@@CAXHPAVQSlotObjectBase@2@PAVQObject@@PAPAXPA_N@Z 00417f10 f i mainwindow.obj
 0001:00016f10       ?impl@?$QSlotObject@P8CMainWindow@@AEXVQString@@PAV?$QList@PAVvirbValue@@@@@ZU?$List@VQString@@PAV?$QList@PAVvirbValue@@@@@QtPrivate@@X@QtPrivate@@CAXHPAVQSlotObjectBase@2@PAVQObject@@PAPAXPA_N@Z 00417f10 f i main.obj
 0001:00016f10       ?impl@?$QSlotObject@P8CMainWindow@@AEXVQString@@PAVWifiFsParas@@@ZU?$List@VQString@@PAVWifiFsParas@@@QtPrivate@@X@QtPrivate@@CAXHPAVQSlotObjectBase@2@PAVQObject@@PAPAXPA_N@Z 00417f10 f i mainwindow.obj
 0001:00016f10       ?impl@?$QSlotObject@P8mainTab@@AEXVQString@@PAVWifiChParas@@@ZU?$List@VQString@@PAVWifiChParas@@@QtPrivate@@X@QtPrivate@@CAXHPAVQSlotObjectBase@2@PAVQObject@@PAPAXPA_N@Z 00417f10 f i maintab.obj
 0001:00016f10       ?impl@?$QSlotObject@P8daqInfo@@AEXVQString@@PAVWifiApParas@@@ZU?$List@VQString@@PAVWifiApParas@@@QtPrivate@@X@QtPrivate@@CAXHPAVQSlotObjectBase@2@PAVQObject@@PAPAXPA_N@Z 00417f10 f i daqinfo.obj
 0001:00016f10       ?impl@?$QSlotObject@P8CMainWindow@@AEXVQString@@PAVWifiChParas@@@ZU?$List@VQString@@PAVWifiChParas@@@QtPrivate@@X@QtPrivate@@CAXHPAVQSlotObjectBase@2@PAVQObject@@PAPAXPA_N@Z 00417f10 f i mainwindow.obj
 0001:00016f10       ?impl@?$QSlotObject@P8mainTab@@AEXVQString@@PAVWifiNetParas@@@ZU?$List@VQString@@PAVWifiNetParas@@@QtPrivate@@X@QtPrivate@@CAXHPAVQSlotObjectBase@2@PAVQObject@@PAPAXPA_N@Z 00417f10 f i maintab.obj
 0001:00016f10       ?impl@?$QSlotObject@P8CMainWindow@@AEXVQString@@PAVWifiNetParas@@@ZU?$List@VQString@@PAVWifiNetParas@@@QtPrivate@@X@QtPrivate@@CAXHPAVQSlotObjectBase@2@PAVQObject@@PAPAXPA_N@Z 00417f10 f i mainwindow.obj
 0001:00016f10       ?impl@?$QSlotObject@P8mainTab@@AEXVQString@@PAVWifiFsParas@@@ZU?$List@VQString@@PAVWifiFsParas@@@QtPrivate@@X@QtPrivate@@CAXHPAVQSlotObjectBase@2@PAVQObject@@PAPAXPA_N@Z 00417f10 f i maintab.obj
 0001:00016f10       ?impl@?$QSlotObject@P8daqInfo@@AEXVQString@@PAVWifiChParas@@@ZU?$List@VQString@@PAVWifiChParas@@@QtPrivate@@X@QtPrivate@@CAXHPAVQSlotObjectBase@2@PAVQObject@@PAPAXPA_N@Z 00417f10 f i daqinfo.obj
 0001:00016f10       ?impl@?$QSlotObject@P8mainTab@@AEXVQString@@PAV?$QVector@N@@@ZU?$List@VQString@@PAV?$QVector@N@@@QtPrivate@@X@QtPrivate@@CAXHPAVQSlotObjectBase@2@PAVQObject@@PAPAXPA_N@Z 00417f10 f i mainwindow.obj
 0001:00016fb0       ?impl@?$QSlotObject@P8mainTab@@AEXVQString@@PANH@ZU?$List@VQString@@PANH@QtPrivate@@X@QtPrivate@@CAXHPAVQSlotObjectBase@2@PAVQObject@@PAPAXPA_N@Z 00417fb0 f i mainwindow.obj
 0001:00016fb0       ?impl@?$QSlotObject@P8CMainWindow@@AEXVQString@@HH@ZU?$List@VQString@@HH@QtPrivate@@X@QtPrivate@@CAXHPAVQSlotObjectBase@2@PAVQObject@@PAPAXPA_N@Z 00417fb0 f i main.obj
 0001:00016fb0       ?impl@?$QSlotObject@P8daqInfo@@AEXVQString@@HH@ZU?$List@VQString@@HH@QtPrivate@@X@QtPrivate@@CAXHPAVQSlotObjectBase@2@PAVQObject@@PAPAXPA_N@Z 00417fb0 f i daqinfo.obj
 0001:00016fb0       ?impl@?$QSlotObject@P8CMainWindow@@AEXVQString@@PANH@ZU?$List@VQString@@PANH@QtPrivate@@X@QtPrivate@@CAXHPAVQSlotObjectBase@2@PAVQObject@@PAPAXPA_N@Z 00417fb0 f i main.obj
 0001:00016fb0       ?impl@?$QSlotObject@P8mainTab@@AEXVQString@@HH@ZU?$List@VQString@@HH@QtPrivate@@X@QtPrivate@@CAXHPAVQSlotObjectBase@2@PAVQObject@@PAPAXPA_N@Z 00417fb0 f i maintab.obj
 0001:00017050       ?impl@?$QSlotObject@P8daqInfo@@AEXVQString@@H_N@ZU?$List@VQString@@H_N@QtPrivate@@X@QtPrivate@@CAXHPAVQSlotObjectBase@2@PAVQObject@@PAPAXPA_N@Z 00418050 f i daqinfo.obj
 0001:00017050       ?impl@?$QSlotObject@P8mainTab@@AEXVQString@@H_N@ZU?$List@VQString@@H_N@QtPrivate@@X@QtPrivate@@CAXHPAVQSlotObjectBase@2@PAVQObject@@PAPAXPA_N@Z 00418050 f i maintab.obj
 0001:00017050       ?impl@?$QSlotObject@P8CMainWindow@@AEXVQString@@H_N@ZU?$List@VQString@@H_N@QtPrivate@@X@QtPrivate@@CAXHPAVQSlotObjectBase@2@PAVQObject@@PAPAXPA_N@Z 00418050 f i mainwindow.obj
 0001:000170f0       ?impl@?$QSlotObject@P8mainTab@@AEXVQString@@V?$QList@N@@@ZU?$List@VQString@@V?$QList@N@@@QtPrivate@@X@QtPrivate@@CAXHPAVQSlotObjectBase@2@PAVQObject@@PAPAXPA_N@Z 004180f0 f i maintab.obj
 0001:000170f0       ?impl@?$QSlotObject@P8daqInfo@@AEXVQString@@V?$QList@N@@@ZU?$List@VQString@@V?$QList@N@@@QtPrivate@@X@QtPrivate@@CAXHPAVQSlotObjectBase@2@PAVQObject@@PAPAXPA_N@Z 004180f0 f i daqinfo.obj
 0001:000170f0       ?impl@?$QSlotObject@P8CMainWindow@@AEXVQString@@V?$QList@N@@@ZU?$List@VQString@@V?$QList@N@@@QtPrivate@@X@QtPrivate@@CAXHPAVQSlotObjectBase@2@PAVQObject@@PAPAXPA_N@Z 004180f0 f i mainwindow.obj
 0001:000171a0       ?impl@?$QSlotObject@P8daqInfo@@AEXXZU?$List@$$V@QtPrivate@@X@QtPrivate@@CAXHPAVQSlotObjectBase@2@PAVQObject@@PAPAXPA_N@Z 004181a0 f i daqinfo.obj
 0001:000171a0       ?impl@?$QSlotObject@P8CMainWindow@@AEXXZU?$List@$$V@QtPrivate@@X@QtPrivate@@CAXHPAVQSlotObjectBase@2@PAVQObject@@PAPAXPA_N@Z 004181a0 f i mainwindow.obj
 0001:000171a0       ?impl@?$QSlotObject@P8mainTab@@AEXXZU?$List@$$V@QtPrivate@@X@QtPrivate@@CAXHPAVQSlotObjectBase@2@PAVQObject@@PAPAXPA_N@Z 004181a0 f i maintab.obj
 0001:00017210       ?impl@?$QSlotObject@P8tcpClient@@AEXVQString@@0V?$QList@M@@V?$QList@_N@@@ZU?$List@VQString@@V1@V?$QList@M@@V?$QList@_N@@@QtPrivate@@X@QtPrivate@@CAXHPAVQSlotObjectBase@2@PAVQObject@@PAPAXPA_N@Z 00418210 f i daqinfo.obj
 0001:00017300       ?impl@?$QSlotObject@P8tcpServer@@AEXVQString@@PAVWifiChParas@@@ZU?$List@VQString@@PAVWifiChParas@@@QtPrivate@@X@QtPrivate@@CAXHPAVQSlotObjectBase@2@PAVQObject@@PAPAXPA_N@Z 00418300 f i main.obj
 0001:00017300       ?impl@?$QSlotObject@P8tcpServer@@AEXVQString@@PAVWifiFsParas@@@ZU?$List@VQString@@PAVWifiFsParas@@@QtPrivate@@X@QtPrivate@@CAXHPAVQSlotObjectBase@2@PAVQObject@@PAPAXPA_N@Z 00418300 f i main.obj
 0001:00017300       ?impl@?$QSlotObject@P8tcpClient@@AEXVQString@@H@ZU?$List@VQString@@H@QtPrivate@@X@QtPrivate@@CAXHPAVQSlotObjectBase@2@PAVQObject@@PAPAXPA_N@Z 00418300 f i daqinfo.obj
 0001:00017300       ?impl@?$QSlotObject@P8tcpServer@@AEXVQString@@PAVWifiNetParas@@@ZU?$List@VQString@@PAVWifiNetParas@@@QtPrivate@@X@QtPrivate@@CAXHPAVQSlotObjectBase@2@PAVQObject@@PAPAXPA_N@Z 00418300 f i main.obj
 0001:00017300       ?impl@?$QSlotObject@P8tcpServer@@AEXVQString@@H@ZU?$List@VQString@@H@QtPrivate@@X@QtPrivate@@CAXHPAVQSlotObjectBase@2@PAVQObject@@PAPAXPA_N@Z 00418300 f i main.obj
 0001:00017300       ?impl@?$QSlotObject@P8tcpServer@@AEXVQString@@PAVWifiApParas@@@ZU?$List@VQString@@PAVWifiApParas@@@QtPrivate@@X@QtPrivate@@CAXHPAVQSlotObjectBase@2@PAVQObject@@PAPAXPA_N@Z 00418300 f i main.obj
 0001:00017370       ?impl@?$QSlotObject@P8tcpClient@@AEXVQString@@VQByteArray@@HPAV?$QList@N@@@ZU?$List@VQString@@VQByteArray@@HPAV?$QList@N@@@QtPrivate@@X@QtPrivate@@CAXHPAVQSlotObjectBase@2@PAVQObject@@PAPAXPA_N@Z 00418370 f i daqinfo.obj
 0001:000173f0       ?mouseReleaseEvent@daqInfo@@MAEXPAVQMouseEvent@@@Z 004183f0 f   daqinfo.obj
 0001:00017400       ?qt_metatype_id@?$QMetaTypeId2@V?$QList@M@@@@SAHXZ 00418400 f i daqinfo.obj
 0001:000175e0       ?qt_metatype_id@?$QMetaTypeId2@V?$QList@_N@@@@SAHXZ 004185e0 f i daqinfo.obj
 0001:000177c0       ?retranslateUi@Ui_daqInfo@@QAEXPAVQWidget@@@Z 004187c0 f i daqinfo.obj
 0001:00017ca0       ?selectFirmware@daqInfo@@QAEXXZ 00418ca0 f   daqinfo.obj
 0001:00017d80       ?setAddress@daqInfo@@QAEXVQString@@@Z 00418d80 f   daqinfo.obj
 0001:00017da0       ?setModel@daqInfo@@QAEXVQString@@@Z 00418da0 f   daqinfo.obj
 0001:00017e40       ?setSN@daqInfo@@QAEXVQString@@@Z 00418e40 f   daqinfo.obj
 0001:00017ef0       ?setVersion@daqInfo@@QAEXVQString@@@Z 00418ef0 f   daqinfo.obj
 0001:00017f60       ?setupUi@Ui_daqInfo@@QAEXPAVQWidget@@@Z 00418f60 f i daqinfo.obj
 0001:00019010       ?showSettings@daqInfo@@QAEXXZ 0041a010 f   daqinfo.obj
 0001:00019030       ?startStop@daqInfo@@AAEXXZ 0041a030 f   daqinfo.obj
 0001:00019130       ?updateAPName@daqInfo@@QAEXVQString@@@Z 0041a130 f   daqinfo.obj
 0001:00019190       ?updateAlertJunyue@daqInfo@@QAEXV?$QList@M@@@Z 0041a190 f   daqinfo.obj
 0001:00019220       ?updateAlertTimeSpan@daqInfo@@QAEXHH@Z 0041a220 f   daqinfo.obj
 0001:00019230       ?updateAutoSpanFromWs@daqInfo@@QAEXH@Z 0041a230 f   daqinfo.obj
 0001:00019240       ?updateAutoWave@daqInfo@@QAEXHVQByteArray@@PAV?$QList@N@@@Z 0041a240 f   daqinfo.obj
 0001:00019310       ?updateChParas@daqInfo@@QAEXVWifiChParas@@@Z 0041a310 f   daqinfo.obj
 0001:00019370       ?updateChStatus@daqInfo@@QAEXG@Z 0041a370 f   daqinfo.obj
 0001:00019380       ?updateChannelFSFromWs@daqInfo@@QAEXV?$QList@N@@@Z 0041a380 f   daqinfo.obj
 0001:000193e0       ?updateCharacters@daqInfo@@QAEXV?$QVector@N@@@Z 0041a3e0 f   daqinfo.obj
 0001:00019420       ?updateCharactersJunyue@daqInfo@@QAEXVQString@@V?$QList@M@@V?$QList@_N@@@Z 0041a420 f   daqinfo.obj
 0001:00019550       ?updateFsMode@daqInfo@@QAEXH@Z 0041a550 f   daqinfo.obj
 0001:00019560       ?updateFsParas@daqInfo@@QAEXVWifiFsParas@@@Z 0041a560 f   daqinfo.obj
 0001:00019580       ?updateInfo@daqInfo@@QAEXXZ 0041a580 f   daqinfo.obj
 0001:000195c0       ?updateNetParas@daqInfo@@QAEXVWifiNetParas@@@Z 0041a5c0 f   daqinfo.obj
 0001:00019630       ?updatePowerMode2@daqInfo@@QAEXEEEE@Z 0041a630 f   daqinfo.obj
 0001:00019640       ?updatePowerMode@daqInfo@@QAEXEEE@Z 0041a640 f   daqinfo.obj
 0001:00019650       ?updateSSS@daqInfo@@QAEXVQString@@@Z 0041a650 f   daqinfo.obj
 0001:000196b0       ?updateStatus@daqInfo@@QAEXH@Z 0041a6b0 f   daqinfo.obj
 0001:00019720       ?updateTCPserver@daqInfo@@QAEXVQString@@H@Z 0041a720 f   daqinfo.obj
 0001:00019780       ?updateTcpServerForCharacter@daqInfo@@QAEXVQString@@H@Z 0041a780 f   daqinfo.obj
 0001:000197e0       ?updateTemperature@daqInfo@@QAEXPANH@Z 0041a7e0 f   daqinfo.obj
 0001:00019a10       ?updateVib@daqInfo@@QAEXPAV?$QList@PAVvirbValue@@@@@Z 0041aa10 f   daqinfo.obj
 0001:00019a20       ?updateWave@daqInfo@@QAEXPAV?$QVector@N@@@Z 0041aa20 f   daqinfo.obj
 0001:00019a30       ?viewAutoWave@daqInfo@@QAEXXZ 0041aa30 f   daqinfo.obj
 0001:00019a50       ?viewCharacter@daqInfo@@QAEXXZ 0041aa50 f   daqinfo.obj
 0001:00019a70       ?viewWave@daqInfo@@QAEXXZ  0041aa70 f   daqinfo.obj
 0001:00019c30       _http_parser_execute       0041ac30 f   http_parser.obj
 0001:0001c020       _http_parser_init          0041d020 f   http_parser.obj
 0001:0001c070       _http_parser_parse_url     0041d070 f   http_parser.obj
 0001:0001c310       _http_should_keep_alive    0041d310 f   http_parser.obj
 0001:0001c5e0       ??$?0VQWaitCondition@@P6AXPAV0@@Z@?$QSharedPointer@VQWaitCondition@@@@QAE@PAVQWaitCondition@@P6AX0@Z@Z 0041d5e0 f i qasynhttpsocket.obj
 0001:0001c640       ??0?$QSharedPointer@VQWaitCondition@@@@QAE@ABV0@@Z 0041d640 f i qasynhttpsocket.obj
 0001:0001c670       ??0QAsynHttpSocket@@QAE@HPAVQObject@@@Z 0041d670 f   qasynhttpsocket.obj
 0001:0001c890       ??1?$QHash@VQString@@V1@@@QAE@XZ 0041d890 f i qasynhttpsocket.obj
 0001:0001c8f0       ??1?$QSharedPointer@VQWaitCondition@@@@QAE@XZ 0041d8f0 f i qasynhttpsocket.obj
 0001:0001c960       ??1QAsynHttpSocket@@UAE@XZ 0041d960 f   qasynhttpsocket.obj
 0001:0001caf0       ??4?$QSharedPointer@VQWaitCondition@@@@QAEAAV0@$$QAV0@@Z 0041daf0 f i qasynhttpsocket.obj
 0001:0001cb80       ??A?$QHash@VQString@@V1@@@QAEAAVQString@@ABV1@@Z 0041db80 f i qasynhttpsocket.obj
 0001:0001cc90       ??_EQAsynHttpSocket@@UAEPAXI@Z 0041dc90 f i qasynhttpsocket.obj
 0001:0001cc90       ??_GQAsynHttpSocket@@UAEPAXI@Z 0041dc90 f i qasynhttpsocket.obj
 0001:0001ccb0       ?addSN@QAsynHttpSocket@@AAEXVQString@@@Z 0041dcb0 f   qasynhttpsocket.obj
 0001:0001ccb0       ?delSN@QAsynHttpSocket@@AAEXVQString@@@Z 0041dcb0 f   qasynhttpsocket.obj
 0001:0001ccc0       ?clear@?$QSharedPointer@VQWaitCondition@@@@QAEXXZ 0041dcc0 f i qasynhttpsocket.obj
 0001:0001cd40       ?contains@?$QList@VQString@@@@QBE_NABVQString@@@Z 0041dd40 f i qasynhttpsocket.obj
 0001:0001cd90       ?createUrl@@YA?AVQUrl@@PBDABUhttp_parser_url@@@Z 0041dd90 f   qasynhttpsocket.obj
 0001:0001d120       ?delCondition@@YAXPAVQWaitCondition@@@Z 0041e120 f   qasynhttpsocket.obj
 0001:0001d140       ?deleteNode2@?$QHash@VQString@@V1@@@CAXPAUNode@QHashData@@@Z 0041e140 f i qasynhttpsocket.obj
 0001:0001d160       ?deleter@?$ExternalRefCountWithCustomDeleter@VQWaitCondition@@P6AXPAV1@@Z@QtSharedPointer@@SAXPAUExternalRefCountData@2@@Z 0041e160 f i qasynhttpsocket.obj
 0001:0001d170       ?detach@?$QHash@VQString@@V1@@@QAEXXZ 0041e170 f i qasynhttpsocket.obj
 0001:0001d1d0       ?detach_helper@?$QHash@VQString@@V1@@@AAEXXZ 0041e1d0 f i qasynhttpsocket.obj
 0001:0001d220       ?doBody@QAsynHttpSocket@@CAHPAUhttp_parser@@PBDI@Z 0041e220 f   qasynhttpsocket.obj
 0001:0001d240       ___scrt_stub_for_initialize_mta 0041e240 f   MSVCRT:utility_desktop.obj
 0001:0001d240       ?doChunkHeader@QAsynHttpSocket@@CAHPAUhttp_parser@@@Z 0041e240 f   qasynhttpsocket.obj
 0001:0001d240       __get_startup_new_mode     0041e240 f   MSVCRT:new_mode.obj
 0001:0001d240       ___scrt_exe_initialize_mta 0041e240 f   MSVCRT:utility_desktop.obj
 0001:0001d240       __matherr                  0041e240 f   MSVCRT:matherr.obj
 0001:0001d240       ___scrt_initialize_winrt   0041e240 f   MSVCRT:utility_desktop.obj
 0001:0001d240       __get_startup_thread_locale_mode 0041e240 f   MSVCRT:thread_locale.obj
 0001:0001d240       ?doChunkComplete@QAsynHttpSocket@@CAHPAUhttp_parser@@@Z 0041e240 f   qasynhttpsocket.obj
 0001:0001d240       __get_startup_commit_mode  0041e240 f   MSVCRT:commit_mode.obj
 0001:0001d250       ?doDisconnected@QAsynHttpSocket@@AAEXXZ 0041e250 f   qasynhttpsocket.obj
 0001:0001d2f0       ?doHeaderField@QAsynHttpSocket@@CAHPAUhttp_parser@@PBDI@Z 0041e2f0 f   qasynhttpsocket.obj
 0001:0001d3f0       ?doHeaderValue@QAsynHttpSocket@@CAHPAUhttp_parser@@PBDI@Z 0041e3f0 f   qasynhttpsocket.obj
 0001:0001d460       ?doHeadersComplete@QAsynHttpSocket@@CAHPAUhttp_parser@@@Z 0041e460 f   qasynhttpsocket.obj
 0001:0001d4d0       ?doMessageBegin@QAsynHttpSocket@@CAHPAUhttp_parser@@@Z 0041e4d0 f   qasynhttpsocket.obj
 0001:0001d5a0       ?doMessageComplete@QAsynHttpSocket@@CAHPAUhttp_parser@@@Z 0041e5a0 f   qasynhttpsocket.obj
 0001:0001d880       ?doParseRequest@QAsynHttpSocket@@AAEXXZ 0041e880 f   qasynhttpsocket.obj
 0001:0001d920       ?doStatus@QAsynHttpSocket@@CAHPAUhttp_parser@@PBDI@Z 0041e920 f   qasynhttpsocket.obj
 0001:0001d940       ?doUpdateWriteCount@QAsynHttpSocket@@AAEX_J@Z 0041e940 f   qasynhttpsocket.obj
 0001:0001d990       ?doUrl@QAsynHttpSocket@@CAHPAUhttp_parser@@PBDI@Z 0041e990 f   qasynhttpsocket.obj
 0001:0001d9b0       ?duplicateNode@?$QHash@VQString@@V1@@@CAXPAUNode@QHashData@@PAX@Z 0041e9b0 f i qasynhttpsocket.obj
 0001:0001d9f0       ?findNode@?$QHash@VQString@@V1@@@ABEPAPAU?$QHashNode@VQString@@V1@@@ABVQString@@I@Z 0041e9f0 f i qasynhttpsocket.obj
 0001:0001da60       ?handleRequest@QAsynHttpSocket@@AAEXPAVQHttpRequest@@PAVQHttpResponse@@@Z 0041ea60 f   qasynhttpsocket.obj
 0001:00020400       ?waitForBytesWritten@QAsynHttpSocket@@QAEXXZ 00421400 f   qasynhttpsocket.obj
 0001:00020410       ?write@QAsynHttpSocket@@QAEXABVQByteArray@@@Z 00421410 f   qasynhttpsocket.obj
 0001:00020430       ??0QAsynTcpServer@@QAE@PAVQObject@@H@Z 00421430 f   qasyntcpserver.obj
 0001:000204b0       ??1QAsynTcpServer@@UAE@XZ  004214b0 f   qasyntcpserver.obj
 0001:000205cf       ??_9QAbstractSocket@@$BHI@AE 004215cf f i qasyntcpserver.obj
 0001:000205e0       ??_EQAsynTcpServer@@UAEPAXI@Z 004215e0 f i qasyntcpserver.obj
 0001:000205e0       ??_GQAsynTcpServer@@UAEPAXI@Z 004215e0 f i qasyntcpserver.obj
 0001:00020710       ?detach@?$QHash@HPAVQTcpSocket@@@@QAEXXZ 00421710 f i qasyntcpserver.obj
 0001:00020710       ?detach@?$QHash@PAVQThread@@I@@QAEXXZ 00421710 f i threadhandle.obj
 0001:00020770       ?duplicateNode@?$QHash@HPAVQTcpSocket@@@@CAXPAUNode@QHashData@@PAX@Z 00421770 f i qasyntcpserver.obj
 0001:00020770       ?duplicateNode@?$QHash@PAVQThread@@I@@CAXPAUNode@QHashData@@PAX@Z 00421770 f i threadhandle.obj
 0001:000207a0       ?findNode@?$QHash@PAVQThread@@I@@ABEPAPAU?$QHashNode@PAVQThread@@I@@ABQAVQThread@@I@Z 004217a0 f i threadhandle.obj
 0001:000207a0       ?findNode@?$QHash@HVQString@@@@ABEPAPAU?$QHashNode@HVQString@@@@ABHI@Z 004217a0 f i qhttpresponse.obj
 0001:000207a0       ?findNode@?$QHash@HPAVQTcpSocket@@@@ABEPAPAU?$QHashNode@HPAVQTcpSocket@@@@ABHI@Z 004217a0 f i qasyntcpserver.obj
 0001:000207f0       ?impl@?$QSlotObject@P8QAsynTcpServer@@AEXHABVQString@@GPAVQThread@@@ZU?$List@HABVQString@@GPAVQThread@@@QtPrivate@@X@QtPrivate@@CAXHPAVQSlotObjectBase@2@PAVQObject@@PAPAXPA_N@Z 004217f0 f i qasyntcpserver.obj
 0001:00020860       ?incomingConnection@QAsynTcpServer@@MAEXH@Z 00421860 f   qasyntcpserver.obj
 0001:00020ab0       ?sockDisConnectSlot@QHttpServer@@IAEXHABVQString@@GPAVQThread@@@Z 00421ab0 f   qhttpserver.obj
 0001:00020ab0       ?sockDisConnectSlot@QAsynTcpServer@@IAEXHABVQString@@GPAVQThread@@@Z 00421ab0 f   qasyntcpserver.obj
 0001:00020b40       ??0QAsynTcpSocket@@QAE@HPAVQObject@@@Z 00421b40 f   qasyntcpsocket.obj
 0001:00020c20       ??_GQAsynTcpSocket@@UAEPAXI@Z 00421c20 f i qasyntcpsocket.obj
 0001:00020c20       ??_EQAsynTcpSocket@@UAEPAXI@Z 00421c20 f i qasyntcpsocket.obj
 0001:00020c50       ?doDisconnected@QAsynTcpSocket@@AAEXXZ 00421c50 f   qasyntcpsocket.obj
 0001:00020cf0       ?doUpdateWriteCount@QAsynTcpSocket@@AAEX_J@Z 00421cf0 f   qasyntcpsocket.obj
 0001:00020d40       ??0QHttpRequest@@AAE@PAVQAsynHttpSocket@@PAVQObject@@@Z 00421d40 f   qhttprequest.obj
 0001:00020e00       ??_GQHttpRequest@@UAEPAXI@Z 00421e00 f i qhttprequest.obj
 0001:00020e00       ??_EQHttpRequest@@UAEPAXI@Z 00421e00 f i qhttprequest.obj
 0001:00020ec0       ?appendBody@QHttpRequest@@AAEXABVQByteArray@@@Z 00421ec0 f   qhttprequest.obj
 0001:00020ed0       ?headers@QHttpRequest@@QBEABV?$QHash@VQString@@V1@@@XZ 00421ed0 f   qhttprequest.obj
 0001:00020ee0       ?httpVersion@QHttpRequest@@QBEABVQString@@XZ 00421ee0 f   qhttprequest.obj
 0001:00020ef0       ?method@QHttpRequest@@QBE?AW4HttpMethod@1@XZ 00421ef0 f   qhttprequest.obj
 0001:00020f00       ?path@QHttpRequest@@QBE?BVQString@@XZ 00421f00 f   qhttprequest.obj
 0001:00020f20       ?remoteAddress@QHttpRequest@@QBEABVQString@@XZ 00421f20 f   qhttprequest.obj
 0001:00020f30       ?remotePort@QHttpRequest@@QBEGXZ 00421f30 f   qhttprequest.obj
 0001:00020f40       ?url@QHttpRequest@@QBEABVQUrl@@XZ 00421f40 f   qhttprequest.obj
 0001:00020f50       ??0QHttpResponse@@AAE@PAVQAsynHttpSocket@@@Z 00421f50 f   qhttpresponse.obj
 0001:00021c70       ??A?$QHash@HVQString@@@@QAEAAVQString@@ABH@Z 00422c70 f i qhttpresponse.obj
 0001:00021d70       ??_EQHttpResponse@@UAEPAXI@Z 00422d70 f i qhttpresponse.obj
 0001:00021d70       ??_GQHttpResponse@@UAEPAXI@Z 00422d70 f i qhttpresponse.obj
 0001:00021e00       ?connectionClosed@QHttpResponse@@AAEXXZ 00422e00 f   qhttpresponse.obj
 0001:00021e20       ?deleteNode2@?$QHash@HVQString@@@@CAXPAUNode@QHashData@@@Z 00422e20 f i qhttpresponse.obj
 0001:00021e30       ?detach@?$QHash@HVQString@@@@QAEXXZ 00422e30 f i qhttpresponse.obj
 0001:00021e90       ?duplicateNode@?$QHash@HVQString@@@@CAXPAUNode@QHashData@@PAX@Z 00422e90 f i qhttpresponse.obj
 0001:00021ec0       ?end@QHttpResponse@@QAEXABVQByteArray@@@Z 00422ec0 f   qhttpresponse.obj
 0001:00021fb0       ?flush@QHttpResponse@@QAEXXZ 00422fb0 f   qhttpresponse.obj
 0001:00021fc0       ?insert@?$QHash@HVQString@@@@QAE?AViterator@1@ABHABVQString@@@Z 00422fc0 f i qhttpresponse.obj
 0001:00022070       ?setHeader@QHttpResponse@@QAEXABVQString@@0@Z 00423070 f   qhttpresponse.obj
 0001:00022110       ?waitForBytesWritten@QHttpResponse@@QAEXXZ 00423110 f   qhttpresponse.obj
 0001:00022120       ?write@QHttpResponse@@QAEXABVQByteArray@@@Z 00423120 f   qhttpresponse.obj
 0001:00022200       ?writeHead@QHttpResponse@@QAEXH@Z 00423200 f   qhttpresponse.obj
 0001:00022440       ?writeHead@QHttpResponse@@QAEXW4StatusCode@1@@Z 00423440 f   qhttpresponse.obj
 0001:00022450       ?writeHeader@QHttpResponse@@AAEXPBDABVQString@@@Z 00423450 f   qhttpresponse.obj
 0001:00022680       ?writeHeaders@QHttpResponse@@AAEXXZ 00423680 f   qhttpresponse.obj
 0001:00022c60       ??0QHttpServer@@QAE@PAVQObject@@H@Z 00423c60 f   qhttpserver.obj
 0001:00022c90       ??1QHttpServer@@UAE@XZ     00423c90 f   qhttpserver.obj
 0001:00022ca0       ??_GQHttpServer@@UAEPAXI@Z 00423ca0 f i qhttpserver.obj
 0001:00022ca0       ??_EQHttpServer@@UAEPAXI@Z 00423ca0 f i qhttpserver.obj
 0001:00022cd0       ?addSN@QHttpServer@@QAEXVQString@@@Z 00423cd0 f   qhttpserver.obj
 0001:00022d20       ?delSN@QHttpServer@@QAEXVQString@@@Z 00423d20 f   qhttpserver.obj
 0001:00022e70       ?handleRequest@QHttpServer@@AAEXPAVQHttpRequest@@PAVQHttpResponse@@@Z 00423e70 f   qhttpserver.obj
 0001:000230a0       ?incomingConnection@QHttpServer@@MAEXH@Z 004240a0 f   qhttpserver.obj
 0001:00023330       ?startListen@QHttpServer@@QAEXVQString@@G@Z 00424330 f   qhttpserver.obj
 0001:000233e0       ?clear@ThreadHandle@@QAEXXZ 004243e0 f   threadhandle.obj
 0001:00023440       ?getClass@ThreadHandle@@SAAAV1@XZ 00424440 f   threadhandle.obj
 0001:000234a0       ?getThread@ThreadHandle@@QAEPAVQThread@@XZ 004244a0 f   threadhandle.obj
 0001:00023660       ?initThreadType@ThreadHandle@@QAEXW4ThreadType@1@I@Z 00424660 f   threadhandle.obj
 0001:00023830       ?insert@?$QHash@PAVQThread@@I@@QAE?AViterator@1@ABQAVQThread@@ABI@Z 00424830 f i threadhandle.obj
 0001:000238d0       ?removeThread@ThreadHandle@@QAEXPAVQThread@@@Z 004248d0 f   threadhandle.obj
 0001:000239d0       ??$atImpl@V?$QVector@N@@@QSequentialIterableImpl@QtMetaTypePrivate@@SAPBXPBXH@Z 004249d0 f i main.obj
 0001:000239f0       ??$connect@P8CMainWindow@@AEXVQString@@PAVWifiChParas@@@ZP8tcpServer@@AEX01@Z@QObject@@SA?AVConnection@QMetaObject@@PBVCMainWindow@@P83@AEXVQString@@PAVWifiChParas@@@ZPBVtcpServer@@P86@AEX12@ZW4ConnectionType@Qt@@@Z 004249f0 f i main.obj
 0001:00023af0       ??$connect@P8CMainWindow@@AEXVQString@@PAVWifiFsParas@@@ZP8tcpServer@@AEX01@Z@QObject@@SA?AVConnection@QMetaObject@@PBVCMainWindow@@P83@AEXVQString@@PAVWifiFsParas@@@ZPBVtcpServer@@P86@AEX12@ZW4ConnectionType@Qt@@@Z 00424af0 f i main.obj
 0001:00023bf0       ??$connect@P8CMainWindow@@AEXVQString@@V?$QList@N@@@ZP8tcpServer@@AEX01@Z@QObject@@SA?AVConnection@QMetaObject@@PBVCMainWindow@@P83@AEXVQString@@V?$QList@N@@@ZPBVtcpServer@@P86@AEX12@ZW4ConnectionType@Qt@@@Z 00424bf0 f i main.obj
 0001:00023cf0       ??$getImpl@V?$QVector@N@@@QSequentialIterableImpl@QtMetaTypePrivate@@SA?AUVariantData@1@PBQAXHI@Z 00424cf0 f i main.obj
 0001:00023d10       ??$moveToBeginImpl@V?$QVector@N@@@QSequentialIterableImpl@QtMetaTypePrivate@@SAXPBXPAPAX@Z 00424d10 f i main.obj
 0001:00023d30       ??$moveToEndImpl@V?$QVector@N@@@QSequentialIterableImpl@QtMetaTypePrivate@@SAXPBXPAPAX@Z 00424d30 f i main.obj
 0001:00023d50       ??$sizeImpl@V?$QVector@N@@@QSequentialIterableImpl@QtMetaTypePrivate@@SAHPBX@Z 00424d50 f i main.obj
 0001:00023d60       ?ApplicationCrashHandler@@YGJPAU_EXCEPTION_POINTERS@@@Z 00424d60 f   main.obj
 0001:00023fc0       ?Construct@?$QMetaTypeFunctionHelper@V?$QVector@N@@$00@QtMetaTypePrivate@@SAPAXPAXPBX@Z 00424fc0 f i main.obj
 0001:000240b0       ?Construct@?$QMetaTypeFunctionHelper@VWifiApParas@@$00@QtMetaTypePrivate@@SAPAXPAXPBX@Z 004250b0 f i main.obj
 0001:000240d0       ?Construct@?$QMetaTypeFunctionHelper@VWifiChParas@@$00@QtMetaTypePrivate@@SAPAXPAXPBX@Z 004250d0 f i main.obj
 0001:000240f0       ?Construct@?$QMetaTypeFunctionHelper@VWifiFsParas@@$00@QtMetaTypePrivate@@SAPAXPAXPBX@Z 004250f0 f i main.obj
 0001:00024110       ?Destruct@?$QMetaTypeFunctionHelper@V?$QVector@N@@$00@QtMetaTypePrivate@@SAXPAX@Z 00425110 f i main.obj
 0001:00024140       ?Destruct@?$QMetaTypeFunctionHelper@VWifiApParas@@$00@QtMetaTypePrivate@@SAXPAX@Z 00425140 f i main.obj
 0001:00024150       ?Destruct@?$QMetaTypeFunctionHelper@VWifiChParas@@$00@QtMetaTypePrivate@@SAXPAX@Z 00425150 f i main.obj
 0001:00024160       ?MyDummySetUnhandledExceptionFilter@@YGP6GJPAU_EXCEPTION_POINTERS@@@ZP6GJ0@Z@Z 00425160 f   main.obj
 0001:00024170       ?advance@?$IteratorOwner@PBN@QtMetaTypePrivate@@SAXPAPAXH@Z 00425170 f i main.obj
 0001:00024190       ?assign@?$IteratorOwner@PBN@QtMetaTypePrivate@@SAXPAPAXPBQAX@Z 00425190 f i main.obj
 0001:000241a0       ?convert@?$ConverterFunctor@V?$QVector@N@@VQSequentialIterableImpl@QtMetaTypePrivate@@U?$QSequentialIterableConvertFunctor@V?$QVector@N@@@3@@QtPrivate@@SA_NPBUAbstractConverterFunction@2@PBXPAX@Z 004251a0 f i main.obj
 0001:00024210       ?equal@?$IteratorOwner@PBN@QtMetaTypePrivate@@SA_NPBQAX0@Z 00425210 f i main.obj
 0001:00024270       ?impl@?$QSlotObject@P8mainTab@@AEXHVQString@@0@ZU?$List@HVQString@@V1@@QtPrivate@@X@QtPrivate@@CAXHPAVQSlotObjectBase@2@PAVQObject@@PAPAXPA_N@Z 00425270 f i mainwindow.obj
 0001:00024270       ?impl@?$QSlotObject@P8CMainWindow@@AEXHVQString@@0@ZU?$List@HVQString@@V1@@QtPrivate@@X@QtPrivate@@CAXHPAVQSlotObjectBase@2@PAVQObject@@PAPAXPA_N@Z 00425270 f i main.obj
 0001:00024320       ?impl@?$QSlotObject@P8mainTab@@AEXHVQString@@@ZU?$List@HVQString@@@QtPrivate@@X@QtPrivate@@CAXHPAVQSlotObjectBase@2@PAVQObject@@PAPAXPA_N@Z 00425320 f i mainwindow.obj
 0001:00024320       ?impl@?$QSlotObject@P8CMainWindow@@AEXHVQString@@@ZU?$List@HVQString@@@QtPrivate@@X@QtPrivate@@CAXHPAVQSlotObjectBase@2@PAVQObject@@PAPAXPA_N@Z 00425320 f i main.obj
 0001:000243c0       ?impl@?$QSlotObject@P8mainTab@@AEXVQString@@0H@ZU?$List@VQString@@V1@H@QtPrivate@@X@QtPrivate@@CAXHPAVQSlotObjectBase@2@PAVQObject@@PAPAXPA_N@Z 004253c0 f i mainwindow.obj
 0001:000243c0       ?impl@?$QSlotObject@P8CMainWindow@@AEXVQString@@0H@ZU?$List@VQString@@V1@H@QtPrivate@@X@QtPrivate@@CAXHPAVQSlotObjectBase@2@PAVQObject@@PAPAXPA_N@Z 004253c0 f i main.obj
 0001:00024470       ?impl@?$QSlotObject@P8CMainWindow@@AEXVQString@@0V?$QList@M@@V?$QList@_N@@@ZU?$List@VQString@@V1@V?$QList@M@@V?$QList@_N@@@QtPrivate@@X@QtPrivate@@CAXHPAVQSlotObjectBase@2@PAVQObject@@PAPAXPA_N@Z 00425470 f i main.obj
 0001:00024470       ?impl@?$QSlotObject@P8mainTab@@AEXVQString@@0V?$QList@M@@V?$QList@_N@@@ZU?$List@VQString@@V1@V?$QList@M@@V?$QList@_N@@@QtPrivate@@X@QtPrivate@@CAXHPAVQSlotObjectBase@2@PAVQObject@@PAPAXPA_N@Z 00425470 f i mainwindow.obj
 0001:00024590       ?impl@?$QSlotObject@P8CMainWindow@@AEXVQString@@EEE@ZU?$List@VQString@@EEE@QtPrivate@@X@QtPrivate@@CAXHPAVQSlotObjectBase@2@PAVQObject@@PAPAXPA_N@Z 00425590 f i main.obj
 0001:00024590       ?impl@?$QSlotObject@P8mainTab@@AEXVQString@@EEE@ZU?$List@VQString@@EEE@QtPrivate@@X@QtPrivate@@CAXHPAVQSlotObjectBase@2@PAVQObject@@PAPAXPA_N@Z 00425590 f i mainwindow.obj
 0001:00024640       ?impl@?$QSlotObject@P8CMainWindow@@AEXVQString@@V?$QList@M@@@ZU?$List@VQString@@V?$QList@M@@@QtPrivate@@X@QtPrivate@@CAXHPAVQSlotObjectBase@2@PAVQObject@@PAPAXPA_N@Z 00425640 f i main.obj
 0001:00024640       ?impl@?$QSlotObject@P8mainTab@@AEXVQString@@V?$QList@M@@@ZU?$List@VQString@@V?$QList@M@@@QtPrivate@@X@QtPrivate@@CAXHPAVQSlotObjectBase@2@PAVQObject@@PAPAXPA_N@Z 00425640 f i mainwindow.obj
 0001:000246f0       ?impl@?$QSlotObject@P8CMainWindow@@AEXVQString@@VQByteArray@@HPAV?$QList@N@@@ZU?$List@VQString@@VQByteArray@@HPAV?$QList@N@@@QtPrivate@@X@QtPrivate@@CAXHPAVQSlotObjectBase@2@PAVQObject@@PAPAXPA_N@Z 004256f0 f i main.obj
 0001:000246f0       ?impl@?$QSlotObject@P8mainTab@@AEXVQString@@VQByteArray@@HPAV?$QList@N@@@ZU?$List@VQString@@VQByteArray@@HPAV?$QList@N@@@QtPrivate@@X@QtPrivate@@CAXHPAVQSlotObjectBase@2@PAVQObject@@PAPAXPA_N@Z 004256f0 f i mainwindow.obj
 0001:000247b0       ?impl@?$QSlotObject@P8CMainWindow@@AEXVQString@@VWifiApParas@@@ZU?$List@VQString@@VWifiApParas@@@QtPrivate@@X@QtPrivate@@CAXHPAVQSlotObjectBase@2@PAVQObject@@PAPAXPA_N@Z 004257b0 f i main.obj
 0001:000247b0       ?impl@?$QSlotObject@P8mainTab@@AEXVQString@@VWifiApParas@@@ZU?$List@VQString@@VWifiApParas@@@QtPrivate@@X@QtPrivate@@CAXHPAVQSlotObjectBase@2@PAVQObject@@PAPAXPA_N@Z 004257b0 f i mainwindow.obj
 0001:00024860       ?impl@?$QSlotObject@P8mainTab@@AEXVQString@@VWifiChParas@@@ZU?$List@VQString@@VWifiChParas@@@QtPrivate@@X@QtPrivate@@CAXHPAVQSlotObjectBase@2@PAVQObject@@PAPAXPA_N@Z 00425860 f i mainwindow.obj
 0001:00024860       ?impl@?$QSlotObject@P8CMainWindow@@AEXVQString@@VWifiChParas@@@ZU?$List@VQString@@VWifiChParas@@@QtPrivate@@X@QtPrivate@@CAXHPAVQSlotObjectBase@2@PAVQObject@@PAPAXPA_N@Z 00425860 f i main.obj
 0001:00024910       ?impl@?$QSlotObject@P8mainTab@@AEXVQString@@VWifiFsParas@@@ZU?$List@VQString@@VWifiFsParas@@@QtPrivate@@X@QtPrivate@@CAXHPAVQSlotObjectBase@2@PAVQObject@@PAPAXPA_N@Z 00425910 f i mainwindow.obj
 0001:00024910       ?impl@?$QSlotObject@P8CMainWindow@@AEXVQString@@VWifiFsParas@@@ZU?$List@VQString@@VWifiFsParas@@@QtPrivate@@X@QtPrivate@@CAXHPAVQSlotObjectBase@2@PAVQObject@@PAPAXPA_N@Z 00425910 f i main.obj
 0001:000249c0       ?impl@?$QSlotObject@P8CMainWindow@@AEXVQString@@VWifiNetParas@@@ZU?$List@VQString@@VWifiNetParas@@@QtPrivate@@X@QtPrivate@@CAXHPAVQSlotObjectBase@2@PAVQObject@@PAPAXPA_N@Z 004259c0 f i main.obj
 0001:000249c0       ?impl@?$QSlotObject@P8mainTab@@AEXVQString@@VWifiNetParas@@@ZU?$List@VQString@@VWifiNetParas@@@QtPrivate@@X@QtPrivate@@CAXHPAVQSlotObjectBase@2@PAVQObject@@PAPAXPA_N@Z 004259c0 f i mainwindow.obj
 0001:00024a70       ?impl@?$QSlotObject@P8mainTab@@AEXVQString@@_N@ZU?$List@VQString@@_N@QtPrivate@@X@QtPrivate@@CAXHPAVQSlotObjectBase@2@PAVQObject@@PAPAXPA_N@Z 00425a70 f i maintab.obj
 0001:00024a70       ?impl@?$QSlotObject@P8CMainWindow@@AEXVQString@@_N@ZU?$List@VQString@@_N@QtPrivate@@X@QtPrivate@@CAXHPAVQSlotObjectBase@2@PAVQObject@@PAPAXPA_N@Z 00425a70 f i main.obj
 0001:00024b10       ?impl@?$QSlotObject@P8tcpServer@@AEXVQString@@G@ZU?$List@VQString@@G@QtPrivate@@X@QtPrivate@@CAXHPAVQSlotObjectBase@2@PAVQObject@@PAPAXPA_N@Z 00425b10 f i main.obj
 0001:00024b10       ?impl@?$QSlotObject@P8QHttpServer@@AEXVQString@@G@ZU?$List@VQString@@G@QtPrivate@@X@QtPrivate@@CAXHPAVQSlotObjectBase@2@PAVQObject@@PAPAXPA_N@Z 00425b10 f i main.obj
 0001:00024b80       ?impl@?$QSlotObject@P8tcpServer@@AEXVQString@@0@ZU?$List@VQString@@V1@@QtPrivate@@X@QtPrivate@@CAXHPAVQSlotObjectBase@2@PAVQObject@@PAPAXPA_N@Z 00425b80 f i main.obj
 0001:00024bf0       ?impl@?$QSlotObject@P8tcpServer@@AEXVQString@@0H0@ZU?$List@VQString@@V1@HV1@@QtPrivate@@X@QtPrivate@@CAXHPAVQSlotObjectBase@2@PAVQObject@@PAPAXPA_N@Z 00425bf0 f i main.obj
 0001:00024c80       ?impl@?$QSlotObject@P8tcpServer@@AEXVQString@@@ZU?$List@VQString@@@QtPrivate@@X@QtPrivate@@CAXHPAVQSlotObjectBase@2@PAVQObject@@PAPAXPA_N@Z 00425c80 f i main.obj
 0001:00024c80       ?impl@?$QSlotObject@P8wsClient@@AEXVQString@@@ZU?$List@ABVQString@@@QtPrivate@@X@QtPrivate@@CAXHPAVQSlotObjectBase@2@PAVQObject@@PAPAXPA_N@Z 00425c80 f i wsclient.obj
 0001:00024c80       ?impl@?$QSlotObject@P8wsClient@@AEXVQString@@@ZU?$List@VQString@@@QtPrivate@@X@QtPrivate@@CAXHPAVQSlotObjectBase@2@PAVQObject@@PAPAXPA_N@Z 00425c80 f i mainwindow.obj
 0001:00024ce0       ?impl@?$QSlotObject@P8tcpServer@@AEXVQString@@EEEE@ZU?$List@VQString@@EEEE@QtPrivate@@X@QtPrivate@@CAXHPAVQSlotObjectBase@2@PAVQObject@@PAPAXPA_N@Z 00425ce0 f i main.obj
 0001:00024d60       ?impl@?$QSlotObject@P8tcpServer@@AEXVQString@@HH@ZU?$List@VQString@@HH@QtPrivate@@X@QtPrivate@@CAXHPAVQSlotObjectBase@2@PAVQObject@@PAPAXPA_N@Z 00425d60 f i main.obj
 0001:00024dd0       ?impl@?$QSlotObject@P8tcpServer@@AEXVQString@@H_N@ZU?$List@VQString@@H_N@QtPrivate@@X@QtPrivate@@CAXHPAVQSlotObjectBase@2@PAVQObject@@PAPAXPA_N@Z 00425dd0 f i main.obj
 0001:00024e40       ?impl@?$QSlotObject@P8tcpServer@@AEXVQString@@_N@ZU?$List@VQString@@_N@QtPrivate@@X@QtPrivate@@CAXHPAVQSlotObjectBase@2@PAVQObject@@PAPAXPA_N@Z 00425e40 f i main.obj
 0001:00024eb0       ?myMessageOutput@@YAXW4QtMsgType@@ABVQMessageLogContext@@ABVQString@@@Z 00425eb0 f   main.obj
 0001:00025280       ?qt_metatype_id@?$QMetaTypeId2@V?$QVector@N@@@@SAHXZ 00426280 f i main.obj
 0001:00025460       ?qt_metatype_id@?$QMetaTypeId2@VWifiApParas@@@@SAHXZ 00426460 f i main.obj
 0001:00025540       ?qt_metatype_id@?$QMetaTypeId2@VWifiChParas@@@@SAHXZ 00426540 f i main.obj
 0001:00025620       ?qt_metatype_id@?$QMetaTypeId2@VWifiFsParas@@@@SAHXZ 00426620 f i main.obj
 0001:00025700       _main                      00426700 f   main.obj
 0001:00026bf0       ??$connect@P8daqInfo@@AEXVQString@@0@ZP8mainTab@@AEX00@Z@QObject@@SA?AVConnection@QMetaObject@@PBVdaqInfo@@P83@AEXVQString@@1@ZPBVmainTab@@P85@AEX11@ZW4ConnectionType@Qt@@@Z 00427bf0 f i maintab.obj
 0001:00026cc0       ??$connect@P8daqInfo@@AEXVQString@@@ZP8mainTab@@AEX0@Z@QObject@@SA?AVConnection@QMetaObject@@PBVdaqInfo@@P83@AEXVQString@@@ZPBVmainTab@@P85@AEX1@ZW4ConnectionType@Qt@@@Z 00427cc0 f i maintab.obj
 0001:00026d80       ??$connect@P8daqInfo@@AEXVQString@@PAVWifiChParas@@@ZP8mainTab@@AEX01@Z@QObject@@SA?AVConnection@QMetaObject@@PBVdaqInfo@@P83@AEXVQString@@PAVWifiChParas@@@ZPBVmainTab@@P86@AEX12@ZW4ConnectionType@Qt@@@Z 00427d80 f i maintab.obj
 0001:00026e90       ??$connect@P8daqInfo@@AEXVQString@@PAVWifiFsParas@@@ZP8mainTab@@AEX01@Z@QObject@@SA?AVConnection@QMetaObject@@PBVdaqInfo@@P83@AEXVQString@@PAVWifiFsParas@@@ZPBVmainTab@@P86@AEX12@ZW4ConnectionType@Qt@@@Z 00427e90 f i maintab.obj
 0001:00026fc0       ??0mainTab@@QAE@PAVQWidget@@@Z 00427fc0 f   maintab.obj
 0001:00027400       ??1?$QMap@VQString@@H@@QAE@XZ 00428400 f i maintab.obj
 0001:000274a0       ??1mainTab@@UAE@XZ         004284a0 f   maintab.obj
 0001:000276a0       ??1uiElements@@QAE@XZ      004286a0 f i maintab.obj
 0001:000276f4       ??_EQFrame@@W7AEPAXI@Z     004286f4 f i maintab.obj
 0001:000276fc       ??_EQMdiArea@@W7AEPAXI@Z   004286fc f i maintab.obj
 0001:00027704       ??_EQScrollArea@@W7AEPAXI@Z 00428704 f i maintab.obj
 0001:0002770c       ??_EQSpinBox@@W7AEPAXI@Z   0042870c f i maintab.obj
 0001:00027714       ??_EQTabWidget@@W7AEPAXI@Z 00428714 f i maintab.obj
 0001:0002771c       ??_EmainTab@@W7AEPAXI@Z    0042871c f i maintab.obj
 0001:00027730       ??_EQButtonGroup@@UAEPAXI@Z 00428730 f i maintab.obj
 0001:00027730       ??_GQButtonGroup@@UAEPAXI@Z 00428730 f i maintab.obj
 0001:00027760       ??_GQFrame@@UAEPAXI@Z      00428760 f i maintab.obj
 0001:00027760       ??_EQFrame@@UAEPAXI@Z      00428760 f i maintab.obj
 0001:00027790       ??_EQMdiArea@@UAEPAXI@Z    00428790 f i maintab.obj
 0001:00027790       ??_GQMdiArea@@UAEPAXI@Z    00428790 f i maintab.obj
 0001:000277c0       ??_GQScrollArea@@UAEPAXI@Z 004287c0 f i maintab.obj
 0001:000277c0       ??_EQScrollArea@@UAEPAXI@Z 004287c0 f i maintab.obj
 0001:000277f0       ??_GQSpinBox@@UAEPAXI@Z    004287f0 f i maintab.obj
 0001:000277f0       ??_EQSpinBox@@UAEPAXI@Z    004287f0 f i maintab.obj
 0001:00027820       ??_GQTabWidget@@UAEPAXI@Z  00428820 f i maintab.obj
 0001:00027820       ??_EQTabWidget@@UAEPAXI@Z  00428820 f i maintab.obj
 0001:00027850       ??_GmainTab@@UAEPAXI@Z     00428850 f i maintab.obj
 0001:00027850       ??_EmainTab@@UAEPAXI@Z     00428850 f i maintab.obj
 0001:00027880       ?addDaq@mainTab@@QAEXVQString@@0@Z 00428880 f   maintab.obj
 0001:000278a0       ?addDaq@mainTab@@QAEXXZ    004288a0 f   maintab.obj
 0001:000280a0       ?changeExTab@mainTab@@QAEXH@Z 004290a0 f   maintab.obj
 0001:000280b0       ?changeSettingTab@mainTab@@AAEXH@Z 004290b0 f   maintab.obj
 0001:000280c0       ?closeChild@mainTab@@AAEXHVQString@@@Z 004290c0 f   maintab.obj
 0001:00028220       ?copy@?$QMapNode@VQString@@H@@QBEPAU1@PAU?$QMapData@VQString@@H@@@Z 00429220 f i maintab.obj
 0001:000282b0       ?createDaqFromBack@mainTab@@QAEXHVQString@@0@Z 004292b0 f   maintab.obj
 0001:000285f0       ?createNode@?$QMapData@VQString@@H@@QAEPAU?$QMapNode@VQString@@H@@ABVQString@@ABHPAU2@_N@Z 004295f0 f i maintab.obj
 0001:00028630       ?delDaq@mainTab@@QAEXXZ    00429630 f   maintab.obj
 0001:00028a30       ?destroySubTree@?$QMapNode@VQString@@H@@QAEXXZ 00429a30 f i maintab.obj
 0001:00028a60       ?detach@?$QMap@VQString@@H@@QAEXXZ 00429a60 f i maintab.obj
 0001:00028b20       ?initUI@mainTab@@QAEXUuiElements@@@Z 00429b20 f   maintab.obj
 0001:00028f70       ?on_btnApplyHttpServer_clicked@mainTab@@AAEXXZ 00429f70 f   maintab.obj
 0001:00028fb0       ?on_btnApplyRemoteWebSocket_clicked@mainTab@@AAEXXZ 00429fb0 f   maintab.obj
 0001:000290c0       ?on_btnApplyTcpClient_clicked@mainTab@@AAEXXZ 0042a0c0 f   maintab.obj
 0001:000290f0       ?on_btnApplyTcp_clicked@mainTab@@AAEXXZ 0042a0f0 f   maintab.obj
 0001:00029120       ?on_btnChangeLocation_clicked@mainTab@@AAEXXZ 0042a120 f   maintab.obj
 0001:000291d0       ?on_pushButton_clicked@mainTab@@AAEXXZ 0042a1d0 f   maintab.obj
 0001:00029570       ?remove@?$QMap@VQString@@H@@QAEHABVQString@@@Z 0042a570 f i maintab.obj
 0001:00029610       ?removeAt@?$QList@PAVbaseForm2@@@@QAEXH@Z 0042a610 f i maintab.obj
 0001:00029660       ?retranslateUi@Ui_mainTab@@QAEXPAVQWidget@@@Z 0042a660 f i maintab.obj
 0001:0002a770       ?sendSomthing@mainTab@@AAEXXZ 0042b770 f   maintab.obj
 0001:0002a830       ?setAutoSpan@mainTab@@QAEXVQString@@H@Z 0042b830 f   maintab.obj
 0001:0002a910       ?setChannelFS@mainTab@@QAEXVQString@@V?$QList@N@@@Z 0042b910 f   maintab.obj
 0001:0002aa50       ?settingGUID@mainTab@@QAEXVQString@@@Z 0042ba50 f   maintab.obj
 0001:0002aa80       ?setupUi@Ui_mainTab@@QAEXPAVQWidget@@@Z 0042ba80 f i maintab.obj
 0001:000304d0       ?testAddDaq@mainTab@@QAEXXZ 004314d0 f   maintab.obj
 0001:00030720       ?updateAPdata@mainTab@@QAEXVQString@@VWifiApParas@@@Z 00431720 f   maintab.obj
 0001:00030810       ?updateAlertJunyue@mainTab@@QAEXVQString@@V?$QList@M@@@Z 00431810 f   maintab.obj
 0001:00030930       ?updateAlertTimeSpan@mainTab@@QAEXVQString@@HH@Z 00431930 f   maintab.obj
 0001:00030a10       ?updateAutoWave2@mainTab@@QAEXVQString@@VQByteArray@@HPAV?$QList@N@@@Z 00431a10 f   maintab.obj
 0001:00030b80       ?updateChParas@mainTab@@QAEXVQString@@VWifiChParas@@@Z 00431b80 f   maintab.obj
 0001:00030c70       ?updateChStatus@mainTab@@QAEXVQString@@G@Z 00431c70 f   maintab.obj
 0001:00030d50       ?updateCharactersJunyue@mainTab@@QAEXVQString@@0V?$QList@M@@V?$QList@_N@@@Z 00431d50 f   maintab.obj
 0001:00030ee0       ?updateCurrentFirmwareVer@mainTab@@QAEXVQString@@0@Z 00431ee0 f   maintab.obj
 0001:00030fa0       ?updateCurrentTemperature@mainTab@@QAEXVQString@@PANH@Z 00431fa0 f   maintab.obj
 0001:00031090       ?updateCurrentVValue@mainTab@@QAEXVQString@@PAV?$QList@PAVvirbValue@@@@@Z 00432090 f   maintab.obj
 0001:00031330       ?updateDeviceStatus@mainTab@@QAEXHVQString@@@Z 00432330 f   maintab.obj
 0001:000313e0       ?updateFirmwareStatus@mainTab@@QAEXVQString@@HH@Z 004323e0 f   maintab.obj
 0001:000314b0       ?updateFsMode@mainTab@@QAEXVQString@@H@Z 004324b0 f   maintab.obj
 0001:00031590       ?updateFsParas@mainTab@@QAEXVQString@@VWifiFsParas@@@Z 00432590 f   maintab.obj
 0001:00031680       ?updateNetParas@mainTab@@QAEXVQString@@VWifiNetParas@@@Z 00432680 f   maintab.obj
 0001:00031780       ?updatePowerMode2@mainTab@@QAEXVQString@@EEEE@Z 00432780 f   maintab.obj
 0001:00031860       ?updatePowerMode@mainTab@@QAEXVQString@@EEE@Z 00432860 f   maintab.obj
 0001:00031940       ?updateTCPServer@mainTab@@QAEXVQString@@0H@Z 00432940 f   maintab.obj
 0001:00031a30       ?updateWave@mainTab@@QAEXVQString@@PAV?$QVector@N@@@Z 00432a30 f   maintab.obj
 0001:00031b50       ??$connect@P8mainTab@@AEXVQString@@PAVWifiChParas@@@ZP8CMainWindow@@AEX01@Z@QObject@@SA?AVConnection@QMetaObject@@PBVmainTab@@P83@AEXVQString@@PAVWifiChParas@@@ZPBVCMainWindow@@P86@AEX12@ZW4ConnectionType@Qt@@@Z 00432b50 f i mainwindow.obj
 0001:00031c60       ??$connect@P8mainTab@@AEXVQString@@PAVWifiFsParas@@@ZP8CMainWindow@@AEX01@Z@QObject@@SA?AVConnection@QMetaObject@@PBVmainTab@@P83@AEXVQString@@PAVWifiFsParas@@@ZPBVCMainWindow@@P86@AEX12@ZW4ConnectionType@Qt@@@Z 00432c60 f i mainwindow.obj
 0001:00031d70       ??0CMainWindow@@QAE@PAVQWidget@@@Z 00432d70 f   mainwindow.obj
 0001:00033ee0       ??0uiElements@@QAE@ABU0@@Z 00434ee0 f i mainwindow.obj
 0001:00034030       ??1?$QForeachContainer@V?$QList@PAVQAction@@@@@QtPrivate@@QAE@XZ 00435030 f i mainwindow.obj
 0001:00034090       ??1?$function@$$A6APAVQWidget@@XZ@std@@QAE@XZ 00435090 f i mainwindow.obj
 0001:000340c0       ??1CMainWindow@@UAE@XZ     004350c0 f   mainwindow.obj
 0001:000341e6       ??_ECMainWindow@@W7AEPAXI@Z 004351e6 f i mainwindow.obj
 0001:000341ee       ??_EQDockWidget@@W7AEPAXI@Z 004351ee f i mainwindow.obj
 0001:000341f6       ??_EQStatusBar@@W7AEPAXI@Z 004351f6 f i mainwindow.obj
 0001:000341fe       ??_EQTextBrowser@@W7AEPAXI@Z 004351fe f i mainwindow.obj
 0001:00034206       ??_EQTextEdit@@W7AEPAXI@Z  00435206 f i mainwindow.obj
 0001:0003420e       ??_EQTreeView@@W7AEPAXI@Z  0043520e f i mainwindow.obj
 0001:00034220       ??_ECMainWindow@@UAEPAXI@Z 00435220 f i mainwindow.obj
 0001:00034220       ??_GCMainWindow@@UAEPAXI@Z 00435220 f i mainwindow.obj
 0001:00034360       ??_GQDockWidget@@UAEPAXI@Z 00435360 f i mainwindow.obj
 0001:00034360       ??_EQDockWidget@@UAEPAXI@Z 00435360 f i mainwindow.obj
 0001:00034390       ??_GQSqlTableModel@@UAEPAXI@Z 00435390 f i mainwindow.obj
 0001:00034390       ??_EQSqlTableModel@@UAEPAXI@Z 00435390 f i mainwindow.obj
 0001:000343c0       ??_GQStatusBar@@UAEPAXI@Z  004353c0 f i mainwindow.obj
 0001:000343c0       ??_EQStatusBar@@UAEPAXI@Z  004353c0 f i mainwindow.obj
 0001:000343f0       ??_EQTextBrowser@@UAEPAXI@Z 004353f0 f i mainwindow.obj
 0001:000343f0       ??_GQTextBrowser@@UAEPAXI@Z 004353f0 f i mainwindow.obj
 0001:00034420       ??_GQTextEdit@@UAEPAXI@Z   00435420 f i mainwindow.obj
 0001:00034420       ??_EQTextEdit@@UAEPAXI@Z   00435420 f i mainwindow.obj
 0001:00034450       ??_GQTreeView@@UAEPAXI@Z   00435450 f i mainwindow.obj
 0001:00034450       ??_EQTreeView@@UAEPAXI@Z   00435450 f i mainwindow.obj
 0001:00034480       ?FileMenuClicked@CMainWindow@@AAEXVQRect@@@Z 00435480 f   mainwindow.obj
 0001:000346c0       ?changeUIelements@CMainWindow@@AAEXUuiElements@@@Z 004356c0 f   mainwindow.obj
 0001:00035070       ?closeEvent@CMainWindow@@MAEXPAVQCloseEvent@@@Z 00436070 f   mainwindow.obj
 0001:00035080       ?createDaq@CMainWindow@@QAEXHVQString@@0@Z 00436080 f   mainwindow.obj
 0001:000351a0       ?impl@?$QSlotObject@P8mainTab@@AEXUuiElements@@@ZU?$List@UuiElements@@@QtPrivate@@X@QtPrivate@@CAXHPAVQSlotObjectBase@2@PAVQObject@@PAPAXPA_N@Z 004361a0 f i mainwindow.obj
 0001:000351a0       ?impl@?$QSlotObject@P8CMainWindow@@AEXUuiElements@@@ZU?$List@UuiElements@@@QtPrivate@@X@QtPrivate@@CAXHPAVQSlotObjectBase@2@PAVQObject@@PAPAXPA_N@Z 004361a0 f i mainwindow.obj
 0001:00035240       ?impl@?$QSlotObject@P8mainTab@@AEXH@ZU?$List@H@QtPrivate@@X@QtPrivate@@CAXHPAVQSlotObjectBase@2@PAVQObject@@PAPAXPA_N@Z 00436240 f i mainwindow.obj
 0001:000352b0       ?impl@?$QSlotObject@P8mainTab@@AEX_N@ZU?$List@_N@QtPrivate@@X@QtPrivate@@CAXHPAVQSlotObjectBase@2@PAVQObject@@PAPAXPA_N@Z 004362b0 f i mainwindow.obj
 0001:00035330       ?initSql@CMainWindow@@QAEXXZ 00436330 f   mainwindow.obj
 0001:00036360       ?on_actionOpen_triggered@CMainWindow@@AAEXXZ 00437360 f   mainwindow.obj
 0001:00036390       ?retranslateUi@Ui_MainWindow@@QAEXPAVQMainWindow@@@Z 00437390 f i mainwindow.obj
 0001:00036ca0       ?setupUi@Ui_MainWindow@@QAEXPAVQMainWindow@@@Z 00437ca0 f i mainwindow.obj
 0001:00038a50       ?tabActionTriggered@CMainWindow@@AAEXXZ 00439a50 f   mainwindow.obj
 0001:00038b00       ?updateFirmResult@CMainWindow@@QAEXVQString@@_N@Z 00439b00 f   mainwindow.obj
 0001:00038bd0       ?updateFirmStatusInfo@CMainWindow@@QAEXVQString@@HH@Z 00439bd0 f   mainwindow.obj
 0001:00038d00       ?updateMessage@CMainWindow@@QAEXVQString@@@Z 00439d00 f   mainwindow.obj
 0001:00038e70       ??0settingWifiJunyue@@QAE@PAVQWidget@@@Z 00439e70 f   settingwifijunyue.obj
 0001:00039170       ??1settingWifiJunyue@@UAE@XZ 0043a170 f   settingwifijunyue.obj
 0001:00039350       ??Y?$QList@N@@QAEAAV0@ABV0@@Z 0043a350 f i settingwifijunyue.obj
 0001:0003946d       ??_EQGroupBox@@W7AEPAXI@Z  0043a46d f i settingwifijunyue.obj
 0001:00039475       ??_EsettingWifiJunyue@@W7AEPAXI@Z 0043a475 f i settingwifijunyue.obj
 0001:00039480       ??_GQGroupBox@@UAEPAXI@Z   0043a480 f i settingwifijunyue.obj
 0001:00039480       ??_EQGroupBox@@UAEPAXI@Z   0043a480 f i settingwifijunyue.obj
 0001:000394b0       ??_GQRegExpValidator@@UAEPAXI@Z 0043a4b0 f i settingwifijunyue.obj
 0001:000394b0       ??_EQRegExpValidator@@UAEPAXI@Z 0043a4b0 f i settingwifijunyue.obj
 0001:000394e0       ??_GsettingWifiJunyue@@UAEPAXI@Z 0043a4e0 f i settingwifijunyue.obj
 0001:000394e0       ??_EsettingWifiJunyue@@UAEPAXI@Z 0043a4e0 f i settingwifijunyue.obj
 0001:00039510       ?changeAPinside@settingWifiJunyue@@AAEXPAVWifiApParas@@@Z 0043a510 f   settingwifijunyue.obj
 0001:00039530       ?enabledFac@settingWifiJunyue@@AAEX_N@Z 0043a530 f   settingwifijunyue.obj
 0001:000395a0       ?flushDNS@settingWifiJunyue@@QAEXVQString@@@Z 0043a5a0 f   settingwifijunyue.obj
 0001:00039600       ?keyPressEvent@settingWifiJunyue@@MAEXPAVQKeyEvent@@@Z 0043a600 f   settingwifijunyue.obj
 0001:00039630       ?on_btnADch1_clicked@settingWifiJunyue@@AAEXXZ 0043a630 f   settingwifijunyue.obj
 0001:00039650       ?on_btnADch2_clicked@settingWifiJunyue@@AAEXXZ 0043a650 f   settingwifijunyue.obj
 0001:00039670       ?on_btnADch3_clicked@settingWifiJunyue@@AAEXXZ 0043a670 f   settingwifijunyue.obj
 0001:00039690       ?on_btnADch4_clicked@settingWifiJunyue@@AAEXXZ 0043a690 f   settingwifijunyue.obj
 0001:000396b0       ?on_btnADch5_clicked@settingWifiJunyue@@AAEXXZ 0043a6b0 f   settingwifijunyue.obj
 0001:000396d0       ?on_btnADch6_clicked@settingWifiJunyue@@AAEXXZ 0043a6d0 f   settingwifijunyue.obj
 0001:000396f0       ?on_btnADch7_clicked@settingWifiJunyue@@AAEXXZ 0043a6f0 f   settingwifijunyue.obj
 0001:00039710       ?on_btnADch8_clicked@settingWifiJunyue@@AAEXXZ 0043a710 f   settingwifijunyue.obj
 0001:00039730       ?on_btnApplyAlert_clicked@settingWifiJunyue@@AAEXXZ 0043a730 f   settingwifijunyue.obj
 0001:00039960       ?on_btnApplyCh_clicked@settingWifiJunyue@@AAEXXZ 0043a960 f   settingwifijunyue.obj
 0001:00039ac0       ?on_btnApplyDaq_clicked@settingWifiJunyue@@AAEXXZ 0043aac0 f   settingwifijunyue.obj
 0001:00039c90       ?on_btnApplyNet_clicked@settingWifiJunyue@@AAEXXZ 0043ac90 f   settingwifijunyue.obj
 0001:00039e10       ?on_btnChangeAP_clicked@settingWifiJunyue@@AAEXXZ 0043ae10 f   settingwifijunyue.obj
 0001:00039e20       ?on_btnChangeBattery_clicked@settingWifiJunyue@@AAEXXZ 0043ae20 f   settingwifijunyue.obj
 0001:00039f10       ?on_btnChangeSN_clicked@settingWifiJunyue@@AAEXXZ 0043af10 f   settingwifijunyue.obj
 0001:0003a010       ?on_btnChangeServer_clicked@settingWifiJunyue@@AAEXXZ 0043b010 f   settingwifijunyue.obj
 0001:0003a0a0       ?on_btnPrepare_clicked@settingWifiJunyue@@AAEXXZ 0043b0a0 f   settingwifijunyue.obj
 0001:0003a0c0       ?on_btnTempZero_clicked@settingWifiJunyue@@AAEXXZ 0043b0c0 f   settingwifijunyue.obj
 0001:0003a0e0       ?on_btnTemp_clicked@settingWifiJunyue@@AAEXXZ 0043b0e0 f   settingwifijunyue.obj
 0001:0003a100       ?on_chkEnableAutoWave_clicked@settingWifiJunyue@@AAEX_N@Z 0043b100 f   settingwifijunyue.obj
 0001:0003a110       ?on_chkEnableDHCP_stateChanged@settingWifiJunyue@@AAEXH@Z 0043b110 f   settingwifijunyue.obj
 0001:0003a150       ?on_chkEnableWWW_clicked@settingWifiJunyue@@AAEX_N@Z 0043b150 f   settingwifijunyue.obj
 0001:0003a1a0       ?retranslateUi@Ui_settingWifiJunyue@@QAEXPAVQDialog@@@Z 0043b1a0 f i settingwifijunyue.obj
 0001:0003b9c0       ?setChs@settingWifiJunyue@@QAEXHH@Z 0043c9c0 f   settingwifijunyue.obj
 0001:0003bd10       ?setSN@settingWifiJunyue@@QAEXVQString@@@Z 0043cd10 f   settingwifijunyue.obj
 0001:0003bdc0       ?setupUi@Ui_settingWifiJunyue@@QAEXPAVQDialog@@@Z 0043cdc0 f i settingwifijunyue.obj
 0001:000429f0       ?updateAPName@settingWifiJunyue@@QAEXPAVWifiApParas@@@Z 004439f0 f   settingwifijunyue.obj
 0001:00042a00       ?updateAPName@settingWifiJunyue@@QAEXVQString@@@Z 00443a00 f   settingwifijunyue.obj
 0001:00042a60       ?updateAlertTimeSpan@settingWifiJunyue@@QAEXHH@Z 00443a60 f   settingwifijunyue.obj
 0001:00042ab0       ?updateAlertValuesJunyue@settingWifiJunyue@@QAEXV?$QList@M@@@Z 00443ab0 f   settingwifijunyue.obj
 0001:00042d60       ?updateAutoSpanFromWs@settingWifiJunyue@@QAEXH@Z 00443d60 f   settingwifijunyue.obj
 0001:00042da0       ?updateChParas@settingWifiJunyue@@QAEXVWifiChParas@@@Z 00443da0 f   settingwifijunyue.obj
 0001:00042ed0       ?updateChStatus@settingWifiJunyue@@QAEXG@Z 00443ed0 f   settingwifijunyue.obj
 0001:00042f80       ?updateChannelFSFromWs@settingWifiJunyue@@QAEXV?$QList@N@@@Z 00443f80 f   settingwifijunyue.obj
 0001:00043140       ?updateFS@settingWifiJunyue@@QAEXVWifiFsParas@@@Z 00444140 f   settingwifijunyue.obj
 0001:00043270       ?updateFsMode@settingWifiJunyue@@QAEXH@Z 00444270 f   settingwifijunyue.obj
 0001:00043290       ?updateHeartSpan@settingWifiJunyue@@QAEXH_N@Z 00444290 f   settingwifijunyue.obj
 0001:000432c0       ?updateNet@settingWifiJunyue@@QAEXVWifiNetParas@@@Z 004442c0 f   settingwifijunyue.obj
 0001:00043390       ?updatePowerMode2@settingWifiJunyue@@QAEXEEEE@Z 00444390 f   settingwifijunyue.obj
 0001:000433f0       ?updatePowerMode@settingWifiJunyue@@QAEXEEE@Z 004443f0 f   settingwifijunyue.obj
 0001:00043440       ?updateTCPserver@settingWifiJunyue@@QAEXVQString@@H0@Z 00444440 f   settingwifijunyue.obj
 0001:000434c0       ?updateTCPserver@settingWifiJunyue@@QAEXVQString@@H@Z 004444c0 f   settingwifijunyue.obj
 0001:00043530       ??0?$QList@N@@QAE@XZ       00444530 f i tcpclient.obj
 0001:00043540       ??0?$QVector@N@@QAE@XZ     00444540 f i tcpclient.obj
 0001:00043550       ??0tcpClient@@QAE@PAVQObject@@@Z 00444550 f   tcpclient.obj
 0001:00043770       ??1tcpClient@@UAE@XZ       00444770 f   tcpclient.obj
 0001:00043970       ??_EtcpClient@@UAEPAXI@Z   00444970 f i tcpclient.obj
 0001:00043970       ??_GtcpClient@@UAEPAXI@Z   00444970 f i tcpclient.obj
 0001:000439a0       ?characterForHttp@tcpClient@@QAEXVQString@@0HPANH@Z 004449a0 f   tcpclient.obj
 0001:00043e80       ?characterForTCP@tcpClient@@QAEXVQString@@0V?$QList@E@@V?$QList@H@@1V?$QList@M@@_K@Z 00444e80 f   tcpclient.obj
 0001:000448a0       ?characterForTCP@tcpClient@@QAEXVQString@@V?$QList@E@@V?$QList@H@@1V?$QList@M@@_K@Z 004458a0 f   tcpclient.obj
 0001:00045190       ?charactersJunyue@tcpClient@@QAEXVQString@@0V?$QList@M@@V?$QList@_N@@@Z 00446190 f   tcpclient.obj
 0001:00045600       ?setServer@tcpClient@@QAEXVQString@@HH@Z 00446600 f   tcpclient.obj
 0001:00045640       ?setUpHttpServer@tcpClient@@QAEXVQString@@H@Z 00446640 f   tcpclient.obj
 0001:00045670       ?setUpTcpServer@tcpClient@@QAEXVQString@@H@Z 00446670 f   tcpclient.obj
 0001:000456a0       ?statusStop@tcpClient@@QAEXXZ 004466a0 f   tcpclient.obj
 0001:000456b0       ?tempForHttp@tcpClient@@QAEXVQString@@NN@Z 004466b0 f   tcpclient.obj
 0001:000456e0       ?updateCharacter@tcpClient@@QAEXVQString@@H_KV?$QList@N@@V?$QList@H@@@Z 004466e0 f   tcpclient.obj
 0001:00045ec0       ?waveForHttp@tcpClient@@QAEXVQString@@0HPANH@Z 00446ec0 f   tcpclient.obj
 0001:000464a0       ?waveJunyue@tcpClient@@QAEXVQString@@VQByteArray@@HPAV?$QList@N@@@Z 004474a0 f   tcpclient.obj
 0001:00046c30       ??0wsClient@@QAE@PAVQObject@@@Z 00447c30 f   wsclient.obj
 0001:00046c60       ??_EQWebSocket@@UAEPAXI@Z  00447c60 f i wsclient.obj
 0001:00046c60       ??_GQWebSocket@@UAEPAXI@Z  00447c60 f i wsclient.obj
 0001:00046c90       ??_GwsClient@@UAEPAXI@Z    00447c90 f i wsclient.obj
 0001:00046c90       ??_EwsClient@@UAEPAXI@Z    00447c90 f i wsclient.obj
 0001:00046d30       ?detach_helper@?$QList@N@@AAEXH@Z 00447d30 f i wsclient.obj
 0001:00046df0       ?impl@?$QSlotObject@P8wsClient@@AEXW4SocketState@QAbstractSocket@@@ZU?$List@W4SocketState@QAbstractSocket@@@QtPrivate@@X@QtPrivate@@CAXHPAVQSlotObjectBase@2@PAVQObject@@PAPAXPA_N@Z 00447df0 f i wsclient.obj
 0001:00046e50       ?readingData@wsClient@@QAEXVQString@@@Z 00447e50 f   wsclient.obj
 0001:00047180       ?removeFirst@?$QList@N@@QAEXXZ 00448180 f i wsclient.obj
 0001:00047210       ?sendingData@wsClient@@QAEXVQString@@@Z 00448210 f   wsclient.obj
 0001:00047280       ?sockStateChange@wsClient@@QAEXW4SocketState@QAbstractSocket@@@Z 00448280 f   wsclient.obj
 0001:000472b0       ?startWs@wsClient@@QAEXVQString@@@Z 004482b0 f   wsclient.obj
 0001:00047560       ?statusOff@wsClient@@QAEXXZ 00448560 f   wsclient.obj
 0001:00047570       ?statusOn@wsClient@@QAEXXZ 00448570 f   wsclient.obj
 0001:00047580       ?qt_static_metacall@mySave@@CAXPAVQObject@@W4Call@QMetaObject@@HPAPAX@Z 00448580 f   moc_mysave.obj
 0001:00047740       ?metaObject@MySocket@@UBEPBUQMetaObject@@XZ 00448740 f   moc_mysocket.obj
 0001:00047760       ?qt_metacall@MySocket@@UAEHW4Call@QMetaObject@@HPAPAX@Z 00448760 f   moc_mysocket.obj
 0001:000477c0       ?qt_metacast@MySocket@@UAEPAXPBD@Z 004487c0 f   moc_mysocket.obj
 0001:00047820       ?qt_static_metacall@MySocket@@CAXPAVQObject@@W4Call@QMetaObject@@HPAPAX@Z 00448820 f   moc_mysocket.obj
 0001:000478e0       ?revData@MySocket@@QAEXVQString@@VQByteArray@@@Z 004488e0 f   moc_mysocket.obj
 0001:00047970       ?qt_static_metacall@saveDataThread@@CAXPAVQObject@@W4Call@QMetaObject@@HPAPAX@Z 00448970 f   moc_savedatathread.obj
 0001:000479c0       ?startOK@saveDataThread@@QAEXXZ 004489c0 f   moc_savedatathread.obj
 0001:000479e0       ?characterForHttp@tcpDataAnalysis@@QAEXVQString@@0HPANH@Z 004489e0 f   moc_tcpdataanalysis.obj
 0001:00047a80       ?createWidget@tcpDataAnalysis@@QAEXHVQString@@0@Z 00448a80 f   moc_tcpdataanalysis.obj
 0001:00047b10       ?dataInfo@tcpDataAnalysis@@QAEXVQString@@@Z 00448b10 f   moc_tcpdataanalysis.obj
 0001:00047b80       ?metaObject@tcpDataAnalysis@@UBEPBUQMetaObject@@XZ 00448b80 f   moc_tcpdataanalysis.obj
 0001:00047ba0       ?noResponse@tcpDataAnalysis@@QAEXXZ 00448ba0 f   moc_tcpdataanalysis.obj
 0001:00047bc0       ?qt_metacall@tcpDataAnalysis@@UAEHW4Call@QMetaObject@@HPAPAX@Z 00448bc0 f   moc_tcpdataanalysis.obj
 0001:00047c10       ?qt_metacast@tcpDataAnalysis@@UAEPAXPBD@Z 00448c10 f   moc_tcpdataanalysis.obj
 0001:00047c70       ?qt_static_metacall@tcpDataAnalysis@@CAXPAVQObject@@W4Call@QMetaObject@@HPAPAX@Z 00448c70 f   moc_tcpdataanalysis.obj
 0001:00048c90       ?readyForRead@tcpDataAnalysis@@QAEXH@Z 00449c90 f   moc_tcpdataanalysis.obj
 0001:00048cc0       ?readyForsendFirmware@tcpDataAnalysis@@QAEXXZ 00449cc0 f   moc_tcpdataanalysis.obj
 0001:00048ce0       ?saveErrorData@tcpDataAnalysis@@QAEXVQString@@0EH@Z 00449ce0 f   moc_tcpdataanalysis.obj
 0001:00048d70       ?sendOver2@tcpDataAnalysis@@QAEXXZ 00449d70 f   moc_tcpdataanalysis.obj
 0001:00048d90       ?sendOver@tcpDataAnalysis@@QAEXXZ 00449d90 f   moc_tcpdataanalysis.obj
 0001:00048db0       ?stopUpdate@tcpDataAnalysis@@QAEXXZ 00449db0 f   moc_tcpdataanalysis.obj
 0001:00048dd0       ?tempForHttp@tcpDataAnalysis@@QAEXVQString@@NN@Z 00449dd0 f   moc_tcpdataanalysis.obj
 0001:00048e60       ?updateAPdata@tcpDataAnalysis@@QAEXVQString@@VWifiApParas@@@Z 00449e60 f   moc_tcpdataanalysis.obj
 0001:00048ef0       ?updateAlertData@tcpDataAnalysis@@QAEXVQString@@PAMH@Z 00449ef0 f   moc_tcpdataanalysis.obj
 0001:00048f80       ?updateAlertJunyue@tcpDataAnalysis@@QAEXVQString@@V?$QList@M@@@Z 00449f80 f   moc_tcpdataanalysis.obj
 0001:00049030       ?updateAlertRule@tcpDataAnalysis@@QAEXVQString@@HVQByteArray@@@Z 0044a030 f   moc_tcpdataanalysis.obj
 0001:000490c0       ?updateAlertRuleFitness@tcpDataAnalysis@@QAEXVQString@@VQByteArray@@@Z 0044a0c0 f   moc_tcpdataanalysis.obj
 0001:00049150       ?updateAlertStatus@tcpDataAnalysis@@QAEXVQString@@H@Z 0044a150 f   moc_tcpdataanalysis.obj
 0001:000491d0       ?updateAlertTimeSpan@tcpDataAnalysis@@QAEXVQString@@HH@Z 0044a1d0 f   moc_tcpdataanalysis.obj
 0001:00049260       ?updateAutoWave2@tcpDataAnalysis@@QAEXVQString@@VQByteArray@@HPAV?$QList@N@@@Z 0044a260 f   moc_tcpdataanalysis.obj
 0001:00049300       ?updateAutoWave@tcpDataAnalysis@@QAEXVQString@@HPAV?$QVector@N@@@Z 0044a300 f   moc_tcpdataanalysis.obj
 0001:00049390       ?updateChParas@tcpDataAnalysis@@QAEXVQString@@VWifiChParas@@@Z 0044a390 f   moc_tcpdataanalysis.obj
 0001:00049420       ?updateChStatus@tcpDataAnalysis@@QAEXVQString@@G@Z 0044a420 f   moc_tcpdataanalysis.obj
 0001:000494a0       ?updateCharactersJunyue@tcpDataAnalysis@@QAEXVQString@@0V?$QList@M@@V?$QList@_N@@@Z 0044a4a0 f   moc_tcpdataanalysis.obj
 0001:000495a0       ?updateComplete@tcpDataAnalysis@@QAEXVQString@@_N@Z 0044a5a0 f   moc_tcpdataanalysis.obj
 0001:00049620       ?updateCurrentFirmwareVer@tcpDataAnalysis@@QAEXVQString@@0@Z 0044a620 f   moc_tcpdataanalysis.obj
 0001:000496b0       ?updateCurrentFreqValue@tcpDataAnalysis@@QAEXVQString@@PAV?$QList@PAVvirbValue@@@@@Z 0044a6b0 f   moc_tcpdataanalysis.obj
 0001:00049740       ?updateCurrentTemperature@tcpDataAnalysis@@QAEXVQString@@PANH@Z 0044a740 f   moc_tcpdataanalysis.obj
 0001:000497d0       ?updateCurrentVValue@tcpDataAnalysis@@QAEXVQString@@PAV?$QList@PAVvirbValue@@@@@Z 0044a7d0 f   moc_tcpdataanalysis.obj
 0001:00049860       ?updateErrorData@tcpDataAnalysis@@QAEXVQString@@@Z 0044a860 f   moc_tcpdataanalysis.obj
 0001:000498d0       ?updateFFT@tcpDataAnalysis@@QAEXVQString@@PAV?$QVector@N@@@Z 0044a8d0 f   moc_tcpdataanalysis.obj
 0001:00049960       ?updateFsMode@tcpDataAnalysis@@QAEXVQString@@H@Z 0044a960 f   moc_tcpdataanalysis.obj
 0001:000499e0       ?updateFsParas@tcpDataAnalysis@@QAEXVQString@@VWifiFsParas@@@Z 0044a9e0 f   moc_tcpdataanalysis.obj
 0001:00049a60       ?updateModbusTemp@tcpDataAnalysis@@QAEXVQString@@N@Z 0044aa60 f   moc_tcpdataanalysis.obj
 0001:00049ae0       ?updateModbusValue@tcpDataAnalysis@@QAEXVQString@@N@Z 0044aae0 f   moc_tcpdataanalysis.obj
 0001:00049b60       ?updateNetParas@tcpDataAnalysis@@QAEXVQString@@VWifiNetParas@@@Z 0044ab60 f   moc_tcpdataanalysis.obj
 0001:00049c00       ?updatePowerMode@tcpDataAnalysis@@QAEXVQString@@EEE@Z 0044ac00 f   moc_tcpdataanalysis.obj
 0001:00049c90       ?updatePowerMode@tcpDataAnalysis@@QAEXVQString@@EEEE@Z 0044ac90 f   moc_tcpdataanalysis.obj
 0001:00049d20       ?updateSingleWave@tcpDataAnalysis@@QAEXVQString@@HPAV?$QVector@N@@@Z 0044ad20 f   moc_tcpdataanalysis.obj
 0001:00049db0       ?updateSqlTemp@tcpDataAnalysis@@QAEXVQString@@N@Z 0044adb0 f   moc_tcpdataanalysis.obj
 0001:00049e30       ?updateTCPServer@tcpDataAnalysis@@QAEXVQString@@0H@Z 0044ae30 f   moc_tcpdataanalysis.obj
 0001:00049ec0       ?updateWave@tcpDataAnalysis@@QAEXVQString@@PAV?$QVector@N@@@Z 0044aec0 f   moc_tcpdataanalysis.obj
 0001:00049f50       ?updateWoliu@tcpDataAnalysis@@QAEXVQString@@PAV?$QVector@N@@0HD@Z 0044af50 f   moc_tcpdataanalysis.obj
 0001:00049ff0       ?updatevirb@tcpDataAnalysis@@QAEXVQString@@0EHPAN@Z 0044aff0 f   moc_tcpdataanalysis.obj
 0001:0004a090       ?waveForHttp@tcpDataAnalysis@@QAEXVQString@@0HPANH@Z 0044b090 f   moc_tcpdataanalysis.obj
 0001:0004a130       ?aboutToStart@tcpServer@@QAEXVQString@@_N@Z 0044b130 f   moc_tcpserver.obj
 0001:0004a1b0       ?adcAdjust@tcpServer@@QAEXVQString@@H@Z 0044b1b0 f   moc_tcpserver.obj
 0001:0004a230       ?applyNet@tcpServer@@QAEXVQString@@@Z 0044b230 f   moc_tcpserver.obj
 0001:0004a2a0       ?changeAP@tcpServer@@QAEXVQString@@PAVWifiApParas@@@Z 0044b2a0 f   moc_tcpserver.obj
 0001:0004a330       ?changeChParasDirect@tcpServer@@QAEXVQString@@PAVWifiChParas@@@Z 0044b330 f   moc_tcpserver.obj
 0001:0004a3c0       ?changeChStatus@tcpServer@@QAEXVQString@@G@Z 0044b3c0 f   moc_tcpserver.obj
 0001:0004a440       ?changeFsMode@tcpServer@@QAEXVQString@@H@Z 0044b440 f   moc_tcpserver.obj
 0001:0004a4c0       ?changeFsParasDirect@tcpServer@@QAEXVQString@@PAVWifiFsParas@@@Z 0044b4c0 f   moc_tcpserver.obj
 0001:0004a550       ?changeNetParas@tcpServer@@QAEXVQString@@PAVWifiNetParas@@@Z 0044b550 f   moc_tcpserver.obj
 0001:0004a5e0       ?changeSN@tcpServer@@QAEXVQString@@0@Z 0044b5e0 f   moc_tcpserver.obj
 0001:0004a670       ?changeTCPServer1@tcpServer@@QAEXVQString@@H@Z 0044b670 f   moc_tcpserver.obj
 0001:0004a6f0       ?changeTCPServer@tcpServer@@QAEXVQString@@0H0@Z 0044b6f0 f   moc_tcpserver.obj
 0001:0004a790       ?delDaq@tcpServer@@QAEXVQString@@@Z 0044b790 f   moc_tcpserver.obj
 0001:0004a800       ?delDevice@tcpServer@@QAEXVQString@@@Z 0044b800 f   moc_tcpserver.obj
 0001:0004a870       ?metaObject@tcpServer@@UBEPBUQMetaObject@@XZ 0044b870 f   moc_tcpserver.obj
 0001:0004a890       ?qt_metacall@tcpServer@@UAEHW4Call@QMetaObject@@HPAPAX@Z 0044b890 f   moc_tcpserver.obj
 0001:0004a8e0       ?qt_metacast@tcpServer@@UAEPAXPBD@Z 0044b8e0 f   moc_tcpserver.obj
 0001:0004a940       ?qt_static_metacall@tcpServer@@CAXPAVQObject@@W4Call@QMetaObject@@HPAPAX@Z 0044b940 f   moc_tcpserver.obj
 0001:0004bf20       ?saveErrorData@tcpServer@@QAEXVQString@@0EH@Z 0044cf20 f   moc_tcpserver.obj
 0001:0004bfb0       ?sendCommands@tcpServer@@QAEXVQString@@VQStringList@@V?$QList@VQVariant@@@@@Z 0044cfb0 f   moc_tcpserver.obj
 0001:0004c090       ?setAlertSpanJunyueDirect@tcpServer@@QAEXVQString@@HH@Z 0044d090 f   moc_tcpserver.obj
 0001:0004c120       ?setAlertsDirect@tcpServer@@QAEXVQString@@V?$QList@N@@@Z 0044d120 f   moc_tcpserver.obj
 0001:0004c1b0       ?setHeartSpan@tcpServer@@QAEXVQString@@H_N@Z 0044d1b0 f   moc_tcpserver.obj
 0001:0004c240       ?setPowerMode@tcpServer@@QAEXVQString@@EEEE@Z 0044d240 f   moc_tcpserver.obj
 0001:0004c2d0       ?setSave@tcpServer@@QAEXVQString@@_N@Z 0044d2d0 f   moc_tcpserver.obj
 0001:0004c350       ?startResult@tcpServer@@QAEX_N@Z 0044d350 f   moc_tcpserver.obj
 0001:0004c380       ?stopAll@tcpServer@@QAEXXZ 0044d380 f   moc_tcpserver.obj
 0001:0004c3a0       ?tempGainAdjust@tcpServer@@QAEXVQString@@@Z 0044d3a0 f   moc_tcpserver.obj
 0001:0004c410       ?tempZeroAdjust@tcpServer@@QAEXVQString@@@Z 0044d410 f   moc_tcpserver.obj
 0001:0004c480       ?updateAPdata@tcpServer@@QAEXVQString@@VWifiApParas@@@Z 0044d480 f   moc_tcpserver.obj
 0001:0004c510       ?updateAlertData@tcpServer@@QAEXVQString@@PAMH@Z 0044d510 f   moc_tcpserver.obj
 0001:0004c5a0       ?updateAlertJunyue@tcpServer@@QAEXVQString@@V?$QList@M@@@Z 0044d5a0 f   moc_tcpserver.obj
 0001:0004c650       ?updateAlertStatus@tcpServer@@QAEXVQString@@H@Z 0044d650 f   moc_tcpserver.obj
 0001:0004c6d0       ?updateAlertTimeSpan@tcpServer@@QAEXVQString@@HH@Z 0044d6d0 f   moc_tcpserver.obj
 0001:0004c760       ?updateAutoWave2@tcpServer@@QAEXVQString@@VQByteArray@@HPAV?$QList@N@@@Z 0044d760 f   moc_tcpserver.obj
 0001:0004c800       ?updateAutoWave@tcpServer@@QAEXVQString@@HPAV?$QVector@N@@@Z 0044d800 f   moc_tcpserver.obj
 0001:0004c890       ?updateChParas@tcpServer@@QAEXVQString@@VWifiChParas@@@Z 0044d890 f   moc_tcpserver.obj
 0001:0004c920       ?updateChStatus@tcpServer@@QAEXVQString@@G@Z 0044d920 f   moc_tcpserver.obj
 0001:0004c9a0       ?updateCharactersJunyue@tcpServer@@QAEXVQString@@0V?$QList@M@@V?$QList@_N@@@Z 0044d9a0 f   moc_tcpserver.obj
 0001:0004caa0       ?updateCurrentFirmwareVer@tcpServer@@QAEXVQString@@0@Z 0044daa0 f   moc_tcpserver.obj
 0001:0004cb30       ?updateCurrentTemperature@tcpServer@@QAEXVQString@@PANH@Z 0044db30 f   moc_tcpserver.obj
 0001:0004cbc0       ?updateCurrentVValue@tcpServer@@QAEXVQString@@PAV?$QList@PAVvirbValue@@@@@Z 0044dbc0 f   moc_tcpserver.obj
 0001:0004cc50       ?updateDeviceInfo@tcpServer@@QAEXHVQString@@0@Z 0044dc50 f   moc_tcpserver.obj
 0001:0004cce0       ?updateDeviceStatus@tcpServer@@QAEXHVQString@@@Z 0044dce0 f   moc_tcpserver.obj
 0001:0004cd60       ?updateFFT@tcpServer@@QAEXVQString@@PAV?$QVector@N@@@Z 0044dd60 f   moc_tcpserver.obj
 0001:0004cdf0       ?updateFirmware@tcpServer@@QAEXVQString@@0@Z 0044ddf0 f   moc_tcpserver.obj
 0001:0004ce80       ?updateFirmwareStatus@tcpServer@@QAEXVQString@@HH@Z 0044de80 f   moc_tcpserver.obj
 0001:0004cf10       ?updateFsMode@tcpServer@@QAEXVQString@@H@Z 0044df10 f   moc_tcpserver.obj
 0001:0004cf90       ?updateFsParas@tcpServer@@QAEXVQString@@VWifiFsParas@@@Z 0044df90 f   moc_tcpserver.obj
 0001:0004d010       ?updateMessage@tcpServer@@QAEXVQString@@@Z 0044e010 f   moc_tcpserver.obj
 0001:0004d080       ?updateModbusTemp@tcpServer@@QAEXVQString@@N@Z 0044e080 f   moc_tcpserver.obj
 0001:0004d100       ?updateModbusValue@tcpServer@@QAEXVQString@@N@Z 0044e100 f   moc_tcpserver.obj
 0001:0004d180       ?updateNetParas@tcpServer@@QAEXVQString@@VWifiNetParas@@@Z 0044e180 f   moc_tcpserver.obj
 0001:0004d220       ?updatePowerMode2@tcpServer@@QAEXVQString@@EEEE@Z 0044e220 f   moc_tcpserver.obj
 0001:0004d2b0       ?updatePowerMode@tcpServer@@QAEXVQString@@EEE@Z 0044e2b0 f   moc_tcpserver.obj
 0001:0004d340       ?updateSingleWave@tcpServer@@QAEXVQString@@HPAV?$QVector@N@@@Z 0044e340 f   moc_tcpserver.obj
 0001:0004d3d0       ?updateTCPServer@tcpServer@@QAEXVQString@@0H@Z 0044e3d0 f   moc_tcpserver.obj
 0001:0004d460       ?updateUpdateResult@tcpServer@@QAEXVQString@@_N@Z 0044e460 f   moc_tcpserver.obj
 0001:0004d4e0       ?updateWave@tcpServer@@QAEXVQString@@PAV?$QVector@N@@@Z 0044e4e0 f   moc_tcpserver.obj
 0001:0004d570       ?widgetReady@tcpServer@@QAEXVQString@@@Z 0044e570 f   moc_tcpserver.obj
 0001:0004d5e0       ?aboutTosendCommand@tcpServerThread@@QAEXVQString@@@Z 0044e5e0 f   moc_tcpserverthread.obj
 0001:0004d650       ?addressReady@tcpServerThread@@QAEXVQString@@@Z 0044e650 f   moc_tcpserverthread.obj
 0001:0004d6c0       ?commandSent@tcpServerThread@@QAEXVQStringList@@@Z 0044e6c0 f   moc_tcpserverthread.obj
 0001:0004d730       ?connInfo@tcpServerThread@@QAEXHVQString@@@Z 0044e730 f   moc_tcpserverthread.obj
 0001:0004d7b0       ?createWidget@tcpServerThread@@QAEXHVQString@@0@Z 0044e7b0 f   moc_tcpserverthread.obj
 0001:0004d840       ?disconnInfo@tcpServerThread@@QAEXHVQString@@@Z 0044e840 f   moc_tcpserverthread.obj
 0001:0004d8c0       ?disconnectTCP@tcpServerThread@@QAEXH@Z 0044e8c0 f   moc_tcpserverthread.obj
 0001:0004d8f0       ?errerInfo@tcpServerThread@@QAEXVQString@@@Z 0044e8f0 f   moc_tcpserverthread.obj
 0001:0004d960       ?metaObject@tcpServerThread@@UBEPBUQMetaObject@@XZ 0044e960 f   moc_tcpserverthread.obj
 0001:0004d980       ?qt_metacall@tcpServerThread@@UAEHW4Call@QMetaObject@@HPAPAX@Z 0044e980 f   moc_tcpserverthread.obj
 0001:0004d9d0       ?qt_metacast@tcpServerThread@@UAEPAXPBD@Z 0044e9d0 f   moc_tcpserverthread.obj
 0001:0004da30       ?qt_static_metacall@tcpServerThread@@CAXPAVQObject@@W4Call@QMetaObject@@HPAPAX@Z 0044ea30 f   moc_tcpserverthread.obj
 0001:0004f200       ?reset30@tcpServerThread@@QAEXH@Z 00450200 f   moc_tcpserverthread.obj
 0001:0004f230       ?revData@tcpServerThread@@QAEXVQString@@VQByteArray@@@Z 00450230 f   moc_tcpserverthread.obj
 0001:0004f2c0       ?saveErrorData@tcpServerThread@@QAEXVQString@@0EH@Z 004502c0 f   moc_tcpserverthread.obj
 0001:0004f350       ?sendDat@tcpServerThread@@QAEXVQByteArray@@H@Z 00450350 f   moc_tcpserverthread.obj
 0001:0004f3d0       ?setSave@tcpServerThread@@QAEXVQString@@_N@Z 004503d0 f   moc_tcpserverthread.obj
 0001:0004f450       ?stopSocket@tcpServerThread@@QAEXXZ 00450450 f   moc_tcpserverthread.obj
 0001:0004f470       ?updateAPdata@tcpServerThread@@QAEXVQString@@VWifiApParas@@@Z 00450470 f   moc_tcpserverthread.obj
 0001:0004f500       ?updateAlertData@tcpServerThread@@QAEXVQString@@PAMH@Z 00450500 f   moc_tcpserverthread.obj
 0001:0004f590       ?updateAlertJunyue@tcpServerThread@@QAEXVQString@@V?$QList@M@@@Z 00450590 f   moc_tcpserverthread.obj
 0001:0004f640       ?updateAlertRule@tcpServerThread@@QAEXVQString@@HVQByteArray@@@Z 00450640 f   moc_tcpserverthread.obj
 0001:0004f6d0       ?updateAlertRuleFitness@tcpServerThread@@QAEXVQString@@VQByteArray@@@Z 004506d0 f   moc_tcpserverthread.obj
 0001:0004f760       ?updateAlertStatus@tcpServerThread@@QAEXVQString@@H@Z 00450760 f   moc_tcpserverthread.obj
 0001:0004f7e0       ?updateAlertTimeSpan@tcpServerThread@@QAEXVQString@@HH@Z 004507e0 f   moc_tcpserverthread.obj
 0001:0004f870       ?updateAutoWave2@tcpServerThread@@QAEXVQString@@VQByteArray@@HPAV?$QList@N@@@Z 00450870 f   moc_tcpserverthread.obj
 0001:0004f910       ?updateAutoWave@tcpServerThread@@QAEXVQString@@HPAV?$QVector@N@@@Z 00450910 f   moc_tcpserverthread.obj
 0001:0004f9a0       ?updateChParas@tcpServerThread@@QAEXVQString@@VWifiChParas@@@Z 004509a0 f   moc_tcpserverthread.obj
 0001:0004fa30       ?updateChStatus@tcpServerThread@@QAEXVQString@@G@Z 00450a30 f   moc_tcpserverthread.obj
 0001:0004fab0       ?updateCharactersJunyue@tcpServerThread@@QAEXVQString@@0V?$QList@M@@V?$QList@_N@@@Z 00450ab0 f   moc_tcpserverthread.obj
 0001:0004fbb0       ?updateCurrentFirmwareVer@tcpServerThread@@QAEXVQString@@0@Z 00450bb0 f   moc_tcpserverthread.obj
 0001:0004fc40       ?updateCurrentFreqValue@tcpServerThread@@QAEXVQString@@PAV?$QList@PAVvirbValue@@@@@Z 00450c40 f   moc_tcpserverthread.obj
 0001:0004fcd0       ?updateCurrentTemperature@tcpServerThread@@QAEXVQString@@PANH@Z 00450cd0 f   moc_tcpserverthread.obj
 0001:0004fd60       ?updateCurrentVValue@tcpServerThread@@QAEXVQString@@PAV?$QList@PAVvirbValue@@@@@Z 00450d60 f   moc_tcpserverthread.obj
 0001:0004fdf0       ?updateFFT@tcpServerThread@@QAEXVQString@@PAV?$QVector@N@@@Z 00450df0 f   moc_tcpserverthread.obj
 0001:0004fe80       ?updateFsMode@tcpServerThread@@QAEXVQString@@H@Z 00450e80 f   moc_tcpserverthread.obj
 0001:0004ff00       ?updateFsParas@tcpServerThread@@QAEXVQString@@VWifiFsParas@@@Z 00450f00 f   moc_tcpserverthread.obj
 0001:0004ff80       ?updateNetParas@tcpServerThread@@QAEXVQString@@VWifiNetParas@@@Z 00450f80 f   moc_tcpserverthread.obj
 0001:00050020       ?updatePowerMode@tcpServerThread@@QAEXVQString@@EEE@Z 00451020 f   moc_tcpserverthread.obj
 0001:000500b0       ?updatePowerMode@tcpServerThread@@QAEXVQString@@EEEE@Z 004510b0 f   moc_tcpserverthread.obj
 0001:00050140       ?updateSingleWave@tcpServerThread@@QAEXVQString@@HPAV?$QVector@N@@@Z 00451140 f   moc_tcpserverthread.obj
 0001:000501d0       ?updateStatus@tcpServerThread@@QAEXVQString@@HH@Z 004511d0 f   moc_tcpserverthread.obj
 0001:00050260       ?updateTCPServer@tcpServerThread@@QAEXVQString@@0H@Z 00451260 f   moc_tcpserverthread.obj
 0001:000502f0       ?updateUpdateResult@tcpServerThread@@QAEXVQString@@_N@Z 004512f0 f   moc_tcpserverthread.obj
 0001:00050370       ?updateWave@tcpServerThread@@QAEXVQString@@PAMH@Z 00451370 f   moc_tcpserverthread.obj
 0001:00050400       ?updateWave@tcpServerThread@@QAEXVQString@@PAV?$QVector@N@@@Z 00451400 f   moc_tcpserverthread.obj
 0001:00050490       ?updatevirb@tcpServerThread@@QAEXVQString@@0EHPAN@Z 00451490 f   moc_tcpserverthread.obj
 0001:00050530       ?metaObject@virbValue@@UBEPBUQMetaObject@@XZ 00451530 f   moc_virbvalue.obj
 0001:00050550       ?qt_metacall@netParas@@UAEHW4Call@QMetaObject@@HPAPAX@Z 00451550 f   moc_structs.obj
 0001:00050550       ?qt_metacall@WifiChParas@@UAEHW4Call@QMetaObject@@HPAPAX@Z 00451550 f   moc_wifichparas.obj
 0001:00050550       ?qt_metacall@virbValue@@UAEHW4Call@QMetaObject@@HPAPAX@Z 00451550 f   moc_virbvalue.obj
 0001:00050560       ?qt_metacast@virbValue@@UAEPAXPBD@Z 00451560 f   moc_virbvalue.obj
 0001:000505c0       ?metaObject@WifiChParas@@UBEPBUQMetaObject@@XZ 004515c0 f   moc_wifichparas.obj
 0001:000505e0       ?qt_metacast@WifiChParas@@UAEPAXPBD@Z 004515e0 f   moc_wifichparas.obj
 0001:00050640       ?metaObject@alertChJunyue@@UBEPBUQMetaObject@@XZ 00451640 f   moc_alertchjunyue.obj
 0001:00050660       ?qt_metacall@chControlAFD@@UAEHW4Call@QMetaObject@@HPAPAX@Z 00451660 f   moc_chcontrolafd.obj
 0001:00050660       ?qt_metacall@alertChJunyue@@UAEHW4Call@QMetaObject@@HPAPAX@Z 00451660 f   moc_alertchjunyue.obj
 0001:00050670       ?qt_metacast@alertChJunyue@@UAEPAXPBD@Z 00451670 f   moc_alertchjunyue.obj
 0001:000506d0       ?changeAP@apDialog@@QAEXPAVWifiApParas@@@Z 004516d0 f   moc_apdialog.obj
 0001:00050700       ?metaObject@apDialog@@UBEPBUQMetaObject@@XZ 00451700 f   moc_apdialog.obj
 0001:00050720       ?qt_metacall@apDialog@@UAEHW4Call@QMetaObject@@HPAPAX@Z 00451720 f   moc_apdialog.obj
 0001:00050780       ?qt_metacast@apDialog@@UAEPAXPBD@Z 00451780 f   moc_apdialog.obj
 0001:000507e0       ?qt_static_metacall@apDialog@@CAXPAVQObject@@W4Call@QMetaObject@@HPAPAX@Z 004517e0 f   moc_apdialog.obj
 0001:00050870       ?closeChild@baseForm2@@QAEXHVQString@@@Z 00451870 f   moc_baseform2.obj
 0001:000508f0       ?metaObject@baseForm2@@UBEPBUQMetaObject@@XZ 004518f0 f   moc_baseform2.obj
 0001:00050910       ?qt_metacall@baseForm2@@UAEHW4Call@QMetaObject@@HPAPAX@Z 00451910 f   moc_baseform2.obj
 0001:00050970       ?qt_metacast@baseForm2@@UAEPAXPBD@Z 00451970 f   moc_baseform2.obj
 0001:000509d0       ?qt_static_metacall@baseForm2@@CAXPAVQObject@@W4Call@QMetaObject@@HPAPAX@Z 004519d0 f   moc_baseform2.obj
 0001:00050ad0       ?changeLabelJunyue@characterForm@@QAEXVQString@@00@Z 00451ad0 f   moc_characterform.obj
 0001:00050b70       ?metaObject@characterForm@@UBEPBUQMetaObject@@XZ 00451b70 f   moc_characterform.obj
 0001:00050b90       ?qt_metacall@characterForm@@UAEHW4Call@QMetaObject@@HPAPAX@Z 00451b90 f   moc_characterform.obj
 0001:00050be0       ?qt_metacast@characterForm@@UAEPAXPBD@Z 00451be0 f   moc_characterform.obj
 0001:00050c40       ?qt_static_metacall@characterForm@@CAXPAVQObject@@W4Call@QMetaObject@@HPAPAX@Z 00451c40 f   moc_characterform.obj
 0001:00050e70       ?metaObject@chControlAFD@@UBEPBUQMetaObject@@XZ 00451e70 f   moc_chcontrolafd.obj
 0001:00050e90       ?qt_metacast@chControlAFD@@UAEPAXPBD@Z 00451e90 f   moc_chcontrolafd.obj
 0001:00050ef0       ?activated@customPlot@@QAEXXZ 00451ef0 f   moc_customplot.obj
 0001:00050f10       ?disactivated@customPlot@@QAEXXZ 00451f10 f   moc_customplot.obj
 0001:00050f30       ?moved@customPlot@@QAEXXZ  00451f30 f   moc_customplot.obj
 0001:00050f50       ?qt_metatype_id@?$QMetaTypeId2@PAVQAction@@@@SAHXZ 00451f50 f i moc_customplot.obj
 0001:00051080       ?qt_static_metacall@customPlot@@CAXPAVQObject@@W4Call@QMetaObject@@HPAPAX@Z 00452080 f   moc_customplot.obj
 0001:000517a0       ??1netParas@@UAE@XZ        004527a0 f i moc_daqinfo.obj
 0001:000517d0       ??_EnetParas@@UAEPAXI@Z    004527d0 f i moc_daqinfo.obj
 0001:000517d0       ??_GnetParas@@UAEPAXI@Z    004527d0 f i moc_daqinfo.obj
 0001:00051810       ?aboutToDelete@daqInfo@@QAEXXZ 00452810 f   moc_daqinfo.obj
 0001:00051830       ?aboutToStart@daqInfo@@QAEXVQString@@_N@Z 00452830 f   moc_daqinfo.obj
 0001:000518b0       ?adcAdjust@daqInfo@@QAEXVQString@@H@Z 004528b0 f   moc_daqinfo.obj
 0001:00051930       ?applyNet@daqInfo@@QAEXVQString@@@Z 00452930 f   moc_daqinfo.obj
 0001:000519a0       ?changeAP@daqInfo@@QAEXVQString@@PAVWifiApParas@@@Z 004529a0 f   moc_daqinfo.obj
 0001:00051a30       ?changeChParas@daqInfo@@QAEXVQString@@PAVWifiChParas@@@Z 00452a30 f   moc_daqinfo.obj
 0001:00051ac0       ?changeChParasDirect@daqInfo@@QAEXVQString@@PAVWifiChParas@@@Z 00452ac0 f   moc_daqinfo.obj
 0001:00051b50       ?changeChStatus@daqInfo@@QAEXVQString@@G@Z 00452b50 f   moc_daqinfo.obj
 0001:00051bd0       ?changeFsMode@daqInfo@@QAEXVQString@@H@Z 00452bd0 f   moc_daqinfo.obj
 0001:00051c50       ?changeFsParas@daqInfo@@QAEXVQString@@PAVWifiFsParas@@@Z 00452c50 f   moc_daqinfo.obj
 0001:00051ce0       ?changeFsParasDirect@daqInfo@@QAEXVQString@@PAVWifiFsParas@@@Z 00452ce0 f   moc_daqinfo.obj
 0001:00051d70       ?changeNetParas@daqInfo@@QAEXVQString@@PAVWifiNetParas@@@Z 00452d70 f   moc_daqinfo.obj
 0001:00051e00       ?changeSN@daqInfo@@QAEXVQString@@0@Z 00452e00 f   moc_daqinfo.obj
 0001:00051e90       ?changeTCPServer1@daqInfo@@QAEXVQString@@H@Z 00452e90 f   moc_daqinfo.obj
 0001:00051f10       ?changeTCPServer@daqInfo@@QAEXVQString@@0H0@Z 00452f10 f   moc_daqinfo.obj
 0001:00051fc0       ?characterForTcp@daqInfo@@QAEXVQString@@0V?$QList@M@@V?$QList@_N@@@Z 00452fc0 f   moc_daqinfo.obj
 0001:000520c0       ?clicked@daqInfo@@QAEXXZ   004530c0 f   moc_daqinfo.obj
 0001:000520e0       ?flushDNS@daqInfo@@QAEXVQString@@@Z 004530e0 f   moc_daqinfo.obj
 0001:00052150       ?metaObject@daqInfo@@UBEPBUQMetaObject@@XZ 00453150 f   moc_daqinfo.obj
 0001:00052170       ?qt_metacall@daqInfo@@UAEHW4Call@QMetaObject@@HPAPAX@Z 00453170 f   moc_daqinfo.obj
 0001:00052230       ?qt_metacast@daqInfo@@UAEPAXPBD@Z 00453230 f   moc_daqinfo.obj
 0001:00052290       ?qt_static_metacall@daqInfo@@CAXPAVQObject@@W4Call@QMetaObject@@HPAPAX@Z 00453290 f   moc_daqinfo.obj
 0001:00053cb0       ?sendRule@daqInfo@@QAEXVQByteArray@@@Z 00454cb0 f   moc_daqinfo.obj
 0001:00053d20       ?setAP@daqInfo@@QAEXPAVWifiApParas@@@Z 00454d20 f   moc_daqinfo.obj
 0001:00053d50       ?setAlertSpanJunyue@daqInfo@@QAEXVQString@@HH@Z 00454d50 f   moc_daqinfo.obj
 0001:00053de0       ?setAlerts@daqInfo@@QAEXVQString@@V?$QList@N@@@Z 00454de0 f   moc_daqinfo.obj
 0001:00053e70       ?setChs@daqInfo@@QAEXHH@Z  00454e70 f   moc_daqinfo.obj
 0001:00053ec0       ?setDNS@daqInfo@@QAEXVQString@@@Z 00454ec0 f   moc_daqinfo.obj
 0001:00053f30       ?setHeartSpan@daqInfo@@QAEXVQString@@H_N@Z 00454f30 f   moc_daqinfo.obj
 0001:00053fc0       ?setNet@daqInfo@@QAEXVnetParas@@@Z 00454fc0 f   moc_daqinfo.obj
 0001:00054050       ?setPowerMode@daqInfo@@QAEXVQString@@EEEE@Z 00455050 f   moc_daqinfo.obj
 0001:000540e0       ?setSN2Dev@daqInfo@@QAEXVQString@@@Z 004550e0 f   moc_daqinfo.obj
 0001:00054150       ?setUpTcpAddress@daqInfo@@QAEXVQString@@H@Z 00455150 f   moc_daqinfo.obj
 0001:000541d0       ?tempGainAdjust@daqInfo@@QAEXVQString@@@Z 004551d0 f   moc_daqinfo.obj
 0001:00054240       ?tempZeroAdjust@daqInfo@@QAEXVQString@@@Z 00455240 f   moc_daqinfo.obj
 0001:000542b0       ?updateAP@daqInfo@@QAEXPAVWifiApParas@@@Z 004552b0 f   moc_daqinfo.obj
 0001:000542e0       ?updateAPName@daqInfo@@QAEXPAVWifiApParas@@@Z 004552e0 f   moc_daqinfo.obj
 0001:00054310       ?updateAlertRule@daqInfo@@QAEXHVQByteArray@@@Z 00455310 f   moc_daqinfo.obj
 0001:00054390       ?updateAlertRuleFitness@daqInfo@@QAEXVQByteArray@@@Z 00455390 f   moc_daqinfo.obj
 0001:00054400       ?updateFS@daqInfo@@QAEXPAVWifiFsParas@@@Z 00455400 f   moc_daqinfo.obj
 0001:00054430       ?updateFirmware@daqInfo@@QAEXVQString@@0@Z 00455430 f   moc_daqinfo.obj
 0001:000544c0       ?updateHeartSpan@daqInfo@@QAEXH_N@Z 004554c0 f   moc_daqinfo.obj
 0001:00054510       ?updateNet@daqInfo@@QAEXPAVWifiNetParas@@@Z 00455510 f   moc_daqinfo.obj
 0001:00054540       ?updateSqlTemp@daqInfo@@QAEXVQString@@000@Z 00455540 f   moc_daqinfo.obj
 0001:000545f0       ?updateTCPserver@daqInfo@@QAEXVQString@@H0@Z 004555f0 f   moc_daqinfo.obj
 0001:00054680       ?waveForTcp@daqInfo@@QAEXVQString@@VQByteArray@@HPAV?$QList@N@@@Z 00455680 f   moc_daqinfo.obj
 0001:00054720       ?allBytesWritten@QAsynHttpSocket@@QAEXXZ 00455720 f   moc_qasynhttpsocket.obj
 0001:00054740       ?getAlertData@QAsynHttpSocket@@QAEXVQString@@E_KV?$QSharedPointer@VQWaitCondition@@@@PAVQMutex@@PAMPAH@Z 00455740 f   moc_qasynhttpsocket.obj
 0001:00054830       ?getData@QAsynHttpSocket@@QAEXVQString@@EHHV?$QSharedPointer@VQWaitCondition@@@@PAVQMutex@@PAMPAH@Z 00455830 f   moc_qasynhttpsocket.obj
 0001:00054920       ?message@QAsynHttpSocket@@QAEXVQString@@@Z 00455920 f   moc_qasynhttpsocket.obj
 0001:00054990       ?metaObject@QAsynHttpSocket@@UBEPBUQMetaObject@@XZ 00455990 f   moc_qasynhttpsocket.obj
 0001:000549b0       ?newRequest@QAsynHttpSocket@@QAEXPAVQHttpRequest@@PAVQHttpResponse@@@Z 004559b0 f   moc_qasynhttpsocket.obj
 0001:00054a10       ?qt_metacall@QAsynHttpSocket@@UAEHW4Call@QMetaObject@@HPAPAX@Z 00455a10 f   moc_qasynhttpsocket.obj
 0001:00054a70       ?qt_metacast@QAsynHttpSocket@@UAEPAXPBD@Z 00455a70 f   moc_qasynhttpsocket.obj
 0001:00054ad0       ?qt_static_metacall@QAsynHttpSocket@@CAXPAVQObject@@W4Call@QMetaObject@@HPAPAX@Z 00455ad0 f   moc_qasynhttpsocket.obj
 0001:00054df0       ?setAlert@QAsynHttpSocket@@QAEXVQString@@E_K@Z 00455df0 f   moc_qasynhttpsocket.obj
 0001:00054e80       ?setChParas@QAsynHttpSocket@@QAEXVQString@@EMMMIH@Z 00455e80 f   moc_qasynhttpsocket.obj
 0001:00054f20       ?sockDisConnect@QAsynHttpSocket@@QAEXHABVQString@@GPAVQThread@@@Z 00455f20 f   moc_qasynhttpsocket.obj
 0001:00054f90       ?timeOut@QAsynHttpSocket@@QAEXV?$QSharedPointer@VQWaitCondition@@@@@Z 00455f90 f   moc_qasynhttpsocket.obj
 0001:00055030       ?closeTCP@QAsynTcpServer@@QAEXXZ 00456030 f   moc_qasyntcpserver.obj
 0001:00055050       ?metaObject@QAsynTcpServer@@UBEPBUQMetaObject@@XZ 00456050 f   moc_qasyntcpserver.obj
 0001:00055070       ?qt_metacall@QAsynTcpServer@@UAEHW4Call@QMetaObject@@HPAPAX@Z 00456070 f   moc_qasyntcpserver.obj
 0001:000550d0       ?qt_metacast@QAsynTcpServer@@UAEPAXPBD@Z 004560d0 f   moc_qasyntcpserver.obj
 0001:00055130       ?qt_static_metacall@QAsynTcpServer@@CAXPAVQObject@@W4Call@QMetaObject@@HPAPAX@Z 00456130 f   moc_qasyntcpserver.obj
 0001:000551b0       ?allBytesWritten@QAsynTcpSocket@@QAEXXZ 004561b0 f   moc_qasyntcpsocket.obj
 0001:000551d0       ?metaObject@QAsynTcpSocket@@UBEPBUQMetaObject@@XZ 004561d0 f   moc_qasyntcpsocket.obj
 0001:000551f0       ?qt_metacall@QAsynTcpSocket@@UAEHW4Call@QMetaObject@@HPAPAX@Z 004561f0 f   moc_qasyntcpsocket.obj
 0001:00055250       ?qt_metacast@QAsynTcpSocket@@UAEPAXPBD@Z 00456250 f   moc_qasyntcpsocket.obj
 0001:000552b0       ?qt_static_metacall@QAsynTcpSocket@@CAXPAVQObject@@W4Call@QMetaObject@@HPAPAX@Z 004562b0 f   moc_qasyntcpsocket.obj
 0001:00055370       ?sockDisConnect@QAsynTcpSocket@@QAEXHABVQString@@GPAVQThread@@@Z 00456370 f   moc_qasyntcpsocket.obj
 0001:000553e0       ?data@QHttpRequest@@QAEXABVQByteArray@@@Z 004563e0 f   moc_qhttprequest.obj
 0001:00055410       ?end@QHttpRequest@@QAEXXZ  00456410 f   moc_qhttprequest.obj
 0001:00055430       ?metaObject@QHttpRequest@@UBEPBUQMetaObject@@XZ 00456430 f   moc_qhttprequest.obj
 0001:00055450       ?qt_metacall@QHttpRequest@@UAEHW4Call@QMetaObject@@HPAPAX@Z 00456450 f   moc_qhttprequest.obj
 0001:00055510       ?qt_metacast@QHttpRequest@@UAEPAXPBD@Z 00456510 f   moc_qhttprequest.obj
 0001:00055570       ?qt_static_metacall@QHttpRequest@@CAXPAVQObject@@W4Call@QMetaObject@@HPAPAX@Z 00456570 f   moc_qhttprequest.obj
 0001:000557b0       ?allBytesWritten@QHttpResponse@@QAEXXZ 004567b0 f   moc_qhttpresponse.obj
 0001:000557d0       ?done@QHttpResponse@@QAEXXZ 004567d0 f   moc_qhttpresponse.obj
 0001:000557f0       ?metaObject@QHttpResponse@@UBEPBUQMetaObject@@XZ 004567f0 f   moc_qhttpresponse.obj
 0001:00055810       ?qt_metacall@QHttpResponse@@UAEHW4Call@QMetaObject@@HPAPAX@Z 00456810 f   moc_qhttpresponse.obj
 0001:00055870       ?qt_metacast@QHttpResponse@@UAEPAXPBD@Z 00456870 f   moc_qhttpresponse.obj
 0001:000558d0       ?qt_static_metacall@QHttpResponse@@CAXPAVQObject@@W4Call@QMetaObject@@HPAPAX@Z 004568d0 f   moc_qhttpresponse.obj
 0001:00055ad0       ?qt_static_metacall@QHttpServer@@CAXPAVQObject@@W4Call@QMetaObject@@HPAPAX@Z 00456ad0 f   moc_qhttpserver.obj
 0001:00055dd0       ?getAlertData@QHttpServer@@QAEXVQString@@E_KV?$QSharedPointer@VQWaitCondition@@@@PAVQMutex@@PAMPAH@Z 00456dd0 f   moc_qhttpserver.obj
 0001:00055ec0       ?getData@QHttpServer@@QAEXVQString@@EHHV?$QSharedPointer@VQWaitCondition@@@@PAVQMutex@@PAMPAH@Z 00456ec0 f   moc_qhttpserver.obj
 0001:00055fb0       ?metaObject@QHttpServer@@UBEPBUQMetaObject@@XZ 00456fb0 f   moc_qhttpserver.obj
 0001:00055fd0       ?qt_metacall@QHttpServer@@UAEHW4Call@QMetaObject@@HPAPAX@Z 00456fd0 f   moc_qhttpserver.obj
 0001:00056020       ?qt_metacast@QHttpServer@@UAEPAXPBD@Z 00457020 f   moc_qhttpserver.obj
 0001:00056080       ?qt_metatype_id@?$QMetaTypeId2@PAVQThread@@@@SAHXZ 00457080 f i moc_qhttpserver.obj
 0001:000561b0       ?setAlert@QHttpServer@@QAEXVQString@@E_K@Z 004571b0 f   moc_qhttpserver.obj
 0001:00056240       ?setChParas@QHttpServer@@QAEXVQString@@EMMMIH@Z 00457240 f   moc_qhttpserver.obj
 0001:000562e0       ?startResult@QHttpServer@@QAEX_N@Z 004572e0 f   moc_qhttpserver.obj
 0001:00056310       ?timeOut@QHttpServer@@QAEXV?$QSharedPointer@VQWaitCondition@@@@@Z 00457310 f   moc_qhttpserver.obj
 0001:000563b0       ?updateMessage@QHttpServer@@QAEXVQString@@@Z 004573b0 f   moc_qhttpserver.obj
 0001:00056420       ?aboutToStart@mainTab@@QAEXVQString@@_N@Z 00457420 f   moc_maintab.obj
 0001:000564a0       ?adcAdjust@mainTab@@QAEXVQString@@H@Z 004574a0 f   moc_maintab.obj
 0001:00056520       ?applyNet@mainTab@@QAEXVQString@@@Z 00457520 f   moc_maintab.obj
 0001:00056590       ?autoScaleChanged@mainTab@@QAEX_N@Z 00457590 f   moc_maintab.obj
 0001:000565c0       ?changeAP@mainTab@@QAEXVQString@@PAVWifiApParas@@@Z 004575c0 f   moc_maintab.obj
 0001:00056650       ?changeChParas@mainTab@@QAEXVQString@@PAVWifiChParas@@@Z 00457650 f   moc_maintab.obj
 0001:000566e0       ?changeChParasDirect@mainTab@@QAEXVQString@@PAVWifiChParas@@@Z 004576e0 f   moc_maintab.obj
 0001:00056770       ?changeChStatus@mainTab@@QAEXVQString@@G@Z 00457770 f   moc_maintab.obj
 0001:000567f0       ?changeFsMode@mainTab@@QAEXVQString@@H@Z 004577f0 f   moc_maintab.obj
 0001:00056870       ?changeFsParas@mainTab@@QAEXVQString@@PAVWifiFsParas@@@Z 00457870 f   moc_maintab.obj
 0001:00056900       ?changeFsParasDirect@mainTab@@QAEXVQString@@PAVWifiFsParas@@@Z 00457900 f   moc_maintab.obj
 0001:00056990       ?changeNetParas@mainTab@@QAEXVQString@@PAVWifiNetParas@@@Z 00457990 f   moc_maintab.obj
 0001:00056a20       ?changeSN@mainTab@@QAEXVQString@@0@Z 00457a20 f   moc_maintab.obj
 0001:00056ab0       ?changeTCPServer1@mainTab@@QAEXVQString@@H@Z 00457ab0 f   moc_maintab.obj
 0001:00056b30       ?changeTCPServer@mainTab@@QAEXVQString@@0H0@Z 00457b30 f   moc_maintab.obj
 0001:00056bd0       ?changeUIsettings@mainTab@@QAEXUuiElements@@@Z 00457bd0 f   moc_maintab.obj
 0001:00056c80       ?delDaqFromUI@mainTab@@QAEXVQString@@@Z 00457c80 f   moc_maintab.obj
 0001:00056cf0       ?metaObject@mainTab@@UBEPBUQMetaObject@@XZ 00457cf0 f   moc_maintab.obj
 0001:00056d10       ?qt_metacall@mainTab@@UAEHW4Call@QMetaObject@@HPAPAX@Z 00457d10 f   moc_maintab.obj
 0001:00056d60       ?qt_metacast@mainTab@@UAEPAXPBD@Z 00457d60 f   moc_maintab.obj
 0001:00056dc0       ?qt_static_metacall@mainTab@@CAXPAVQObject@@W4Call@QMetaObject@@HPAPAX@Z 00457dc0 f   moc_maintab.obj
 0001:000581b0       ?sendingDataWs@mainTab@@QAEXVQString@@@Z 004591b0 f   moc_maintab.obj
 0001:00058220       ?setAlertSpanJunyue@mainTab@@QAEXVQString@@HH@Z 00459220 f   moc_maintab.obj
 0001:000582b0       ?setAlerts@mainTab@@QAEXVQString@@V?$QList@N@@@Z 004592b0 f   moc_maintab.obj
 0001:00058340       ?setHeartSpan@mainTab@@QAEXVQString@@H_N@Z 00459340 f   moc_maintab.obj
 0001:000583d0       ?setPowerMode@mainTab@@QAEXVQString@@EEEE@Z 004593d0 f   moc_maintab.obj
 0001:00058460       ?setRemoteTcpServer@mainTab@@QAEXVQString@@H@Z 00459460 f   moc_maintab.obj
 0001:000584e0       ?startHttpServer@mainTab@@QAEXVQString@@G@Z 004594e0 f   moc_maintab.obj
 0001:00058560       ?startTcpServer@mainTab@@QAEXVQString@@G@Z 00459560 f   moc_maintab.obj
 0001:000585e0       ?startWs@mainTab@@QAEXVQString@@@Z 004595e0 f   moc_maintab.obj
 0001:00058650       ?tempGainAdjust@mainTab@@QAEXVQString@@@Z 00459650 f   moc_maintab.obj
 0001:000586c0       ?tempZeroAdjust@mainTab@@QAEXVQString@@@Z 004596c0 f   moc_maintab.obj
 0001:00058730       ?updateFirmware@mainTab@@QAEXVQString@@0@Z 00459730 f   moc_maintab.obj
 0001:000587c0       ?updateStatusMessage@mainTab@@QAEXVQString@@@Z 004597c0 f   moc_maintab.obj
 0001:00058830       ?uploadSN@mainTab@@QAEXVQString@@@Z 00459830 f   moc_maintab.obj
 0001:000588a0       ?aboutToClose@CMainWindow@@QAEXXZ 004598a0 f   moc_mainwindow.obj
 0001:000588c0       ?aboutToStart@CMainWindow@@QAEXVQString@@_N@Z 004598c0 f   moc_mainwindow.obj
 0001:00058940       ?adcAdjust@CMainWindow@@QAEXVQString@@H@Z 00459940 f   moc_mainwindow.obj
 0001:000589c0       ?applyNet@CMainWindow@@QAEXVQString@@@Z 004599c0 f   moc_mainwindow.obj
 0001:00058a30       ?changeAP@CMainWindow@@QAEXVQString@@PAVWifiApParas@@@Z 00459a30 f   moc_mainwindow.obj
 0001:00058ac0       ?changeChParas@CMainWindow@@QAEXVQString@@PAVWifiChParas@@@Z 00459ac0 f   moc_mainwindow.obj
 0001:00058b50       ?changeChParasDirect@CMainWindow@@QAEXVQString@@PAVWifiChParas@@@Z 00459b50 f   moc_mainwindow.obj
 0001:00058be0       ?changeChStatus@CMainWindow@@QAEXVQString@@G@Z 00459be0 f   moc_mainwindow.obj
 0001:00058c60       ?changeFsMode@CMainWindow@@QAEXVQString@@H@Z 00459c60 f   moc_mainwindow.obj
 0001:00058ce0       ?changeFsParas@CMainWindow@@QAEXVQString@@PAVWifiFsParas@@@Z 00459ce0 f   moc_mainwindow.obj
 0001:00058d70       ?changeFsParasDirect@CMainWindow@@QAEXVQString@@PAVWifiFsParas@@@Z 00459d70 f   moc_mainwindow.obj
 0001:00058e00       ?changeMainTabIndex@CMainWindow@@QAEXH@Z 00459e00 f   moc_mainwindow.obj
 0001:00058e30       ?changeNetParas@CMainWindow@@QAEXVQString@@PAVWifiNetParas@@@Z 00459e30 f   moc_mainwindow.obj
 0001:00058ec0       ?changeSN@CMainWindow@@QAEXVQString@@0@Z 00459ec0 f   moc_mainwindow.obj
 0001:00058f50       ?changeTCPServer1@CMainWindow@@QAEXVQString@@H@Z 00459f50 f   moc_mainwindow.obj
 0001:00058fd0       ?changeTCPServer@CMainWindow@@QAEXVQString@@0H0@Z 00459fd0 f   moc_mainwindow.obj
 0001:00059070       ?createDaqFromBack@CMainWindow@@QAEXHVQString@@0@Z 0045a070 f   moc_mainwindow.obj
 0001:00059100       ?delDaqFromUI@CMainWindow@@QAEXVQString@@@Z 0045a100 f   moc_mainwindow.obj
 0001:00059170       ?initTabElements@CMainWindow@@QAEXUuiElements@@@Z 0045a170 f   moc_mainwindow.obj
 0001:00059220       ?metaObject@CMainWindow@@UBEPBUQMetaObject@@XZ 0045a220 f   moc_mainwindow.obj
 0001:00059240       ?qt_metacall@CMainWindow@@UAEHW4Call@QMetaObject@@HPAPAX@Z 0045a240 f   moc_mainwindow.obj
 0001:00059290       ?qt_metacast@CMainWindow@@UAEPAXPBD@Z 0045a290 f   moc_mainwindow.obj
 0001:000592f0       ?qt_static_metacall@CMainWindow@@CAXPAVQObject@@W4Call@QMetaObject@@HPAPAX@Z 0045a2f0 f   moc_mainwindow.obj
 0001:0005a920       ?setAlertSpanJunyue@CMainWindow@@QAEXVQString@@HH@Z 0045b920 f   moc_mainwindow.obj
 0001:0005a9b0       ?setAlertSpanJunyueDirect@CMainWindow@@QAEXVQString@@HH@Z 0045b9b0 f   moc_mainwindow.obj
 0001:0005aa40       ?setAlerts@CMainWindow@@QAEXVQString@@V?$QList@N@@@Z 0045ba40 f   moc_mainwindow.obj
 0001:0005aad0       ?setAlertsDirect@CMainWindow@@QAEXVQString@@V?$QList@N@@@Z 0045bad0 f   moc_mainwindow.obj
 0001:0005ab60       ?setHeartSpan@CMainWindow@@QAEXVQString@@H_N@Z 0045bb60 f   moc_mainwindow.obj
 0001:0005abf0       ?setPowerMode@CMainWindow@@QAEXVQString@@EEEE@Z 0045bbf0 f   moc_mainwindow.obj
 0001:0005ac80       ?settingGUID@CMainWindow@@QAEXVQString@@@Z 0045bc80 f   moc_mainwindow.obj
 0001:0005acf0       ?startHttpServer@CMainWindow@@QAEXVQString@@G@Z 0045bcf0 f   moc_mainwindow.obj
 0001:0005ad70       ?startTcpServer@CMainWindow@@QAEXVQString@@G@Z 0045bd70 f   moc_mainwindow.obj
 0001:0005adf0       ?startWs@CMainWindow@@QAEXVQString@@@Z 0045bdf0 f   moc_mainwindow.obj
 0001:0005ae60       ?tempGainAdjust@CMainWindow@@QAEXVQString@@@Z 0045be60 f   moc_mainwindow.obj
 0001:0005aed0       ?tempZeroAdjust@CMainWindow@@QAEXVQString@@@Z 0045bed0 f   moc_mainwindow.obj
 0001:0005af40       ?updateAPdata@CMainWindow@@QAEXVQString@@VWifiApParas@@@Z 0045bf40 f   moc_mainwindow.obj
 0001:0005afd0       ?updateAlertJunyue@CMainWindow@@QAEXVQString@@V?$QList@M@@@Z 0045bfd0 f   moc_mainwindow.obj
 0001:0005b080       ?updateAlertTimeSpan@CMainWindow@@QAEXVQString@@HH@Z 0045c080 f   moc_mainwindow.obj
 0001:0005b110       ?updateAutoWave2@CMainWindow@@QAEXVQString@@VQByteArray@@HPAV?$QList@N@@@Z 0045c110 f   moc_mainwindow.obj
 0001:0005b1b0       ?updateChParas@CMainWindow@@QAEXVQString@@VWifiChParas@@@Z 0045c1b0 f   moc_mainwindow.obj
 0001:0005b240       ?updateChStatus@CMainWindow@@QAEXVQString@@G@Z 0045c240 f   moc_mainwindow.obj
 0001:0005b2c0       ?updateCharactersJunyue@CMainWindow@@QAEXVQString@@0V?$QList@M@@V?$QList@_N@@@Z 0045c2c0 f   moc_mainwindow.obj
 0001:0005b3c0       ?updateCurrentFirmwareVer@CMainWindow@@QAEXVQString@@0@Z 0045c3c0 f   moc_mainwindow.obj
 0001:0005b450       ?updateCurrentTemperature@CMainWindow@@QAEXVQString@@PANH@Z 0045c450 f   moc_mainwindow.obj
 0001:0005b4e0       ?updateCurrentVValue@CMainWindow@@QAEXVQString@@PAV?$QList@PAVvirbValue@@@@@Z 0045c4e0 f   moc_mainwindow.obj
 0001:0005b570       ?updateDeviceStatus@CMainWindow@@QAEXHVQString@@@Z 0045c570 f   moc_mainwindow.obj
 0001:0005b5f0       ?updateFirmware@CMainWindow@@QAEXVQString@@0@Z 0045c5f0 f   moc_mainwindow.obj
 0001:0005b680       ?updateFirmwareStatus@CMainWindow@@QAEXVQString@@HH@Z 0045c680 f   moc_mainwindow.obj
 0001:0005b710       ?updateFsMode@CMainWindow@@QAEXVQString@@H@Z 0045c710 f   moc_mainwindow.obj
 0001:0005b790       ?updateFsParas@CMainWindow@@QAEXVQString@@VWifiFsParas@@@Z 0045c790 f   moc_mainwindow.obj
 0001:0005b810       ?updateNetParas@CMainWindow@@QAEXVQString@@VWifiNetParas@@@Z 0045c810 f   moc_mainwindow.obj
 0001:0005b8b0       ?updatePowerMode2@CMainWindow@@QAEXVQString@@EEEE@Z 0045c8b0 f   moc_mainwindow.obj
 0001:0005b940       ?updatePowerMode@CMainWindow@@QAEXVQString@@EEE@Z 0045c940 f   moc_mainwindow.obj
 0001:0005b9d0       ?updateTCPServer@CMainWindow@@QAEXVQString@@0H@Z 0045c9d0 f   moc_mainwindow.obj
 0001:0005ba60       ?updateWave@CMainWindow@@QAEXVQString@@PAV?$QVector@N@@@Z 0045ca60 f   moc_mainwindow.obj
 0001:0005baf0       ?widgetReady@CMainWindow@@QAEXVQString@@@Z 0045caf0 f   moc_mainwindow.obj
 0001:0005bb60       ?adcAdjust@settingWifiJunyue@@QAEXVQString@@H@Z 0045cb60 f   moc_settingwifijunyue.obj
 0001:0005bbe0       ?applyNet@settingWifiJunyue@@QAEXVQString@@@Z 0045cbe0 f   moc_settingwifijunyue.obj
 0001:0005bc50       ?changeAP@settingWifiJunyue@@QAEXVQString@@PAVWifiApParas@@@Z 0045cc50 f   moc_settingwifijunyue.obj
 0001:0005bce0       ?changeBattery@settingWifiJunyue@@QAEXVQString@@N@Z 0045cce0 f   moc_settingwifijunyue.obj
 0001:0005bd60       ?changeChParas@settingWifiJunyue@@QAEXVQString@@PAVWifiChParas@@@Z 0045cd60 f   moc_settingwifijunyue.obj
 0001:0005bdf0       ?changeChParasDirect@settingWifiJunyue@@QAEXVQString@@PAVWifiChParas@@@Z 0045cdf0 f   moc_settingwifijunyue.obj
 0001:0005be80       ?changeChStatus@settingWifiJunyue@@QAEXVQString@@G@Z 0045ce80 f   moc_settingwifijunyue.obj
 0001:0005bf00       ?changeFsMode@settingWifiJunyue@@QAEXVQString@@H@Z 0045cf00 f   moc_settingwifijunyue.obj
 0001:0005bf80       ?changeFsParas@settingWifiJunyue@@QAEXVQString@@PAVWifiFsParas@@@Z 0045cf80 f   moc_settingwifijunyue.obj
 0001:0005c010       ?changeFsParasDirect@settingWifiJunyue@@QAEXVQString@@PAVWifiFsParas@@@Z 0045d010 f   moc_settingwifijunyue.obj
 0001:0005c0a0       ?changeNetParas@settingWifiJunyue@@QAEXVQString@@PAVWifiNetParas@@@Z 0045d0a0 f   moc_settingwifijunyue.obj
 0001:0005c130       ?changeSN@settingWifiJunyue@@QAEXVQString@@0@Z 0045d130 f   moc_settingwifijunyue.obj
 0001:0005c1c0       ?changeTCPServer1@settingWifiJunyue@@QAEXVQString@@0H@Z 0045d1c0 f   moc_settingwifijunyue.obj
 0001:0005c250       ?changeTCPServer@settingWifiJunyue@@QAEXVQString@@0H0@Z 0045d250 f   moc_settingwifijunyue.obj
 0001:0005c2f0       ?metaObject@settingWifiJunyue@@UBEPBUQMetaObject@@XZ 0045d2f0 f   moc_settingwifijunyue.obj
 0001:0005c310       ?qt_metacall@settingWifiJunyue@@UAEHW4Call@QMetaObject@@HPAPAX@Z 0045d310 f   moc_settingwifijunyue.obj
 0001:0005c360       ?qt_metacast@settingWifiJunyue@@UAEPAXPBD@Z 0045d360 f   moc_settingwifijunyue.obj
 0001:0005c3c0       ?qt_static_metacall@settingWifiJunyue@@CAXPAVQObject@@W4Call@QMetaObject@@HPAPAX@Z 0045d3c0 f   moc_settingwifijunyue.obj
 0001:0005cf30       ?sendRule@settingWifiJunyue@@QAEXVQByteArray@@@Z 0045df30 f   moc_settingwifijunyue.obj
 0001:0005cfa0       ?sendTest@settingWifiJunyue@@QAEXXZ 0045dfa0 f   moc_settingwifijunyue.obj
 0001:0005cfc0       ?setAlert@settingWifiJunyue@@QAEXVQString@@V?$QList@N@@@Z 0045dfc0 f   moc_settingwifijunyue.obj
 0001:0005d050       ?setAlertSpanJunyue@settingWifiJunyue@@QAEXVQString@@HH@Z 0045e050 f   moc_settingwifijunyue.obj
 0001:0005d0e0       ?setDNS@settingWifiJunyue@@QAEXVQString@@0@Z 0045e0e0 f   moc_settingwifijunyue.obj
 0001:0005d170       ?setHeartSpan@settingWifiJunyue@@QAEXVQString@@H_N@Z 0045e170 f   moc_settingwifijunyue.obj
 0001:0005d200       ?setPowerMode@settingWifiJunyue@@QAEXVQString@@EEEE@Z 0045e200 f   moc_settingwifijunyue.obj
 0001:0005d290       ?tempGainAdjust@settingWifiJunyue@@QAEXVQString@@@Z 0045e290 f   moc_settingwifijunyue.obj
 0001:0005d300       ?tempZeroAdjust@settingWifiJunyue@@QAEXVQString@@@Z 0045e300 f   moc_settingwifijunyue.obj
 0001:0005d370       ?updateAP@settingWifiJunyue@@QAEXVQString@@PAVWifiApParas@@@Z 0045e370 f   moc_settingwifijunyue.obj
 0001:0005d400       ?metaObject@netParas@@UBEPBUQMetaObject@@XZ 0045e400 f   moc_structs.obj
 0001:0005d420       ?qt_metacast@netParas@@UAEPAXPBD@Z 0045e420 f   moc_structs.obj
 0001:0005d480       ?convert@?$ConverterFunctor@V?$QList@E@@VQSequentialIterableImpl@QtMetaTypePrivate@@U?$QSequentialIterableConvertFunctor@V?$QList@E@@@3@@QtPrivate@@SA_NPBUAbstractConverterFunction@2@PBXPAX@Z 0045e480 f i moc_tcpclient.obj
 0001:0005d4f0       ?getSN@tcpClient@@QAEXVQString@@G0@Z 0045e4f0 f   moc_tcpclient.obj
 0001:0005d580       ?metaObject@tcpClient@@UBEPBUQMetaObject@@XZ 0045e580 f   moc_tcpclient.obj
 0001:0005d5a0       ?qt_metacall@tcpClient@@UAEHW4Call@QMetaObject@@HPAPAX@Z 0045e5a0 f   moc_tcpclient.obj
 0001:0005d5f0       ?qt_metacast@tcpClient@@UAEPAXPBD@Z 0045e5f0 f   moc_tcpclient.obj
 0001:0005d650       ?qt_metatype_id@?$QMetaTypeId2@V?$QList@E@@@@SAHXZ 0045e650 f i moc_tcpclient.obj
 0001:0005d830       ?qt_static_metacall@tcpClient@@CAXPAVQObject@@W4Call@QMetaObject@@HPAPAX@Z 0045e830 f   moc_tcpclient.obj
 0001:0005de60       ?updateMessage@tcpClient@@QAEXVQString@@@Z 0045ee60 f   moc_tcpclient.obj
 0001:0005ded0       ?updateVirb@tcpClient@@QAEXPAV?$QList@PAVvirbValue@@@@@Z 0045eed0 f   moc_tcpclient.obj
 0001:0005df00       ?metaObject@wsClient@@UBEPBUQMetaObject@@XZ 0045ef00 f   moc_wsclient.obj
 0001:0005df20       ?qt_metacall@wsClient@@UAEHW4Call@QMetaObject@@HPAPAX@Z 0045ef20 f   moc_wsclient.obj
 0001:0005df70       ?qt_metacast@wsClient@@UAEPAXPBD@Z 0045ef70 f   moc_wsclient.obj
 0001:0005dfe0       ?qt_metatype_id@?$QMetaTypeId2@W4SocketState@QAbstractSocket@@@@SAHXZ 0045efe0 f i moc_wsclient.obj
 0001:0005e0d0       ?qt_static_metacall@wsClient@@CAXPAVQObject@@W4Call@QMetaObject@@HPAPAX@Z 0045f0d0 f   moc_wsclient.obj
 0001:0005e300       ?setAlertSpanJunyue@wsClient@@QAEXVQString@@HH@Z 0045f300 f   moc_wsclient.obj
 0001:0005e390       ?setAlerts@wsClient@@QAEXVQString@@V?$QList@N@@@Z 0045f390 f   moc_wsclient.obj
 0001:0005e420       ?setAutoSpan@wsClient@@QAEXVQString@@H@Z 0045f420 f   moc_wsclient.obj
 0001:0005e4a0       ?setChannelFS@wsClient@@QAEXVQString@@V?$QList@N@@@Z 0045f4a0 f   moc_wsclient.obj
 0001:0005e530       ?setParas@wsClient@@QAEXXZ 0045f530 f   moc_wsclient.obj
 0001:0005e544       ?setBorderColor@PanelItem@@QAEXABVQColor@@@Z 0045f544 f   quc:quc.dll
 0001:0005e54a       ??0PanelItem@@QAE@PAVQWidget@@@Z 0045f54a f   quc:quc.dll
 0001:0005e550       ?getBorderColor@PanelItem@@QBE?AVQColor@@XZ 0045f550 f   quc:quc.dll
 0001:0005e556       ?setTitleText@PanelItem@@QAEXABVQString@@@Z 0045f556 f   quc:quc.dll
 0001:0005e55c       ??0IPAddress@@QAE@PAVQWidget@@@Z 0045f55c f   quc:quc.dll
 0001:0005e562       ?getIP@IPAddress@@QBE?AVQString@@XZ 0045f562 f   quc:quc.dll
 0001:0005e568       ?setIP@IPAddress@@QAEXABVQString@@@Z 0045f568 f   quc:quc.dll
 0001:0005e56e       ??0customPlot@@QAE@PAVQWidget@@@Z 0045f56e f   yecplot:yecplot.dll
 0001:0005e574       ?addLine@customPlot@@QAEXVQString@@@Z 0045f574 f   yecplot:yecplot.dll
 0001:0005e57a       ?clearAllLines@customPlot@@QAEXXZ 0045f57a f   yecplot:yecplot.dll
 0001:0005e580       ?setData@customPlot@@QAEXV?$QVector@N@@0H@Z 0045f580 f   yecplot:yecplot.dll
 0001:0005e586       ?setChartName@customPlot@@QAEXVQString@@@Z 0045f586 f   yecplot:yecplot.dll
 0001:0005e58c       ?getLineCount@customPlot@@QAEHXZ 0045f58c f   yecplot:yecplot.dll
 0001:0005e592       ?setMouseType@customPlot@@QAEXW4mouseType@1@@Z 0045f592 f   yecplot:yecplot.dll
 0001:0005e598       ?showTracer@customPlot@@QAEX_N@Z 0045f598 f   yecplot:yecplot.dll
 0001:0005e59e       ?setXLabel@customPlot@@QAEXVQString@@@Z 0045f59e f   yecplot:yecplot.dll
 0001:0005e5a4       ?setYLabel@customPlot@@QAEXVQString@@@Z 0045f5a4 f   yecplot:yecplot.dll
 0001:0005e5aa       ?setXLogMode@customPlot@@QAEX_N@Z 0045f5aa f   yecplot:yecplot.dll
 0001:0005e5b0       ?setYLogMode@customPlot@@QAEX_N@Z 0045f5b0 f   yecplot:yecplot.dll
 0001:0005e5b6       ?plotContextMenuEvent@customPlot@@QAEXVQPoint@@@Z 0045f5b6 f   yecplot:yecplot.dll
 0001:0005e5bc       ?setLineVisible@customPlot@@QAEXH_N@Z 0045f5bc f   yecplot:yecplot.dll
 0001:0005e5c2       ?isShowTracer@customPlot@@QAE_NXZ 0045f5c2 f   yecplot:yecplot.dll
 0001:0005e5c8       ?mousePressSignal@customPlot@@AAEXPAVQMouseEvent@@@Z 0045f5c8 f   yecplot:yecplot.dll
 0001:0005e5ce       ?mouseReleaseSignal@customPlot@@AAEXPAVQMouseEvent@@@Z 0045f5ce f   yecplot:yecplot.dll
 0001:0005e5d4       ?onMouseMoveZoom@customPlot@@AAEXPAVQMouseEvent@@@Z 0045f5d4 f   yecplot:yecplot.dll
 0001:0005e5da       ?stoppedZoom@customPlot@@AAEXXZ 0045f5da f   yecplot:yecplot.dll
 0001:0005e5e0       ?mouseWheel@customPlot@@AAEXXZ 0045f5e0 f   yecplot:yecplot.dll
 0001:0005e5e6       ?pressDrag@customPlot@@AAEXPAVQMouseEvent@@@Z 0045f5e6 f   yecplot:yecplot.dll
 0001:0005e5ec       ?onMouseMoveDrag@customPlot@@AAEXPAVQMouseEvent@@@Z 0045f5ec f   yecplot:yecplot.dll
 0001:0005e5f2       ?stoppedDrag@customPlot@@AAEXPAVQMouseEvent@@@Z 0045f5f2 f   yecplot:yecplot.dll
 0001:0005e5f8       ?onMouseMovePoint@customPlot@@AAEXPAVQMouseEvent@@@Z 0045f5f8 f   yecplot:yecplot.dll
 0001:0005e5fe       ?onMouseMoveBand@customPlot@@AAEXPAVQMouseEvent@@@Z 0045f5fe f   yecplot:yecplot.dll
 0001:0005e604       ?onMouseMoveBand2@customPlot@@AAEXPAVQMouseEvent@@@Z 0045f604 f   yecplot:yecplot.dll
 0001:0005e60a       ?stoppedBand@customPlot@@AAEXXZ 0045f60a f   yecplot:yecplot.dll
 0001:0005e610       ?setMinMaxType@customPlot@@AAEXH@Z 0045f610 f   yecplot:yecplot.dll
 0001:0005e616       ?hideShow@customPlot@@AAEXXZ 0045f616 f   yecplot:yecplot.dll
 0001:0005e61c       ?legendDoubleClick@customPlot@@AAEXPAVQCPLegend@@PAVQCPAbstractLegendItem@@@Z 0045f61c f   yecplot:yecplot.dll
 0001:0005e622       ?titleDoubleClick@customPlot@@AAEXPAVQMouseEvent@@@Z 0045f622 f   yecplot:yecplot.dll
 0001:0005e628       ?graphPause@customPlot@@AAEXXZ 0045f628 f   yecplot:yecplot.dll
 0001:0005e62e       ?copyGraphData@customPlot@@AAEXXZ 0045f62e f   yecplot:yecplot.dll
 0001:0005e634       ?xLogModeChange@customPlot@@AAEXXZ 0045f634 f   yecplot:yecplot.dll
 0001:0005e63a       ?yLogModeChange@customPlot@@AAEXXZ 0045f63a f   yecplot:yecplot.dll
 0001:0005e640       ?graphToExel@customPlot@@AAEXXZ 0045f640 f   yecplot:yecplot.dll
 0001:0005e646       ?graphToPNG@customPlot@@AAEXXZ 0045f646 f   yecplot:yecplot.dll
 0001:0005e64c       ?zoomGroupTriggered@customPlot@@AAEXH@Z 0045f64c f   yecplot:yecplot.dll
 0001:0005e652       ?minMaxGroupTriggered@customPlot@@AAEXH@Z 0045f652 f   yecplot:yecplot.dll
 0001:0005e658       ?contextActTriggered@customPlot@@AAEXPAVQAction@@@Z 0045f658 f   yecplot:yecplot.dll
 0001:0005e65e       ?actionEvent@QWidget@@MAEXPAVQActionEvent@@@Z 0045f65e f   Qt5Widgets:Qt5Widgets.dll
 0001:0005e664       ?addItem@QBoxLayout@@UAEXPAVQLayoutItem@@@Z 0045f664 f   Qt5Widgets:Qt5Widgets.dll
 0001:0005e66a       ?changeEvent@QAbstractSpinBox@@MAEXPAVQEvent@@@Z 0045f66a f   Qt5Widgets:Qt5Widgets.dll
 0001:0005e670       ?changeEvent@QLabel@@MAEXPAVQEvent@@@Z 0045f670 f   Qt5Widgets:Qt5Widgets.dll
 0001:0005e676       ?changeEvent@QWidget@@MAEXPAVQEvent@@@Z 0045f676 f   Qt5Widgets:Qt5Widgets.dll
 0001:0005e67c       ?childEvent@QLayout@@MAEXPAVQChildEvent@@@Z 0045f67c f   Qt5Widgets:Qt5Widgets.dll
 0001:0005e682       ?clear@QAbstractSpinBox@@UAEXXZ 0045f682 f   Qt5Widgets:Qt5Widgets.dll
 0001:0005e688       ?closeEvent@QAbstractSpinBox@@MAEXPAVQCloseEvent@@@Z 0045f688 f   Qt5Widgets:Qt5Widgets.dll
 0001:0005e68e       ?closeEvent@QWidget@@MAEXPAVQCloseEvent@@@Z 0045f68e f   Qt5Widgets:Qt5Widgets.dll
 0001:0005e694       ?contextMenuEvent@QAbstractSpinBox@@MAEXPAVQContextMenuEvent@@@Z 0045f694 f   Qt5Widgets:Qt5Widgets.dll
 0001:0005e69a       ?contextMenuEvent@QLabel@@MAEXPAVQContextMenuEvent@@@Z 0045f69a f   Qt5Widgets:Qt5Widgets.dll
 0001:0005e6a0       ?contextMenuEvent@QWidget@@MAEXPAVQContextMenuEvent@@@Z 0045f6a0 f   Qt5Widgets:Qt5Widgets.dll
 0001:0005e6a6       ?controlTypes@QLayout@@UBE?AV?$QFlags@W4ControlType@QSizePolicy@@@@XZ 0045f6a6 f   Qt5Widgets:Qt5Widgets.dll
 0001:0005e6ac       ?count@QBoxLayout@@UBEHXZ  0045f6ac f   Qt5Widgets:Qt5Widgets.dll
 0001:0005e6b2       ?devType@QWidget@@UBEHXZ   0045f6b2 f   Qt5Widgets:Qt5Widgets.dll
 0001:0005e6b8       ?dragEnterEvent@QWidget@@MAEXPAVQDragEnterEvent@@@Z 0045f6b8 f   Qt5Widgets:Qt5Widgets.dll
 0001:0005e6be       ?dragLeaveEvent@QWidget@@MAEXPAVQDragLeaveEvent@@@Z 0045f6be f   Qt5Widgets:Qt5Widgets.dll
 0001:0005e6c4       ?dragMoveEvent@QWidget@@MAEXPAVQDragMoveEvent@@@Z 0045f6c4 f   Qt5Widgets:Qt5Widgets.dll
 0001:0005e6ca       ?dropEvent@QWidget@@MAEXPAVQDropEvent@@@Z 0045f6ca f   Qt5Widgets:Qt5Widgets.dll
 0001:0005e6d0       ?enterEvent@QWidget@@MAEXPAVQEvent@@@Z 0045f6d0 f   Qt5Widgets:Qt5Widgets.dll
 0001:0005e6d6       ?event@QAbstractSpinBox@@UAE_NPAVQEvent@@@Z 0045f6d6 f   Qt5Widgets:Qt5Widgets.dll
 0001:0005e6dc       ?event@QLabel@@MAE_NPAVQEvent@@@Z 0045f6dc f   Qt5Widgets:Qt5Widgets.dll
 0001:0005e6e2       ?event@QWidget@@MAE_NPAVQEvent@@@Z 0045f6e2 f   Qt5Widgets:Qt5Widgets.dll
 0001:0005e6e8       ?expandingDirections@QBoxLayout@@UBE?AV?$QFlags@W4Orientation@Qt@@@@XZ 0045f6e8 f   Qt5Widgets:Qt5Widgets.dll
 0001:0005e6ee       ?fixup@QDoubleSpinBox@@UBEXAAVQString@@@Z 0045f6ee f   Qt5Widgets:Qt5Widgets.dll
 0001:0005e6f4       ?focusInEvent@QAbstractSpinBox@@MAEXPAVQFocusEvent@@@Z 0045f6f4 f   Qt5Widgets:Qt5Widgets.dll
 0001:0005e6fa       ?focusInEvent@QLabel@@MAEXPAVQFocusEvent@@@Z 0045f6fa f   Qt5Widgets:Qt5Widgets.dll
 0001:0005e700       ?focusInEvent@QWidget@@MAEXPAVQFocusEvent@@@Z 0045f700 f   Qt5Widgets:Qt5Widgets.dll
 0001:0005e706       ?focusNextPrevChild@QLabel@@MAE_N_N@Z 0045f706 f   Qt5Widgets:Qt5Widgets.dll
 0001:0005e70c       ?focusNextPrevChild@QWidget@@MAE_N_N@Z 0045f70c f   Qt5Widgets:Qt5Widgets.dll
 0001:0005e712       ?focusOutEvent@QAbstractSpinBox@@MAEXPAVQFocusEvent@@@Z 0045f712 f   Qt5Widgets:Qt5Widgets.dll
 0001:0005e718       ?focusOutEvent@QLabel@@MAEXPAVQFocusEvent@@@Z 0045f718 f   Qt5Widgets:Qt5Widgets.dll
 0001:0005e71e       ?focusOutEvent@QWidget@@MAEXPAVQFocusEvent@@@Z 0045f71e f   Qt5Widgets:Qt5Widgets.dll
 0001:0005e724       ?geometry@QLayout@@UBE?AVQRect@@XZ 0045f724 f   Qt5Widgets:Qt5Widgets.dll
 0001:0005e72a       ?hasHeightForWidth@QBoxLayout@@UBE_NXZ 0045f72a f   Qt5Widgets:Qt5Widgets.dll
 0001:0005e730       ?hasHeightForWidth@QWidget@@UBE_NXZ 0045f730 f   Qt5Widgets:Qt5Widgets.dll
 0001:0005e736       ?heightForWidth@QBoxLayout@@UBEHH@Z 0045f736 f   Qt5Widgets:Qt5Widgets.dll
 0001:0005e73c       ?heightForWidth@QLabel@@UBEHH@Z 0045f73c f   Qt5Widgets:Qt5Widgets.dll
 0001:0005e742       ?heightForWidth@QWidget@@UBEHH@Z 0045f742 f   Qt5Widgets:Qt5Widgets.dll
 0001:0005e748       ?hideEvent@QAbstractSpinBox@@MAEXPAVQHideEvent@@@Z 0045f748 f   Qt5Widgets:Qt5Widgets.dll
 0001:0005e74e       ?hideEvent@QWidget@@MAEXPAVQHideEvent@@@Z 0045f74e f   Qt5Widgets:Qt5Widgets.dll
 0001:0005e754       ?indexOf@QLayout@@UBEHPAVQWidget@@@Z 0045f754 f   Qt5Widgets:Qt5Widgets.dll
 0001:0005e75a       ?initPainter@QWidget@@MBEXPAVQPainter@@@Z 0045f75a f   Qt5Widgets:Qt5Widgets.dll
 0001:0005e760       ?inputMethodEvent@QWidget@@MAEXPAVQInputMethodEvent@@@Z 0045f760 f   Qt5Widgets:Qt5Widgets.dll
 0001:0005e766       ?inputMethodQuery@QAbstractSpinBox@@UBE?AVQVariant@@W4InputMethodQuery@Qt@@@Z 0045f766 f   Qt5Widgets:Qt5Widgets.dll
 0001:0005e76c       ?inputMethodQuery@QWidget@@UBE?AVQVariant@@W4InputMethodQuery@Qt@@@Z 0045f76c f   Qt5Widgets:Qt5Widgets.dll
 0001:0005e772       ?invalidate@QBoxLayout@@UAEXXZ 0045f772 f   Qt5Widgets:Qt5Widgets.dll
 0001:0005e778       ?isEmpty@QLayout@@UBE_NXZ  0045f778 f   Qt5Widgets:Qt5Widgets.dll
 0001:0005e77e       ?itemAt@QBoxLayout@@UBEPAVQLayoutItem@@H@Z 0045f77e f   Qt5Widgets:Qt5Widgets.dll
 0001:0005e784       ?keyPressEvent@QAbstractSpinBox@@MAEXPAVQKeyEvent@@@Z 0045f784 f   Qt5Widgets:Qt5Widgets.dll
 0001:0005e78a       ?keyPressEvent@QLabel@@MAEXPAVQKeyEvent@@@Z 0045f78a f   Qt5Widgets:Qt5Widgets.dll
 0001:0005e790       ?keyPressEvent@QWidget@@MAEXPAVQKeyEvent@@@Z 0045f790 f   Qt5Widgets:Qt5Widgets.dll
 0001:0005e796       ?keyReleaseEvent@QAbstractSpinBox@@MAEXPAVQKeyEvent@@@Z 0045f796 f   Qt5Widgets:Qt5Widgets.dll
 0001:0005e79c       ?keyReleaseEvent@QWidget@@MAEXPAVQKeyEvent@@@Z 0045f79c f   Qt5Widgets:Qt5Widgets.dll
 0001:0005e7a2       ?layout@QLayout@@UAEPAV1@XZ 0045f7a2 f   Qt5Widgets:Qt5Widgets.dll
 0001:0005e7a8       ?leaveEvent@QWidget@@MAEXPAVQEvent@@@Z 0045f7a8 f   Qt5Widgets:Qt5Widgets.dll
 0001:0005e7ae       ?maximumSize@QBoxLayout@@UBE?AVQSize@@XZ 0045f7ae f   Qt5Widgets:Qt5Widgets.dll
 0001:0005e7b4       ?metaObject@QDoubleSpinBox@@UBEPBUQMetaObject@@XZ 0045f7b4 f   Qt5Widgets:Qt5Widgets.dll
 0001:0005e7ba       ?metaObject@QHBoxLayout@@UBEPBUQMetaObject@@XZ 0045f7ba f   Qt5Widgets:Qt5Widgets.dll
 0001:0005e7c0       ?metaObject@QLabel@@UBEPBUQMetaObject@@XZ 0045f7c0 f   Qt5Widgets:Qt5Widgets.dll
 0001:0005e7c6       ?metric@QWidget@@MBEHW4PaintDeviceMetric@QPaintDevice@@@Z 0045f7c6 f   Qt5Widgets:Qt5Widgets.dll
 0001:0005e7cc       ?minimumHeightForWidth@QBoxLayout@@UBEHH@Z 0045f7cc f   Qt5Widgets:Qt5Widgets.dll
 0001:0005e7d2       ?minimumSize@QBoxLayout@@UBE?AVQSize@@XZ 0045f7d2 f   Qt5Widgets:Qt5Widgets.dll
 0001:0005e7d8       ?minimumSizeHint@QAbstractSpinBox@@UBE?AVQSize@@XZ 0045f7d8 f   Qt5Widgets:Qt5Widgets.dll
 0001:0005e7de       ?minimumSizeHint@QLabel@@UBE?AVQSize@@XZ 0045f7de f   Qt5Widgets:Qt5Widgets.dll
 0001:0005e7e4       ?minimumSizeHint@QWidget@@UBE?AVQSize@@XZ 0045f7e4 f   Qt5Widgets:Qt5Widgets.dll
 0001:0005e7ea       ?mouseDoubleClickEvent@QWidget@@MAEXPAVQMouseEvent@@@Z 0045f7ea f   Qt5Widgets:Qt5Widgets.dll
 0001:0005e7f0       ?mouseMoveEvent@QAbstractSpinBox@@MAEXPAVQMouseEvent@@@Z 0045f7f0 f   Qt5Widgets:Qt5Widgets.dll
 0001:0005e7f6       ?mouseMoveEvent@QLabel@@MAEXPAVQMouseEvent@@@Z 0045f7f6 f   Qt5Widgets:Qt5Widgets.dll
 0001:0005e7fc       ?mouseMoveEvent@QWidget@@MAEXPAVQMouseEvent@@@Z 0045f7fc f   Qt5Widgets:Qt5Widgets.dll
 0001:0005e802       ?mousePressEvent@QAbstractSpinBox@@MAEXPAVQMouseEvent@@@Z 0045f802 f   Qt5Widgets:Qt5Widgets.dll
 0001:0005e808       ?mousePressEvent@QLabel@@MAEXPAVQMouseEvent@@@Z 0045f808 f   Qt5Widgets:Qt5Widgets.dll
 0001:0005e80e       ?mousePressEvent@QWidget@@MAEXPAVQMouseEvent@@@Z 0045f80e f   Qt5Widgets:Qt5Widgets.dll
 0001:0005e814       ?mouseReleaseEvent@QAbstractSpinBox@@MAEXPAVQMouseEvent@@@Z 0045f814 f   Qt5Widgets:Qt5Widgets.dll
 0001:0005e81a       ?mouseReleaseEvent@QLabel@@MAEXPAVQMouseEvent@@@Z 0045f81a f   Qt5Widgets:Qt5Widgets.dll
 0001:0005e820       ?mouseReleaseEvent@QWidget@@MAEXPAVQMouseEvent@@@Z 0045f820 f   Qt5Widgets:Qt5Widgets.dll
 0001:0005e826       ?moveEvent@QWidget@@MAEXPAVQMoveEvent@@@Z 0045f826 f   Qt5Widgets:Qt5Widgets.dll
 0001:0005e82c       ?nativeEvent@QWidget@@MAE_NABVQByteArray@@PAXPAJ@Z 0045f82c f   Qt5Widgets:Qt5Widgets.dll
 0001:0005e832       ?paintEngine@QWidget@@UBEPAVQPaintEngine@@XZ 0045f832 f   Qt5Widgets:Qt5Widgets.dll
 0001:0005e838       ?paintEvent@QAbstractSpinBox@@MAEXPAVQPaintEvent@@@Z 0045f838 f   Qt5Widgets:Qt5Widgets.dll
 0001:0005e83e       ?paintEvent@QLabel@@MAEXPAVQPaintEvent@@@Z 0045f83e f   Qt5Widgets:Qt5Widgets.dll
 0001:0005e844       ?paintEvent@QWidget@@MAEXPAVQPaintEvent@@@Z 0045f844 f   Qt5Widgets:Qt5Widgets.dll
 0001:0005e84a       ?qt_metacall@QDoubleSpinBox@@UAEHW4Call@QMetaObject@@HPAPAX@Z 0045f84a f   Qt5Widgets:Qt5Widgets.dll
 0001:0005e850       ?qt_metacall@QHBoxLayout@@UAEHW4Call@QMetaObject@@HPAPAX@Z 0045f850 f   Qt5Widgets:Qt5Widgets.dll
 0001:0005e856       ?qt_metacall@QLabel@@UAEHW4Call@QMetaObject@@HPAPAX@Z 0045f856 f   Qt5Widgets:Qt5Widgets.dll
 0001:0005e85c       ?qt_metacast@QDoubleSpinBox@@UAEPAXPBD@Z 0045f85c f   Qt5Widgets:Qt5Widgets.dll
 0001:0005e862       ?qt_metacast@QHBoxLayout@@UAEPAXPBD@Z 0045f862 f   Qt5Widgets:Qt5Widgets.dll
 0001:0005e868       ?qt_metacast@QLabel@@UAEPAXPBD@Z 0045f868 f   Qt5Widgets:Qt5Widgets.dll
 0001:0005e86e       ?redirected@QWidget@@MBEPAVQPaintDevice@@PAVQPoint@@@Z 0045f86e f   Qt5Widgets:Qt5Widgets.dll
 0001:0005e874       ?resizeEvent@QAbstractSpinBox@@MAEXPAVQResizeEvent@@@Z 0045f874 f   Qt5Widgets:Qt5Widgets.dll
 0001:0005e87a       ?resizeEvent@QWidget@@MAEXPAVQResizeEvent@@@Z 0045f87a f   Qt5Widgets:Qt5Widgets.dll
 0001:0005e880       ?setGeometry@QBoxLayout@@UAEXABVQRect@@@Z 0045f880 f   Qt5Widgets:Qt5Widgets.dll
 0001:0005e886       ?setVisible@QWidget@@UAEX_N@Z 0045f886 f   Qt5Widgets:Qt5Widgets.dll
 0001:0005e88c       ?sharedPainter@QWidget@@MBEPAVQPainter@@XZ 0045f88c f   Qt5Widgets:Qt5Widgets.dll
 0001:0005e892       ?showEvent@QAbstractSpinBox@@MAEXPAVQShowEvent@@@Z 0045f892 f   Qt5Widgets:Qt5Widgets.dll
 0001:0005e898       ?showEvent@QWidget@@MAEXPAVQShowEvent@@@Z 0045f898 f   Qt5Widgets:Qt5Widgets.dll
 0001:0005e89e       ?sizeHint@QAbstractSpinBox@@UBE?AVQSize@@XZ 0045f89e f   Qt5Widgets:Qt5Widgets.dll
 0001:0005e8a4       ?sizeHint@QBoxLayout@@UBE?AVQSize@@XZ 0045f8a4 f   Qt5Widgets:Qt5Widgets.dll
 0001:0005e8aa       ?sizeHint@QLabel@@UBE?AVQSize@@XZ 0045f8aa f   Qt5Widgets:Qt5Widgets.dll
 0001:0005e8b0       ?sizeHint@QWidget@@UBE?AVQSize@@XZ 0045f8b0 f   Qt5Widgets:Qt5Widgets.dll
 0001:0005e8b6       ?spacerItem@QLayoutItem@@UAEPAVQSpacerItem@@XZ 0045f8b6 f   Qt5Widgets:Qt5Widgets.dll
 0001:0005e8bc       ?stepBy@QAbstractSpinBox@@UAEXH@Z 0045f8bc f   Qt5Widgets:Qt5Widgets.dll
 0001:0005e8c2       ?stepEnabled@QAbstractSpinBox@@MBE?AV?$QFlags@W4StepEnabledFlag@QAbstractSpinBox@@@@XZ 0045f8c2 f   Qt5Widgets:Qt5Widgets.dll
 0001:0005e8c8       ?tabletEvent@QWidget@@MAEXPAVQTabletEvent@@@Z 0045f8c8 f   Qt5Widgets:Qt5Widgets.dll
 0001:0005e8ce       ?takeAt@QBoxLayout@@UAEPAVQLayoutItem@@H@Z 0045f8ce f   Qt5Widgets:Qt5Widgets.dll
 0001:0005e8d4       ?textFromValue@QDoubleSpinBox@@UBE?AVQString@@N@Z 0045f8d4 f   Qt5Widgets:Qt5Widgets.dll
 0001:0005e8da       ?timerEvent@QAbstractSpinBox@@MAEXPAVQTimerEvent@@@Z 0045f8da f   Qt5Widgets:Qt5Widgets.dll
 0001:0005e8e0       ?validate@QDoubleSpinBox@@UBE?AW4State@QValidator@@AAVQString@@AAH@Z 0045f8e0 f   Qt5Widgets:Qt5Widgets.dll
 0001:0005e8e6       ?valueFromText@QDoubleSpinBox@@UBENABVQString@@@Z 0045f8e6 f   Qt5Widgets:Qt5Widgets.dll
 0001:0005e8ec       ?wheelEvent@QAbstractSpinBox@@MAEXPAVQWheelEvent@@@Z 0045f8ec f   Qt5Widgets:Qt5Widgets.dll
 0001:0005e8f2       ?wheelEvent@QWidget@@MAEXPAVQWheelEvent@@@Z 0045f8f2 f   Qt5Widgets:Qt5Widgets.dll
 0001:0005e8f8       ?widget@QLayoutItem@@UAEPAVQWidget@@XZ 0045f8f8 f   Qt5Widgets:Qt5Widgets.dll
 0001:0005e8fe       ?accept@QDialog@@UAEXXZ    0045f8fe f   Qt5Widgets:Qt5Widgets.dll
 0001:0005e904       ?addItem@QGridLayout@@MAEXPAVQLayoutItem@@@Z 0045f904 f   Qt5Widgets:Qt5Widgets.dll
 0001:0005e90a       ?changeEvent@QAbstractButton@@MAEXPAVQEvent@@@Z 0045f90a f   Qt5Widgets:Qt5Widgets.dll
 0001:0005e910       ?changeEvent@QLineEdit@@MAEXPAVQEvent@@@Z 0045f910 f   Qt5Widgets:Qt5Widgets.dll
 0001:0005e916       ?checkStateSet@QAbstractButton@@MAEXXZ 0045f916 f   Qt5Widgets:Qt5Widgets.dll
 0001:0005e91c       ?closeEvent@QDialog@@MAEXPAVQCloseEvent@@@Z 0045f91c f   Qt5Widgets:Qt5Widgets.dll
 0001:0005e922       ?contextMenuEvent@QDialog@@MAEXPAVQContextMenuEvent@@@Z 0045f922 f   Qt5Widgets:Qt5Widgets.dll
 0001:0005e928       ?contextMenuEvent@QLineEdit@@MAEXPAVQContextMenuEvent@@@Z 0045f928 f   Qt5Widgets:Qt5Widgets.dll
 0001:0005e92e       ?controlTypes@QLayoutItem@@UBE?AV?$QFlags@W4ControlType@QSizePolicy@@@@XZ 0045f92e f   Qt5Widgets:Qt5Widgets.dll
 0001:0005e934       ?count@QGridLayout@@UBEHXZ 0045f934 f   Qt5Widgets:Qt5Widgets.dll
 0001:0005e93a       ?done@QDialog@@UAEXH@Z     0045f93a f   Qt5Widgets:Qt5Widgets.dll
 0001:0005e940       ?dragEnterEvent@QLineEdit@@MAEXPAVQDragEnterEvent@@@Z 0045f940 f   Qt5Widgets:Qt5Widgets.dll
 0001:0005e946       ?dragLeaveEvent@QLineEdit@@MAEXPAVQDragLeaveEvent@@@Z 0045f946 f   Qt5Widgets:Qt5Widgets.dll
 0001:0005e94c       ?dragMoveEvent@QLineEdit@@MAEXPAVQDragMoveEvent@@@Z 0045f94c f   Qt5Widgets:Qt5Widgets.dll
 0001:0005e952       ?dropEvent@QLineEdit@@MAEXPAVQDropEvent@@@Z 0045f952 f   Qt5Widgets:Qt5Widgets.dll
 0001:0005e958       ?event@QLineEdit@@UAE_NPAVQEvent@@@Z 0045f958 f   Qt5Widgets:Qt5Widgets.dll
 0001:0005e95e       ?event@QPushButton@@MAE_NPAVQEvent@@@Z 0045f95e f   Qt5Widgets:Qt5Widgets.dll
 0001:0005e964       ?eventFilter@QDialog@@MAE_NPAVQObject@@PAVQEvent@@@Z 0045f964 f   Qt5Widgets:Qt5Widgets.dll
 0001:0005e96a       ?exec@QDialog@@UAEHXZ      0045f96a f   Qt5Widgets:Qt5Widgets.dll
 0001:0005e970       ?expandingDirections@QGridLayout@@UBE?AV?$QFlags@W4Orientation@Qt@@@@XZ 0045f970 f   Qt5Widgets:Qt5Widgets.dll
 0001:0005e976       ?expandingDirections@QSpacerItem@@UBE?AV?$QFlags@W4Orientation@Qt@@@@XZ 0045f976 f   Qt5Widgets:Qt5Widgets.dll
 0001:0005e97c       ?focusInEvent@QLineEdit@@MAEXPAVQFocusEvent@@@Z 0045f97c f   Qt5Widgets:Qt5Widgets.dll
 0001:0005e982       ?focusInEvent@QPushButton@@MAEXPAVQFocusEvent@@@Z 0045f982 f   Qt5Widgets:Qt5Widgets.dll
 0001:0005e988       ?focusOutEvent@QLineEdit@@MAEXPAVQFocusEvent@@@Z 0045f988 f   Qt5Widgets:Qt5Widgets.dll
 0001:0005e98e       ?focusOutEvent@QPushButton@@MAEXPAVQFocusEvent@@@Z 0045f98e f   Qt5Widgets:Qt5Widgets.dll
 0001:0005e994       ?geometry@QSpacerItem@@UBE?AVQRect@@XZ 0045f994 f   Qt5Widgets:Qt5Widgets.dll
 0001:0005e99a       ?hasHeightForWidth@QGridLayout@@UBE_NXZ 0045f99a f   Qt5Widgets:Qt5Widgets.dll
 0001:0005e9a0       ?hasHeightForWidth@QLayoutItem@@UBE_NXZ 0045f9a0 f   Qt5Widgets:Qt5Widgets.dll
 0001:0005e9a6       ?heightForWidth@QGridLayout@@UBEHH@Z 0045f9a6 f   Qt5Widgets:Qt5Widgets.dll
 0001:0005e9ac       ?heightForWidth@QLayoutItem@@UBEHH@Z 0045f9ac f   Qt5Widgets:Qt5Widgets.dll
 0001:0005e9b2       ?hitButton@QAbstractButton@@MBE_NABVQPoint@@@Z 0045f9b2 f   Qt5Widgets:Qt5Widgets.dll
 0001:0005e9b8       ?inputMethodEvent@QLineEdit@@MAEXPAVQInputMethodEvent@@@Z 0045f9b8 f   Qt5Widgets:Qt5Widgets.dll
 0001:0005e9be       ?inputMethodQuery@QLineEdit@@UBE?AVQVariant@@W4InputMethodQuery@Qt@@@Z 0045f9be f   Qt5Widgets:Qt5Widgets.dll
 0001:0005e9c4       ?invalidate@QGridLayout@@UAEXXZ 0045f9c4 f   Qt5Widgets:Qt5Widgets.dll
 0001:0005e9ca       ?invalidate@QLayoutItem@@UAEXXZ 0045f9ca f   Qt5Widgets:Qt5Widgets.dll
 0001:0005e9d0       ?isEmpty@QSpacerItem@@UBE_NXZ 0045f9d0 f   Qt5Widgets:Qt5Widgets.dll
 0001:0005e9d6       ?itemAt@QGridLayout@@UBEPAVQLayoutItem@@H@Z 0045f9d6 f   Qt5Widgets:Qt5Widgets.dll
 0001:0005e9dc       ?keyPressEvent@QDialog@@MAEXPAVQKeyEvent@@@Z 0045f9dc f   Qt5Widgets:Qt5Widgets.dll
 0001:0005e9e2       ?keyPressEvent@QLineEdit@@MAEXPAVQKeyEvent@@@Z 0045f9e2 f   Qt5Widgets:Qt5Widgets.dll
 0001:0005e9e8       ?keyPressEvent@QPushButton@@MAEXPAVQKeyEvent@@@Z 0045f9e8 f   Qt5Widgets:Qt5Widgets.dll
 0001:0005e9ee       ?keyReleaseEvent@QAbstractButton@@MAEXPAVQKeyEvent@@@Z 0045f9ee f   Qt5Widgets:Qt5Widgets.dll
 0001:0005e9f4       ?layout@QLayoutItem@@UAEPAVQLayout@@XZ 0045f9f4 f   Qt5Widgets:Qt5Widgets.dll
 0001:0005e9fa       ?maximumSize@QGridLayout@@UBE?AVQSize@@XZ 0045f9fa f   Qt5Widgets:Qt5Widgets.dll
 0001:0005ea00       ?maximumSize@QSpacerItem@@UBE?AVQSize@@XZ 0045fa00 f   Qt5Widgets:Qt5Widgets.dll
 0001:0005ea06       ?metaObject@QGridLayout@@UBEPBUQMetaObject@@XZ 0045fa06 f   Qt5Widgets:Qt5Widgets.dll
 0001:0005ea0c       ?metaObject@QLineEdit@@UBEPBUQMetaObject@@XZ 0045fa0c f   Qt5Widgets:Qt5Widgets.dll
 0001:0005ea12       ?metaObject@QPushButton@@UBEPBUQMetaObject@@XZ 0045fa12 f   Qt5Widgets:Qt5Widgets.dll
 0001:0005ea18       ?metaObject@QVBoxLayout@@UBEPBUQMetaObject@@XZ 0045fa18 f   Qt5Widgets:Qt5Widgets.dll
 0001:0005ea1e       ?metaObject@QWidget@@UBEPBUQMetaObject@@XZ 0045fa1e f   Qt5Widgets:Qt5Widgets.dll
 0001:0005ea24       ?minimumHeightForWidth@QGridLayout@@UBEHH@Z 0045fa24 f   Qt5Widgets:Qt5Widgets.dll
 0001:0005ea2a       ?minimumHeightForWidth@QLayoutItem@@UBEHH@Z 0045fa2a f   Qt5Widgets:Qt5Widgets.dll
 0001:0005ea30       ?minimumSize@QGridLayout@@UBE?AVQSize@@XZ 0045fa30 f   Qt5Widgets:Qt5Widgets.dll
 0001:0005ea36       ?minimumSize@QSpacerItem@@UBE?AVQSize@@XZ 0045fa36 f   Qt5Widgets:Qt5Widgets.dll
 0001:0005ea3c       ?minimumSizeHint@QDialog@@UBE?AVQSize@@XZ 0045fa3c f   Qt5Widgets:Qt5Widgets.dll
 0001:0005ea42       ?minimumSizeHint@QLineEdit@@UBE?AVQSize@@XZ 0045fa42 f   Qt5Widgets:Qt5Widgets.dll
 0001:0005ea48       ?minimumSizeHint@QPushButton@@UBE?AVQSize@@XZ 0045fa48 f   Qt5Widgets:Qt5Widgets.dll
 0001:0005ea4e       ?mouseDoubleClickEvent@QLineEdit@@MAEXPAVQMouseEvent@@@Z 0045fa4e f   Qt5Widgets:Qt5Widgets.dll
 0001:0005ea54       ?mouseMoveEvent@QAbstractButton@@MAEXPAVQMouseEvent@@@Z 0045fa54 f   Qt5Widgets:Qt5Widgets.dll
 0001:0005ea5a       ?mouseMoveEvent@QLineEdit@@MAEXPAVQMouseEvent@@@Z 0045fa5a f   Qt5Widgets:Qt5Widgets.dll
 0001:0005ea60       ?mousePressEvent@QAbstractButton@@MAEXPAVQMouseEvent@@@Z 0045fa60 f   Qt5Widgets:Qt5Widgets.dll
 0001:0005ea66       ?mousePressEvent@QLineEdit@@MAEXPAVQMouseEvent@@@Z 0045fa66 f   Qt5Widgets:Qt5Widgets.dll
 0001:0005ea6c       ?mouseReleaseEvent@QAbstractButton@@MAEXPAVQMouseEvent@@@Z 0045fa6c f   Qt5Widgets:Qt5Widgets.dll
 0001:0005ea72       ?mouseReleaseEvent@QLineEdit@@MAEXPAVQMouseEvent@@@Z 0045fa72 f   Qt5Widgets:Qt5Widgets.dll
 0001:0005ea78       ?nextCheckState@QAbstractButton@@MAEXXZ 0045fa78 f   Qt5Widgets:Qt5Widgets.dll
 0001:0005ea7e       ?open@QDialog@@UAEXXZ      0045fa7e f   Qt5Widgets:Qt5Widgets.dll
 0001:0005ea84       ?paintEvent@QLineEdit@@MAEXPAVQPaintEvent@@@Z 0045fa84 f   Qt5Widgets:Qt5Widgets.dll
 0001:0005ea8a       ?paintEvent@QPushButton@@MAEXPAVQPaintEvent@@@Z 0045fa8a f   Qt5Widgets:Qt5Widgets.dll
 0001:0005ea90       ?qt_metacall@QGridLayout@@UAEHW4Call@QMetaObject@@HPAPAX@Z 0045fa90 f   Qt5Widgets:Qt5Widgets.dll
 0001:0005ea96       ?qt_metacall@QLineEdit@@UAEHW4Call@QMetaObject@@HPAPAX@Z 0045fa96 f   Qt5Widgets:Qt5Widgets.dll
 0001:0005ea9c       ?qt_metacall@QPushButton@@UAEHW4Call@QMetaObject@@HPAPAX@Z 0045fa9c f   Qt5Widgets:Qt5Widgets.dll
 0001:0005eaa2       ?qt_metacall@QVBoxLayout@@UAEHW4Call@QMetaObject@@HPAPAX@Z 0045faa2 f   Qt5Widgets:Qt5Widgets.dll
 0001:0005eaa8       ?qt_metacall@QWidget@@UAEHW4Call@QMetaObject@@HPAPAX@Z 0045faa8 f   Qt5Widgets:Qt5Widgets.dll
 0001:0005eaae       ?qt_metacast@QGridLayout@@UAEPAXPBD@Z 0045faae f   Qt5Widgets:Qt5Widgets.dll
 0001:0005eab4       ?qt_metacast@QLineEdit@@UAEPAXPBD@Z 0045fab4 f   Qt5Widgets:Qt5Widgets.dll
 0001:0005eaba       ?qt_metacast@QPushButton@@UAEPAXPBD@Z 0045faba f   Qt5Widgets:Qt5Widgets.dll
 0001:0005eac0       ?qt_metacast@QVBoxLayout@@UAEPAXPBD@Z 0045fac0 f   Qt5Widgets:Qt5Widgets.dll
 0001:0005eac6       ?qt_metacast@QWidget@@UAEPAXPBD@Z 0045fac6 f   Qt5Widgets:Qt5Widgets.dll
 0001:0005eacc       ?reject@QDialog@@UAEXXZ    0045facc f   Qt5Widgets:Qt5Widgets.dll
 0001:0005ead2       ?resizeEvent@QDialog@@MAEXPAVQResizeEvent@@@Z 0045fad2 f   Qt5Widgets:Qt5Widgets.dll
 0001:0005ead8       ?setGeometry@QGridLayout@@UAEXABVQRect@@@Z 0045fad8 f   Qt5Widgets:Qt5Widgets.dll
 0001:0005eade       ?setGeometry@QSpacerItem@@UAEXABVQRect@@@Z 0045fade f   Qt5Widgets:Qt5Widgets.dll
 0001:0005eae4       ?setVisible@QDialog@@UAEX_N@Z 0045fae4 f   Qt5Widgets:Qt5Widgets.dll
 0001:0005eaea       ?showEvent@QDialog@@MAEXPAVQShowEvent@@@Z 0045faea f   Qt5Widgets:Qt5Widgets.dll
 0001:0005eaf0       ?sizeHint@QDialog@@UBE?AVQSize@@XZ 0045faf0 f   Qt5Widgets:Qt5Widgets.dll
 0001:0005eaf6       ?sizeHint@QGridLayout@@UBE?AVQSize@@XZ 0045faf6 f   Qt5Widgets:Qt5Widgets.dll
 0001:0005eafc       ?sizeHint@QLineEdit@@UBE?AVQSize@@XZ 0045fafc f   Qt5Widgets:Qt5Widgets.dll
 0001:0005eb02       ?sizeHint@QPushButton@@UBE?AVQSize@@XZ 0045fb02 f   Qt5Widgets:Qt5Widgets.dll
 0001:0005eb08       ?sizeHint@QSpacerItem@@UBE?AVQSize@@XZ 0045fb08 f   Qt5Widgets:Qt5Widgets.dll
 0001:0005eb0e       ?spacerItem@QSpacerItem@@UAEPAV1@XZ 0045fb0e f   Qt5Widgets:Qt5Widgets.dll
 0001:0005eb14       ?takeAt@QGridLayout@@UAEPAVQLayoutItem@@H@Z 0045fb14 f   Qt5Widgets:Qt5Widgets.dll
 0001:0005eb1a       ?timerEvent@QAbstractButton@@MAEXPAVQTimerEvent@@@Z 0045fb1a f   Qt5Widgets:Qt5Widgets.dll
 0001:0005eb20       ??MQTableWidgetItem@@UBE_NABV0@@Z 0045fb20 f   Qt5Widgets:Qt5Widgets.dll
 0001:0005eb26       ?changeEvent@QFrame@@MAEXPAVQEvent@@@Z 0045fb26 f   Qt5Widgets:Qt5Widgets.dll
 0001:0005eb2c       ?clone@QTableWidgetItem@@UBEPAV1@XZ 0045fb2c f   Qt5Widgets:Qt5Widgets.dll
 0001:0005eb32       ?closeEditor@QAbstractItemView@@MAEXPAVQWidget@@W4EndEditHint@QAbstractItemDelegate@@@Z 0045fb32 f   Qt5Widgets:Qt5Widgets.dll
 0001:0005eb38       ?commitData@QAbstractItemView@@MAEXPAVQWidget@@@Z 0045fb38 f   Qt5Widgets:Qt5Widgets.dll
 0001:0005eb3e       ?contextMenuEvent@QAbstractScrollArea@@MAEXPAVQContextMenuEvent@@@Z 0045fb3e f   Qt5Widgets:Qt5Widgets.dll
 0001:0005eb44       ?currentChanged@QTableView@@MAEXABVQModelIndex@@0@Z 0045fb44 f   Qt5Widgets:Qt5Widgets.dll
 0001:0005eb4a       ?data@QTableWidgetItem@@UBE?AVQVariant@@H@Z 0045fb4a f   Qt5Widgets:Qt5Widgets.dll
 0001:0005eb50       ?dataChanged@QAbstractItemView@@MAEXABVQModelIndex@@0ABV?$QVector@H@@@Z 0045fb50 f   Qt5Widgets:Qt5Widgets.dll
 0001:0005eb56       ?doItemsLayout@QTableView@@UAEXXZ 0045fb56 f   Qt5Widgets:Qt5Widgets.dll
 0001:0005eb5c       ?dragEnterEvent@QAbstractItemView@@MAEXPAVQDragEnterEvent@@@Z 0045fb5c f   Qt5Widgets:Qt5Widgets.dll
 0001:0005eb62       ?dragLeaveEvent@QAbstractItemView@@MAEXPAVQDragLeaveEvent@@@Z 0045fb62 f   Qt5Widgets:Qt5Widgets.dll
 0001:0005eb68       ?dragMoveEvent@QAbstractItemView@@MAEXPAVQDragMoveEvent@@@Z 0045fb68 f   Qt5Widgets:Qt5Widgets.dll
 0001:0005eb6e       ?dropEvent@QTableWidget@@MAEXPAVQDropEvent@@@Z 0045fb6e f   Qt5Widgets:Qt5Widgets.dll
 0001:0005eb74       ?dropMimeData@QTableWidget@@MAE_NHHPBVQMimeData@@W4DropAction@Qt@@@Z 0045fb74 f   Qt5Widgets:Qt5Widgets.dll
 0001:0005eb7a       ?edit@QAbstractItemView@@MAE_NABVQModelIndex@@W4EditTrigger@1@PAVQEvent@@@Z 0045fb7a f   Qt5Widgets:Qt5Widgets.dll
 0001:0005eb80       ?editorDestroyed@QAbstractItemView@@MAEXPAVQObject@@@Z 0045fb80 f   Qt5Widgets:Qt5Widgets.dll
 0001:0005eb86       ?event@QTableWidget@@MAE_NPAVQEvent@@@Z 0045fb86 f   Qt5Widgets:Qt5Widgets.dll
 0001:0005eb8c       ?eventFilter@QAbstractItemView@@MAE_NPAVQObject@@PAVQEvent@@@Z 0045fb8c f   Qt5Widgets:Qt5Widgets.dll
 0001:0005eb92       ?focusInEvent@QAbstractItemView@@MAEXPAVQFocusEvent@@@Z 0045fb92 f   Qt5Widgets:Qt5Widgets.dll
 0001:0005eb98       ?focusNextPrevChild@QAbstractItemView@@MAE_N_N@Z 0045fb98 f   Qt5Widgets:Qt5Widgets.dll
 0001:0005eb9e       ?focusOutEvent@QAbstractItemView@@MAEXPAVQFocusEvent@@@Z 0045fb9e f   Qt5Widgets:Qt5Widgets.dll
 0001:0005eba4       ?horizontalOffset@QTableView@@MBEHXZ 0045fba4 f   Qt5Widgets:Qt5Widgets.dll
 0001:0005ebaa       ?horizontalScrollbarAction@QTableView@@MAEXH@Z 0045fbaa f   Qt5Widgets:Qt5Widgets.dll
 0001:0005ebb0       ?horizontalScrollbarValueChanged@QAbstractItemView@@MAEXH@Z 0045fbb0 f   Qt5Widgets:Qt5Widgets.dll
 0001:0005ebb6       ?indexAt@QTableView@@UBE?AVQModelIndex@@ABVQPoint@@@Z 0045fbb6 f   Qt5Widgets:Qt5Widgets.dll
 0001:0005ebbc       ?inputMethodEvent@QAbstractItemView@@MAEXPAVQInputMethodEvent@@@Z 0045fbbc f   Qt5Widgets:Qt5Widgets.dll
 0001:0005ebc2       ?inputMethodQuery@QAbstractItemView@@UBE?AVQVariant@@W4InputMethodQuery@Qt@@@Z 0045fbc2 f   Qt5Widgets:Qt5Widgets.dll
 0001:0005ebc8       ?isIndexHidden@QTableView@@MBE_NABVQModelIndex@@@Z 0045fbc8 f   Qt5Widgets:Qt5Widgets.dll
 0001:0005ebce       ?keyPressEvent@QAbstractItemView@@MAEXPAVQKeyEvent@@@Z 0045fbce f   Qt5Widgets:Qt5Widgets.dll
 0001:0005ebd4       ?keyboardSearch@QAbstractItemView@@UAEXABVQString@@@Z 0045fbd4 f   Qt5Widgets:Qt5Widgets.dll
 0001:0005ebda       ?metaObject@QTableWidget@@UBEPBUQMetaObject@@XZ 0045fbda f   Qt5Widgets:Qt5Widgets.dll
 0001:0005ebe0       ?mimeData@QTableWidget@@MBEPAVQMimeData@@V?$QList@PAVQTableWidgetItem@@@@@Z 0045fbe0 f   Qt5Widgets:Qt5Widgets.dll
 0001:0005ebe6       ?mimeTypes@QTableWidget@@MBE?AVQStringList@@XZ 0045fbe6 f   Qt5Widgets:Qt5Widgets.dll
 0001:0005ebec       ?minimumSizeHint@QAbstractScrollArea@@UBE?AVQSize@@XZ 0045fbec f   Qt5Widgets:Qt5Widgets.dll
 0001:0005ebf2       ?mouseDoubleClickEvent@QAbstractItemView@@MAEXPAVQMouseEvent@@@Z 0045fbf2 f   Qt5Widgets:Qt5Widgets.dll
 0001:0005ebf8       ?mouseMoveEvent@QAbstractItemView@@MAEXPAVQMouseEvent@@@Z 0045fbf8 f   Qt5Widgets:Qt5Widgets.dll
 0001:0005ebfe       ?mousePressEvent@QAbstractItemView@@MAEXPAVQMouseEvent@@@Z 0045fbfe f   Qt5Widgets:Qt5Widgets.dll
 0001:0005ec04       ?mouseReleaseEvent@QAbstractItemView@@MAEXPAVQMouseEvent@@@Z 0045fc04 f   Qt5Widgets:Qt5Widgets.dll
 0001:0005ec0a       ?moveCursor@QTableView@@MAE?AVQModelIndex@@W4CursorAction@QAbstractItemView@@V?$QFlags@W4KeyboardModifier@Qt@@@@@Z 0045fc0a f   Qt5Widgets:Qt5Widgets.dll
 0001:0005ec10       ?paintEvent@QTableView@@MAEXPAVQPaintEvent@@@Z 0045fc10 f   Qt5Widgets:Qt5Widgets.dll
 0001:0005ec16       ?qt_metacall@QTableWidget@@UAEHW4Call@QMetaObject@@HPAPAX@Z 0045fc16 f   Qt5Widgets:Qt5Widgets.dll
 0001:0005ec1c       ?qt_metacast@QTableWidget@@UAEPAXPBD@Z 0045fc1c f   Qt5Widgets:Qt5Widgets.dll
 0001:0005ec22       ?read@QTableWidgetItem@@UAEXAAVQDataStream@@@Z 0045fc22 f   Qt5Widgets:Qt5Widgets.dll
 0001:0005ec28       ?reset@QAbstractItemView@@UAEXXZ 0045fc28 f   Qt5Widgets:Qt5Widgets.dll
 0001:0005ec2e       ?resizeEvent@QAbstractItemView@@MAEXPAVQResizeEvent@@@Z 0045fc2e f   Qt5Widgets:Qt5Widgets.dll
 0001:0005ec34       ?rowsAboutToBeRemoved@QAbstractItemView@@MAEXABVQModelIndex@@HH@Z 0045fc34 f   Qt5Widgets:Qt5Widgets.dll
 0001:0005ec3a       ?rowsInserted@QAbstractItemView@@MAEXABVQModelIndex@@HH@Z 0045fc3a f   Qt5Widgets:Qt5Widgets.dll
 0001:0005ec40       ?scrollContentsBy@QTableView@@MAEXHH@Z 0045fc40 f   Qt5Widgets:Qt5Widgets.dll
 0001:0005ec46       ?scrollTo@QTableView@@UAEXABVQModelIndex@@W4ScrollHint@QAbstractItemView@@@Z 0045fc46 f   Qt5Widgets:Qt5Widgets.dll
 0001:0005ec4c       ?selectAll@QAbstractItemView@@UAEXXZ 0045fc4c f   Qt5Widgets:Qt5Widgets.dll
 0001:0005ec52       ?selectedIndexes@QTableView@@MBE?AV?$QList@VQModelIndex@@@@XZ 0045fc52 f   Qt5Widgets:Qt5Widgets.dll
 0001:0005ec58       ?selectionChanged@QTableView@@MAEXABVQItemSelection@@0@Z 0045fc58 f   Qt5Widgets:Qt5Widgets.dll
 0001:0005ec5e       ?selectionCommand@QAbstractItemView@@MBE?AV?$QFlags@W4SelectionFlag@QItemSelectionModel@@@@ABVQModelIndex@@PBVQEvent@@@Z 0045fc5e f   Qt5Widgets:Qt5Widgets.dll
 0001:0005ec64       ?setData@QTableWidgetItem@@UAEXHABVQVariant@@@Z 0045fc64 f   Qt5Widgets:Qt5Widgets.dll
 0001:0005ec6a       ?setModel@QTableWidget@@EAEXPAVQAbstractItemModel@@@Z 0045fc6a f   Qt5Widgets:Qt5Widgets.dll
 0001:0005ec70       ?setRootIndex@QTableView@@UAEXABVQModelIndex@@@Z 0045fc70 f   Qt5Widgets:Qt5Widgets.dll
 0001:0005ec76       ?setSelection@QTableView@@MAEXABVQRect@@V?$QFlags@W4SelectionFlag@QItemSelectionModel@@@@@Z 0045fc76 f   Qt5Widgets:Qt5Widgets.dll
 0001:0005ec7c       ?setSelectionModel@QTableView@@UAEXPAVQItemSelectionModel@@@Z 0045fc7c f   Qt5Widgets:Qt5Widgets.dll
 0001:0005ec82       ?setupViewport@QAbstractScrollArea@@UAEXPAVQWidget@@@Z 0045fc82 f   Qt5Widgets:Qt5Widgets.dll
 0001:0005ec88       ?sizeHint@QAbstractScrollArea@@UBE?AVQSize@@XZ 0045fc88 f   Qt5Widgets:Qt5Widgets.dll
 0001:0005ec8e       ?sizeHintForColumn@QTableView@@MBEHH@Z 0045fc8e f   Qt5Widgets:Qt5Widgets.dll
 0001:0005ec94       ?sizeHintForRow@QTableView@@MBEHH@Z 0045fc94 f   Qt5Widgets:Qt5Widgets.dll
 0001:0005ec9a       ?startDrag@QAbstractItemView@@MAEXV?$QFlags@W4DropAction@Qt@@@@@Z 0045fc9a f   Qt5Widgets:Qt5Widgets.dll
 0001:0005eca0       ?supportedDropActions@QTableWidget@@MBE?AV?$QFlags@W4DropAction@Qt@@@@XZ 0045fca0 f   Qt5Widgets:Qt5Widgets.dll
 0001:0005eca6       ?timerEvent@QTableView@@MAEXPAVQTimerEvent@@@Z 0045fca6 f   Qt5Widgets:Qt5Widgets.dll
 0001:0005ecac       ?updateEditorData@QAbstractItemView@@MAEXXZ 0045fcac f   Qt5Widgets:Qt5Widgets.dll
 0001:0005ecb2       ?updateEditorGeometries@QAbstractItemView@@MAEXXZ 0045fcb2 f   Qt5Widgets:Qt5Widgets.dll
 0001:0005ecb8       ?updateGeometries@QTableView@@MAEXXZ 0045fcb8 f   Qt5Widgets:Qt5Widgets.dll
 0001:0005ecbe       ?verticalOffset@QTableView@@MBEHXZ 0045fcbe f   Qt5Widgets:Qt5Widgets.dll
 0001:0005ecc4       ?verticalScrollbarAction@QTableView@@MAEXH@Z 0045fcc4 f   Qt5Widgets:Qt5Widgets.dll
 0001:0005ecca       ?verticalScrollbarValueChanged@QAbstractItemView@@MAEXH@Z 0045fcca f   Qt5Widgets:Qt5Widgets.dll
 0001:0005ecd0       ?viewOptions@QTableView@@MBE?AVQStyleOptionViewItem@@XZ 0045fcd0 f   Qt5Widgets:Qt5Widgets.dll
 0001:0005ecd6       ?viewportEvent@QAbstractItemView@@MAE_NPAVQEvent@@@Z 0045fcd6 f   Qt5Widgets:Qt5Widgets.dll
 0001:0005ecdc       ?viewportSizeHint@QTableView@@MBE?AVQSize@@XZ 0045fcdc f   Qt5Widgets:Qt5Widgets.dll
 0001:0005ece2       ?visualRect@QTableView@@UBE?AVQRect@@ABVQModelIndex@@@Z 0045fce2 f   Qt5Widgets:Qt5Widgets.dll
 0001:0005ece8       ?visualRegionForSelection@QTableView@@MBE?AVQRegion@@ABVQItemSelection@@@Z 0045fce8 f   Qt5Widgets:Qt5Widgets.dll
 0001:0005ecee       ?wheelEvent@QAbstractScrollArea@@MAEXPAVQWheelEvent@@@Z 0045fcee f   Qt5Widgets:Qt5Widgets.dll
 0001:0005ecf4       ?write@QTableWidgetItem@@UBEXAAVQDataStream@@@Z 0045fcf4 f   Qt5Widgets:Qt5Widgets.dll
 0001:0005ecfa       ?changeEvent@QComboBox@@MAEXPAVQEvent@@@Z 0045fcfa f   Qt5Widgets:Qt5Widgets.dll
 0001:0005ed00       ?checkStateSet@QCheckBox@@MAEXXZ 0045fd00 f   Qt5Widgets:Qt5Widgets.dll
 0001:0005ed06       ?contextMenuEvent@QComboBox@@MAEXPAVQContextMenuEvent@@@Z 0045fd06 f   Qt5Widgets:Qt5Widgets.dll
 0001:0005ed0c       ?event@QCheckBox@@MAE_NPAVQEvent@@@Z 0045fd0c f   Qt5Widgets:Qt5Widgets.dll
 0001:0005ed12       ?event@QComboBox@@UAE_NPAVQEvent@@@Z 0045fd12 f   Qt5Widgets:Qt5Widgets.dll
 0001:0005ed18       ?focusInEvent@QAbstractButton@@MAEXPAVQFocusEvent@@@Z 0045fd18 f   Qt5Widgets:Qt5Widgets.dll
 0001:0005ed1e       ?focusInEvent@QComboBox@@MAEXPAVQFocusEvent@@@Z 0045fd1e f   Qt5Widgets:Qt5Widgets.dll
 0001:0005ed24       ?focusOutEvent@QAbstractButton@@MAEXPAVQFocusEvent@@@Z 0045fd24 f   Qt5Widgets:Qt5Widgets.dll
 0001:0005ed2a       ?focusOutEvent@QComboBox@@MAEXPAVQFocusEvent@@@Z 0045fd2a f   Qt5Widgets:Qt5Widgets.dll
 0001:0005ed30       ?hideEvent@QComboBox@@MAEXPAVQHideEvent@@@Z 0045fd30 f   Qt5Widgets:Qt5Widgets.dll
 0001:0005ed36       ?hidePopup@QComboBox@@UAEXXZ 0045fd36 f   Qt5Widgets:Qt5Widgets.dll
 0001:0005ed3c       ?hitButton@QCheckBox@@MBE_NABVQPoint@@@Z 0045fd3c f   Qt5Widgets:Qt5Widgets.dll
 0001:0005ed42       ?inputMethodEvent@QComboBox@@MAEXPAVQInputMethodEvent@@@Z 0045fd42 f   Qt5Widgets:Qt5Widgets.dll
 0001:0005ed48       ?inputMethodQuery@QComboBox@@UBE?AVQVariant@@W4InputMethodQuery@Qt@@@Z 0045fd48 f   Qt5Widgets:Qt5Widgets.dll
 0001:0005ed4e       ?keyPressEvent@QAbstractButton@@MAEXPAVQKeyEvent@@@Z 0045fd4e f   Qt5Widgets:Qt5Widgets.dll
 0001:0005ed54       ?keyPressEvent@QComboBox@@MAEXPAVQKeyEvent@@@Z 0045fd54 f   Qt5Widgets:Qt5Widgets.dll
 0001:0005ed5a       ?keyReleaseEvent@QComboBox@@MAEXPAVQKeyEvent@@@Z 0045fd5a f   Qt5Widgets:Qt5Widgets.dll
 0001:0005ed60       ?metaObject@QCheckBox@@UBEPBUQMetaObject@@XZ 0045fd60 f   Qt5Widgets:Qt5Widgets.dll
 0001:0005ed66       ?metaObject@QComboBox@@UBEPBUQMetaObject@@XZ 0045fd66 f   Qt5Widgets:Qt5Widgets.dll
 0001:0005ed6c       ?minimumSizeHint@QCheckBox@@UBE?AVQSize@@XZ 0045fd6c f   Qt5Widgets:Qt5Widgets.dll
 0001:0005ed72       ?minimumSizeHint@QComboBox@@UBE?AVQSize@@XZ 0045fd72 f   Qt5Widgets:Qt5Widgets.dll
 0001:0005ed78       ?mouseMoveEvent@QCheckBox@@MAEXPAVQMouseEvent@@@Z 0045fd78 f   Qt5Widgets:Qt5Widgets.dll
 0001:0005ed7e       ?mousePressEvent@QComboBox@@MAEXPAVQMouseEvent@@@Z 0045fd7e f   Qt5Widgets:Qt5Widgets.dll
 0001:0005ed84       ?mouseReleaseEvent@QComboBox@@MAEXPAVQMouseEvent@@@Z 0045fd84 f   Qt5Widgets:Qt5Widgets.dll
 0001:0005ed8a       ?nextCheckState@QCheckBox@@MAEXXZ 0045fd8a f   Qt5Widgets:Qt5Widgets.dll
 0001:0005ed90       ?paintEvent@QCheckBox@@MAEXPAVQPaintEvent@@@Z 0045fd90 f   Qt5Widgets:Qt5Widgets.dll
 0001:0005ed96       ?paintEvent@QComboBox@@MAEXPAVQPaintEvent@@@Z 0045fd96 f   Qt5Widgets:Qt5Widgets.dll
 0001:0005ed9c       ?qt_metacall@QCheckBox@@UAEHW4Call@QMetaObject@@HPAPAX@Z 0045fd9c f   Qt5Widgets:Qt5Widgets.dll
 0001:0005eda2       ?qt_metacall@QComboBox@@UAEHW4Call@QMetaObject@@HPAPAX@Z 0045fda2 f   Qt5Widgets:Qt5Widgets.dll
 0001:0005eda8       ?qt_metacast@QCheckBox@@UAEPAXPBD@Z 0045fda8 f   Qt5Widgets:Qt5Widgets.dll
 0001:0005edae       ?qt_metacast@QComboBox@@UAEPAXPBD@Z 0045fdae f   Qt5Widgets:Qt5Widgets.dll
 0001:0005edb4       ?resizeEvent@QComboBox@@MAEXPAVQResizeEvent@@@Z 0045fdb4 f   Qt5Widgets:Qt5Widgets.dll
 0001:0005edba       ?showEvent@QComboBox@@MAEXPAVQShowEvent@@@Z 0045fdba f   Qt5Widgets:Qt5Widgets.dll
 0001:0005edc0       ?showPopup@QComboBox@@UAEXXZ 0045fdc0 f   Qt5Widgets:Qt5Widgets.dll
 0001:0005edc6       ?sizeHint@QCheckBox@@UBE?AVQSize@@XZ 0045fdc6 f   Qt5Widgets:Qt5Widgets.dll
 0001:0005edcc       ?sizeHint@QComboBox@@UBE?AVQSize@@XZ 0045fdcc f   Qt5Widgets:Qt5Widgets.dll
 0001:0005edd2       ?wheelEvent@QComboBox@@MAEXPAVQWheelEvent@@@Z 0045fdd2 f   Qt5Widgets:Qt5Widgets.dll
 0001:0005edd8       ?actionEvent@QMenu@@MAEXPAVQActionEvent@@@Z 0045fdd8 f   Qt5Widgets:Qt5Widgets.dll
 0001:0005edde       ?changeEvent@QMenu@@MAEXPAVQEvent@@@Z 0045fdde f   Qt5Widgets:Qt5Widgets.dll
 0001:0005ede4       ?enterEvent@QMenu@@MAEXPAVQEvent@@@Z 0045fde4 f   Qt5Widgets:Qt5Widgets.dll
 0001:0005edea       ?event@QAction@@MAE_NPAVQEvent@@@Z 0045fdea f   Qt5Widgets:Qt5Widgets.dll
 0001:0005edf0       ?event@QMenu@@MAE_NPAVQEvent@@@Z 0045fdf0 f   Qt5Widgets:Qt5Widgets.dll
 0001:0005edf6       ?focusNextPrevChild@QMenu@@MAE_N_N@Z 0045fdf6 f   Qt5Widgets:Qt5Widgets.dll
 0001:0005edfc       ?hideEvent@QMenu@@MAEXPAVQHideEvent@@@Z 0045fdfc f   Qt5Widgets:Qt5Widgets.dll
 0001:0005ee02       ?keyPressEvent@QMenu@@MAEXPAVQKeyEvent@@@Z 0045fe02 f   Qt5Widgets:Qt5Widgets.dll
 0001:0005ee08       ?leaveEvent@QMenu@@MAEXPAVQEvent@@@Z 0045fe08 f   Qt5Widgets:Qt5Widgets.dll
 0001:0005ee0e       ?metaObject@QAction@@UBEPBUQMetaObject@@XZ 0045fe0e f   Qt5Widgets:Qt5Widgets.dll
 0001:0005ee14       ?metaObject@QMenu@@UBEPBUQMetaObject@@XZ 0045fe14 f   Qt5Widgets:Qt5Widgets.dll
 0001:0005ee1a       ?mouseMoveEvent@QMenu@@MAEXPAVQMouseEvent@@@Z 0045fe1a f   Qt5Widgets:Qt5Widgets.dll
 0001:0005ee20       ?mousePressEvent@QMenu@@MAEXPAVQMouseEvent@@@Z 0045fe20 f   Qt5Widgets:Qt5Widgets.dll
 0001:0005ee26       ?mouseReleaseEvent@QMenu@@MAEXPAVQMouseEvent@@@Z 0045fe26 f   Qt5Widgets:Qt5Widgets.dll
 0001:0005ee2c       ?paintEvent@QMenu@@MAEXPAVQPaintEvent@@@Z 0045fe2c f   Qt5Widgets:Qt5Widgets.dll
 0001:0005ee32       ?qt_metacall@QAction@@UAEHW4Call@QMetaObject@@HPAPAX@Z 0045fe32 f   Qt5Widgets:Qt5Widgets.dll
 0001:0005ee38       ?qt_metacall@QMenu@@UAEHW4Call@QMetaObject@@HPAPAX@Z 0045fe38 f   Qt5Widgets:Qt5Widgets.dll
 0001:0005ee3e       ?qt_metacast@QAction@@UAEPAXPBD@Z 0045fe3e f   Qt5Widgets:Qt5Widgets.dll
 0001:0005ee44       ?qt_metacast@QMenu@@UAEPAXPBD@Z 0045fe44 f   Qt5Widgets:Qt5Widgets.dll
 0001:0005ee4a       ?sizeHint@QMenu@@UBE?AVQSize@@XZ 0045fe4a f   Qt5Widgets:Qt5Widgets.dll
 0001:0005ee50       ?timerEvent@QMenu@@MAEXPAVQTimerEvent@@@Z 0045fe50 f   Qt5Widgets:Qt5Widgets.dll
 0001:0005ee56       ?wheelEvent@QMenu@@MAEXPAVQWheelEvent@@@Z 0045fe56 f   Qt5Widgets:Qt5Widgets.dll
 0001:0005ee5c       ?changeEvent@QTabWidget@@MAEXPAVQEvent@@@Z 0045fe5c f   Qt5Widgets:Qt5Widgets.dll
 0001:0005ee62       ?childEvent@QMdiArea@@MAEXPAVQChildEvent@@@Z 0045fe62 f   Qt5Widgets:Qt5Widgets.dll
 0001:0005ee68       ?dragEnterEvent@QAbstractScrollArea@@MAEXPAVQDragEnterEvent@@@Z 0045fe68 f   Qt5Widgets:Qt5Widgets.dll
 0001:0005ee6e       ?dragLeaveEvent@QAbstractScrollArea@@MAEXPAVQDragLeaveEvent@@@Z 0045fe6e f   Qt5Widgets:Qt5Widgets.dll
 0001:0005ee74       ?dragMoveEvent@QAbstractScrollArea@@MAEXPAVQDragMoveEvent@@@Z 0045fe74 f   Qt5Widgets:Qt5Widgets.dll
 0001:0005ee7a       ?dropEvent@QAbstractScrollArea@@MAEXPAVQDropEvent@@@Z 0045fe7a f   Qt5Widgets:Qt5Widgets.dll
 0001:0005ee80       ?event@QFrame@@MAE_NPAVQEvent@@@Z 0045fe80 f   Qt5Widgets:Qt5Widgets.dll
 0001:0005ee86       ?event@QMdiArea@@MAE_NPAVQEvent@@@Z 0045fe86 f   Qt5Widgets:Qt5Widgets.dll
 0001:0005ee8c       ?event@QScrollArea@@MAE_NPAVQEvent@@@Z 0045fe8c f   Qt5Widgets:Qt5Widgets.dll
 0001:0005ee92       ?event@QSpinBox@@MAE_NPAVQEvent@@@Z 0045fe92 f   Qt5Widgets:Qt5Widgets.dll
 0001:0005ee98       ?event@QTabWidget@@MAE_NPAVQEvent@@@Z 0045fe98 f   Qt5Widgets:Qt5Widgets.dll
 0001:0005ee9e       ?eventFilter@QMdiArea@@MAE_NPAVQObject@@PAVQEvent@@@Z 0045fe9e f   Qt5Widgets:Qt5Widgets.dll
 0001:0005eea4       ?eventFilter@QScrollArea@@MAE_NPAVQObject@@PAVQEvent@@@Z 0045fea4 f   Qt5Widgets:Qt5Widgets.dll
 0001:0005eeaa       ?fixup@QSpinBox@@MBEXAAVQString@@@Z 0045feaa f   Qt5Widgets:Qt5Widgets.dll
 0001:0005eeb0       ?focusNextPrevChild@QScrollArea@@UAE_N_N@Z 0045feb0 f   Qt5Widgets:Qt5Widgets.dll
 0001:0005eeb6       ?hasHeightForWidth@QTabWidget@@UBE_NXZ 0045feb6 f   Qt5Widgets:Qt5Widgets.dll
 0001:0005eebc       ?heightForWidth@QTabWidget@@UBEHH@Z 0045febc f   Qt5Widgets:Qt5Widgets.dll
 0001:0005eec2       ?keyPressEvent@QAbstractScrollArea@@MAEXPAVQKeyEvent@@@Z 0045fec2 f   Qt5Widgets:Qt5Widgets.dll
 0001:0005eec8       ?keyPressEvent@QTabWidget@@MAEXPAVQKeyEvent@@@Z 0045fec8 f   Qt5Widgets:Qt5Widgets.dll
 0001:0005eece       ?metaObject@QButtonGroup@@UBEPBUQMetaObject@@XZ 0045fece f   Qt5Widgets:Qt5Widgets.dll
 0001:0005eed4       ?metaObject@QFrame@@UBEPBUQMetaObject@@XZ 0045fed4 f   Qt5Widgets:Qt5Widgets.dll
 0001:0005eeda       ?metaObject@QMdiArea@@UBEPBUQMetaObject@@XZ 0045feda f   Qt5Widgets:Qt5Widgets.dll
 0001:0005eee0       ?metaObject@QScrollArea@@UBEPBUQMetaObject@@XZ 0045fee0 f   Qt5Widgets:Qt5Widgets.dll
 0001:0005eee6       ?metaObject@QSpinBox@@UBEPBUQMetaObject@@XZ 0045fee6 f   Qt5Widgets:Qt5Widgets.dll
 0001:0005eeec       ?metaObject@QTabWidget@@UBEPBUQMetaObject@@XZ 0045feec f   Qt5Widgets:Qt5Widgets.dll
 0001:0005eef2       ?minimumSizeHint@QMdiArea@@UBE?AVQSize@@XZ 0045fef2 f   Qt5Widgets:Qt5Widgets.dll
 0001:0005eef8       ?minimumSizeHint@QTabWidget@@UBE?AVQSize@@XZ 0045fef8 f   Qt5Widgets:Qt5Widgets.dll
 0001:0005eefe       ?mouseDoubleClickEvent@QAbstractScrollArea@@MAEXPAVQMouseEvent@@@Z 0045fefe f   Qt5Widgets:Qt5Widgets.dll
 0001:0005ef04       ?mouseMoveEvent@QAbstractScrollArea@@MAEXPAVQMouseEvent@@@Z 0045ff04 f   Qt5Widgets:Qt5Widgets.dll
 0001:0005ef0a       ?mousePressEvent@QAbstractScrollArea@@MAEXPAVQMouseEvent@@@Z 0045ff0a f   Qt5Widgets:Qt5Widgets.dll
 0001:0005ef10       ?mouseReleaseEvent@QAbstractScrollArea@@MAEXPAVQMouseEvent@@@Z 0045ff10 f   Qt5Widgets:Qt5Widgets.dll
 0001:0005ef16       ?paintEvent@QAbstractScrollArea@@MAEXPAVQPaintEvent@@@Z 0045ff16 f   Qt5Widgets:Qt5Widgets.dll
 0001:0005ef1c       ?paintEvent@QFrame@@MAEXPAVQPaintEvent@@@Z 0045ff1c f   Qt5Widgets:Qt5Widgets.dll
 0001:0005ef22       ?paintEvent@QMdiArea@@MAEXPAVQPaintEvent@@@Z 0045ff22 f   Qt5Widgets:Qt5Widgets.dll
 0001:0005ef28       ?paintEvent@QTabWidget@@MAEXPAVQPaintEvent@@@Z 0045ff28 f   Qt5Widgets:Qt5Widgets.dll
 0001:0005ef2e       ?qt_metacall@QButtonGroup@@UAEHW4Call@QMetaObject@@HPAPAX@Z 0045ff2e f   Qt5Widgets:Qt5Widgets.dll
 0001:0005ef34       ?qt_metacall@QFrame@@UAEHW4Call@QMetaObject@@HPAPAX@Z 0045ff34 f   Qt5Widgets:Qt5Widgets.dll
 0001:0005ef3a       ?qt_metacall@QMdiArea@@UAEHW4Call@QMetaObject@@HPAPAX@Z 0045ff3a f   Qt5Widgets:Qt5Widgets.dll
 0001:0005ef40       ?qt_metacall@QScrollArea@@UAEHW4Call@QMetaObject@@HPAPAX@Z 0045ff40 f   Qt5Widgets:Qt5Widgets.dll
 0001:0005ef46       ?qt_metacall@QSpinBox@@UAEHW4Call@QMetaObject@@HPAPAX@Z 0045ff46 f   Qt5Widgets:Qt5Widgets.dll
 0001:0005ef4c       ?qt_metacall@QTabWidget@@UAEHW4Call@QMetaObject@@HPAPAX@Z 0045ff4c f   Qt5Widgets:Qt5Widgets.dll
 0001:0005ef52       ?qt_metacast@QButtonGroup@@UAEPAXPBD@Z 0045ff52 f   Qt5Widgets:Qt5Widgets.dll
 0001:0005ef58       ?qt_metacast@QFrame@@UAEPAXPBD@Z 0045ff58 f   Qt5Widgets:Qt5Widgets.dll
 0001:0005ef5e       ?qt_metacast@QMdiArea@@UAEPAXPBD@Z 0045ff5e f   Qt5Widgets:Qt5Widgets.dll
 0001:0005ef64       ?qt_metacast@QScrollArea@@UAEPAXPBD@Z 0045ff64 f   Qt5Widgets:Qt5Widgets.dll
 0001:0005ef6a       ?qt_metacast@QSpinBox@@UAEPAXPBD@Z 0045ff6a f   Qt5Widgets:Qt5Widgets.dll
 0001:0005ef70       ?qt_metacast@QTabWidget@@UAEPAXPBD@Z 0045ff70 f   Qt5Widgets:Qt5Widgets.dll
 0001:0005ef76       ?resizeEvent@QMdiArea@@MAEXPAVQResizeEvent@@@Z 0045ff76 f   Qt5Widgets:Qt5Widgets.dll
 0001:0005ef7c       ?resizeEvent@QScrollArea@@MAEXPAVQResizeEvent@@@Z 0045ff7c f   Qt5Widgets:Qt5Widgets.dll
 0001:0005ef82       ?resizeEvent@QTabWidget@@MAEXPAVQResizeEvent@@@Z 0045ff82 f   Qt5Widgets:Qt5Widgets.dll
 0001:0005ef88       ?scrollContentsBy@QMdiArea@@MAEXHH@Z 0045ff88 f   Qt5Widgets:Qt5Widgets.dll
 0001:0005ef8e       ?scrollContentsBy@QScrollArea@@MAEXHH@Z 0045ff8e f   Qt5Widgets:Qt5Widgets.dll
 0001:0005ef94       ?setupViewport@QMdiArea@@MAEXPAVQWidget@@@Z 0045ff94 f   Qt5Widgets:Qt5Widgets.dll
 0001:0005ef9a       ?showEvent@QMdiArea@@MAEXPAVQShowEvent@@@Z 0045ff9a f   Qt5Widgets:Qt5Widgets.dll
 0001:0005efa0       ?showEvent@QTabWidget@@MAEXPAVQShowEvent@@@Z 0045ffa0 f   Qt5Widgets:Qt5Widgets.dll
 0001:0005efa6       ?sizeHint@QFrame@@UBE?AVQSize@@XZ 0045ffa6 f   Qt5Widgets:Qt5Widgets.dll
 0001:0005efac       ?sizeHint@QMdiArea@@UBE?AVQSize@@XZ 0045ffac f   Qt5Widgets:Qt5Widgets.dll
 0001:0005efb2       ?sizeHint@QScrollArea@@UBE?AVQSize@@XZ 0045ffb2 f   Qt5Widgets:Qt5Widgets.dll
 0001:0005efb8       ?sizeHint@QTabWidget@@UBE?AVQSize@@XZ 0045ffb8 f   Qt5Widgets:Qt5Widgets.dll
 0001:0005efbe       ?tabInserted@QTabWidget@@MAEXH@Z 0045ffbe f   Qt5Widgets:Qt5Widgets.dll
 0001:0005efc4       ?tabRemoved@QTabWidget@@MAEXH@Z 0045ffc4 f   Qt5Widgets:Qt5Widgets.dll
 0001:0005efca       ?textFromValue@QSpinBox@@MBE?AVQString@@H@Z 0045ffca f   Qt5Widgets:Qt5Widgets.dll
 0001:0005efd0       ?timerEvent@QMdiArea@@MAEXPAVQTimerEvent@@@Z 0045ffd0 f   Qt5Widgets:Qt5Widgets.dll
 0001:0005efd6       ?validate@QSpinBox@@MBE?AW4State@QValidator@@AAVQString@@AAH@Z 0045ffd6 f   Qt5Widgets:Qt5Widgets.dll
 0001:0005efdc       ?valueFromText@QSpinBox@@MBEHABVQString@@@Z 0045ffdc f   Qt5Widgets:Qt5Widgets.dll
 0001:0005efe2       ?viewportEvent@QAbstractScrollArea@@MAE_NPAVQEvent@@@Z 0045ffe2 f   Qt5Widgets:Qt5Widgets.dll
 0001:0005efe8       ?viewportEvent@QMdiArea@@MAE_NPAVQEvent@@@Z 0045ffe8 f   Qt5Widgets:Qt5Widgets.dll
 0001:0005efee       ?viewportSizeHint@QAbstractScrollArea@@MBE?AVQSize@@XZ 0045ffee f   Qt5Widgets:Qt5Widgets.dll
 0001:0005eff4       ?viewportSizeHint@QScrollArea@@MBE?AVQSize@@XZ 0045fff4 f   Qt5Widgets:Qt5Widgets.dll
 0001:0005effa       ?backward@QTextBrowser@@UAEXXZ 0045fffa f   Qt5Widgets:Qt5Widgets.dll
 0001:0005f000       ?canInsertFromMimeData@QTextEdit@@MBE_NPBVQMimeData@@@Z 00460000 f   Qt5Widgets:Qt5Widgets.dll
 0001:0005f006       ?changeEvent@QDockWidget@@MAEXPAVQEvent@@@Z 00460006 f   Qt5Widgets:Qt5Widgets.dll
 0001:0005f00c       ?changeEvent@QTextEdit@@MAEXPAVQEvent@@@Z 0046000c f   Qt5Widgets:Qt5Widgets.dll
 0001:0005f012       ?closeEvent@QDockWidget@@MAEXPAVQCloseEvent@@@Z 00460012 f   Qt5Widgets:Qt5Widgets.dll
 0001:0005f018       ?contextMenuEvent@QMainWindow@@MAEXPAVQContextMenuEvent@@@Z 00460018 f   Qt5Widgets:Qt5Widgets.dll
 0001:0005f01e       ?contextMenuEvent@QTextEdit@@MAEXPAVQContextMenuEvent@@@Z 0046001e f   Qt5Widgets:Qt5Widgets.dll
 0001:0005f024       ?createMimeDataFromSelection@QTextEdit@@MBEPAVQMimeData@@XZ 00460024 f   Qt5Widgets:Qt5Widgets.dll
 0001:0005f02a       ?createPopupMenu@QMainWindow@@UAEPAVQMenu@@XZ 0046002a f   Qt5Widgets:Qt5Widgets.dll
 0001:0005f030       ?currentChanged@QTreeView@@MAEXABVQModelIndex@@0@Z 00460030 f   Qt5Widgets:Qt5Widgets.dll
 0001:0005f036       ?dataChanged@QTreeView@@UAEXABVQModelIndex@@0ABV?$QVector@H@@@Z 00460036 f   Qt5Widgets:Qt5Widgets.dll
 0001:0005f03c       ?doItemsLayout@QTreeView@@UAEXXZ 0046003c f   Qt5Widgets:Qt5Widgets.dll
 0001:0005f042       ?doSetTextCursor@QTextEdit@@MAEXABVQTextCursor@@@Z 00460042 f   Qt5Widgets:Qt5Widgets.dll
 0001:0005f048       ?dragEnterEvent@QTextEdit@@MAEXPAVQDragEnterEvent@@@Z 00460048 f   Qt5Widgets:Qt5Widgets.dll
 0001:0005f04e       ?dragLeaveEvent@QTextEdit@@MAEXPAVQDragLeaveEvent@@@Z 0046004e f   Qt5Widgets:Qt5Widgets.dll
 0001:0005f054       ?dragMoveEvent@QTextEdit@@MAEXPAVQDragMoveEvent@@@Z 00460054 f   Qt5Widgets:Qt5Widgets.dll
 0001:0005f05a       ?dragMoveEvent@QTreeView@@MAEXPAVQDragMoveEvent@@@Z 0046005a f   Qt5Widgets:Qt5Widgets.dll
 0001:0005f060       ?drawBranches@QTreeView@@MBEXPAVQPainter@@ABVQRect@@ABVQModelIndex@@@Z 00460060 f   Qt5Widgets:Qt5Widgets.dll
 0001:0005f066       ?drawRow@QTreeView@@MBEXPAVQPainter@@ABVQStyleOptionViewItem@@ABVQModelIndex@@@Z 00460066 f   Qt5Widgets:Qt5Widgets.dll
 0001:0005f06c       ?dropEvent@QAbstractItemView@@MAEXPAVQDropEvent@@@Z 0046006c f   Qt5Widgets:Qt5Widgets.dll
 0001:0005f072       ?dropEvent@QTextEdit@@MAEXPAVQDropEvent@@@Z 00460072 f   Qt5Widgets:Qt5Widgets.dll
 0001:0005f078       ?event@QAbstractItemView@@MAE_NPAVQEvent@@@Z 00460078 f   Qt5Widgets:Qt5Widgets.dll
 0001:0005f07e       ?event@QDockWidget@@MAE_NPAVQEvent@@@Z 0046007e f   Qt5Widgets:Qt5Widgets.dll
 0001:0005f084       ?event@QMainWindow@@MAE_NPAVQEvent@@@Z 00460084 f   Qt5Widgets:Qt5Widgets.dll
 0001:0005f08a       ?event@QStatusBar@@MAE_NPAVQEvent@@@Z 0046008a f   Qt5Widgets:Qt5Widgets.dll
 0001:0005f090       ?event@QTextBrowser@@MAE_NPAVQEvent@@@Z 00460090 f   Qt5Widgets:Qt5Widgets.dll
 0001:0005f096       ?event@QTextEdit@@MAE_NPAVQEvent@@@Z 00460096 f   Qt5Widgets:Qt5Widgets.dll
 0001:0005f09c       ?eventFilter@QAbstractScrollArea@@MAE_NPAVQObject@@PAVQEvent@@@Z 0046009c f   Qt5Widgets:Qt5Widgets.dll
 0001:0005f0a2       ?focusInEvent@QTextEdit@@MAEXPAVQFocusEvent@@@Z 004600a2 f   Qt5Widgets:Qt5Widgets.dll
 0001:0005f0a8       ?focusNextPrevChild@QTextBrowser@@MAE_N_N@Z 004600a8 f   Qt5Widgets:Qt5Widgets.dll
 0001:0005f0ae       ?focusNextPrevChild@QTextEdit@@MAE_N_N@Z 004600ae f   Qt5Widgets:Qt5Widgets.dll
 0001:0005f0b4       ?focusOutEvent@QTextBrowser@@MAEXPAVQFocusEvent@@@Z 004600b4 f   Qt5Widgets:Qt5Widgets.dll
 0001:0005f0ba       ?focusOutEvent@QTextEdit@@MAEXPAVQFocusEvent@@@Z 004600ba f   Qt5Widgets:Qt5Widgets.dll
 0001:0005f0c0       ?forward@QTextBrowser@@UAEXXZ 004600c0 f   Qt5Widgets:Qt5Widgets.dll
 0001:0005f0c6       ?home@QTextBrowser@@UAEXXZ 004600c6 f   Qt5Widgets:Qt5Widgets.dll
 0001:0005f0cc       ?horizontalOffset@QTreeView@@MBEHXZ 004600cc f   Qt5Widgets:Qt5Widgets.dll
 0001:0005f0d2       ?horizontalScrollbarAction@QTreeView@@MAEXH@Z 004600d2 f   Qt5Widgets:Qt5Widgets.dll
 0001:0005f0d8       ?indexAt@QTreeView@@UBE?AVQModelIndex@@ABVQPoint@@@Z 004600d8 f   Qt5Widgets:Qt5Widgets.dll
 0001:0005f0de       ?inputMethodEvent@QTextEdit@@MAEXPAVQInputMethodEvent@@@Z 004600de f   Qt5Widgets:Qt5Widgets.dll
 0001:0005f0e4       ?inputMethodQuery@QTextEdit@@UBE?AVQVariant@@W4InputMethodQuery@Qt@@@Z 004600e4 f   Qt5Widgets:Qt5Widgets.dll
 0001:0005f0ea       ?insertFromMimeData@QTextEdit@@MAEXPBVQMimeData@@@Z 004600ea f   Qt5Widgets:Qt5Widgets.dll
 0001:0005f0f0       ?isIndexHidden@QTreeView@@MBE_NABVQModelIndex@@@Z 004600f0 f   Qt5Widgets:Qt5Widgets.dll
 0001:0005f0f6       ?keyPressEvent@QTextBrowser@@MAEXPAVQKeyEvent@@@Z 004600f6 f   Qt5Widgets:Qt5Widgets.dll
 0001:0005f0fc       ?keyPressEvent@QTextEdit@@MAEXPAVQKeyEvent@@@Z 004600fc f   Qt5Widgets:Qt5Widgets.dll
 0001:0005f102       ?keyPressEvent@QTreeView@@MAEXPAVQKeyEvent@@@Z 00460102 f   Qt5Widgets:Qt5Widgets.dll
 0001:0005f108       ?keyReleaseEvent@QTextEdit@@MAEXPAVQKeyEvent@@@Z 00460108 f   Qt5Widgets:Qt5Widgets.dll
 0001:0005f10e       ?keyboardSearch@QTreeView@@UAEXABVQString@@@Z 0046010e f   Qt5Widgets:Qt5Widgets.dll
 0001:0005f114       ?loadResource@QTextBrowser@@UAE?AVQVariant@@HABVQUrl@@@Z 00460114 f   Qt5Widgets:Qt5Widgets.dll
 0001:0005f11a       ?loadResource@QTextEdit@@UAE?AVQVariant@@HABVQUrl@@@Z 0046011a f   Qt5Widgets:Qt5Widgets.dll
 0001:0005f120       ?metaObject@QDockWidget@@UBEPBUQMetaObject@@XZ 00460120 f   Qt5Widgets:Qt5Widgets.dll
 0001:0005f126       ?metaObject@QStatusBar@@UBEPBUQMetaObject@@XZ 00460126 f   Qt5Widgets:Qt5Widgets.dll
 0001:0005f12c       ?metaObject@QTextBrowser@@UBEPBUQMetaObject@@XZ 0046012c f   Qt5Widgets:Qt5Widgets.dll
 0001:0005f132       ?metaObject@QTextEdit@@UBEPBUQMetaObject@@XZ 00460132 f   Qt5Widgets:Qt5Widgets.dll
 0001:0005f138       ?metaObject@QTreeView@@UBEPBUQMetaObject@@XZ 00460138 f   Qt5Widgets:Qt5Widgets.dll
 0001:0005f13e       ?mouseDoubleClickEvent@QTextEdit@@MAEXPAVQMouseEvent@@@Z 0046013e f   Qt5Widgets:Qt5Widgets.dll
 0001:0005f144       ?mouseDoubleClickEvent@QTreeView@@MAEXPAVQMouseEvent@@@Z 00460144 f   Qt5Widgets:Qt5Widgets.dll
 0001:0005f14a       ?mouseMoveEvent@QTextBrowser@@MAEXPAVQMouseEvent@@@Z 0046014a f   Qt5Widgets:Qt5Widgets.dll
 0001:0005f150       ?mouseMoveEvent@QTextEdit@@MAEXPAVQMouseEvent@@@Z 00460150 f   Qt5Widgets:Qt5Widgets.dll
 0001:0005f156       ?mouseMoveEvent@QTreeView@@MAEXPAVQMouseEvent@@@Z 00460156 f   Qt5Widgets:Qt5Widgets.dll
 0001:0005f15c       ?mousePressEvent@QTextBrowser@@MAEXPAVQMouseEvent@@@Z 0046015c f   Qt5Widgets:Qt5Widgets.dll
 0001:0005f162       ?mousePressEvent@QTextEdit@@MAEXPAVQMouseEvent@@@Z 00460162 f   Qt5Widgets:Qt5Widgets.dll
 0001:0005f168       ?mousePressEvent@QTreeView@@MAEXPAVQMouseEvent@@@Z 00460168 f   Qt5Widgets:Qt5Widgets.dll
 0001:0005f16e       ?mouseReleaseEvent@QTextBrowser@@MAEXPAVQMouseEvent@@@Z 0046016e f   Qt5Widgets:Qt5Widgets.dll
 0001:0005f174       ?mouseReleaseEvent@QTextEdit@@MAEXPAVQMouseEvent@@@Z 00460174 f   Qt5Widgets:Qt5Widgets.dll
 0001:0005f17a       ?mouseReleaseEvent@QTreeView@@MAEXPAVQMouseEvent@@@Z 0046017a f   Qt5Widgets:Qt5Widgets.dll
 0001:0005f180       ?moveCursor@QTreeView@@MAE?AVQModelIndex@@W4CursorAction@QAbstractItemView@@V?$QFlags@W4KeyboardModifier@Qt@@@@@Z 00460180 f   Qt5Widgets:Qt5Widgets.dll
 0001:0005f186       ?paintEvent@QDockWidget@@MAEXPAVQPaintEvent@@@Z 00460186 f   Qt5Widgets:Qt5Widgets.dll
 0001:0005f18c       ?paintEvent@QStatusBar@@MAEXPAVQPaintEvent@@@Z 0046018c f   Qt5Widgets:Qt5Widgets.dll
 0001:0005f192       ?paintEvent@QTextBrowser@@MAEXPAVQPaintEvent@@@Z 00460192 f   Qt5Widgets:Qt5Widgets.dll
 0001:0005f198       ?paintEvent@QTextEdit@@MAEXPAVQPaintEvent@@@Z 00460198 f   Qt5Widgets:Qt5Widgets.dll
 0001:0005f19e       ?paintEvent@QTreeView@@MAEXPAVQPaintEvent@@@Z 0046019e f   Qt5Widgets:Qt5Widgets.dll
 0001:0005f1a4       ?qt_metacall@QDockWidget@@UAEHW4Call@QMetaObject@@HPAPAX@Z 004601a4 f   Qt5Widgets:Qt5Widgets.dll
 0001:0005f1aa       ?qt_metacall@QStatusBar@@UAEHW4Call@QMetaObject@@HPAPAX@Z 004601aa f   Qt5Widgets:Qt5Widgets.dll
 0001:0005f1b0       ?qt_metacall@QTextBrowser@@UAEHW4Call@QMetaObject@@HPAPAX@Z 004601b0 f   Qt5Widgets:Qt5Widgets.dll
 0001:0005f1b6       ?qt_metacall@QTextEdit@@UAEHW4Call@QMetaObject@@HPAPAX@Z 004601b6 f   Qt5Widgets:Qt5Widgets.dll
 0001:0005f1bc       ?qt_metacall@QTreeView@@UAEHW4Call@QMetaObject@@HPAPAX@Z 004601bc f   Qt5Widgets:Qt5Widgets.dll
 0001:0005f1c2       ?qt_metacast@QDockWidget@@UAEPAXPBD@Z 004601c2 f   Qt5Widgets:Qt5Widgets.dll
 0001:0005f1c8       ?qt_metacast@QStatusBar@@UAEPAXPBD@Z 004601c8 f   Qt5Widgets:Qt5Widgets.dll
 0001:0005f1ce       ?qt_metacast@QTextBrowser@@UAEPAXPBD@Z 004601ce f   Qt5Widgets:Qt5Widgets.dll
 0001:0005f1d4       ?qt_metacast@QTextEdit@@UAEPAXPBD@Z 004601d4 f   Qt5Widgets:Qt5Widgets.dll
 0001:0005f1da       ?qt_metacast@QTreeView@@UAEPAXPBD@Z 004601da f   Qt5Widgets:Qt5Widgets.dll
 0001:0005f1e0       ?reload@QTextBrowser@@UAEXXZ 004601e0 f   Qt5Widgets:Qt5Widgets.dll
 0001:0005f1e6       ?reset@QTreeView@@UAEXXZ   004601e6 f   Qt5Widgets:Qt5Widgets.dll
 0001:0005f1ec       ?resizeEvent@QStatusBar@@MAEXPAVQResizeEvent@@@Z 004601ec f   Qt5Widgets:Qt5Widgets.dll
 0001:0005f1f2       ?resizeEvent@QTextEdit@@MAEXPAVQResizeEvent@@@Z 004601f2 f   Qt5Widgets:Qt5Widgets.dll
 0001:0005f1f8       ?rowsAboutToBeRemoved@QTreeView@@MAEXABVQModelIndex@@HH@Z 004601f8 f   Qt5Widgets:Qt5Widgets.dll
 0001:0005f1fe       ?rowsInserted@QTreeView@@MAEXABVQModelIndex@@HH@Z 004601fe f   Qt5Widgets:Qt5Widgets.dll
 0001:0005f204       ?scrollContentsBy@QTextEdit@@MAEXHH@Z 00460204 f   Qt5Widgets:Qt5Widgets.dll
 0001:0005f20a       ?scrollContentsBy@QTreeView@@MAEXHH@Z 0046020a f   Qt5Widgets:Qt5Widgets.dll
 0001:0005f210       ?scrollTo@QTreeView@@UAEXABVQModelIndex@@W4ScrollHint@QAbstractItemView@@@Z 00460210 f   Qt5Widgets:Qt5Widgets.dll
 0001:0005f216       ?selectAll@QTreeView@@UAEXXZ 00460216 f   Qt5Widgets:Qt5Widgets.dll
 0001:0005f21c       ?selectedIndexes@QTreeView@@MBE?AV?$QList@VQModelIndex@@@@XZ 0046021c f   Qt5Widgets:Qt5Widgets.dll
 0001:0005f222       ?selectionChanged@QTreeView@@MAEXABVQItemSelection@@0@Z 00460222 f   Qt5Widgets:Qt5Widgets.dll
 0001:0005f228       ?setModel@QTreeView@@UAEXPAVQAbstractItemModel@@@Z 00460228 f   Qt5Widgets:Qt5Widgets.dll
 0001:0005f22e       ?setRootIndex@QTreeView@@UAEXABVQModelIndex@@@Z 0046022e f   Qt5Widgets:Qt5Widgets.dll
 0001:0005f234       ?setSelection@QTreeView@@MAEXABVQRect@@V?$QFlags@W4SelectionFlag@QItemSelectionModel@@@@@Z 00460234 f   Qt5Widgets:Qt5Widgets.dll
 0001:0005f23a       ?setSelectionModel@QTreeView@@UAEXPAVQItemSelectionModel@@@Z 0046023a f   Qt5Widgets:Qt5Widgets.dll
 0001:0005f240       ?setSource@QTextBrowser@@UAEXABVQUrl@@@Z 00460240 f   Qt5Widgets:Qt5Widgets.dll
 0001:0005f246       ?showEvent@QStatusBar@@MAEXPAVQShowEvent@@@Z 00460246 f   Qt5Widgets:Qt5Widgets.dll
 0001:0005f24c       ?showEvent@QTextEdit@@MAEXPAVQShowEvent@@@Z 0046024c f   Qt5Widgets:Qt5Widgets.dll
 0001:0005f252       ?sizeHintForColumn@QTreeView@@MBEHH@Z 00460252 f   Qt5Widgets:Qt5Widgets.dll
 0001:0005f258       ?sizeHintForRow@QAbstractItemView@@UBEHH@Z 00460258 f   Qt5Widgets:Qt5Widgets.dll
 0001:0005f25e       ?timerEvent@QTextEdit@@MAEXPAVQTimerEvent@@@Z 0046025e f   Qt5Widgets:Qt5Widgets.dll
 0001:0005f264       ?timerEvent@QTreeView@@MAEXPAVQTimerEvent@@@Z 00460264 f   Qt5Widgets:Qt5Widgets.dll
 0001:0005f26a       ?updateGeometries@QTreeView@@MAEXXZ 0046026a f   Qt5Widgets:Qt5Widgets.dll
 0001:0005f270       ?verticalOffset@QTreeView@@MBEHXZ 00460270 f   Qt5Widgets:Qt5Widgets.dll
 0001:0005f276       ?verticalScrollbarAction@QAbstractItemView@@MAEXH@Z 00460276 f   Qt5Widgets:Qt5Widgets.dll
 0001:0005f27c       ?verticalScrollbarValueChanged@QTreeView@@MAEXH@Z 0046027c f   Qt5Widgets:Qt5Widgets.dll
 0001:0005f282       ?viewOptions@QAbstractItemView@@MBE?AVQStyleOptionViewItem@@XZ 00460282 f   Qt5Widgets:Qt5Widgets.dll
 0001:0005f288       ?viewportEvent@QTreeView@@MAE_NPAVQEvent@@@Z 00460288 f   Qt5Widgets:Qt5Widgets.dll
 0001:0005f28e       ?viewportSizeHint@QTreeView@@MBE?AVQSize@@XZ 0046028e f   Qt5Widgets:Qt5Widgets.dll
 0001:0005f294       ?visualRect@QTreeView@@UBE?AVQRect@@ABVQModelIndex@@@Z 00460294 f   Qt5Widgets:Qt5Widgets.dll
 0001:0005f29a       ?visualRegionForSelection@QTreeView@@MBE?AVQRegion@@ABVQItemSelection@@@Z 0046029a f   Qt5Widgets:Qt5Widgets.dll
 0001:0005f2a0       ?wheelEvent@QTextEdit@@MAEXPAVQWheelEvent@@@Z 004602a0 f   Qt5Widgets:Qt5Widgets.dll
 0001:0005f2a6       ?changeEvent@QGroupBox@@MAEXPAVQEvent@@@Z 004602a6 f   Qt5Widgets:Qt5Widgets.dll
 0001:0005f2ac       ?childEvent@QGroupBox@@MAEXPAVQChildEvent@@@Z 004602ac f   Qt5Widgets:Qt5Widgets.dll
 0001:0005f2b2       ?event@QGroupBox@@MAE_NPAVQEvent@@@Z 004602b2 f   Qt5Widgets:Qt5Widgets.dll
 0001:0005f2b8       ?focusInEvent@QGroupBox@@MAEXPAVQFocusEvent@@@Z 004602b8 f   Qt5Widgets:Qt5Widgets.dll
 0001:0005f2be       ?metaObject@QGroupBox@@UBEPBUQMetaObject@@XZ 004602be f   Qt5Widgets:Qt5Widgets.dll
 0001:0005f2c4       ?minimumSizeHint@QGroupBox@@UBE?AVQSize@@XZ 004602c4 f   Qt5Widgets:Qt5Widgets.dll
 0001:0005f2ca       ?mouseMoveEvent@QGroupBox@@MAEXPAVQMouseEvent@@@Z 004602ca f   Qt5Widgets:Qt5Widgets.dll
 0001:0005f2d0       ?mousePressEvent@QGroupBox@@MAEXPAVQMouseEvent@@@Z 004602d0 f   Qt5Widgets:Qt5Widgets.dll
 0001:0005f2d6       ?mouseReleaseEvent@QGroupBox@@MAEXPAVQMouseEvent@@@Z 004602d6 f   Qt5Widgets:Qt5Widgets.dll
 0001:0005f2dc       ?paintEvent@QGroupBox@@MAEXPAVQPaintEvent@@@Z 004602dc f   Qt5Widgets:Qt5Widgets.dll
 0001:0005f2e2       ?qt_metacall@QGroupBox@@UAEHW4Call@QMetaObject@@HPAPAX@Z 004602e2 f   Qt5Widgets:Qt5Widgets.dll
 0001:0005f2e8       ?qt_metacast@QGroupBox@@UAEPAXPBD@Z 004602e8 f   Qt5Widgets:Qt5Widgets.dll
 0001:0005f2ee       ?resizeEvent@QGroupBox@@MAEXPAVQResizeEvent@@@Z 004602ee f   Qt5Widgets:Qt5Widgets.dll
 0001:0005f2f4       ?fixup@QValidator@@UBEXAAVQString@@@Z 004602f4 f   Qt5Gui:Qt5Gui.dll
 0001:0005f2fa       ?metaObject@QRegExpValidator@@UBEPBUQMetaObject@@XZ 004602fa f   Qt5Gui:Qt5Gui.dll
 0001:0005f300       ?qt_metacall@QRegExpValidator@@UAEHW4Call@QMetaObject@@HPAPAX@Z 00460300 f   Qt5Gui:Qt5Gui.dll
 0001:0005f306       ?qt_metacast@QRegExpValidator@@UAEPAXPBD@Z 00460306 f   Qt5Gui:Qt5Gui.dll
 0001:0005f30c       ?validate@QRegExpValidator@@UBE?AW4State@QValidator@@AAVQString@@AAH@Z 0046030c f   Qt5Gui:Qt5Gui.dll
 0001:0005f312       ?metaObject@QWebSocket@@UBEPBUQMetaObject@@XZ 00460312 f   Qt5WebSockets:Qt5WebSockets.dll
 0001:0005f318       ?qt_metacall@QWebSocket@@UAEHW4Call@QMetaObject@@HPAPAX@Z 00460318 f   Qt5WebSockets:Qt5WebSockets.dll
 0001:0005f31e       ?qt_metacast@QWebSocket@@UAEPAXPBD@Z 0046031e f   Qt5WebSockets:Qt5WebSockets.dll
 0001:0005f324       ?setReadBufferSize@QAbstractSocket@@UAEX_J@Z 00460324 f   Qt5Network:Qt5Network.dll
 0001:0005f32a       ?setSocketOption@QAbstractSocket@@UAEXW4SocketOption@1@ABVQVariant@@@Z 0046032a f   Qt5Network:Qt5Network.dll
 0001:0005f330       ?atEnd@QAbstractSocket@@UBE_NXZ 00460330 f   Qt5Network:Qt5Network.dll
 0001:0005f336       ?bytesAvailable@QAbstractSocket@@UBE_JXZ 00460336 f   Qt5Network:Qt5Network.dll
 0001:0005f33c       ?bytesToWrite@QAbstractSocket@@UBE_JXZ 0046033c f   Qt5Network:Qt5Network.dll
 0001:0005f342       ?canReadLine@QAbstractSocket@@UBE_NXZ 00460342 f   Qt5Network:Qt5Network.dll
 0001:0005f348       ?close@QAbstractSocket@@UAEXXZ 00460348 f   Qt5Network:Qt5Network.dll
 0001:0005f34e       ?connectToHost@QAbstractSocket@@UAEXABVQHostAddress@@GV?$QFlags@W4OpenModeFlag@QIODevice@@@@@Z 0046034e f   Qt5Network:Qt5Network.dll
 0001:0005f354       ?connectToHost@QAbstractSocket@@UAEXABVQString@@GV?$QFlags@W4OpenModeFlag@QIODevice@@@@W4NetworkLayerProtocol@1@@Z 00460354 f   Qt5Network:Qt5Network.dll
 0001:0005f35a       ?disconnectFromHost@QAbstractSocket@@UAEXXZ 0046035a f   Qt5Network:Qt5Network.dll
 0001:0005f360       ?isSequential@QAbstractSocket@@UBE_NXZ 00460360 f   Qt5Network:Qt5Network.dll
 0001:0005f366       ?readData@QAbstractSocket@@MAE_JPAD_J@Z 00460366 f   Qt5Network:Qt5Network.dll
 0001:0005f36c       ?readLineData@QAbstractSocket@@MAE_JPAD_J@Z 0046036c f   Qt5Network:Qt5Network.dll
 0001:0005f372       ?resume@QAbstractSocket@@UAEXXZ 00460372 f   Qt5Network:Qt5Network.dll
 0001:0005f378       ?setSocketDescriptor@QAbstractSocket@@UAE_NHW4SocketState@1@V?$QFlags@W4OpenModeFlag@QIODevice@@@@@Z 00460378 f   Qt5Network:Qt5Network.dll
 0001:0005f37e       ?socketDescriptor@QAbstractSocket@@UBEHXZ 0046037e f   Qt5Network:Qt5Network.dll
 0001:0005f384       ?socketOption@QAbstractSocket@@UAE?AVQVariant@@W4SocketOption@1@@Z 00460384 f   Qt5Network:Qt5Network.dll
 0001:0005f38a       ?waitForBytesWritten@QAbstractSocket@@UAE_NH@Z 0046038a f   Qt5Network:Qt5Network.dll
 0001:0005f390       ?waitForConnected@QAbstractSocket@@UAE_NH@Z 00460390 f   Qt5Network:Qt5Network.dll
 0001:0005f396       ?waitForDisconnected@QAbstractSocket@@UAE_NH@Z 00460396 f   Qt5Network:Qt5Network.dll
 0001:0005f39c       ?waitForReadyRead@QAbstractSocket@@UAE_NH@Z 0046039c f   Qt5Network:Qt5Network.dll
 0001:0005f3a2       ?writeData@QAbstractSocket@@MAE_JPBD_J@Z 004603a2 f   Qt5Network:Qt5Network.dll
 0001:0005f3a8       ?hasPendingConnections@QTcpServer@@UBE_NXZ 004603a8 f   Qt5Network:Qt5Network.dll
 0001:0005f3ae       ?nextPendingConnection@QTcpServer@@UAEPAVQTcpSocket@@XZ 004603ae f   Qt5Network:Qt5Network.dll
 0001:0005f3b4       ?canFetchMore@QSqlQueryModel@@UBE_NABVQModelIndex@@@Z 004603b4 f   Qt5Sql:Qt5Sql.dll
 0001:0005f3ba       ?clear@QSqlTableModel@@UAEXXZ 004603ba f   Qt5Sql:Qt5Sql.dll
 0001:0005f3c0       ?columnCount@QSqlQueryModel@@UBEHABVQModelIndex@@@Z 004603c0 f   Qt5Sql:Qt5Sql.dll
 0001:0005f3c6       ?data@QSqlTableModel@@UBE?AVQVariant@@ABVQModelIndex@@H@Z 004603c6 f   Qt5Sql:Qt5Sql.dll
 0001:0005f3cc       ?deleteRowFromTable@QSqlTableModel@@MAE_NH@Z 004603cc f   Qt5Sql:Qt5Sql.dll
 0001:0005f3d2       ?fetchMore@QSqlQueryModel@@UAEXABVQModelIndex@@@Z 004603d2 f   Qt5Sql:Qt5Sql.dll
 0001:0005f3d8       ?flags@QSqlTableModel@@UBE?AV?$QFlags@W4ItemFlag@Qt@@@@ABVQModelIndex@@@Z 004603d8 f   Qt5Sql:Qt5Sql.dll
 0001:0005f3de       ?headerData@QSqlTableModel@@UBE?AVQVariant@@HW4Orientation@Qt@@H@Z 004603de f   Qt5Sql:Qt5Sql.dll
 0001:0005f3e4       ?indexInQuery@QSqlTableModel@@MBE?AVQModelIndex@@ABV2@@Z 004603e4 f   Qt5Sql:Qt5Sql.dll
 0001:0005f3ea       ?insertColumns@QSqlQueryModel@@UAE_NHHABVQModelIndex@@@Z 004603ea f   Qt5Sql:Qt5Sql.dll
 0001:0005f3f0       ?insertRowIntoTable@QSqlTableModel@@MAE_NABVQSqlRecord@@@Z 004603f0 f   Qt5Sql:Qt5Sql.dll
 0001:0005f3f6       ?insertRows@QSqlTableModel@@UAE_NHHABVQModelIndex@@@Z 004603f6 f   Qt5Sql:Qt5Sql.dll
 0001:0005f3fc       ?metaObject@QSqlTableModel@@UBEPBUQMetaObject@@XZ 004603fc f   Qt5Sql:Qt5Sql.dll
 0001:0005f402       ?orderByClause@QSqlTableModel@@MBE?AVQString@@XZ 00460402 f   Qt5Sql:Qt5Sql.dll
 0001:0005f408       ?qt_metacall@QSqlTableModel@@UAEHW4Call@QMetaObject@@HPAPAX@Z 00460408 f   Qt5Sql:Qt5Sql.dll
 0001:0005f40e       ?qt_metacast@QSqlTableModel@@UAEPAXPBD@Z 0046040e f   Qt5Sql:Qt5Sql.dll
 0001:0005f414       ?queryChange@QSqlQueryModel@@MAEXXZ 00460414 f   Qt5Sql:Qt5Sql.dll
 0001:0005f41a       ?removeColumns@QSqlTableModel@@UAE_NHHABVQModelIndex@@@Z 0046041a f   Qt5Sql:Qt5Sql.dll
 0001:0005f420       ?removeRows@QSqlTableModel@@UAE_NHHABVQModelIndex@@@Z 00460420 f   Qt5Sql:Qt5Sql.dll
 0001:0005f426       ?revert@QSqlTableModel@@UAEXXZ 00460426 f   Qt5Sql:Qt5Sql.dll
 0001:0005f42c       ?revertRow@QSqlTableModel@@UAEXH@Z 0046042c f   Qt5Sql:Qt5Sql.dll
 0001:0005f432       ?roleNames@QSqlQueryModel@@UBE?AV?$QHash@HVQByteArray@@@@XZ 00460432 f   Qt5Sql:Qt5Sql.dll
 0001:0005f438       ?rowCount@QSqlTableModel@@UBEHABVQModelIndex@@@Z 00460438 f   Qt5Sql:Qt5Sql.dll
 0001:0005f43e       ?select@QSqlTableModel@@UAE_NXZ 0046043e f   Qt5Sql:Qt5Sql.dll
 0001:0005f444       ?selectRow@QSqlTableModel@@UAE_NH@Z 00460444 f   Qt5Sql:Qt5Sql.dll
 0001:0005f44a       ?selectStatement@QSqlTableModel@@MBE?AVQString@@XZ 0046044a f   Qt5Sql:Qt5Sql.dll
 0001:0005f450       ?setData@QSqlTableModel@@UAE_NABVQModelIndex@@ABVQVariant@@H@Z 00460450 f   Qt5Sql:Qt5Sql.dll
 0001:0005f456       ?setEditStrategy@QSqlTableModel@@UAEXW4EditStrategy@1@@Z 00460456 f   Qt5Sql:Qt5Sql.dll
 0001:0005f45c       ?setFilter@QSqlTableModel@@UAEXABVQString@@@Z 0046045c f   Qt5Sql:Qt5Sql.dll
 0001:0005f462       ?setHeaderData@QSqlQueryModel@@UAE_NHW4Orientation@Qt@@ABVQVariant@@H@Z 00460462 f   Qt5Sql:Qt5Sql.dll
 0001:0005f468       ?setSort@QSqlTableModel@@UAEXHW4SortOrder@Qt@@@Z 00460468 f   Qt5Sql:Qt5Sql.dll
 0001:0005f46e       ?setTable@QSqlTableModel@@UAEXABVQString@@@Z 0046046e f   Qt5Sql:Qt5Sql.dll
 0001:0005f474       ?sort@QSqlTableModel@@UAEXHW4SortOrder@Qt@@@Z 00460474 f   Qt5Sql:Qt5Sql.dll
 0001:0005f47a       ?submit@QSqlTableModel@@UAE_NXZ 0046047a f   Qt5Sql:Qt5Sql.dll
 0001:0005f480       ?updateRowInTable@QSqlTableModel@@MAE_NHABVQSqlRecord@@@Z 00460480 f   Qt5Sql:Qt5Sql.dll
 0001:0005f486       ?close@QFileDevice@@UAEXXZ 00460486 f   Qt5Core:Qt5Core.dll
 0001:0005f48c       ?open@QFile@@UAE_NV?$QFlags@W4OpenModeFlag@QIODevice@@@@@Z 0046048c f   Qt5Core:Qt5Core.dll
 0001:0005f492       ?atEnd@QFileDevice@@UBE_NXZ 00460492 f   Qt5Core:Qt5Core.dll
 0001:0005f498       ?bytesAvailable@QIODevice@@UBE_JXZ 00460498 f   Qt5Core:Qt5Core.dll
 0001:0005f49e       ?bytesToWrite@QIODevice@@UBE_JXZ 0046049e f   Qt5Core:Qt5Core.dll
 0001:0005f4a4       ?canReadLine@QIODevice@@UBE_NXZ 004604a4 f   Qt5Core:Qt5Core.dll
 0001:0005f4aa       ?childEvent@QObject@@MAEXPAVQChildEvent@@@Z 004604aa f   Qt5Core:Qt5Core.dll
 0001:0005f4b0       ?connectNotify@QObject@@MAEXABVQMetaMethod@@@Z 004604b0 f   Qt5Core:Qt5Core.dll
 0001:0005f4b6       ?customEvent@QObject@@MAEXPAVQEvent@@@Z 004604b6 f   Qt5Core:Qt5Core.dll
 0001:0005f4bc       ?disconnectNotify@QObject@@MAEXABVQMetaMethod@@@Z 004604bc f   Qt5Core:Qt5Core.dll
 0001:0005f4c2       ?event@QObject@@UAE_NPAVQEvent@@@Z 004604c2 f   Qt5Core:Qt5Core.dll
 0001:0005f4c8       ?eventFilter@QObject@@UAE_NPAV1@PAVQEvent@@@Z 004604c8 f   Qt5Core:Qt5Core.dll
 0001:0005f4ce       ?fileName@QFile@@UBE?AVQString@@XZ 004604ce f   Qt5Core:Qt5Core.dll
 0001:0005f4d4       ?isSequential@QFileDevice@@UBE_NXZ 004604d4 f   Qt5Core:Qt5Core.dll
 0001:0005f4da       ?metaObject@QFile@@UBEPBUQMetaObject@@XZ 004604da f   Qt5Core:Qt5Core.dll
 0001:0005f4e0       ?permissions@QFile@@UBE?AV?$QFlags@W4Permission@QFileDevice@@@@XZ 004604e0 f   Qt5Core:Qt5Core.dll
 0001:0005f4e6       ?pos@QFileDevice@@UBE_JXZ  004604e6 f   Qt5Core:Qt5Core.dll
 0001:0005f4ec       ?qt_metacall@QFile@@UAEHW4Call@QMetaObject@@HPAPAX@Z 004604ec f   Qt5Core:Qt5Core.dll
 0001:0005f4f2       ?qt_metacast@QFile@@UAEPAXPBD@Z 004604f2 f   Qt5Core:Qt5Core.dll
 0001:0005f4f8       ?readData@QFileDevice@@MAE_JPAD_J@Z 004604f8 f   Qt5Core:Qt5Core.dll
 0001:0005f4fe       ?readLineData@QFileDevice@@MAE_JPAD_J@Z 004604fe f   Qt5Core:Qt5Core.dll
 0001:0005f504       ?reset@QIODevice@@UAE_NXZ  00460504 f   Qt5Core:Qt5Core.dll
 0001:0005f50a       ?resize@QFile@@UAE_N_J@Z   0046050a f   Qt5Core:Qt5Core.dll
 0001:0005f510       ?seek@QFileDevice@@UAE_N_J@Z 00460510 f   Qt5Core:Qt5Core.dll
 0001:0005f516       ?setPermissions@QFile@@UAE_NV?$QFlags@W4Permission@QFileDevice@@@@@Z 00460516 f   Qt5Core:Qt5Core.dll
 0001:0005f51c       ?size@QFile@@UBE_JXZ       0046051c f   Qt5Core:Qt5Core.dll
 0001:0005f522       ?timerEvent@QObject@@MAEXPAVQTimerEvent@@@Z 00460522 f   Qt5Core:Qt5Core.dll
 0001:0005f528       ?waitForBytesWritten@QIODevice@@UAE_NH@Z 00460528 f   Qt5Core:Qt5Core.dll
 0001:0005f52e       ?waitForReadyRead@QIODevice@@UAE_NH@Z 0046052e f   Qt5Core:Qt5Core.dll
 0001:0005f534       ?writeData@QFileDevice@@MAE_JPBD_J@Z 00460534 f   Qt5Core:Qt5Core.dll
 0001:0005f53a       ?open@QIODevice@@UAE_NV?$QFlags@W4OpenModeFlag@QIODevice@@@@@Z 0046053a f   Qt5Core:Qt5Core.dll
 0001:0005f540       ?pos@QIODevice@@UBE_JXZ    00460540 f   Qt5Core:Qt5Core.dll
 0001:0005f546       ?seek@QIODevice@@UAE_N_J@Z 00460546 f   Qt5Core:Qt5Core.dll
 0001:0005f54c       ?size@QIODevice@@UBE_JXZ   0046054c f   Qt5Core:Qt5Core.dll
 0001:0005f552       ?event@QThread@@UAE_NPAVQEvent@@@Z 00460552 f   Qt5Core:Qt5Core.dll
 0001:0005f558       ?metaObject@QThread@@UBEPBUQMetaObject@@XZ 00460558 f   Qt5Core:Qt5Core.dll
 0001:0005f55e       ?qt_metacall@QThread@@UAEHW4Call@QMetaObject@@HPAPAX@Z 0046055e f   Qt5Core:Qt5Core.dll
 0001:0005f564       ?qt_metacast@QThread@@UAEPAXPBD@Z 00460564 f   Qt5Core:Qt5Core.dll
 0001:0005f56a       ?run@QThread@@MAEXXZ       0046056a f   Qt5Core:Qt5Core.dll
 0001:0005f570       ?buddy@QAbstractItemModel@@UBE?AVQModelIndex@@ABV2@@Z 00460570 f   Qt5Core:Qt5Core.dll
 0001:0005f576       ?canDropMimeData@QAbstractItemModel@@UBE_NPBVQMimeData@@W4DropAction@Qt@@HHABVQModelIndex@@@Z 00460576 f   Qt5Core:Qt5Core.dll
 0001:0005f57c       ?dropMimeData@QAbstractTableModel@@UAE_NPBVQMimeData@@W4DropAction@Qt@@HHABVQModelIndex@@@Z 0046057c f   Qt5Core:Qt5Core.dll
 0001:0005f582       ?hasChildren@QAbstractTableModel@@EBE_NABVQModelIndex@@@Z 00460582 f   Qt5Core:Qt5Core.dll
 0001:0005f588       ?index@QAbstractTableModel@@UBE?AVQModelIndex@@HHABV2@@Z 00460588 f   Qt5Core:Qt5Core.dll
 0001:0005f58e       ?itemData@QAbstractItemModel@@UBE?AV?$QMap@HVQVariant@@@@ABVQModelIndex@@@Z 0046058e f   Qt5Core:Qt5Core.dll
 0001:0005f594       ?match@QAbstractItemModel@@UBE?AV?$QList@VQModelIndex@@@@ABVQModelIndex@@HABVQVariant@@HV?$QFlags@W4MatchFlag@Qt@@@@@Z 00460594 f   Qt5Core:Qt5Core.dll
 0001:0005f59a       ?mimeData@QAbstractItemModel@@UBEPAVQMimeData@@ABV?$QList@VQModelIndex@@@@@Z 0046059a f   Qt5Core:Qt5Core.dll
 0001:0005f5a0       ?mimeTypes@QAbstractItemModel@@UBE?AVQStringList@@XZ 004605a0 f   Qt5Core:Qt5Core.dll
 0001:0005f5a6       ?moveColumns@QAbstractItemModel@@UAE_NABVQModelIndex@@HH0H@Z 004605a6 f   Qt5Core:Qt5Core.dll
 0001:0005f5ac       ?moveRows@QAbstractItemModel@@UAE_NABVQModelIndex@@HH0H@Z 004605ac f   Qt5Core:Qt5Core.dll
 0001:0005f5b2       ?parent@QAbstractTableModel@@EBE?AVQModelIndex@@ABV2@@Z 004605b2 f   Qt5Core:Qt5Core.dll
 0001:0005f5b8       ?setItemData@QAbstractItemModel@@UAE_NABVQModelIndex@@ABV?$QMap@HVQVariant@@@@@Z 004605b8 f   Qt5Core:Qt5Core.dll
 0001:0005f5be       ?sibling@QAbstractTableModel@@UBE?AVQModelIndex@@HHABV2@@Z 004605be f   Qt5Core:Qt5Core.dll
 0001:0005f5c4       ?span@QAbstractItemModel@@UBE?AVQSize@@ABVQModelIndex@@@Z 004605c4 f   Qt5Core:Qt5Core.dll
 0001:0005f5ca       ?supportedDragActions@QAbstractItemModel@@UBE?AV?$QFlags@W4DropAction@Qt@@@@XZ 004605ca f   Qt5Core:Qt5Core.dll
 0001:0005f5d0       ?supportedDropActions@QAbstractItemModel@@UBE?AV?$QFlags@W4DropAction@Qt@@@@XZ 004605d0 f   Qt5Core:Qt5Core.dll
 0001:0005f5d6       ?qRegisterResourceData@@YA_NHPBE00@Z 004605d6 f   Qt5Core:Qt5Core.dll
 0001:0005f5dc       ?qUnregisterResourceData@@YA_NHPBE00@Z 004605dc f   Qt5Core:Qt5Core.dll
 0001:0005f5e2       ??_L@YGXPAXIIP6EX0@Z1@Z    004605e2 f   MSVCRT:ehvecctr.obj
 0001:0005f656       ??_M@YGXPAXIIP6EX0@Z@Z     00460656 f   MSVCRT:ehvecdtr.obj
 0001:0005f6db       ?__ArrayUnwind@@YGXPAXIIP6EX0@Z@Z 004606db f   MSVCRT:ehvecdtr.obj
 0001:0005f76b       ??2@YAPAXI@Z               0046076b f   MSVCRT:new_scalar.obj
 0001:0005f79b       ??3@YAXPAXI@Z              0046079b f   MSVCRT:delete_scalar_size.obj
 0001:0005f7a9       ??_U@YAPAXI@Z              004607a9 f   MSVCRT:new_array.obj
 0001:0005f7b2       ??_V@YAXPAX@Z              004607b2 f   MSVCRT:delete_array.obj
 0001:0005f7b7       ??_V@YAXPAXI@Z             004607b7 f   MSVCRT:delete_array_size.obj
 0001:0005f809       ___scrt_acquire_startup_lock 00460809 f   MSVCRT:utility.obj
 0001:0005f83b       ___scrt_initialize_crt     0046083b f   MSVCRT:utility.obj
 0001:0005f874       ___scrt_initialize_onexit_tables 00460874 f   MSVCRT:utility.obj
 0001:0005f8fb       ___scrt_is_nonwritable_in_current_image 004608fb f   MSVCRT:utility.obj
 0001:0005f98f       ___scrt_release_startup_lock 0046098f f   MSVCRT:utility.obj
 0001:0005f9ac       ___scrt_uninitialize_crt   004609ac f   MSVCRT:utility.obj
 0001:0005f9d4       __onexit                   004609d4 f   MSVCRT:utility.obj
 0001:0005fa01       _atexit                    00460a01 f   MSVCRT:utility.obj
 0001:0005fa16       @__security_check_cookie@4 00460a16 f   MSVCRT:secchk.obj
 0001:0005fa27       ??_Etype_info@@UAEPAXI@Z   00460a27 f i MSVCRT:std_type_info_static.obj
 0001:0005fa27       ??_Gtype_info@@UAEPAXI@Z   00460a27 f i MSVCRT:std_type_info_static.obj
 0001:0005fb0f       __Init_thread_abort        00460b0f f   MSVCRT:thread_safe_statics.obj
 0001:0005fb33       __Init_thread_footer       00460b33 f   MSVCRT:thread_safe_statics.obj
 0001:0005fb7d       __Init_thread_header       00460b7d f   MSVCRT:thread_safe_statics.obj
 0001:0005fbcf       __Init_thread_notify       00460bcf f   MSVCRT:thread_safe_statics.obj
 0001:0005fc05       __Init_thread_wait         00460c05 f   MSVCRT:thread_safe_statics.obj
 0001:0005fc53       ??3@YAXPAX@Z               00460c53 f   MSVCRT:delete_scalar.obj
 0001:0005fc60       __ftoui3                   00460c60 f   MSVCRT:ftol3.obj
 0001:0005fca6       __ftoul3                   00460ca6 f   MSVCRT:ftol3.obj
 0001:0005fd18       __ftol3                    00460d18 f   MSVCRT:ftol3.obj
 0001:0005fd85       __dtoui3                   00460d85 f   MSVCRT:ftol3.obj
 0001:0005fdf9       __dtoul3                   00460df9 f   MSVCRT:ftol3.obj
 0001:0005fe9b       __dtol3                    00460e9b f   MSVCRT:ftol3.obj
 0001:0005ff50       __ultod3                   00460f50 f   MSVCRT:ftol3.obj
 0001:0005ffb0       __ltod3                    00460fb0 f   MSVCRT:ftol3.obj
 0001:00060232       _WinMainCRTStartup         00461232 f   MSVCRT:exe_winmain.obj
 0001:00060240       __SEH_prolog4              00461240 f   MSVCRT:sehprolg4.obj
 0001:00060286       __SEH_epilog4              00461286 f   MSVCRT:sehprolg4.obj
 0001:0006029b       __except_handler4          0046129b f   MSVCRT:chandler4gs.obj
 0001:000602ca       ??0bad_alloc@std@@QAE@ABV01@@Z 004612ca f i MSVCRT:throw_bad_alloc.obj
 0001:000602e5       ??0bad_alloc@std@@QAE@XZ   004612e5 f i MSVCRT:throw_bad_alloc.obj
 0001:000602fd       ??0bad_array_new_length@std@@QAE@ABV01@@Z 004612fd f i MSVCRT:throw_bad_alloc.obj
 0001:00060318       ??0bad_array_new_length@std@@QAE@XZ 00461318 f i MSVCRT:throw_bad_alloc.obj
 0001:00060330       ??0exception@std@@QAE@ABV01@@Z 00461330 f i MSVCRT:throw_bad_alloc.obj
 0001:0006035c       ??1bad_array_new_length@std@@UAE@XZ 0046135c f i MSVCRT:throw_bad_alloc.obj
 0001:0006035c       ??1bad_alloc@std@@UAE@XZ   0046135c f i MSVCRT:throw_bad_alloc.obj
 0001:0006036d       ??_Eexception@std@@UAEPAXI@Z 0046136d f i MSVCRT:throw_bad_alloc.obj
 0001:0006036d       ??_Gbad_alloc@std@@UAEPAXI@Z 0046136d f i MSVCRT:throw_bad_alloc.obj
 0001:0006036d       ??_Ebad_alloc@std@@UAEPAXI@Z 0046136d f i MSVCRT:throw_bad_alloc.obj
 0001:0006036d       ??_Ebad_array_new_length@std@@UAEPAXI@Z 0046136d f i MSVCRT:throw_bad_alloc.obj
 0001:0006036d       ??_Gbad_array_new_length@std@@UAEPAXI@Z 0046136d f i MSVCRT:throw_bad_alloc.obj
 0001:0006036d       ??_Gexception@std@@UAEPAXI@Z 0046136d f i MSVCRT:throw_bad_alloc.obj
 0001:0006039a       ?__scrt_throw_std_bad_alloc@@YAXXZ 0046139a f   MSVCRT:throw_bad_alloc.obj
 0001:000603b7       ?__scrt_throw_std_bad_array_new_length@@YAXXZ 004613b7 f   MSVCRT:throw_bad_alloc.obj
 0001:000603d4       ?what@exception@std@@UBEPBDXZ 004613d4 f i MSVCRT:throw_bad_alloc.obj
 0001:000603e1       ___isa_available_init      004613e1 f   MSVCRT:cpu_disp.obj
 0001:000605a1       __get_startup_argv_mode    004615a1 f   MSVCRT:argv_mode.obj
 0001:000605a5       ___scrt_is_ucrt_dll_in_use 004615a5 f   MSVCRT:ucrt_detection.obj
 0001:000605b1       ___scrt_fastfail           004615b1 f   MSVCRT:utility_desktop.obj
 0001:000606cb       ___scrt_get_show_window_mode 004616cb f   MSVCRT:utility_desktop.obj
 0001:000606fc       ___scrt_initialize_mta     004616fc f   MSVCRT:utility_desktop.obj
 0001:00060701       ___scrt_is_managed_app     00461701 f   MSVCRT:utility_desktop.obj
 0001:00060744       ___scrt_set_unhandled_exception_filter 00461744 f   MSVCRT:utility_desktop.obj
 0001:00060750       ___scrt_unhandled_exception_filter@4 00461750 f   MSVCRT:utility_desktop.obj
 0001:000607a6       __crt_debugger_hook        004617a6 f   MSVCRT:utility_desktop.obj
 0001:000607ae       ___raise_securityfailure   004617ae f   MSVCRT:gs_report.obj
 0001:000607d6       ___report_gsfailure        004617d6 f   MSVCRT:gs_report.obj
 0001:0006091c       ___security_init_cookie    0046191c f   MSVCRT:gs_support.obj
 0001:00060967       __get_startup_file_mode    00461967 f   MSVCRT:file_mode.obj
 0001:0006096d       ?__scrt_initialize_type_info@@YAXXZ 0046196d f   MSVCRT:tncleanup.obj
 0001:00060979       ___scrt_stub_for_acrt_initialize 00461979 f   MSVCRT:ucrt_stubs.obj
 0001:00060979       ___vcrt_uninitialize       00461979 f   MSVCRT:ucrt_stubs.obj
 0001:00060979       ___acrt_initialize         00461979 f   MSVCRT:ucrt_stubs.obj
 0001:00060979       ___acrt_uninitialize       00461979 f   MSVCRT:ucrt_stubs.obj
 0001:00060979       ___scrt_stub_for_acrt_uninitialize 00461979 f   MSVCRT:ucrt_stubs.obj
 0001:00060979       ___vcrt_initialize         00461979 f   MSVCRT:ucrt_stubs.obj
 0001:00060979       __should_initialize_environment 00461979 f   MSVCRT:env_mode.obj
 0001:0006097c       __initialize_default_precision 0046197c f   MSVCRT:default_precision.obj
 0001:0006099d       ___local_stdio_printf_options 0046199d f i MSVCRT:default_local_stdio_options.obj
 0001:000609a3       ___local_stdio_scanf_options 004619a3 f i MSVCRT:default_local_stdio_options.obj
 0001:000609a9       ___scrt_initialize_default_local_stdio_options 004619a9 f   MSVCRT:default_local_stdio_options.obj
 0001:000609c6       ___scrt_is_user_matherr_present 004619c6 f   MSVCRT:matherr_detection.obj
 0001:000609d2       ___scrt_get_dyn_tls_init_callback 004619d2 f   MSVCRT:dyn_tls_init.obj
 0001:000609d8       ___scrt_get_dyn_tls_dtor_callback 004619d8 f   MSVCRT:dyn_tls_dtor.obj
 0001:000609de       __RTC_Initialize           004619de f   MSVCRT:initsect.obj
 0001:00060a0a       __RTC_Terminate            00461a0a f   MSVCRT:initsect.obj
 0001:00060a36       _MiniDumpWriteDump@28      00461a36 f   Dbghelp:dbghelp.dll
 0001:00060a3c       _IsProcessorFeaturePresent@4 00461a3c f   kernel32:KERNEL32.dll
 0001:00060a42       ___std_terminate           00461a42 f   vcruntime:VCRUNTIME140.dll
 0001:00060a48       __CxxThrowException@8      00461a48 f   vcruntime:VCRUNTIME140.dll
 0001:00060a4e       ___CxxFrameHandler3        00461a4e f   vcruntime:VCRUNTIME140.dll
 0001:00060a54       _memcpy                    00461a54 f   vcruntime:VCRUNTIME140.dll
 0001:00060a5a       _memset                    00461a5a f   vcruntime:VCRUNTIME140.dll
 0001:00060a60       _memchr                    00461a60 f   vcruntime:VCRUNTIME140.dll
 0001:00060a66       ___current_exception       00461a66 f   vcruntime:VCRUNTIME140.dll
 0001:00060a6c       ___current_exception_context 00461a6c f   vcruntime:VCRUNTIME140.dll
 0001:00060a72       __except_handler4_common   00461a72 f   vcruntime:VCRUNTIME140.dll
 0001:00060a78       ___std_exception_copy      00461a78 f   vcruntime:VCRUNTIME140.dll
 0001:00060a7e       ___std_exception_destroy   00461a7e f   vcruntime:VCRUNTIME140.dll
 0001:00060a84       _free                      00461a84 f   ucrt:api-ms-win-crt-heap-l1-1-0.dll
 0001:00060a8a       _malloc                    00461a8a f   ucrt:api-ms-win-crt-heap-l1-1-0.dll
 0001:00060a90       _terminate                 00461a90 f   ucrt:api-ms-win-crt-runtime-l1-1-0.dll
 0001:00060a96       __callnewh                 00461a96 f   ucrt:api-ms-win-crt-heap-l1-1-0.dll
 0001:00060a9c       __configure_narrow_argv    00461a9c f   ucrt:api-ms-win-crt-runtime-l1-1-0.dll
 0001:00060aa2       __initialize_narrow_environment 00461aa2 f   ucrt:api-ms-win-crt-runtime-l1-1-0.dll
 0001:00060aa8       __initialize_onexit_table  00461aa8 f   ucrt:api-ms-win-crt-runtime-l1-1-0.dll
 0001:00060aae       __register_onexit_function 00461aae f   ucrt:api-ms-win-crt-runtime-l1-1-0.dll
 0001:00060ab4       __crt_atexit               00461ab4 f   ucrt:api-ms-win-crt-runtime-l1-1-0.dll
 0001:00060aba       __cexit                    00461aba f   ucrt:api-ms-win-crt-runtime-l1-1-0.dll
 0001:00060ac0       __seh_filter_exe           00461ac0 f   ucrt:api-ms-win-crt-runtime-l1-1-0.dll
 0001:00060ac6       __set_app_type             00461ac6 f   ucrt:api-ms-win-crt-runtime-l1-1-0.dll
 0001:00060acc       ___setusermatherr          00461acc f   ucrt:api-ms-win-crt-math-l1-1-0.dll
 0001:00060ad2       __get_narrow_winmain_command_line 00461ad2 f   ucrt:api-ms-win-crt-runtime-l1-1-0.dll
 0001:00060ad8       __initterm                 00461ad8 f   ucrt:api-ms-win-crt-runtime-l1-1-0.dll
 0001:00060ade       __initterm_e               00461ade f   ucrt:api-ms-win-crt-runtime-l1-1-0.dll
 0001:00060ae4       _exit                      00461ae4 f   ucrt:api-ms-win-crt-runtime-l1-1-0.dll
 0001:00060aea       __exit                     00461aea f   ucrt:api-ms-win-crt-runtime-l1-1-0.dll
 0001:00060af0       __set_fmode                00461af0 f   ucrt:api-ms-win-crt-stdio-l1-1-0.dll
 0001:00060af6       __c_exit                   00461af6 f   ucrt:api-ms-win-crt-runtime-l1-1-0.dll
 0001:00060afc       __register_thread_local_exe_atexit_callback 00461afc f   ucrt:api-ms-win-crt-runtime-l1-1-0.dll
 0001:00060b02       __configthreadlocale       00461b02 f   ucrt:api-ms-win-crt-locale-l1-1-0.dll
 0001:00060b08       __set_new_mode             00461b08 f   ucrt:api-ms-win-crt-heap-l1-1-0.dll
 0001:00060b0e       ___p__commode              00461b0e f   ucrt:api-ms-win-crt-stdio-l1-1-0.dll
 0001:00060b14       __controlfp_s              00461b14 f   ucrt:api-ms-win-crt-runtime-l1-1-0.dll
 0001:00060b20       _WinMain@16                00461b20 f   qtmain:qtmain_win.obj
 0001:00060c3f       __filter_x86_sse2_floating_point_exception_default 00461c3f f   MSVCRT:x86_exception_filter.obj
 0001:00060c3f       __filter_x86_sse2_floating_point_exception 00461c3f f   MSVCRT:x86_exception_filter.obj
 0001:0006b7a0       ??__Ff@?4??registerConverter@?$ValueTypeIsMetaType@V?$QList@H@@$00@QtPrivate@@SA_NH@Z@YAXXZ 0046c7a0 f i tcpserver.obj
 0001:0006b7f0       ??__Ff@?4??registerConverter@?$ValueTypeIsMetaType@V?$QList@N@@$00@QtPrivate@@SA_NH@Z@YAXXZ 0046c7f0 f i tcpserver.obj
 0001:0006b930       ??__Ff@?4??registerConverter@?$ValueTypeIsMetaType@V?$QList@M@@$00@QtPrivate@@SA_NH@Z@YAXXZ 0046c930 f i daqinfo.obj
 0001:0006b980       ??__Ff@?4??registerConverter@?$ValueTypeIsMetaType@V?$QList@_N@@$00@QtPrivate@@SA_NH@Z@YAXXZ 0046c980 f i daqinfo.obj
 0001:0006bb50       ??__Ff@?4??registerConverter@?$ValueTypeIsMetaType@V?$QVector@N@@$00@QtPrivate@@SA_NH@Z@YAXXZ 0046cb50 f i main.obj
 0001:0006bc20       ??__Ff@?4??registerConverter@?$ValueTypeIsMetaType@V?$QList@E@@$00@QtPrivate@@SA_NH@Z@YAXXZ 0046cc20 f i moc_tcpclient.obj
 0002:00000000       __imp__WideCharToMultiByte@32 0046d000     kernel32:KERNEL32.dll
 0002:00000004       __imp__LocalFree@4         0046d004     kernel32:KERNEL32.dll
 0002:00000008       __imp__GetCommandLineW@0   0046d008     kernel32:KERNEL32.dll
 0002:0000000c       __imp__CreateFileW@28      0046d00c     kernel32:KERNEL32.dll
 0002:00000010       __imp__InitializeSListHead@4 0046d010     kernel32:KERNEL32.dll
 0002:00000014       __imp__GetSystemTimeAsFileTime@4 0046d014     kernel32:KERNEL32.dll
 0002:00000018       __imp__QueryPerformanceCounter@4 0046d018     kernel32:KERNEL32.dll
 0002:0000001c       __imp__TerminateProcess@8  0046d01c     kernel32:KERNEL32.dll
 0002:00000020       __imp__GetStartupInfoW@4   0046d020     kernel32:KERNEL32.dll
 0002:00000024       __imp__UnhandledExceptionFilter@4 0046d024     kernel32:KERNEL32.dll
 0002:00000028       __imp__IsDebuggerPresent@0 0046d028     kernel32:KERNEL32.dll
 0002:0000002c       __imp__IsProcessorFeaturePresent@4 0046d02c     kernel32:KERNEL32.dll
 0002:00000030       __imp__GetModuleHandleW@4  0046d030     kernel32:KERNEL32.dll
 0002:00000034       __imp__CreateEventW@16     0046d034     kernel32:KERNEL32.dll
 0002:00000038       __imp__WaitForSingleObjectEx@12 0046d038     kernel32:KERNEL32.dll
 0002:0000003c       __imp__ResetEvent@4        0046d03c     kernel32:KERNEL32.dll
 0002:00000040       __imp__SetEvent@4          0046d040     kernel32:KERNEL32.dll
 0002:00000044       __imp__DeleteCriticalSection@4 0046d044     kernel32:KERNEL32.dll
 0002:00000048       __imp__InitializeCriticalSectionAndSpinCount@8 0046d048     kernel32:KERNEL32.dll
 0002:0000004c       __imp__LeaveCriticalSection@4 0046d04c     kernel32:KERNEL32.dll
 0002:00000050       __imp__EnterCriticalSection@4 0046d050     kernel32:KERNEL32.dll
 0002:00000054       __imp__SetThreadExecutionState@4 0046d054     kernel32:KERNEL32.dll
 0002:00000058       __imp__LoadLibraryW@4      0046d058     kernel32:KERNEL32.dll
 0002:0000005c       __imp__GetProcAddress@8    0046d05c     kernel32:KERNEL32.dll
 0002:00000060       __imp__WriteProcessMemory@20 0046d060     kernel32:KERNEL32.dll
 0002:00000064       __imp__GetCurrentThreadId@0 0046d064     kernel32:KERNEL32.dll
 0002:00000068       __imp__GetCurrentProcessId@0 0046d068     kernel32:KERNEL32.dll
 0002:0000006c       __imp__GetCurrentProcess@0 0046d06c     kernel32:KERNEL32.dll
 0002:00000070       __imp__SetUnhandledExceptionFilter@4 0046d070     kernel32:KERNEL32.dll
 0002:00000074       __imp__CloseHandle@4       0046d074     kernel32:KERNEL32.dll
 0002:00000078       __imp__Sleep@4             0046d078     kernel32:KERNEL32.dll
 0002:0000007c       \177KERNEL32_NULL_THUNK_DATA 0046d07c     kernel32:KERNEL32.dll
 0002:00000080       __imp_?setItemData@QAbstractItemModel@@UAE_NABVQModelIndex@@ABV?$QMap@HVQVariant@@@@@Z 0046d080     Qt5Core:Qt5Core.dll
 0002:00000084       __imp_??4QString@@QAEAAV0@D@Z 0046d084     Qt5Core:Qt5Core.dll
 0002:00000088       __imp_?activate@QMetaObject@@SAXPAVQObject@@PBU1@HPAPAX@Z 0046d088     Qt5Core:Qt5Core.dll
 0002:0000008c       __imp_?qt_metacall@QObject@@UAEHW4Call@QMetaObject@@HPAPAX@Z 0046d08c     Qt5Core:Qt5Core.dll
 0002:00000090       __imp_?qt_metacast@QObject@@UAEPAXPBD@Z 0046d090     Qt5Core:Qt5Core.dll
 0002:00000094       __imp_?dynamicMetaObject@QObjectData@@QBEPAUQMetaObject@@XZ 0046d094     Qt5Core:Qt5Core.dll
 0002:00000098       __imp_?staticMetaObject@QObject@@2UQMetaObject@@B 0046d098     Qt5Core:Qt5Core.dll
 0002:0000009c       __imp_?qUnregisterResourceData@@YA_NHPBE00@Z 0046d09c     Qt5Core:Qt5Core.dll
 0002:000000a0       __imp_?qRegisterResourceData@@YA_NHPBE00@Z 0046d0a0     Qt5Core:Qt5Core.dll
 0002:000000a4       __imp_?toDouble@QString@@QBENPA_N@Z 0046d0a4     Qt5Core:Qt5Core.dll
 0002:000000a8       __imp_?prepend@QString@@QAEAAV1@PBD@Z 0046d0a8     Qt5Core:Qt5Core.dll
 0002:000000ac       __imp_??4QString@@QAEAAV0@ABVQByteArray@@@Z 0046d0ac     Qt5Core:Qt5Core.dll
 0002:000000b0       __imp_??1QRegExp@@QAE@XZ   0046d0b0     Qt5Core:Qt5Core.dll
 0002:000000b4       __imp_??0QRegExp@@QAE@ABVQString@@W4CaseSensitivity@Qt@@W4PatternSyntax@0@@Z 0046d0b4     Qt5Core:Qt5Core.dll
 0002:000000b8       __imp_?append@QListData@@QAEPAPAXABU1@@Z 0046d0b8     Qt5Core:Qt5Core.dll
 0002:000000bc       __imp_?supportedDropActions@QAbstractItemModel@@UBE?AV?$QFlags@W4DropAction@Qt@@@@XZ 0046d0bc     Qt5Core:Qt5Core.dll
 0002:000000c0       __imp_?supportedDragActions@QAbstractItemModel@@UBE?AV?$QFlags@W4DropAction@Qt@@@@XZ 0046d0c0     Qt5Core:Qt5Core.dll
 0002:000000c4       __imp_?parent@QAbstractTableModel@@EBE?AVQModelIndex@@ABV2@@Z 0046d0c4     Qt5Core:Qt5Core.dll
 0002:000000c8       __imp_?moveRows@QAbstractItemModel@@UAE_NABVQModelIndex@@HH0H@Z 0046d0c8     Qt5Core:Qt5Core.dll
 0002:000000cc       __imp_?moveColumns@QAbstractItemModel@@UAE_NABVQModelIndex@@HH0H@Z 0046d0cc     Qt5Core:Qt5Core.dll
 0002:000000d0       __imp_?mimeTypes@QAbstractItemModel@@UBE?AVQStringList@@XZ 0046d0d0     Qt5Core:Qt5Core.dll
 0002:000000d4       __imp_?mimeData@QAbstractItemModel@@UBEPAVQMimeData@@ABV?$QList@VQModelIndex@@@@@Z 0046d0d4     Qt5Core:Qt5Core.dll
 0002:000000d8       __imp_?match@QAbstractItemModel@@UBE?AV?$QList@VQModelIndex@@@@ABVQModelIndex@@HABVQVariant@@HV?$QFlags@W4MatchFlag@Qt@@@@@Z 0046d0d8     Qt5Core:Qt5Core.dll
 0002:000000dc       __imp_?itemData@QAbstractItemModel@@UBE?AV?$QMap@HVQVariant@@@@ABVQModelIndex@@@Z 0046d0dc     Qt5Core:Qt5Core.dll
 0002:000000e0       __imp_?index@QAbstractTableModel@@UBE?AVQModelIndex@@HHABV2@@Z 0046d0e0     Qt5Core:Qt5Core.dll
 0002:000000e4       __imp_?hasChildren@QAbstractTableModel@@EBE_NABVQModelIndex@@@Z 0046d0e4     Qt5Core:Qt5Core.dll
 0002:000000e8       __imp_?dropMimeData@QAbstractTableModel@@UAE_NPBVQMimeData@@W4DropAction@Qt@@HHABVQModelIndex@@@Z 0046d0e8     Qt5Core:Qt5Core.dll
 0002:000000ec       __imp_?canDropMimeData@QAbstractItemModel@@UBE_NPBVQMimeData@@W4DropAction@Qt@@HHABVQModelIndex@@@Z 0046d0ec     Qt5Core:Qt5Core.dll
 0002:000000f0       __imp_?buddy@QAbstractItemModel@@UBE?AVQModelIndex@@ABV2@@Z 0046d0f0     Qt5Core:Qt5Core.dll
 0002:000000f4       __imp_?createUuid@QUuid@@SA?AV1@XZ 0046d0f4     Qt5Core:Qt5Core.dll
 0002:000000f8       __imp_?toString@QUuid@@QBE?AVQString@@XZ 0046d0f8     Qt5Core:Qt5Core.dll
 0002:000000fc       __imp_?instance@QCoreApplication@@SAPAV1@XZ 0046d0fc     Qt5Core:Qt5Core.dll
 0002:00000100       __imp_?exists@QFileInfo@@QBE_NXZ 0046d100     Qt5Core:Qt5Core.dll
 0002:00000104       __imp_?setPermissions@QFile@@SA_NABVQString@@V?$QFlags@W4Permission@QFileDevice@@@@@Z 0046d104     Qt5Core:Qt5Core.dll
 0002:00000108       __imp_?copy@QFile@@SA_NABVQString@@0@Z 0046d108     Qt5Core:Qt5Core.dll
 0002:0000010c       __imp_?remove@QFile@@SA_NABVQString@@@Z 0046d10c     Qt5Core:Qt5Core.dll
 0002:00000110       __imp_?data@QModelIndex@@QBE?AVQVariant@@H@Z 0046d110     Qt5Core:Qt5Core.dll
 0002:00000114       __imp_??0QModelIndex@@QAE@XZ 0046d114     Qt5Core:Qt5Core.dll
 0002:00000118       __imp_?bottom@QRect@@QBEHXZ 0046d118     Qt5Core:Qt5Core.dll
 0002:0000011c       __imp_?top@QRect@@QBEHXZ   0046d11c     Qt5Core:Qt5Core.dll
 0002:00000120       __imp_?left@QRect@@QBEHXZ  0046d120     Qt5Core:Qt5Core.dll
 0002:00000124       __imp_??0QSize@@QAE@HH@Z   0046d124     Qt5Core:Qt5Core.dll
 0002:00000128       __imp_??0QSize@@QAE@XZ     0046d128     Qt5Core:Qt5Core.dll
 0002:0000012c       __imp_?isEmpty@QListData@@QBE_NXZ 0046d12c     Qt5Core:Qt5Core.dll
 0002:00000130       __imp_?staticMetaObject@QTimer@@2UQMetaObject@@B 0046d130     Qt5Core:Qt5Core.dll
 0002:00000134       __imp_?setObject@QJsonDocument@@QAEXABVQJsonObject@@@Z 0046d134     Qt5Core:Qt5Core.dll
 0002:00000138       __imp_?timeout@QTimer@@QAEXUQPrivateSignal@1@@Z 0046d138     Qt5Core:Qt5Core.dll
 0002:0000013c       __imp_?write@QIODevice@@QAE_JPBD_J@Z 0046d13c     Qt5Core:Qt5Core.dll
 0002:00000140       __imp_??0QRect@@QAE@HHHH@Z 0046d140     Qt5Core:Qt5Core.dll
 0002:00000144       __imp_?sender@QObject@@IBEPAV1@XZ 0046d144     Qt5Core:Qt5Core.dll
 0002:00000148       __imp_?tr@QMetaObject@@QBE?AVQString@@PBD0H@Z 0046d148     Qt5Core:Qt5Core.dll
 0002:0000014c       __imp_?setCodecForLocale@QTextCodec@@SAXPAV1@@Z 0046d14c     Qt5Core:Qt5Core.dll
 0002:00000150       __imp_?codecForName@QTextCodec@@SAPAV1@PBD@Z 0046d150     Qt5Core:Qt5Core.dll
 0002:00000154       __imp_?rename@QFile@@QAE_NABVQString@@@Z 0046d154     Qt5Core:Qt5Core.dll
 0002:00000158       __imp_?remove@QFile@@QAE_NXZ 0046d158     Qt5Core:Qt5Core.dll
 0002:0000015c       __imp_??6QTextStream@@QAEAAV0@PBD@Z 0046d15c     Qt5Core:Qt5Core.dll
 0002:00000160       __imp_??6QTextStream@@QAEAAV0@ABVQString@@@Z 0046d160     Qt5Core:Qt5Core.dll
 0002:00000164       __imp_?setAttribute@QCoreApplication@@SAXW4ApplicationAttribute@Qt@@_N@Z 0046d164     Qt5Core:Qt5Core.dll
 0002:00000168       __imp_?number@QString@@SA?AV1@KH@Z 0046d168     Qt5Core:Qt5Core.dll
 0002:0000016c       __imp_?number@QString@@SA?AV1@IH@Z 0046d16c     Qt5Core:Qt5Core.dll
 0002:00000170       __imp_?qInstallMessageHandler@@YAP6AXW4QtMsgType@@ABVQMessageLogContext@@ABVQString@@@ZP6AX012@Z@Z 0046d170     Qt5Core:Qt5Core.dll
 0002:00000174       __imp_?exit@QThread@@QAEXH@Z 0046d174     Qt5Core:Qt5Core.dll
 0002:00000178       __imp_??1QFileInfo@@QAE@XZ 0046d178     Qt5Core:Qt5Core.dll
 0002:0000017c       __imp_??0QFileInfo@@QAE@ABVQString@@@Z 0046d17c     Qt5Core:Qt5Core.dll
 0002:00000180       __imp_?toString@QVariant@@QBE?AVQString@@XZ 0046d180     Qt5Core:Qt5Core.dll
 0002:00000184       __imp_?toInt@QVariant@@QBEHPA_N@Z 0046d184     Qt5Core:Qt5Core.dll
 0002:00000188       __imp_?toLocal8Bit@QString@@QGBE?AVQByteArray@@XZ 0046d188     Qt5Core:Qt5Core.dll
 0002:0000018c       __imp_?fromBinaryData@QJsonDocument@@SA?AV1@ABVQByteArray@@W4DataValidation@1@@Z 0046d18c     Qt5Core:Qt5Core.dll
 0002:00000190       __imp_?remove@QListData@@QAEXH@Z 0046d190     Qt5Core:Qt5Core.dll
 0002:00000194       __imp_?currentDateTimeUtc@QDateTime@@SA?AV1@XZ 0046d194     Qt5Core:Qt5Core.dll
 0002:00000198       __imp_?toString@QLocale@@QBE?AVQString@@ABVQDateTime@@ABV2@@Z 0046d198     Qt5Core:Qt5Core.dll
 0002:0000019c       __imp_??1QLocale@@QAE@XZ   0046d19c     Qt5Core:Qt5Core.dll
 0002:000001a0       __imp_??0QLocale@@QAE@W4Language@0@W4Country@0@@Z 0046d1a0     Qt5Core:Qt5Core.dll
 0002:000001a4       __imp_?nextNode@QHashData@@SAPAUNode@1@PAU21@@Z 0046d1a4     Qt5Core:Qt5Core.dll
 0002:000001a8       __imp_?compare@QString@@QBEHABV1@W4CaseSensitivity@Qt@@@Z 0046d1a8     Qt5Core:Qt5Core.dll
 0002:000001ac       __imp_?toUtf8@QString@@QGBE?AVQByteArray@@XZ 0046d1ac     Qt5Core:Qt5Core.dll
 0002:000001b0       __imp_?toLatin1@QString@@QHAE?AVQByteArray@@XZ 0046d1b0     Qt5Core:Qt5Core.dll
 0002:000001b4       __imp_?toLatin1@QString@@QGBE?AVQByteArray@@XZ 0046d1b4     Qt5Core:Qt5Core.dll
 0002:000001b8       __imp_?arg@QString@@QBE?AV1@ABV1@HVQChar@@@Z 0046d1b8     Qt5Core:Qt5Core.dll
 0002:000001bc       __imp_??BQByteArray@@QBEPBDXZ 0046d1bc     Qt5Core:Qt5Core.dll
 0002:000001c0       __imp_?warning@QMessageLogger@@QBE?AVQDebug@@XZ 0046d1c0     Qt5Core:Qt5Core.dll
 0002:000001c4       __imp_?path@QUrl@@QBE?AVQString@@V?$QFlags@W4ComponentFormattingOption@QUrl@@@@@Z 0046d1c4     Qt5Core:Qt5Core.dll
 0002:000001c8       __imp_??0QUrl@@QAE@ABVQString@@W4ParsingMode@0@@Z 0046d1c8     Qt5Core:Qt5Core.dll
 0002:000001cc       __imp_?hasShrunk@QHashData@@QAEXXZ 0046d1cc     Qt5Core:Qt5Core.dll
 0002:000001d0       __imp_?freeNode@QHashData@@QAEXPAX@Z 0046d1d0     Qt5Core:Qt5Core.dll
 0002:000001d4       __imp_?shared_null@QHashData@@2U1@B 0046d1d4     Qt5Core:Qt5Core.dll
 0002:000001d8       __imp_?currentThread@QThread@@SAPAV1@XZ 0046d1d8     Qt5Core:Qt5Core.dll
 0002:000001dc       __imp_?insert@QJsonObject@@QAE?AViterator@1@ABVQString@@ABVQJsonValue@@@Z 0046d1dc     Qt5Core:Qt5Core.dll
 0002:000001e0       __imp_?value@QJsonObject@@QBE?AVQJsonValue@@ABVQString@@@Z 0046d1e0     Qt5Core:Qt5Core.dll
 0002:000001e4       __imp_??1QJsonObject@@QAE@XZ 0046d1e4     Qt5Core:Qt5Core.dll
 0002:000001e8       __imp_??0QJsonObject@@QAE@XZ 0046d1e8     Qt5Core:Qt5Core.dll
 0002:000001ec       __imp_?isNull@QJsonDocument@@QBE_NXZ 0046d1ec     Qt5Core:Qt5Core.dll
 0002:000001f0       __imp_?setArray@QJsonDocument@@QAEXABVQJsonArray@@@Z 0046d1f0     Qt5Core:Qt5Core.dll
 0002:000001f4       __imp_?array@QJsonDocument@@QBE?AVQJsonArray@@XZ 0046d1f4     Qt5Core:Qt5Core.dll
 0002:000001f8       __imp_?object@QJsonDocument@@QBE?AVQJsonObject@@XZ 0046d1f8     Qt5Core:Qt5Core.dll
 0002:000001fc       __imp_?isObject@QJsonDocument@@QBE_NXZ 0046d1fc     Qt5Core:Qt5Core.dll
 0002:00000200       __imp_?isArray@QJsonDocument@@QBE_NXZ 0046d200     Qt5Core:Qt5Core.dll
 0002:00000204       __imp_?toJson@QJsonDocument@@QBE?AVQByteArray@@W4JsonFormat@1@@Z 0046d204     Qt5Core:Qt5Core.dll
 0002:00000208       __imp_?fromJson@QJsonDocument@@SA?AV1@ABVQByteArray@@PAUQJsonParseError@@@Z 0046d208     Qt5Core:Qt5Core.dll
 0002:0000020c       __imp_??1QJsonDocument@@QAE@XZ 0046d20c     Qt5Core:Qt5Core.dll
 0002:00000210       __imp_??0QJsonDocument@@QAE@ABVQJsonObject@@@Z 0046d210     Qt5Core:Qt5Core.dll
 0002:00000214       __imp_??0QJsonDocument@@QAE@XZ 0046d214     Qt5Core:Qt5Core.dll
 0002:00000218       __imp_?insert@QJsonArray@@QAEXHABVQJsonValue@@@Z 0046d218     Qt5Core:Qt5Core.dll
 0002:0000021c       __imp_?append@QJsonArray@@QAEXABVQJsonValue@@@Z 0046d21c     Qt5Core:Qt5Core.dll
 0002:00000220       __imp_?at@QJsonArray@@QBE?AVQJsonValue@@H@Z 0046d220     Qt5Core:Qt5Core.dll
 0002:00000224       __imp_?isEmpty@QJsonArray@@QBE_NXZ 0046d224     Qt5Core:Qt5Core.dll
 0002:00000228       __imp_?size@QJsonArray@@QBEHXZ 0046d228     Qt5Core:Qt5Core.dll
 0002:0000022c       __imp_??1QJsonArray@@QAE@XZ 0046d22c     Qt5Core:Qt5Core.dll
 0002:00000230       __imp_??0QJsonArray@@QAE@XZ 0046d230     Qt5Core:Qt5Core.dll
 0002:00000234       __imp_?toObject@QJsonValue@@QBE?AVQJsonObject@@XZ 0046d234     Qt5Core:Qt5Core.dll
 0002:00000238       __imp_?toArray@QJsonValue@@QBE?AVQJsonArray@@XZ 0046d238     Qt5Core:Qt5Core.dll
 0002:0000023c       __imp_?toString@QJsonValue@@QBE?AVQString@@ABV2@@Z 0046d23c     Qt5Core:Qt5Core.dll
 0002:00000240       __imp_?toString@QJsonValue@@QBE?AVQString@@XZ 0046d240     Qt5Core:Qt5Core.dll
 0002:00000244       __imp_?toDouble@QJsonValue@@QBENN@Z 0046d244     Qt5Core:Qt5Core.dll
 0002:00000248       __imp_?toInt@QJsonValue@@QBEHH@Z 0046d248     Qt5Core:Qt5Core.dll
 0002:0000024c       __imp_?type@QJsonValue@@QBE?AW4Type@1@XZ 0046d24c     Qt5Core:Qt5Core.dll
 0002:00000250       __imp_??1QJsonValue@@QAE@XZ 0046d250     Qt5Core:Qt5Core.dll
 0002:00000254       __imp_??0QJsonValue@@QAE@ABVQJsonObject@@@Z 0046d254     Qt5Core:Qt5Core.dll
 0002:00000258       __imp_??0QJsonValue@@QAE@ABVQJsonArray@@@Z 0046d258     Qt5Core:Qt5Core.dll
 0002:0000025c       __imp_??0QJsonValue@@QAE@PBD@Z 0046d25c     Qt5Core:Qt5Core.dll
 0002:00000260       __imp_??0QJsonValue@@QAE@ABVQString@@@Z 0046d260     Qt5Core:Qt5Core.dll
 0002:00000264       __imp_??0QJsonValue@@QAE@H@Z 0046d264     Qt5Core:Qt5Core.dll
 0002:00000268       __imp_??0QJsonValue@@QAE@N@Z 0046d268     Qt5Core:Qt5Core.dll
 0002:0000026c       __imp_?setFragment@QUrl@@QAEXABVQString@@W4ParsingMode@1@@Z 0046d26c     Qt5Core:Qt5Core.dll
 0002:00000270       __imp_?setQuery@QUrl@@QAEXABVQString@@W4ParsingMode@1@@Z 0046d270     Qt5Core:Qt5Core.dll
 0002:00000274       __imp_?setPath@QUrl@@QAEXABVQString@@W4ParsingMode@1@@Z 0046d274     Qt5Core:Qt5Core.dll
 0002:00000278       __imp_?setPort@QUrl@@QAEXH@Z 0046d278     Qt5Core:Qt5Core.dll
 0002:0000027c       __imp_?setHost@QUrl@@QAEXABVQString@@W4ParsingMode@1@@Z 0046d27c     Qt5Core:Qt5Core.dll
 0002:00000280       __imp_?setUserInfo@QUrl@@QAEXABVQString@@W4ParsingMode@1@@Z 0046d280     Qt5Core:Qt5Core.dll
 0002:00000284       __imp_?setScheme@QUrl@@QAEXABVQString@@@Z 0046d284     Qt5Core:Qt5Core.dll
 0002:00000288       __imp_??1QUrl@@QAE@XZ      0046d288     Qt5Core:Qt5Core.dll
 0002:0000028c       __imp_??4QUrl@@QAEAAV0@ABV0@@Z 0046d28c     Qt5Core:Qt5Core.dll
 0002:00000290       __imp_??0QUrl@@QAE@XZ      0046d290     Qt5Core:Qt5Core.dll
 0002:00000294       __imp_?wait@QWaitCondition@@QAE_NPAVQMutex@@K@Z 0046d294     Qt5Core:Qt5Core.dll
 0002:00000298       __imp_??1QWaitCondition@@QAE@XZ 0046d298     Qt5Core:Qt5Core.dll
 0002:0000029c       __imp_??0QWaitCondition@@QAE@XZ 0046d29c     Qt5Core:Qt5Core.dll
 0002:000002a0       __imp_?unlock@QMutex@@QAEXXZ 0046d2a0     Qt5Core:Qt5Core.dll
 0002:000002a4       __imp_?lock@QMutex@@QAEXXZ 0046d2a4     Qt5Core:Qt5Core.dll
 0002:000002a8       __imp_??1QMutex@@QAE@XZ    0046d2a8     Qt5Core:Qt5Core.dll
 0002:000002ac       __imp_??0QMutex@@QAE@W4RecursionMode@0@@Z 0046d2ac     Qt5Core:Qt5Core.dll
 0002:000002b0       __imp_?free_helper@QHashData@@QAEXP6AXPAUNode@1@@Z@Z 0046d2b0     Qt5Core:Qt5Core.dll
 0002:000002b4       __imp_?rehash@QHashData@@QAEXH@Z 0046d2b4     Qt5Core:Qt5Core.dll
 0002:000002b8       __imp_?detach_helper@QHashData@@QAEPAU1@P6AXPAUNode@1@PAX@ZP6AX0@ZHH@Z 0046d2b8     Qt5Core:Qt5Core.dll
 0002:000002bc       __imp_?allocateNode@QHashData@@QAEPAXH@Z 0046d2bc     Qt5Core:Qt5Core.dll
 0002:000002c0       __imp_?qHash@@YAIABVQString@@I@Z 0046d2c0     Qt5Core:Qt5Core.dll
 0002:000002c4       __imp_?fromLatin1@QString@@SA?AV1@PBDH@Z 0046d2c4     Qt5Core:Qt5Core.dll
 0002:000002c8       __imp_?toLower@QString@@QGBE?AV1@XZ 0046d2c8     Qt5Core:Qt5Core.dll
 0002:000002cc       __imp_??0QByteArray@@QAE@PBDH@Z 0046d2cc     Qt5Core:Qt5Core.dll
 0002:000002d0       __imp_?staticMetaObject@QThread@@2UQMetaObject@@B 0046d2d0     Qt5Core:Qt5Core.dll
 0002:000002d4       __imp_?run@QThread@@MAEXXZ 0046d2d4     Qt5Core:Qt5Core.dll
 0002:000002d8       __imp_?qt_metacast@QThread@@UAEPAXPBD@Z 0046d2d8     Qt5Core:Qt5Core.dll
 0002:000002dc       __imp_?qt_metacall@QThread@@UAEHW4Call@QMetaObject@@HPAPAX@Z 0046d2dc     Qt5Core:Qt5Core.dll
 0002:000002e0       __imp_?metaObject@QThread@@UBEPBUQMetaObject@@XZ 0046d2e0     Qt5Core:Qt5Core.dll
 0002:000002e4       __imp_?finished@QThread@@QAEXUQPrivateSignal@1@@Z 0046d2e4     Qt5Core:Qt5Core.dll
 0002:000002e8       __imp_?isRunning@QThread@@QBE_NXZ 0046d2e8     Qt5Core:Qt5Core.dll
 0002:000002ec       __imp_?parent@QObject@@QBEPAV1@XZ 0046d2ec     Qt5Core:Qt5Core.dll
 0002:000002f0       __imp_?moveToThread@QObject@@QAEXPAVQThread@@@Z 0046d2f0     Qt5Core:Qt5Core.dll
 0002:000002f4       __imp_??0QVariant@@QAE@ABVQString@@@Z 0046d2f4     Qt5Core:Qt5Core.dll
 0002:000002f8       __imp_??0QVariant@@QAE@M@Z 0046d2f8     Qt5Core:Qt5Core.dll
 0002:000002fc       __imp_??0QVariant@@QAE@N@Z 0046d2fc     Qt5Core:Qt5Core.dll
 0002:00000300       __imp_?erase@QListData@@QAEPAPAXPAPAX@Z 0046d300     Qt5Core:Qt5Core.dll
 0002:00000304       __imp_?number@QString@@SA?AV1@NDH@Z 0046d304     Qt5Core:Qt5Core.dll
 0002:00000308       __imp_?allocate@QArrayData@@SAPAU1@IIIV?$QFlags@W4AllocationOption@QArrayData@@@@@Z 0046d308     Qt5Core:Qt5Core.dll
 0002:0000030c       __imp_?qBadAlloc@@YAXXZ    0046d30c     Qt5Core:Qt5Core.dll
 0002:00000310       __imp_??0QRect@@QAE@XZ     0046d310     Qt5Core:Qt5Core.dll
 0002:00000314       __imp_?translate@QCoreApplication@@SA?AVQString@@PBD00H@Z 0046d314     Qt5Core:Qt5Core.dll
 0002:00000318       __imp_?setObjectName@QObject@@QAEXABVQString@@@Z 0046d318     Qt5Core:Qt5Core.dll
 0002:0000031c       __imp_?objectName@QObject@@QBE?AVQString@@XZ 0046d31c     Qt5Core:Qt5Core.dll
 0002:00000320       __imp_?connectSlotsByName@QMetaObject@@SAXPAVQObject@@@Z 0046d320     Qt5Core:Qt5Core.dll
 0002:00000324       __imp_?convert@QVariant@@QBE_NHPAX@Z 0046d324     Qt5Core:Qt5Core.dll
 0002:00000328       __imp_?constData@QVariant@@QBEPBXXZ 0046d328     Qt5Core:Qt5Core.dll
 0002:0000032c       __imp_?userType@QVariant@@QBEHXZ 0046d32c     Qt5Core:Qt5Core.dll
 0002:00000330       __imp_?exists@QFile@@QBE_NXZ 0046d330     Qt5Core:Qt5Core.dll
 0002:00000334       __imp_??0QFile@@QAE@ABVQString@@@Z 0046d334     Qt5Core:Qt5Core.dll
 0002:00000338       __imp_?readRawData@QDataStream@@QAEHPADH@Z 0046d338     Qt5Core:Qt5Core.dll
 0002:0000033c       __imp_??6QDataStream@@QAEAAV0@M@Z 0046d33c     Qt5Core:Qt5Core.dll
 0002:00000340       __imp_??6QDataStream@@QAEAAV0@H@Z 0046d340     Qt5Core:Qt5Core.dll
 0002:00000344       __imp_?atEnd@QDataStream@@QBE_NXZ 0046d344     Qt5Core:Qt5Core.dll
 0002:00000348       __imp_??0QDataStream@@QAE@PAVQByteArray@@V?$QFlags@W4OpenModeFlag@QIODevice@@@@@Z 0046d348     Qt5Core:Qt5Core.dll
 0002:0000034c       __imp_??0QDataStream@@QAE@PAVQIODevice@@@Z 0046d34c     Qt5Core:Qt5Core.dll
 0002:00000350       __imp_?isOpen@QIODevice@@QBE_NXZ 0046d350     Qt5Core:Qt5Core.dll
 0002:00000354       __imp_?typeFlags@QMetaType@@SA?AV?$QFlags@W4TypeFlag@QMetaType@@@@H@Z 0046d354     Qt5Core:Qt5Core.dll
 0002:00000358       __imp_?toInt@QString@@QBEHPA_NH@Z 0046d358     Qt5Core:Qt5Core.dll
 0002:0000035c       __imp_?split@QString@@QBE?AVQStringList@@VQChar@@W4SplitBehavior@1@W4CaseSensitivity@Qt@@@Z 0046d35c     Qt5Core:Qt5Core.dll
 0002:00000360       __imp_?remove@QString@@QAEAAV1@HH@Z 0046d360     Qt5Core:Qt5Core.dll
 0002:00000364       __imp_?startsWith@QString@@QBE_NVQChar@@W4CaseSensitivity@Qt@@@Z 0046d364     Qt5Core:Qt5Core.dll
 0002:00000368       __imp_?left@QString@@QBE?AV1@H@Z 0046d368     Qt5Core:Qt5Core.dll
 0002:0000036c       __imp_??4QString@@QAEAAV0@$$QAV0@@Z 0046d36c     Qt5Core:Qt5Core.dll
 0002:00000370       __imp_?end@QByteArray@@QBEPBDXZ 0046d370     Qt5Core:Qt5Core.dll
 0002:00000374       __imp_?begin@QByteArray@@QBEPBDXZ 0046d374     Qt5Core:Qt5Core.dll
 0002:00000378       __imp_?append@QByteArray@@QAEAAV1@ABVQString@@@Z 0046d378     Qt5Core:Qt5Core.dll
 0002:0000037c       __imp_?prepend@QByteArray@@QAEAAV1@D@Z 0046d37c     Qt5Core:Qt5Core.dll
 0002:00000380       __imp_?data@QByteArray@@QAEPADXZ 0046d380     Qt5Core:Qt5Core.dll
 0002:00000384       __imp_?resize@QByteArray@@QAEXH@Z 0046d384     Qt5Core:Qt5Core.dll
 0002:00000388       __imp_?qstrcmp@@YAHABVQByteArray@@PBD@Z 0046d388     Qt5Core:Qt5Core.dll
 0002:0000038c       __imp_?cast@QMetaObject@@QBEPAVQObject@@PAV2@@Z 0046d38c     Qt5Core:Qt5Core.dll
 0002:00000390       __imp_?shared_null@QMapDataBase@@2U1@B 0046d390     Qt5Core:Qt5Core.dll
 0002:00000394       __imp_?start@QThread@@QAEXW4Priority@1@@Z 0046d394     Qt5Core:Qt5Core.dll
 0002:00000398       __imp_??6QDebug@@QAEAAV0@ABVQString@@@Z 0046d398     Qt5Core:Qt5Core.dll
 0002:0000039c       __imp_?isDetached@QVariant@@QBE_NXZ 0046d39c     Qt5Core:Qt5Core.dll
 0002:000003a0       __imp_??4QVariant@@QAEAAV0@$$QAV0@@Z 0046d3a0     Qt5Core:Qt5Core.dll
 0002:000003a4       __imp_??4QVariant@@QAEAAV0@ABV0@@Z 0046d3a4     Qt5Core:Qt5Core.dll
 0002:000003a8       __imp_??0QVariant@@QAE@ABV0@@Z 0046d3a8     Qt5Core:Qt5Core.dll
 0002:000003ac       __imp_??0QVariant@@QAE@HPBXI@Z 0046d3ac     Qt5Core:Qt5Core.dll
 0002:000003b0       __imp_??0QVariant@@QAE@XZ  0046d3b0     Qt5Core:Qt5Core.dll
 0002:000003b4       __imp_?freeData@QMapDataBase@@SAXPAU1@@Z 0046d3b4     Qt5Core:Qt5Core.dll
 0002:000003b8       __imp_?createData@QMapDataBase@@SAPAU1@XZ 0046d3b8     Qt5Core:Qt5Core.dll
 0002:000003bc       __imp_?freeTree@QMapDataBase@@QAEXPAUQMapNodeBase@@H@Z 0046d3bc     Qt5Core:Qt5Core.dll
 0002:000003c0       __imp_?createNode@QMapDataBase@@QAEPAUQMapNodeBase@@HHPAU2@_N@Z 0046d3c0     Qt5Core:Qt5Core.dll
 0002:000003c4       __imp_?recalcMostLeftNode@QMapDataBase@@QAEXXZ 0046d3c4     Qt5Core:Qt5Core.dll
 0002:000003c8       __imp_?freeNodeAndRebalance@QMapDataBase@@QAEXPAUQMapNodeBase@@@Z 0046d3c8     Qt5Core:Qt5Core.dll
 0002:000003cc       __imp_?connectImpl@QObject@@CA?AVConnection@QMetaObject@@PBV1@PAPAX01PAVQSlotObjectBase@QtPrivate@@W4ConnectionType@Qt@@PBHPBU3@@Z 0046d3cc     Qt5Core:Qt5Core.dll
 0002:000003d0       __imp_?unregisterConverterFunction@QMetaType@@SAXHH@Z 0046d3d0     Qt5Core:Qt5Core.dll
 0002:000003d4       __imp_?registerConverterFunction@QMetaType@@SA_NPBUAbstractConverterFunction@QtPrivate@@HH@Z 0046d3d4     Qt5Core:Qt5Core.dll
 0002:000003d8       __imp_?hasRegisteredConverterFunction@QMetaType@@SA_NHH@Z 0046d3d8     Qt5Core:Qt5Core.dll
 0002:000003dc       __imp_?typeName@QMetaType@@SAPBDH@Z 0046d3dc     Qt5Core:Qt5Core.dll
 0002:000003e0       __imp_?registerNormalizedType@QMetaType@@SAHABVQByteArray@@P6AXPAX@ZP6APAX1PBX@ZHV?$QFlags@W4TypeFlag@QMetaType@@@@PBUQMetaObject@@@Z 0046d3e0     Qt5Core:Qt5Core.dll
 0002:000003e4       __imp_??M@YA_NABVQString@@0@Z 0046d3e4     Qt5Core:Qt5Core.dll
 0002:000003e8       __imp_?append@QByteArray@@QAEAAV1@PBD@Z 0046d3e8     Qt5Core:Qt5Core.dll
 0002:000003ec       __imp_?endsWith@QByteArray@@QBE_ND@Z 0046d3ec     Qt5Core:Qt5Core.dll
 0002:000003f0       __imp_?reserve@QByteArray@@QAEXH@Z 0046d3f0     Qt5Core:Qt5Core.dll
 0002:000003f4       __imp_?normalizedType@QMetaObject@@SA?AVQByteArray@@PBD@Z 0046d3f4     Qt5Core:Qt5Core.dll
 0002:000003f8       __imp_?className@QMetaObject@@QBEPBDXZ 0046d3f8     Qt5Core:Qt5Core.dll
 0002:000003fc       __imp_??5QDataStream@@QAEAAV0@AAM@Z 0046d3fc     Qt5Core:Qt5Core.dll
 0002:00000400       __imp_??5QDataStream@@QAEAAV0@AAH@Z 0046d400     Qt5Core:Qt5Core.dll
 0002:00000404       __imp_??5QDataStream@@QAEAAV0@AAF@Z 0046d404     Qt5Core:Qt5Core.dll
 0002:00000408       __imp_??5QDataStream@@QAEAAV0@AAC@Z 0046d408     Qt5Core:Qt5Core.dll
 0002:0000040c       __imp_?setByteOrder@QDataStream@@QAEXW4ByteOrder@1@@Z 0046d40c     Qt5Core:Qt5Core.dll
 0002:00000410       __imp_?setFloatingPointPrecision@QDataStream@@QAEXW4FloatingPointPrecision@1@@Z 0046d410     Qt5Core:Qt5Core.dll
 0002:00000414       __imp_??1QDataStream@@QAE@XZ 0046d414     Qt5Core:Qt5Core.dll
 0002:00000418       __imp_??0QDataStream@@QAE@ABVQByteArray@@@Z 0046d418     Qt5Core:Qt5Core.dll
 0002:0000041c       __imp_?wait@QThread@@QAE_NK@Z 0046d41c     Qt5Core:Qt5Core.dll
 0002:00000420       __imp_?quit@QThread@@QAEXXZ 0046d420     Qt5Core:Qt5Core.dll
 0002:00000424       __imp_??6QDebug@@QAEAAV0@ABVQByteArray@@@Z 0046d424     Qt5Core:Qt5Core.dll
 0002:00000428       __imp_??6QDebug@@QAEAAV0@PBD@Z 0046d428     Qt5Core:Qt5Core.dll
 0002:0000042c       __imp_??6QDebug@@QAEAAV0@H@Z 0046d42c     Qt5Core:Qt5Core.dll
 0002:00000430       __imp_??1QDebug@@QAE@XZ    0046d430     Qt5Core:Qt5Core.dll
 0002:00000434       __imp_??9QString@@QBE_NPBD@Z 0046d434     Qt5Core:Qt5Core.dll
 0002:00000438       __imp_??8QString@@QBE_NPBD@Z 0046d438     Qt5Core:Qt5Core.dll
 0002:0000043c       __imp_?append@QString@@QAEAAV1@ABVQByteArray@@@Z 0046d43c     Qt5Core:Qt5Core.dll
 0002:00000440       __imp_?append@QString@@QAEAAV1@PBD@Z 0046d440     Qt5Core:Qt5Core.dll
 0002:00000444       __imp_??4QString@@QAEAAV0@PBD@Z 0046d444     Qt5Core:Qt5Core.dll
 0002:00000448       __imp_??0QString@@QAE@ABVQByteArray@@@Z 0046d448     Qt5Core:Qt5Core.dll
 0002:0000044c       __imp_??8@YA_NABVQString@@0@Z 0046d44c     Qt5Core:Qt5Core.dll
 0002:00000450       __imp_?append@QString@@QAEAAV1@VQChar@@@Z 0046d450     Qt5Core:Qt5Core.dll
 0002:00000454       __imp_?toHex@QByteArray@@QBE?AV1@XZ 0046d454     Qt5Core:Qt5Core.dll
 0002:00000458       __imp_?toInt@QByteArray@@QBEHPA_NH@Z 0046d458     Qt5Core:Qt5Core.dll
 0002:0000045c       __imp_?remove@QByteArray@@QAEAAV1@HH@Z 0046d45c     Qt5Core:Qt5Core.dll
 0002:00000460       __imp_?append@QByteArray@@QAEAAV1@ABV1@@Z 0046d460     Qt5Core:Qt5Core.dll
 0002:00000464       __imp_?append@QByteArray@@QAEAAV1@PBDH@Z 0046d464     Qt5Core:Qt5Core.dll
 0002:00000468       __imp_?left@QByteArray@@QBE?AV1@H@Z 0046d468     Qt5Core:Qt5Core.dll
 0002:0000046c       __imp_?clear@QByteArray@@QAEXXZ 0046d46c     Qt5Core:Qt5Core.dll
 0002:00000470       __imp_?constData@QByteArray@@QBEPBDXZ 0046d470     Qt5Core:Qt5Core.dll
 0002:00000474       __imp_??4QByteArray@@QAEAAV0@ABV0@@Z 0046d474     Qt5Core:Qt5Core.dll
 0002:00000478       __imp_?sharedNull@QArrayData@@SAPAU1@XZ 0046d478     Qt5Core:Qt5Core.dll
 0002:0000047c       __imp_??0QChar@@QAE@H@Z    0046d47c     Qt5Core:Qt5Core.dll
 0002:00000480       __imp_?debug@QMessageLogger@@QBE?AVQDebug@@XZ 0046d480     Qt5Core:Qt5Core.dll
 0002:00000484       __imp_??0QMessageLogger@@QAE@PBDH0@Z 0046d484     Qt5Core:Qt5Core.dll
 0002:00000488       __imp_?event@QThread@@UAE_NPAVQEvent@@@Z 0046d488     Qt5Core:Qt5Core.dll
 0002:0000048c       __imp_?exec@QThread@@IAEHXZ 0046d48c     Qt5Core:Qt5Core.dll
 0002:00000490       __imp_??1QThread@@UAE@XZ   0046d490     Qt5Core:Qt5Core.dll
 0002:00000494       __imp_??0QThread@@QAE@PAVQObject@@@Z 0046d494     Qt5Core:Qt5Core.dll
 0002:00000498       __imp_?deleteLater@QObject@@QAEXXZ 0046d498     Qt5Core:Qt5Core.dll
 0002:0000049c       __imp_?size@QIODevice@@UBE_JXZ 0046d49c     Qt5Core:Qt5Core.dll
 0002:000004a0       __imp_?seek@QIODevice@@UAE_N_J@Z 0046d4a0     Qt5Core:Qt5Core.dll
 0002:000004a4       __imp_?pos@QIODevice@@UBE_JXZ 0046d4a4     Qt5Core:Qt5Core.dll
 0002:000004a8       __imp_?open@QIODevice@@UAE_NV?$QFlags@W4OpenModeFlag@QIODevice@@@@@Z 0046d4a8     Qt5Core:Qt5Core.dll
 0002:000004ac       __imp_?stop@QTimer@@QAEXXZ 0046d4ac     Qt5Core:Qt5Core.dll
 0002:000004b0       __imp_?start@QTimer@@QAEXXZ 0046d4b0     Qt5Core:Qt5Core.dll
 0002:000004b4       __imp_?setInterval@QTimer@@QAEXH@Z 0046d4b4     Qt5Core:Qt5Core.dll
 0002:000004b8       __imp_??1QTimer@@UAE@XZ    0046d4b8     Qt5Core:Qt5Core.dll
 0002:000004bc       __imp_??0QTimer@@QAE@PAVQObject@@@Z 0046d4bc     Qt5Core:Qt5Core.dll
 0002:000004c0       __imp_??0QVariant@@QAE@H@Z 0046d4c0     Qt5Core:Qt5Core.dll
 0002:000004c4       __imp_??1QVariant@@QAE@XZ  0046d4c4     Qt5Core:Qt5Core.dll
 0002:000004c8       __imp_?write@QIODevice@@QAE_JABVQByteArray@@@Z 0046d4c8     Qt5Core:Qt5Core.dll
 0002:000004cc       __imp_?readAll@QIODevice@@QAE?AVQByteArray@@XZ 0046d4cc     Qt5Core:Qt5Core.dll
 0002:000004d0       __imp_?connect@QObject@@SA?AVConnection@QMetaObject@@PBV1@PBD01W4ConnectionType@Qt@@@Z 0046d4d0     Qt5Core:Qt5Core.dll
 0002:000004d4       __imp_?append@QByteArray@@QAEAAV1@D@Z 0046d4d4     Qt5Core:Qt5Core.dll
 0002:000004d8       __imp_??4QByteArray@@QAEAAV0@$$QAV0@@Z 0046d4d8     Qt5Core:Qt5Core.dll
 0002:000004dc       __imp_??0QByteArray@@QAE@ABV0@@Z 0046d4dc     Qt5Core:Qt5Core.dll
 0002:000004e0       __imp_??0QByteArray@@QAE@XZ 0046d4e0     Qt5Core:Qt5Core.dll
 0002:000004e4       __imp_??1Connection@QMetaObject@@QAE@XZ 0046d4e4     Qt5Core:Qt5Core.dll
 0002:000004e8       __imp_?writeData@QFileDevice@@MAE_JPBD_J@Z 0046d4e8     Qt5Core:Qt5Core.dll
 0002:000004ec       __imp_?waitForReadyRead@QIODevice@@UAE_NH@Z 0046d4ec     Qt5Core:Qt5Core.dll
 0002:000004f0       __imp_?waitForBytesWritten@QIODevice@@UAE_NH@Z 0046d4f0     Qt5Core:Qt5Core.dll
 0002:000004f4       __imp_?timerEvent@QObject@@MAEXPAVQTimerEvent@@@Z 0046d4f4     Qt5Core:Qt5Core.dll
 0002:000004f8       __imp_?size@QFile@@UBE_JXZ 0046d4f8     Qt5Core:Qt5Core.dll
 0002:000004fc       __imp_?setPermissions@QFile@@UAE_NV?$QFlags@W4Permission@QFileDevice@@@@@Z 0046d4fc     Qt5Core:Qt5Core.dll
 0002:00000500       __imp_?seek@QFileDevice@@UAE_N_J@Z 0046d500     Qt5Core:Qt5Core.dll
 0002:00000504       __imp_?resize@QFile@@UAE_N_J@Z 0046d504     Qt5Core:Qt5Core.dll
 0002:00000508       __imp_?reset@QIODevice@@UAE_NXZ 0046d508     Qt5Core:Qt5Core.dll
 0002:0000050c       __imp_?readLineData@QFileDevice@@MAE_JPAD_J@Z 0046d50c     Qt5Core:Qt5Core.dll
 0002:00000510       __imp_?readData@QFileDevice@@MAE_JPAD_J@Z 0046d510     Qt5Core:Qt5Core.dll
 0002:00000514       __imp_?qt_metacast@QFile@@UAEPAXPBD@Z 0046d514     Qt5Core:Qt5Core.dll
 0002:00000518       __imp_?qt_metacall@QFile@@UAEHW4Call@QMetaObject@@HPAPAX@Z 0046d518     Qt5Core:Qt5Core.dll
 0002:0000051c       __imp_?pos@QFileDevice@@UBE_JXZ 0046d51c     Qt5Core:Qt5Core.dll
 0002:00000520       __imp_?permissions@QFile@@UBE?AV?$QFlags@W4Permission@QFileDevice@@@@XZ 0046d520     Qt5Core:Qt5Core.dll
 0002:00000524       __imp_?metaObject@QFile@@UBEPBUQMetaObject@@XZ 0046d524     Qt5Core:Qt5Core.dll
 0002:00000528       __imp_?isSequential@QFileDevice@@UBE_NXZ 0046d528     Qt5Core:Qt5Core.dll
 0002:0000052c       __imp_?fileName@QFile@@UBE?AVQString@@XZ 0046d52c     Qt5Core:Qt5Core.dll
 0002:00000530       __imp_?eventFilter@QObject@@UAE_NPAV1@PAVQEvent@@@Z 0046d530     Qt5Core:Qt5Core.dll
 0002:00000534       __imp_?event@QObject@@UAE_NPAVQEvent@@@Z 0046d534     Qt5Core:Qt5Core.dll
 0002:00000538       __imp_?disconnectNotify@QObject@@MAEXABVQMetaMethod@@@Z 0046d538     Qt5Core:Qt5Core.dll
 0002:0000053c       __imp_?customEvent@QObject@@MAEXPAVQEvent@@@Z 0046d53c     Qt5Core:Qt5Core.dll
 0002:00000540       __imp_?connectNotify@QObject@@MAEXABVQMetaMethod@@@Z 0046d540     Qt5Core:Qt5Core.dll
 0002:00000544       __imp_?childEvent@QObject@@MAEXPAVQChildEvent@@@Z 0046d544     Qt5Core:Qt5Core.dll
 0002:00000548       __imp_?canReadLine@QIODevice@@UBE_NXZ 0046d548     Qt5Core:Qt5Core.dll
 0002:0000054c       __imp_?bytesToWrite@QIODevice@@UBE_JXZ 0046d54c     Qt5Core:Qt5Core.dll
 0002:00000550       __imp_?bytesAvailable@QIODevice@@UBE_JXZ 0046d550     Qt5Core:Qt5Core.dll
 0002:00000554       __imp_?atEnd@QFileDevice@@UBE_NXZ 0046d554     Qt5Core:Qt5Core.dll
 0002:00000558       __imp_?applicationDirPath@QCoreApplication@@SA?AVQString@@XZ 0046d558     Qt5Core:Qt5Core.dll
 0002:0000055c       __imp_?currentDateTime@QDateTime@@SA?AV1@XZ 0046d55c     Qt5Core:Qt5Core.dll
 0002:00000560       __imp_?toString@QDateTime@@QBE?AVQString@@ABV2@@Z 0046d560     Qt5Core:Qt5Core.dll
 0002:00000564       __imp_??1QDateTime@@QAE@XZ 0046d564     Qt5Core:Qt5Core.dll
 0002:00000568       __imp_?endl@@YAAAVQTextStream@@AAV1@@Z 0046d568     Qt5Core:Qt5Core.dll
 0002:0000056c       __imp_??6QTextStream@@QAEAAV0@N@Z 0046d56c     Qt5Core:Qt5Core.dll
 0002:00000570       __imp_??1QTextStream@@UAE@XZ 0046d570     Qt5Core:Qt5Core.dll
 0002:00000574       __imp_??0QTextStream@@QAE@PAVQIODevice@@@Z 0046d574     Qt5Core:Qt5Core.dll
 0002:00000578       __imp_?open@QFile@@UAE_NV?$QFlags@W4OpenModeFlag@QIODevice@@@@@Z 0046d578     Qt5Core:Qt5Core.dll
 0002:0000057c       __imp_?setFileName@QFile@@QAEXABVQString@@@Z 0046d57c     Qt5Core:Qt5Core.dll
 0002:00000580       __imp_??1QFile@@UAE@XZ     0046d580     Qt5Core:Qt5Core.dll
 0002:00000584       __imp_??0QFile@@QAE@XZ     0046d584     Qt5Core:Qt5Core.dll
 0002:00000588       __imp_?flush@QFileDevice@@QAE_NXZ 0046d588     Qt5Core:Qt5Core.dll
 0002:0000058c       __imp_?close@QFileDevice@@UAEXXZ 0046d58c     Qt5Core:Qt5Core.dll
 0002:00000590       __imp_??1QObject@@UAE@XZ   0046d590     Qt5Core:Qt5Core.dll
 0002:00000594       __imp_??0QObject@@QAE@PAV0@@Z 0046d594     Qt5Core:Qt5Core.dll
 0002:00000598       __imp_?end@QListData@@QBEPAPAXXZ 0046d598     Qt5Core:Qt5Core.dll
 0002:0000059c       __imp_?begin@QListData@@QBEPAPAXXZ 0046d59c     Qt5Core:Qt5Core.dll
 0002:000005a0       __imp_?at@QListData@@QBEPAPAXH@Z 0046d5a0     Qt5Core:Qt5Core.dll
 0002:000005a4       __imp_?size@QListData@@QBEHXZ 0046d5a4     Qt5Core:Qt5Core.dll
 0002:000005a8       __imp_?append@QListData@@QAEPAPAXXZ 0046d5a8     Qt5Core:Qt5Core.dll
 0002:000005ac       __imp_?dispose@QListData@@SAXPAUData@1@@Z 0046d5ac     Qt5Core:Qt5Core.dll
 0002:000005b0       __imp_?dispose@QListData@@QAEXXZ 0046d5b0     Qt5Core:Qt5Core.dll
 0002:000005b4       __imp_?realloc@QListData@@QAEXH@Z 0046d5b4     Qt5Core:Qt5Core.dll
 0002:000005b8       __imp_?detach_grow@QListData@@QAEPAUData@1@PAHH@Z 0046d5b8     Qt5Core:Qt5Core.dll
 0002:000005bc       __imp_?detach@QListData@@QAEPAUData@1@H@Z 0046d5bc     Qt5Core:Qt5Core.dll
 0002:000005c0       __imp_?fromAscii_helper@QString@@CAPAU?$QTypedArrayData@G@@PBDH@Z 0046d5c0     Qt5Core:Qt5Core.dll
 0002:000005c4       __imp_?number@QString@@SA?AV1@HH@Z 0046d5c4     Qt5Core:Qt5Core.dll
 0002:000005c8       __imp_?fromUtf8@QString@@SA?AV1@PBDH@Z 0046d5c8     Qt5Core:Qt5Core.dll
 0002:000005cc       __imp_?append@QString@@QAEAAV1@ABV1@@Z 0046d5cc     Qt5Core:Qt5Core.dll
 0002:000005d0       __imp_?arg@QString@@QBE?AV1@GHHVQChar@@@Z 0046d5d0     Qt5Core:Qt5Core.dll
 0002:000005d4       __imp_?arg@QString@@QBE?AV1@HHHVQChar@@@Z 0046d5d4     Qt5Core:Qt5Core.dll
 0002:000005d8       __imp_??4QString@@QAEAAV0@ABV0@@Z 0046d5d8     Qt5Core:Qt5Core.dll
 0002:000005dc       __imp_??1QString@@QAE@XZ   0046d5dc     Qt5Core:Qt5Core.dll
 0002:000005e0       __imp_??0QString@@QAE@ABV0@@Z 0046d5e0     Qt5Core:Qt5Core.dll
 0002:000005e4       __imp_??0QString@@QAE@XZ   0046d5e4     Qt5Core:Qt5Core.dll
 0002:000005e8       __imp_?at@QByteArray@@QBEDH@Z 0046d5e8     Qt5Core:Qt5Core.dll
 0002:000005ec       __imp_??1QByteArray@@QAE@XZ 0046d5ec     Qt5Core:Qt5Core.dll
 0002:000005f0       __imp_?deallocate@QArrayData@@SAXPAU1@II@Z 0046d5f0     Qt5Core:Qt5Core.dll
 0002:000005f4       __imp_??0QChar@@QAE@UQLatin1Char@@@Z 0046d5f4     Qt5Core:Qt5Core.dll
 0002:000005f8       __imp_?shared_null@QListData@@2UData@1@B 0046d5f8     Qt5Core:Qt5Core.dll
 0002:000005fc       __imp_?span@QAbstractItemModel@@UBE?AVQSize@@ABVQModelIndex@@@Z 0046d5fc     Qt5Core:Qt5Core.dll
 0002:00000600       __imp_?sibling@QAbstractTableModel@@UBE?AVQModelIndex@@HHABV2@@Z 0046d600     Qt5Core:Qt5Core.dll
 0002:00000604       \177Qt5Core_NULL_THUNK_DATA 0046d604     Qt5Core:Qt5Core.dll
 0002:00000608       __imp_??0QIcon@@QAE@XZ     0046d608     Qt5Gui:Qt5Gui.dll
 0002:0000060c       __imp_??1QIcon@@QAE@XZ     0046d60c     Qt5Gui:Qt5Gui.dll
 0002:00000610       __imp_??0QColor@@QAE@XZ    0046d610     Qt5Gui:Qt5Gui.dll
 0002:00000614       __imp_??0QColor@@QAE@ABV0@@Z 0046d614     Qt5Gui:Qt5Gui.dll
 0002:00000618       __imp_?pos@QCursor@@SA?AVQPoint@@XZ 0046d618     Qt5Gui:Qt5Gui.dll
 0002:0000061c       __imp_??0QFont@@QAE@ABVQString@@HH_N@Z 0046d61c     Qt5Gui:Qt5Gui.dll
 0002:00000620       __imp_??1QFont@@QAE@XZ     0046d620     Qt5Gui:Qt5Gui.dll
 0002:00000624       __imp_??4QColor@@QAEAAV0@$$QAV0@@Z 0046d624     Qt5Gui:Qt5Gui.dll
 0002:00000628       __imp_?setRgb@QColor@@QAEXHHHH@Z 0046d628     Qt5Gui:Qt5Gui.dll
 0002:0000062c       __imp_??0QBrush@@QAE@ABVQColor@@W4BrushStyle@Qt@@@Z 0046d62c     Qt5Gui:Qt5Gui.dll
 0002:00000630       __imp_??1QBrush@@QAE@XZ    0046d630     Qt5Gui:Qt5Gui.dll
 0002:00000634       __imp_?setStyle@QBrush@@QAEXW4BrushStyle@Qt@@@Z 0046d634     Qt5Gui:Qt5Gui.dll
 0002:00000638       __imp_??0QFont@@QAE@XZ     0046d638     Qt5Gui:Qt5Gui.dll
 0002:0000063c       __imp_?setWeight@QFont@@QAEXH@Z 0046d63c     Qt5Gui:Qt5Gui.dll
 0002:00000640       __imp_?addFile@QIcon@@QAEXABVQString@@ABVQSize@@W4Mode@1@W4State@1@@Z 0046d640     Qt5Gui:Qt5Gui.dll
 0002:00000644       __imp_?blockCount@QTextDocument@@QBEHXZ 0046d644     Qt5Gui:Qt5Gui.dll
 0002:00000648       __imp_??0QKeySequence@@QAE@W4StandardKey@0@@Z 0046d648     Qt5Gui:Qt5Gui.dll
 0002:0000064c       __imp_??1QKeySequence@@QAE@XZ 0046d64c     Qt5Gui:Qt5Gui.dll
 0002:00000650       __imp_?matches@QKeyEvent@@QBE_NW4StandardKey@QKeySequence@@@Z 0046d650     Qt5Gui:Qt5Gui.dll
 0002:00000654       __imp_??0QRegExpValidator@@QAE@ABVQRegExp@@PAVQObject@@@Z 0046d654     Qt5Gui:Qt5Gui.dll
 0002:00000658       __imp_??1QRegExpValidator@@UAE@XZ 0046d658     Qt5Gui:Qt5Gui.dll
 0002:0000065c       __imp_?fixup@QValidator@@UBEXAAVQString@@@Z 0046d65c     Qt5Gui:Qt5Gui.dll
 0002:00000660       __imp_?metaObject@QRegExpValidator@@UBEPBUQMetaObject@@XZ 0046d660     Qt5Gui:Qt5Gui.dll
 0002:00000664       __imp_?qt_metacall@QRegExpValidator@@UAEHW4Call@QMetaObject@@HPAPAX@Z 0046d664     Qt5Gui:Qt5Gui.dll
 0002:00000668       __imp_?qt_metacast@QRegExpValidator@@UAEPAXPBD@Z 0046d668     Qt5Gui:Qt5Gui.dll
 0002:0000066c       __imp_?validate@QRegExpValidator@@UBE?AW4State@QValidator@@AAVQString@@AAH@Z 0046d66c     Qt5Gui:Qt5Gui.dll
 0002:00000670       __imp_?staticMetaObject@QStandardItemModel@@2UQMetaObject@@B 0046d670     Qt5Gui:Qt5Gui.dll
 0002:00000674       __imp_??0QColor@@QAE@W4GlobalColor@Qt@@@Z 0046d674     Qt5Gui:Qt5Gui.dll
 0002:00000678       \177Qt5Gui_NULL_THUNK_DATA 0046d678     Qt5Gui:Qt5Gui.dll
 0002:0000067c       __imp_?setReadBufferSize@QAbstractSocket@@UAEX_J@Z 0046d67c     Qt5Network:Qt5Network.dll
 0002:00000680       __imp_?setSocketOption@QAbstractSocket@@UAEXW4SocketOption@1@ABVQVariant@@@Z 0046d680     Qt5Network:Qt5Network.dll
 0002:00000684       __imp_??0QTcpSocket@@QAE@PAVQObject@@@Z 0046d684     Qt5Network:Qt5Network.dll
 0002:00000688       __imp_??1QTcpSocket@@UAE@XZ 0046d688     Qt5Network:Qt5Network.dll
 0002:0000068c       __imp_??1QHostAddress@@QAE@XZ 0046d68c     Qt5Network:Qt5Network.dll
 0002:00000690       __imp_?toString@QHostAddress@@QBE?AVQString@@XZ 0046d690     Qt5Network:Qt5Network.dll
 0002:00000694       __imp_?atEnd@QAbstractSocket@@UBE_NXZ 0046d694     Qt5Network:Qt5Network.dll
 0002:00000698       __imp_?bytesAvailable@QAbstractSocket@@UBE_JXZ 0046d698     Qt5Network:Qt5Network.dll
 0002:0000069c       __imp_?bytesToWrite@QAbstractSocket@@UBE_JXZ 0046d69c     Qt5Network:Qt5Network.dll
 0002:000006a0       __imp_?canReadLine@QAbstractSocket@@UBE_NXZ 0046d6a0     Qt5Network:Qt5Network.dll
 0002:000006a4       __imp_?close@QAbstractSocket@@UAEXXZ 0046d6a4     Qt5Network:Qt5Network.dll
 0002:000006a8       __imp_?connectToHost@QAbstractSocket@@UAEXABVQHostAddress@@GV?$QFlags@W4OpenModeFlag@QIODevice@@@@@Z 0046d6a8     Qt5Network:Qt5Network.dll
 0002:000006ac       __imp_?connectToHost@QAbstractSocket@@UAEXABVQString@@GV?$QFlags@W4OpenModeFlag@QIODevice@@@@W4NetworkLayerProtocol@1@@Z 0046d6ac     Qt5Network:Qt5Network.dll
 0002:000006b0       __imp_?disconnectFromHost@QAbstractSocket@@UAEXXZ 0046d6b0     Qt5Network:Qt5Network.dll
 0002:000006b4       __imp_?isSequential@QAbstractSocket@@UBE_NXZ 0046d6b4     Qt5Network:Qt5Network.dll
 0002:000006b8       __imp_?readData@QAbstractSocket@@MAE_JPAD_J@Z 0046d6b8     Qt5Network:Qt5Network.dll
 0002:000006bc       __imp_?readLineData@QAbstractSocket@@MAE_JPAD_J@Z 0046d6bc     Qt5Network:Qt5Network.dll
 0002:000006c0       __imp_?resume@QAbstractSocket@@UAEXXZ 0046d6c0     Qt5Network:Qt5Network.dll
 0002:000006c4       __imp_?setSocketDescriptor@QAbstractSocket@@UAE_NHW4SocketState@1@V?$QFlags@W4OpenModeFlag@QIODevice@@@@@Z 0046d6c4     Qt5Network:Qt5Network.dll
 0002:000006c8       __imp_?socketDescriptor@QAbstractSocket@@UBEHXZ 0046d6c8     Qt5Network:Qt5Network.dll
 0002:000006cc       __imp_?socketOption@QAbstractSocket@@UAE?AVQVariant@@W4SocketOption@1@@Z 0046d6cc     Qt5Network:Qt5Network.dll
 0002:000006d0       __imp_?waitForBytesWritten@QAbstractSocket@@UAE_NH@Z 0046d6d0     Qt5Network:Qt5Network.dll
 0002:000006d4       __imp_?waitForConnected@QAbstractSocket@@UAE_NH@Z 0046d6d4     Qt5Network:Qt5Network.dll
 0002:000006d8       __imp_?peerAddress@QAbstractSocket@@QBE?AVQHostAddress@@XZ 0046d6d8     Qt5Network:Qt5Network.dll
 0002:000006dc       __imp_?waitForReadyRead@QAbstractSocket@@UAE_NH@Z 0046d6dc     Qt5Network:Qt5Network.dll
 0002:000006e0       __imp_?writeData@QAbstractSocket@@MAE_JPBD_J@Z 0046d6e0     Qt5Network:Qt5Network.dll
 0002:000006e4       __imp_??0QHostAddress@@QAE@ABVQString@@@Z 0046d6e4     Qt5Network:Qt5Network.dll
 0002:000006e8       __imp_??0QTcpServer@@QAE@PAVQObject@@@Z 0046d6e8     Qt5Network:Qt5Network.dll
 0002:000006ec       __imp_??1QTcpServer@@UAE@XZ 0046d6ec     Qt5Network:Qt5Network.dll
 0002:000006f0       __imp_?listen@QTcpServer@@QAE_NABVQHostAddress@@G@Z 0046d6f0     Qt5Network:Qt5Network.dll
 0002:000006f4       __imp_?close@QTcpServer@@QAEXXZ 0046d6f4     Qt5Network:Qt5Network.dll
 0002:000006f8       __imp_?isListening@QTcpServer@@QBE_NXZ 0046d6f8     Qt5Network:Qt5Network.dll
 0002:000006fc       __imp_?hasPendingConnections@QTcpServer@@UBE_NXZ 0046d6fc     Qt5Network:Qt5Network.dll
 0002:00000700       __imp_?nextPendingConnection@QTcpServer@@UAEPAVQTcpSocket@@XZ 0046d700     Qt5Network:Qt5Network.dll
 0002:00000704       __imp_?disconnected@QAbstractSocket@@QAEXXZ 0046d704     Qt5Network:Qt5Network.dll
 0002:00000708       __imp_?staticMetaObject@QAbstractSocket@@2UQMetaObject@@B 0046d708     Qt5Network:Qt5Network.dll
 0002:0000070c       __imp_?peerPort@QAbstractSocket@@QBEGXZ 0046d70c     Qt5Network:Qt5Network.dll
 0002:00000710       __imp_?setMaxPendingConnections@QTcpServer@@QAEXH@Z 0046d710     Qt5Network:Qt5Network.dll
 0002:00000714       __imp_?maxPendingConnections@QTcpServer@@QBEHXZ 0046d714     Qt5Network:Qt5Network.dll
 0002:00000718       __imp_?flush@QAbstractSocket@@QAE_NXZ 0046d718     Qt5Network:Qt5Network.dll
 0002:0000071c       __imp_??6@YA?AVQDebug@@V0@W4SocketState@QAbstractSocket@@@Z 0046d71c     Qt5Network:Qt5Network.dll
 0002:00000720       __imp_?staticMetaObject@QTcpSocket@@2UQMetaObject@@B 0046d720     Qt5Network:Qt5Network.dll
 0002:00000724       __imp_?qt_metacast@QTcpSocket@@UAEPAXPBD@Z 0046d724     Qt5Network:Qt5Network.dll
 0002:00000728       __imp_?qt_metacall@QTcpSocket@@UAEHW4Call@QMetaObject@@HPAPAX@Z 0046d728     Qt5Network:Qt5Network.dll
 0002:0000072c       __imp_?staticMetaObject@QTcpServer@@2UQMetaObject@@B 0046d72c     Qt5Network:Qt5Network.dll
 0002:00000730       __imp_?qt_metacast@QTcpServer@@UAEPAXPBD@Z 0046d730     Qt5Network:Qt5Network.dll
 0002:00000734       __imp_?qt_metacall@QTcpServer@@UAEHW4Call@QMetaObject@@HPAPAX@Z 0046d734     Qt5Network:Qt5Network.dll
 0002:00000738       __imp_?waitForDisconnected@QAbstractSocket@@UAE_NH@Z 0046d738     Qt5Network:Qt5Network.dll
 0002:0000073c       \177Qt5Network_NULL_THUNK_DATA 0046d73c     Qt5Network:Qt5Network.dll
 0002:00000740       __imp_?updateRowInTable@QSqlTableModel@@MAE_NHABVQSqlRecord@@@Z 0046d740     Qt5Sql:Qt5Sql.dll
 0002:00000744       __imp_?submit@QSqlTableModel@@UAE_NXZ 0046d744     Qt5Sql:Qt5Sql.dll
 0002:00000748       __imp_?sort@QSqlTableModel@@UAEXHW4SortOrder@Qt@@@Z 0046d748     Qt5Sql:Qt5Sql.dll
 0002:0000074c       __imp_?setTable@QSqlTableModel@@UAEXABVQString@@@Z 0046d74c     Qt5Sql:Qt5Sql.dll
 0002:00000750       __imp_?setSort@QSqlTableModel@@UAEXHW4SortOrder@Qt@@@Z 0046d750     Qt5Sql:Qt5Sql.dll
 0002:00000754       __imp_?setHeaderData@QSqlQueryModel@@UAE_NHW4Orientation@Qt@@ABVQVariant@@H@Z 0046d754     Qt5Sql:Qt5Sql.dll
 0002:00000758       __imp_?setFilter@QSqlTableModel@@UAEXABVQString@@@Z 0046d758     Qt5Sql:Qt5Sql.dll
 0002:0000075c       __imp_?setEditStrategy@QSqlTableModel@@UAEXW4EditStrategy@1@@Z 0046d75c     Qt5Sql:Qt5Sql.dll
 0002:00000760       __imp_?setData@QSqlTableModel@@UAE_NABVQModelIndex@@ABVQVariant@@H@Z 0046d760     Qt5Sql:Qt5Sql.dll
 0002:00000764       __imp_?selectStatement@QSqlTableModel@@MBE?AVQString@@XZ 0046d764     Qt5Sql:Qt5Sql.dll
 0002:00000768       __imp_?selectRow@QSqlTableModel@@UAE_NH@Z 0046d768     Qt5Sql:Qt5Sql.dll
 0002:0000076c       __imp_?select@QSqlTableModel@@UAE_NXZ 0046d76c     Qt5Sql:Qt5Sql.dll
 0002:00000770       __imp_?rowCount@QSqlTableModel@@UBEHABVQModelIndex@@@Z 0046d770     Qt5Sql:Qt5Sql.dll
 0002:00000774       __imp_?roleNames@QSqlQueryModel@@UBE?AV?$QHash@HVQByteArray@@@@XZ 0046d774     Qt5Sql:Qt5Sql.dll
 0002:00000778       __imp_?revertRow@QSqlTableModel@@UAEXH@Z 0046d778     Qt5Sql:Qt5Sql.dll
 0002:0000077c       __imp_?revert@QSqlTableModel@@UAEXXZ 0046d77c     Qt5Sql:Qt5Sql.dll
 0002:00000780       __imp_?removeRows@QSqlTableModel@@UAE_NHHABVQModelIndex@@@Z 0046d780     Qt5Sql:Qt5Sql.dll
 0002:00000784       __imp_?removeColumns@QSqlTableModel@@UAE_NHHABVQModelIndex@@@Z 0046d784     Qt5Sql:Qt5Sql.dll
 0002:00000788       __imp_?queryChange@QSqlQueryModel@@MAEXXZ 0046d788     Qt5Sql:Qt5Sql.dll
 0002:0000078c       __imp_?qt_metacast@QSqlTableModel@@UAEPAXPBD@Z 0046d78c     Qt5Sql:Qt5Sql.dll
 0002:00000790       __imp_?qt_metacall@QSqlTableModel@@UAEHW4Call@QMetaObject@@HPAPAX@Z 0046d790     Qt5Sql:Qt5Sql.dll
 0002:00000794       __imp_?orderByClause@QSqlTableModel@@MBE?AVQString@@XZ 0046d794     Qt5Sql:Qt5Sql.dll
 0002:00000798       __imp_?metaObject@QSqlTableModel@@UBEPBUQMetaObject@@XZ 0046d798     Qt5Sql:Qt5Sql.dll
 0002:0000079c       __imp_?insertRows@QSqlTableModel@@UAE_NHHABVQModelIndex@@@Z 0046d79c     Qt5Sql:Qt5Sql.dll
 0002:000007a0       __imp_?insertRowIntoTable@QSqlTableModel@@MAE_NABVQSqlRecord@@@Z 0046d7a0     Qt5Sql:Qt5Sql.dll
 0002:000007a4       __imp_?insertColumns@QSqlQueryModel@@UAE_NHHABVQModelIndex@@@Z 0046d7a4     Qt5Sql:Qt5Sql.dll
 0002:000007a8       __imp_?indexInQuery@QSqlTableModel@@MBE?AVQModelIndex@@ABV2@@Z 0046d7a8     Qt5Sql:Qt5Sql.dll
 0002:000007ac       __imp_?headerData@QSqlTableModel@@UBE?AVQVariant@@HW4Orientation@Qt@@H@Z 0046d7ac     Qt5Sql:Qt5Sql.dll
 0002:000007b0       __imp_?flags@QSqlTableModel@@UBE?AV?$QFlags@W4ItemFlag@Qt@@@@ABVQModelIndex@@@Z 0046d7b0     Qt5Sql:Qt5Sql.dll
 0002:000007b4       __imp_?fetchMore@QSqlQueryModel@@UAEXABVQModelIndex@@@Z 0046d7b4     Qt5Sql:Qt5Sql.dll
 0002:000007b8       __imp_?deleteRowFromTable@QSqlTableModel@@MAE_NH@Z 0046d7b8     Qt5Sql:Qt5Sql.dll
 0002:000007bc       __imp_?data@QSqlTableModel@@UBE?AVQVariant@@ABVQModelIndex@@H@Z 0046d7bc     Qt5Sql:Qt5Sql.dll
 0002:000007c0       __imp_?columnCount@QSqlQueryModel@@UBEHABVQModelIndex@@@Z 0046d7c0     Qt5Sql:Qt5Sql.dll
 0002:000007c4       __imp_?clear@QSqlTableModel@@UAEXXZ 0046d7c4     Qt5Sql:Qt5Sql.dll
 0002:000007c8       __imp_?canFetchMore@QSqlQueryModel@@UBE_NABVQModelIndex@@@Z 0046d7c8     Qt5Sql:Qt5Sql.dll
 0002:000007cc       __imp_?submitAll@QSqlTableModel@@QAE_NXZ 0046d7cc     Qt5Sql:Qt5Sql.dll
 0002:000007d0       __imp_?setRecord@QSqlTableModel@@QAE_NHABVQSqlRecord@@@Z 0046d7d0     Qt5Sql:Qt5Sql.dll
 0002:000007d4       __imp_?database@QSqlTableModel@@QBE?AVQSqlDatabase@@XZ 0046d7d4     Qt5Sql:Qt5Sql.dll
 0002:000007d8       __imp_?record@QSqlTableModel@@QBE?AVQSqlRecord@@H@Z 0046d7d8     Qt5Sql:Qt5Sql.dll
 0002:000007dc       __imp_??1QSqlTableModel@@UAE@XZ 0046d7dc     Qt5Sql:Qt5Sql.dll
 0002:000007e0       __imp_??0QSqlTableModel@@QAE@PAVQObject@@VQSqlDatabase@@@Z 0046d7e0     Qt5Sql:Qt5Sql.dll
 0002:000007e4       __imp_?addDatabase@QSqlDatabase@@SA?AV1@ABVQString@@0@Z 0046d7e4     Qt5Sql:Qt5Sql.dll
 0002:000007e8       __imp_?setDatabaseName@QSqlDatabase@@QAEXABVQString@@@Z 0046d7e8     Qt5Sql:Qt5Sql.dll
 0002:000007ec       __imp_?rollback@QSqlDatabase@@QAE_NXZ 0046d7ec     Qt5Sql:Qt5Sql.dll
 0002:000007f0       __imp_?commit@QSqlDatabase@@QAE_NXZ 0046d7f0     Qt5Sql:Qt5Sql.dll
 0002:000007f4       __imp_?transaction@QSqlDatabase@@QAE_NXZ 0046d7f4     Qt5Sql:Qt5Sql.dll
 0002:000007f8       __imp_?close@QSqlDatabase@@QAEXXZ 0046d7f8     Qt5Sql:Qt5Sql.dll
 0002:000007fc       __imp_?open@QSqlDatabase@@QAE_NXZ 0046d7fc     Qt5Sql:Qt5Sql.dll
 0002:00000800       __imp_??1QSqlDatabase@@QAE@XZ 0046d800     Qt5Sql:Qt5Sql.dll
 0002:00000804       __imp_?setValue@QSqlRecord@@QAEXABVQString@@ABVQVariant@@@Z 0046d804     Qt5Sql:Qt5Sql.dll
 0002:00000808       __imp_?value@QSqlRecord@@QBE?AVQVariant@@ABVQString@@@Z 0046d808     Qt5Sql:Qt5Sql.dll
 0002:0000080c       __imp_??1QSqlRecord@@QAE@XZ 0046d80c     Qt5Sql:Qt5Sql.dll
 0002:00000810       __imp_??0QSqlDatabase@@QAE@ABV0@@Z 0046d810     Qt5Sql:Qt5Sql.dll
 0002:00000814       \177Qt5Sql_NULL_THUNK_DATA 0046d814     Qt5Sql:Qt5Sql.dll
 0002:00000818       __imp_?staticMetaObject@QWebSocket@@2UQMetaObject@@B 0046d818     Qt5WebSockets:Qt5WebSockets.dll
 0002:0000081c       __imp_?qt_metacast@QWebSocket@@UAEPAXPBD@Z 0046d81c     Qt5WebSockets:Qt5WebSockets.dll
 0002:00000820       __imp_?qt_metacall@QWebSocket@@UAEHW4Call@QMetaObject@@HPAPAX@Z 0046d820     Qt5WebSockets:Qt5WebSockets.dll
 0002:00000824       __imp_?metaObject@QWebSocket@@UBEPBUQMetaObject@@XZ 0046d824     Qt5WebSockets:Qt5WebSockets.dll
 0002:00000828       __imp_?textMessageReceived@QWebSocket@@QAEXABVQString@@@Z 0046d828     Qt5WebSockets:Qt5WebSockets.dll
 0002:0000082c       __imp_?stateChanged@QWebSocket@@QAEXW4SocketState@QAbstractSocket@@@Z 0046d82c     Qt5WebSockets:Qt5WebSockets.dll
 0002:00000830       __imp_?disconnected@QWebSocket@@QAEXXZ 0046d830     Qt5WebSockets:Qt5WebSockets.dll
 0002:00000834       __imp_?connected@QWebSocket@@QAEXXZ 0046d834     Qt5WebSockets:Qt5WebSockets.dll
 0002:00000838       __imp_?open@QWebSocket@@QAEXABVQUrl@@@Z 0046d838     Qt5WebSockets:Qt5WebSockets.dll
 0002:0000083c       __imp_?close@QWebSocket@@QAEXW4CloseCode@QWebSocketProtocol@@ABVQString@@@Z 0046d83c     Qt5WebSockets:Qt5WebSockets.dll
 0002:00000840       __imp_?sendTextMessage@QWebSocket@@QAE_JABVQString@@@Z 0046d840     Qt5WebSockets:Qt5WebSockets.dll
 0002:00000844       __imp_?state@QWebSocket@@QBE?AW4SocketState@QAbstractSocket@@XZ 0046d844     Qt5WebSockets:Qt5WebSockets.dll
 0002:00000848       __imp_??1QWebSocket@@UAE@XZ 0046d848     Qt5WebSockets:Qt5WebSockets.dll
 0002:0000084c       __imp_??0QWebSocket@@QAE@ABVQString@@W4Version@QWebSocketProtocol@@PAVQObject@@@Z 0046d84c     Qt5WebSockets:Qt5WebSockets.dll
 0002:00000850       \177Qt5WebSockets_NULL_THUNK_DATA 0046d850     Qt5WebSockets:Qt5WebSockets.dll
 0002:00000854       __imp_?qt_metacast@QFrame@@UAEPAXPBD@Z 0046d854     Qt5Widgets:Qt5Widgets.dll
 0002:00000858       __imp_?qt_metacast@QMdiArea@@UAEPAXPBD@Z 0046d858     Qt5Widgets:Qt5Widgets.dll
 0002:0000085c       __imp_?qt_metacast@QScrollArea@@UAEPAXPBD@Z 0046d85c     Qt5Widgets:Qt5Widgets.dll
 0002:00000860       __imp_?qt_metacast@QSpinBox@@UAEPAXPBD@Z 0046d860     Qt5Widgets:Qt5Widgets.dll
 0002:00000864       __imp_?qt_metacast@QTabWidget@@UAEPAXPBD@Z 0046d864     Qt5Widgets:Qt5Widgets.dll
 0002:00000868       __imp_?resizeEvent@QMdiArea@@MAEXPAVQResizeEvent@@@Z 0046d868     Qt5Widgets:Qt5Widgets.dll
 0002:0000086c       __imp_?resizeEvent@QScrollArea@@MAEXPAVQResizeEvent@@@Z 0046d86c     Qt5Widgets:Qt5Widgets.dll
 0002:00000870       __imp_?resizeEvent@QTabWidget@@MAEXPAVQResizeEvent@@@Z 0046d870     Qt5Widgets:Qt5Widgets.dll
 0002:00000874       __imp_?scrollContentsBy@QMdiArea@@MAEXHH@Z 0046d874     Qt5Widgets:Qt5Widgets.dll
 0002:00000878       __imp_?scrollContentsBy@QScrollArea@@MAEXHH@Z 0046d878     Qt5Widgets:Qt5Widgets.dll
 0002:0000087c       __imp_?setupViewport@QMdiArea@@MAEXPAVQWidget@@@Z 0046d87c     Qt5Widgets:Qt5Widgets.dll
 0002:00000880       __imp_?showEvent@QMdiArea@@MAEXPAVQShowEvent@@@Z 0046d880     Qt5Widgets:Qt5Widgets.dll
 0002:00000884       __imp_?showEvent@QTabWidget@@MAEXPAVQShowEvent@@@Z 0046d884     Qt5Widgets:Qt5Widgets.dll
 0002:00000888       __imp_?sizeHint@QFrame@@UBE?AVQSize@@XZ 0046d888     Qt5Widgets:Qt5Widgets.dll
 0002:0000088c       __imp_?sizeHint@QMdiArea@@UBE?AVQSize@@XZ 0046d88c     Qt5Widgets:Qt5Widgets.dll
 0002:00000890       __imp_?sizeHint@QScrollArea@@UBE?AVQSize@@XZ 0046d890     Qt5Widgets:Qt5Widgets.dll
 0002:00000894       __imp_?sizeHint@QTabWidget@@UBE?AVQSize@@XZ 0046d894     Qt5Widgets:Qt5Widgets.dll
 0002:00000898       __imp_?tabInserted@QTabWidget@@MAEXH@Z 0046d898     Qt5Widgets:Qt5Widgets.dll
 0002:0000089c       __imp_?tabRemoved@QTabWidget@@MAEXH@Z 0046d89c     Qt5Widgets:Qt5Widgets.dll
 0002:000008a0       __imp_?textFromValue@QSpinBox@@MBE?AVQString@@H@Z 0046d8a0     Qt5Widgets:Qt5Widgets.dll
 0002:000008a4       __imp_?timerEvent@QMdiArea@@MAEXPAVQTimerEvent@@@Z 0046d8a4     Qt5Widgets:Qt5Widgets.dll
 0002:000008a8       __imp_?validate@QSpinBox@@MBE?AW4State@QValidator@@AAVQString@@AAH@Z 0046d8a8     Qt5Widgets:Qt5Widgets.dll
 0002:000008ac       __imp_?valueFromText@QSpinBox@@MBEHABVQString@@@Z 0046d8ac     Qt5Widgets:Qt5Widgets.dll
 0002:000008b0       __imp_?viewportEvent@QAbstractScrollArea@@MAE_NPAVQEvent@@@Z 0046d8b0     Qt5Widgets:Qt5Widgets.dll
 0002:000008b4       __imp_?viewportEvent@QMdiArea@@MAE_NPAVQEvent@@@Z 0046d8b4     Qt5Widgets:Qt5Widgets.dll
 0002:000008b8       __imp_?viewportSizeHint@QAbstractScrollArea@@MBE?AVQSize@@XZ 0046d8b8     Qt5Widgets:Qt5Widgets.dll
 0002:000008bc       __imp_?viewportSizeHint@QScrollArea@@MBE?AVQSize@@XZ 0046d8bc     Qt5Widgets:Qt5Widgets.dll
 0002:000008c0       __imp_?setMinimumSize@QWidget@@QAEXABVQSize@@@Z 0046d8c0     Qt5Widgets:Qt5Widgets.dll
 0002:000008c4       __imp_?setMaximumSize@QWidget@@QAEXABVQSize@@@Z 0046d8c4     Qt5Widgets:Qt5Widgets.dll
 0002:000008c8       __imp_?setStyleSheet@QWidget@@QAEXABVQString@@@Z 0046d8c8     Qt5Widgets:Qt5Widgets.dll
 0002:000008cc       __imp_?setWindowIcon@QWidget@@QAEXABVQIcon@@@Z 0046d8cc     Qt5Widgets:Qt5Widgets.dll
 0002:000008d0       __imp_?setStatusTip@QWidget@@QAEXABVQString@@@Z 0046d8d0     Qt5Widgets:Qt5Widgets.dll
 0002:000008d4       __imp_?setWindowFlags@QWidget@@QAEXV?$QFlags@W4WindowType@Qt@@@@@Z 0046d8d4     Qt5Widgets:Qt5Widgets.dll
 0002:000008d8       __imp_?setIcon@QAction@@QAEXABVQIcon@@@Z 0046d8d8     Qt5Widgets:Qt5Widgets.dll
 0002:000008dc       __imp_?setToolTip@QAction@@QAEXABVQString@@@Z 0046d8dc     Qt5Widgets:Qt5Widgets.dll
 0002:000008e0       __imp_?setCheckable@QAction@@QAEX_N@Z 0046d8e0     Qt5Widgets:Qt5Widgets.dll
 0002:000008e4       __imp_??0QTextEdit@@QAE@PAVQWidget@@@Z 0046d8e4     Qt5Widgets:Qt5Widgets.dll
 0002:000008e8       __imp_??1QTextEdit@@UAE@XZ 0046d8e8     Qt5Widgets:Qt5Widgets.dll
 0002:000008ec       __imp_?document@QTextEdit@@QBEPAVQTextDocument@@XZ 0046d8ec     Qt5Widgets:Qt5Widgets.dll
 0002:000008f0       __imp_?moveCursor@QTextEdit@@QAEXW4MoveOperation@QTextCursor@@W4MoveMode@3@@Z 0046d8f0     Qt5Widgets:Qt5Widgets.dll
 0002:000008f4       __imp_?clear@QTextEdit@@QAEXXZ 0046d8f4     Qt5Widgets:Qt5Widgets.dll
 0002:000008f8       __imp_?append@QTextEdit@@QAEXABVQString@@@Z 0046d8f8     Qt5Widgets:Qt5Widgets.dll
 0002:000008fc       __imp_??0QErrorMessage@@QAE@PAVQWidget@@@Z 0046d8fc     Qt5Widgets:Qt5Widgets.dll
 0002:00000900       __imp_??1QErrorMessage@@UAE@XZ 0046d900     Qt5Widgets:Qt5Widgets.dll
 0002:00000904       __imp_?showMessage@QErrorMessage@@QAEXABVQString@@@Z 0046d904     Qt5Widgets:Qt5Widgets.dll
 0002:00000908       __imp_??0QMainWindow@@QAE@PAVQWidget@@V?$QFlags@W4WindowType@Qt@@@@@Z 0046d908     Qt5Widgets:Qt5Widgets.dll
 0002:0000090c       __imp_??1QMainWindow@@UAE@XZ 0046d90c     Qt5Widgets:Qt5Widgets.dll
 0002:00000910       __imp_?setDocumentMode@QMainWindow@@QAEX_N@Z 0046d910     Qt5Widgets:Qt5Widgets.dll
 0002:00000914       __imp_?setStatusBar@QMainWindow@@QAEXPAVQStatusBar@@@Z 0046d914     Qt5Widgets:Qt5Widgets.dll
 0002:00000918       __imp_?setCentralWidget@QMainWindow@@QAEXPAVQWidget@@@Z 0046d918     Qt5Widgets:Qt5Widgets.dll
 0002:0000091c       __imp_?takeCentralWidget@QMainWindow@@QAEPAVQWidget@@XZ 0046d91c     Qt5Widgets:Qt5Widgets.dll
 0002:00000920       __imp_?addToolBar@QMainWindow@@QAEXW4ToolBarArea@Qt@@PAVQToolBar@@@Z 0046d920     Qt5Widgets:Qt5Widgets.dll
 0002:00000924       __imp_?addDockWidget@QMainWindow@@QAEXW4DockWidgetArea@Qt@@PAVQDockWidget@@@Z 0046d924     Qt5Widgets:Qt5Widgets.dll
 0002:00000928       __imp_?splitDockWidget@QMainWindow@@QAEXPAVQDockWidget@@0W4Orientation@Qt@@@Z 0046d928     Qt5Widgets:Qt5Widgets.dll
 0002:0000092c       __imp_?tabifyDockWidget@QMainWindow@@QAEXPAVQDockWidget@@0@Z 0046d92c     Qt5Widgets:Qt5Widgets.dll
 0002:00000930       __imp_?setDockNestingEnabled@QMainWindow@@QAEX_N@Z 0046d930     Qt5Widgets:Qt5Widgets.dll
 0002:00000934       __imp_??0QTextBrowser@@QAE@PAVQWidget@@@Z 0046d934     Qt5Widgets:Qt5Widgets.dll
 0002:00000938       __imp_??1QTextBrowser@@UAE@XZ 0046d938     Qt5Widgets:Qt5Widgets.dll
 0002:0000093c       __imp_?setMargin@QLayout@@QAEXH@Z 0046d93c     Qt5Widgets:Qt5Widgets.dll
 0002:00000940       __imp_??0QDockWidget@@QAE@PAVQWidget@@V?$QFlags@W4WindowType@Qt@@@@@Z 0046d940     Qt5Widgets:Qt5Widgets.dll
 0002:00000944       __imp_??1QDockWidget@@UAE@XZ 0046d944     Qt5Widgets:Qt5Widgets.dll
 0002:00000948       __imp_?setWidget@QDockWidget@@QAEXPAVQWidget@@@Z 0046d948     Qt5Widgets:Qt5Widgets.dll
 0002:0000094c       __imp_?setFeatures@QDockWidget@@QAEXV?$QFlags@W4DockWidgetFeature@QDockWidget@@@@@Z 0046d94c     Qt5Widgets:Qt5Widgets.dll
 0002:00000950       __imp_?setAllowedAreas@QDockWidget@@QAEXV?$QFlags@W4DockWidgetArea@Qt@@@@@Z 0046d950     Qt5Widgets:Qt5Widgets.dll
 0002:00000954       __imp_?setTitleBarWidget@QDockWidget@@QAEXPAVQWidget@@@Z 0046d954     Qt5Widgets:Qt5Widgets.dll
 0002:00000958       __imp_??0QStatusBar@@QAE@PAVQWidget@@@Z 0046d958     Qt5Widgets:Qt5Widgets.dll
 0002:0000095c       __imp_??1QStatusBar@@UAE@XZ 0046d95c     Qt5Widgets:Qt5Widgets.dll
 0002:00000960       __imp_?showMessage@QStatusBar@@QAEXABVQString@@H@Z 0046d960     Qt5Widgets:Qt5Widgets.dll
 0002:00000964       __imp_??0QTreeView@@QAE@PAVQWidget@@@Z 0046d964     Qt5Widgets:Qt5Widgets.dll
 0002:00000968       __imp_??1QTreeView@@UAE@XZ 0046d968     Qt5Widgets:Qt5Widgets.dll
 0002:0000096c       __imp_?backward@QTextBrowser@@UAEXXZ 0046d96c     Qt5Widgets:Qt5Widgets.dll
 0002:00000970       __imp_?canInsertFromMimeData@QTextEdit@@MBE_NPBVQMimeData@@@Z 0046d970     Qt5Widgets:Qt5Widgets.dll
 0002:00000974       __imp_?changeEvent@QDockWidget@@MAEXPAVQEvent@@@Z 0046d974     Qt5Widgets:Qt5Widgets.dll
 0002:00000978       __imp_?changeEvent@QTextEdit@@MAEXPAVQEvent@@@Z 0046d978     Qt5Widgets:Qt5Widgets.dll
 0002:0000097c       __imp_?closeEvent@QDockWidget@@MAEXPAVQCloseEvent@@@Z 0046d97c     Qt5Widgets:Qt5Widgets.dll
 0002:00000980       __imp_?contextMenuEvent@QMainWindow@@MAEXPAVQContextMenuEvent@@@Z 0046d980     Qt5Widgets:Qt5Widgets.dll
 0002:00000984       __imp_?contextMenuEvent@QTextEdit@@MAEXPAVQContextMenuEvent@@@Z 0046d984     Qt5Widgets:Qt5Widgets.dll
 0002:00000988       __imp_?createMimeDataFromSelection@QTextEdit@@MBEPAVQMimeData@@XZ 0046d988     Qt5Widgets:Qt5Widgets.dll
 0002:0000098c       __imp_?createPopupMenu@QMainWindow@@UAEPAVQMenu@@XZ 0046d98c     Qt5Widgets:Qt5Widgets.dll
 0002:00000990       __imp_?currentChanged@QTreeView@@MAEXABVQModelIndex@@0@Z 0046d990     Qt5Widgets:Qt5Widgets.dll
 0002:00000994       __imp_?dataChanged@QTreeView@@UAEXABVQModelIndex@@0ABV?$QVector@H@@@Z 0046d994     Qt5Widgets:Qt5Widgets.dll
 0002:00000998       __imp_?setCurrentText@QComboBox@@QAEXABVQString@@@Z 0046d998     Qt5Widgets:Qt5Widgets.dll
 0002:0000099c       __imp_?doSetTextCursor@QTextEdit@@MAEXABVQTextCursor@@@Z 0046d99c     Qt5Widgets:Qt5Widgets.dll
 0002:000009a0       __imp_?dragEnterEvent@QTextEdit@@MAEXPAVQDragEnterEvent@@@Z 0046d9a0     Qt5Widgets:Qt5Widgets.dll
 0002:000009a4       __imp_?dragLeaveEvent@QTextEdit@@MAEXPAVQDragLeaveEvent@@@Z 0046d9a4     Qt5Widgets:Qt5Widgets.dll
 0002:000009a8       __imp_?dragMoveEvent@QTextEdit@@MAEXPAVQDragMoveEvent@@@Z 0046d9a8     Qt5Widgets:Qt5Widgets.dll
 0002:000009ac       __imp_?dragMoveEvent@QTreeView@@MAEXPAVQDragMoveEvent@@@Z 0046d9ac     Qt5Widgets:Qt5Widgets.dll
 0002:000009b0       __imp_?drawBranches@QTreeView@@MBEXPAVQPainter@@ABVQRect@@ABVQModelIndex@@@Z 0046d9b0     Qt5Widgets:Qt5Widgets.dll
 0002:000009b4       __imp_?drawRow@QTreeView@@MBEXPAVQPainter@@ABVQStyleOptionViewItem@@ABVQModelIndex@@@Z 0046d9b4     Qt5Widgets:Qt5Widgets.dll
 0002:000009b8       __imp_?dropEvent@QAbstractItemView@@MAEXPAVQDropEvent@@@Z 0046d9b8     Qt5Widgets:Qt5Widgets.dll
 0002:000009bc       __imp_?dropEvent@QTextEdit@@MAEXPAVQDropEvent@@@Z 0046d9bc     Qt5Widgets:Qt5Widgets.dll
 0002:000009c0       __imp_?event@QAbstractItemView@@MAE_NPAVQEvent@@@Z 0046d9c0     Qt5Widgets:Qt5Widgets.dll
 0002:000009c4       __imp_?event@QDockWidget@@MAE_NPAVQEvent@@@Z 0046d9c4     Qt5Widgets:Qt5Widgets.dll
 0002:000009c8       __imp_?event@QMainWindow@@MAE_NPAVQEvent@@@Z 0046d9c8     Qt5Widgets:Qt5Widgets.dll
 0002:000009cc       __imp_?event@QStatusBar@@MAE_NPAVQEvent@@@Z 0046d9cc     Qt5Widgets:Qt5Widgets.dll
 0002:000009d0       __imp_?event@QTextBrowser@@MAE_NPAVQEvent@@@Z 0046d9d0     Qt5Widgets:Qt5Widgets.dll
 0002:000009d4       __imp_?event@QTextEdit@@MAE_NPAVQEvent@@@Z 0046d9d4     Qt5Widgets:Qt5Widgets.dll
 0002:000009d8       __imp_?eventFilter@QAbstractScrollArea@@MAE_NPAVQObject@@PAVQEvent@@@Z 0046d9d8     Qt5Widgets:Qt5Widgets.dll
 0002:000009dc       __imp_?focusInEvent@QTextEdit@@MAEXPAVQFocusEvent@@@Z 0046d9dc     Qt5Widgets:Qt5Widgets.dll
 0002:000009e0       __imp_?focusNextPrevChild@QTextBrowser@@MAE_N_N@Z 0046d9e0     Qt5Widgets:Qt5Widgets.dll
 0002:000009e4       __imp_?focusNextPrevChild@QTextEdit@@MAE_N_N@Z 0046d9e4     Qt5Widgets:Qt5Widgets.dll
 0002:000009e8       __imp_?focusOutEvent@QTextBrowser@@MAEXPAVQFocusEvent@@@Z 0046d9e8     Qt5Widgets:Qt5Widgets.dll
 0002:000009ec       __imp_?focusOutEvent@QTextEdit@@MAEXPAVQFocusEvent@@@Z 0046d9ec     Qt5Widgets:Qt5Widgets.dll
 0002:000009f0       __imp_?forward@QTextBrowser@@UAEXXZ 0046d9f0     Qt5Widgets:Qt5Widgets.dll
 0002:000009f4       __imp_?home@QTextBrowser@@UAEXXZ 0046d9f4     Qt5Widgets:Qt5Widgets.dll
 0002:000009f8       __imp_?horizontalOffset@QTreeView@@MBEHXZ 0046d9f8     Qt5Widgets:Qt5Widgets.dll
 0002:000009fc       __imp_?horizontalScrollbarAction@QTreeView@@MAEXH@Z 0046d9fc     Qt5Widgets:Qt5Widgets.dll
 0002:00000a00       __imp_?indexAt@QTreeView@@UBE?AVQModelIndex@@ABVQPoint@@@Z 0046da00     Qt5Widgets:Qt5Widgets.dll
 0002:00000a04       __imp_?inputMethodEvent@QTextEdit@@MAEXPAVQInputMethodEvent@@@Z 0046da04     Qt5Widgets:Qt5Widgets.dll
 0002:00000a08       __imp_?inputMethodQuery@QTextEdit@@UBE?AVQVariant@@W4InputMethodQuery@Qt@@@Z 0046da08     Qt5Widgets:Qt5Widgets.dll
 0002:00000a0c       __imp_?insertFromMimeData@QTextEdit@@MAEXPBVQMimeData@@@Z 0046da0c     Qt5Widgets:Qt5Widgets.dll
 0002:00000a10       __imp_?isIndexHidden@QTreeView@@MBE_NABVQModelIndex@@@Z 0046da10     Qt5Widgets:Qt5Widgets.dll
 0002:00000a14       __imp_?keyPressEvent@QTextBrowser@@MAEXPAVQKeyEvent@@@Z 0046da14     Qt5Widgets:Qt5Widgets.dll
 0002:00000a18       __imp_?keyPressEvent@QTextEdit@@MAEXPAVQKeyEvent@@@Z 0046da18     Qt5Widgets:Qt5Widgets.dll
 0002:00000a1c       __imp_?keyPressEvent@QTreeView@@MAEXPAVQKeyEvent@@@Z 0046da1c     Qt5Widgets:Qt5Widgets.dll
 0002:00000a20       __imp_?keyReleaseEvent@QTextEdit@@MAEXPAVQKeyEvent@@@Z 0046da20     Qt5Widgets:Qt5Widgets.dll
 0002:00000a24       __imp_?keyboardSearch@QTreeView@@UAEXABVQString@@@Z 0046da24     Qt5Widgets:Qt5Widgets.dll
 0002:00000a28       __imp_?loadResource@QTextBrowser@@UAE?AVQVariant@@HABVQUrl@@@Z 0046da28     Qt5Widgets:Qt5Widgets.dll
 0002:00000a2c       __imp_?loadResource@QTextEdit@@UAE?AVQVariant@@HABVQUrl@@@Z 0046da2c     Qt5Widgets:Qt5Widgets.dll
 0002:00000a30       __imp_?metaObject@QDockWidget@@UBEPBUQMetaObject@@XZ 0046da30     Qt5Widgets:Qt5Widgets.dll
 0002:00000a34       __imp_?metaObject@QStatusBar@@UBEPBUQMetaObject@@XZ 0046da34     Qt5Widgets:Qt5Widgets.dll
 0002:00000a38       __imp_?metaObject@QTextBrowser@@UBEPBUQMetaObject@@XZ 0046da38     Qt5Widgets:Qt5Widgets.dll
 0002:00000a3c       __imp_?metaObject@QTextEdit@@UBEPBUQMetaObject@@XZ 0046da3c     Qt5Widgets:Qt5Widgets.dll
 0002:00000a40       __imp_?metaObject@QTreeView@@UBEPBUQMetaObject@@XZ 0046da40     Qt5Widgets:Qt5Widgets.dll
 0002:00000a44       __imp_?mouseDoubleClickEvent@QTextEdit@@MAEXPAVQMouseEvent@@@Z 0046da44     Qt5Widgets:Qt5Widgets.dll
 0002:00000a48       __imp_?mouseDoubleClickEvent@QTreeView@@MAEXPAVQMouseEvent@@@Z 0046da48     Qt5Widgets:Qt5Widgets.dll
 0002:00000a4c       __imp_?mouseMoveEvent@QTextBrowser@@MAEXPAVQMouseEvent@@@Z 0046da4c     Qt5Widgets:Qt5Widgets.dll
 0002:00000a50       __imp_?mouseMoveEvent@QTextEdit@@MAEXPAVQMouseEvent@@@Z 0046da50     Qt5Widgets:Qt5Widgets.dll
 0002:00000a54       __imp_?mouseMoveEvent@QTreeView@@MAEXPAVQMouseEvent@@@Z 0046da54     Qt5Widgets:Qt5Widgets.dll
 0002:00000a58       __imp_?mousePressEvent@QTextBrowser@@MAEXPAVQMouseEvent@@@Z 0046da58     Qt5Widgets:Qt5Widgets.dll
 0002:00000a5c       __imp_?mousePressEvent@QTextEdit@@MAEXPAVQMouseEvent@@@Z 0046da5c     Qt5Widgets:Qt5Widgets.dll
 0002:00000a60       __imp_?mousePressEvent@QTreeView@@MAEXPAVQMouseEvent@@@Z 0046da60     Qt5Widgets:Qt5Widgets.dll
 0002:00000a64       __imp_?mouseReleaseEvent@QTextBrowser@@MAEXPAVQMouseEvent@@@Z 0046da64     Qt5Widgets:Qt5Widgets.dll
 0002:00000a68       __imp_?mouseReleaseEvent@QTextEdit@@MAEXPAVQMouseEvent@@@Z 0046da68     Qt5Widgets:Qt5Widgets.dll
 0002:00000a6c       __imp_?mouseReleaseEvent@QTreeView@@MAEXPAVQMouseEvent@@@Z 0046da6c     Qt5Widgets:Qt5Widgets.dll
 0002:00000a70       __imp_?moveCursor@QTreeView@@MAE?AVQModelIndex@@W4CursorAction@QAbstractItemView@@V?$QFlags@W4KeyboardModifier@Qt@@@@@Z 0046da70     Qt5Widgets:Qt5Widgets.dll
 0002:00000a74       __imp_?qt_metacast@QButtonGroup@@UAEPAXPBD@Z 0046da74     Qt5Widgets:Qt5Widgets.dll
 0002:00000a78       __imp_?paintEvent@QStatusBar@@MAEXPAVQPaintEvent@@@Z 0046da78     Qt5Widgets:Qt5Widgets.dll
 0002:00000a7c       __imp_?paintEvent@QTextBrowser@@MAEXPAVQPaintEvent@@@Z 0046da7c     Qt5Widgets:Qt5Widgets.dll
 0002:00000a80       __imp_?paintEvent@QTextEdit@@MAEXPAVQPaintEvent@@@Z 0046da80     Qt5Widgets:Qt5Widgets.dll
 0002:00000a84       __imp_?paintEvent@QTreeView@@MAEXPAVQPaintEvent@@@Z 0046da84     Qt5Widgets:Qt5Widgets.dll
 0002:00000a88       __imp_?qt_metacall@QDockWidget@@UAEHW4Call@QMetaObject@@HPAPAX@Z 0046da88     Qt5Widgets:Qt5Widgets.dll
 0002:00000a8c       __imp_?qt_metacall@QStatusBar@@UAEHW4Call@QMetaObject@@HPAPAX@Z 0046da8c     Qt5Widgets:Qt5Widgets.dll
 0002:00000a90       __imp_?qt_metacall@QTextBrowser@@UAEHW4Call@QMetaObject@@HPAPAX@Z 0046da90     Qt5Widgets:Qt5Widgets.dll
 0002:00000a94       __imp_?qt_metacall@QTextEdit@@UAEHW4Call@QMetaObject@@HPAPAX@Z 0046da94     Qt5Widgets:Qt5Widgets.dll
 0002:00000a98       __imp_?qt_metacall@QTreeView@@UAEHW4Call@QMetaObject@@HPAPAX@Z 0046da98     Qt5Widgets:Qt5Widgets.dll
 0002:00000a9c       __imp_?qt_metacast@QDockWidget@@UAEPAXPBD@Z 0046da9c     Qt5Widgets:Qt5Widgets.dll
 0002:00000aa0       __imp_?qt_metacast@QStatusBar@@UAEPAXPBD@Z 0046daa0     Qt5Widgets:Qt5Widgets.dll
 0002:00000aa4       __imp_?qt_metacast@QTextBrowser@@UAEPAXPBD@Z 0046daa4     Qt5Widgets:Qt5Widgets.dll
 0002:00000aa8       __imp_?qt_metacast@QTextEdit@@UAEPAXPBD@Z 0046daa8     Qt5Widgets:Qt5Widgets.dll
 0002:00000aac       __imp_?qt_metacast@QTreeView@@UAEPAXPBD@Z 0046daac     Qt5Widgets:Qt5Widgets.dll
 0002:00000ab0       __imp_?reload@QTextBrowser@@UAEXXZ 0046dab0     Qt5Widgets:Qt5Widgets.dll
 0002:00000ab4       __imp_?reset@QTreeView@@UAEXXZ 0046dab4     Qt5Widgets:Qt5Widgets.dll
 0002:00000ab8       __imp_?resizeEvent@QStatusBar@@MAEXPAVQResizeEvent@@@Z 0046dab8     Qt5Widgets:Qt5Widgets.dll
 0002:00000abc       __imp_?resizeEvent@QTextEdit@@MAEXPAVQResizeEvent@@@Z 0046dabc     Qt5Widgets:Qt5Widgets.dll
 0002:00000ac0       __imp_?rowsAboutToBeRemoved@QTreeView@@MAEXABVQModelIndex@@HH@Z 0046dac0     Qt5Widgets:Qt5Widgets.dll
 0002:00000ac4       __imp_?rowsInserted@QTreeView@@MAEXABVQModelIndex@@HH@Z 0046dac4     Qt5Widgets:Qt5Widgets.dll
 0002:00000ac8       __imp_?scrollContentsBy@QTextEdit@@MAEXHH@Z 0046dac8     Qt5Widgets:Qt5Widgets.dll
 0002:00000acc       __imp_?scrollContentsBy@QTreeView@@MAEXHH@Z 0046dacc     Qt5Widgets:Qt5Widgets.dll
 0002:00000ad0       __imp_?scrollTo@QTreeView@@UAEXABVQModelIndex@@W4ScrollHint@QAbstractItemView@@@Z 0046dad0     Qt5Widgets:Qt5Widgets.dll
 0002:00000ad4       __imp_?minimumSizeHint@QTabWidget@@UBE?AVQSize@@XZ 0046dad4     Qt5Widgets:Qt5Widgets.dll
 0002:00000ad8       __imp_?selectedIndexes@QTreeView@@MBE?AV?$QList@VQModelIndex@@@@XZ 0046dad8     Qt5Widgets:Qt5Widgets.dll
 0002:00000adc       __imp_?selectionChanged@QTreeView@@MAEXABVQItemSelection@@0@Z 0046dadc     Qt5Widgets:Qt5Widgets.dll
 0002:00000ae0       __imp_?setModel@QTreeView@@UAEXPAVQAbstractItemModel@@@Z 0046dae0     Qt5Widgets:Qt5Widgets.dll
 0002:00000ae4       __imp_?setRootIndex@QTreeView@@UAEXABVQModelIndex@@@Z 0046dae4     Qt5Widgets:Qt5Widgets.dll
 0002:00000ae8       __imp_?setSelection@QTreeView@@MAEXABVQRect@@V?$QFlags@W4SelectionFlag@QItemSelectionModel@@@@@Z 0046dae8     Qt5Widgets:Qt5Widgets.dll
 0002:00000aec       __imp_?setSelectionModel@QTreeView@@UAEXPAVQItemSelectionModel@@@Z 0046daec     Qt5Widgets:Qt5Widgets.dll
 0002:00000af0       __imp_?setSource@QTextBrowser@@UAEXABVQUrl@@@Z 0046daf0     Qt5Widgets:Qt5Widgets.dll
 0002:00000af4       __imp_?showEvent@QStatusBar@@MAEXPAVQShowEvent@@@Z 0046daf4     Qt5Widgets:Qt5Widgets.dll
 0002:00000af8       __imp_?showEvent@QTextEdit@@MAEXPAVQShowEvent@@@Z 0046daf8     Qt5Widgets:Qt5Widgets.dll
 0002:00000afc       __imp_?sizeHintForColumn@QTreeView@@MBEHH@Z 0046dafc     Qt5Widgets:Qt5Widgets.dll
 0002:00000b00       __imp_?sizeHintForRow@QAbstractItemView@@UBEHH@Z 0046db00     Qt5Widgets:Qt5Widgets.dll
 0002:00000b04       __imp_?timerEvent@QTextEdit@@MAEXPAVQTimerEvent@@@Z 0046db04     Qt5Widgets:Qt5Widgets.dll
 0002:00000b08       __imp_?timerEvent@QTreeView@@MAEXPAVQTimerEvent@@@Z 0046db08     Qt5Widgets:Qt5Widgets.dll
 0002:00000b0c       __imp_?updateGeometries@QTreeView@@MAEXXZ 0046db0c     Qt5Widgets:Qt5Widgets.dll
 0002:00000b10       __imp_?verticalOffset@QTreeView@@MBEHXZ 0046db10     Qt5Widgets:Qt5Widgets.dll
 0002:00000b14       __imp_?verticalScrollbarAction@QAbstractItemView@@MAEXH@Z 0046db14     Qt5Widgets:Qt5Widgets.dll
 0002:00000b18       __imp_?verticalScrollbarValueChanged@QTreeView@@MAEXH@Z 0046db18     Qt5Widgets:Qt5Widgets.dll
 0002:00000b1c       __imp_?viewOptions@QAbstractItemView@@MBE?AVQStyleOptionViewItem@@XZ 0046db1c     Qt5Widgets:Qt5Widgets.dll
 0002:00000b20       __imp_?viewportEvent@QTreeView@@MAE_NPAVQEvent@@@Z 0046db20     Qt5Widgets:Qt5Widgets.dll
 0002:00000b24       __imp_?viewportSizeHint@QTreeView@@MBE?AVQSize@@XZ 0046db24     Qt5Widgets:Qt5Widgets.dll
 0002:00000b28       __imp_?visualRect@QTreeView@@UBE?AVQRect@@ABVQModelIndex@@@Z 0046db28     Qt5Widgets:Qt5Widgets.dll
 0002:00000b2c       __imp_?visualRegionForSelection@QTreeView@@MBE?AVQRegion@@ABVQItemSelection@@@Z 0046db2c     Qt5Widgets:Qt5Widgets.dll
 0002:00000b30       __imp_?wheelEvent@QTextEdit@@MAEXPAVQWheelEvent@@@Z 0046db30     Qt5Widgets:Qt5Widgets.dll
 0002:00000b34       __imp_?setBaseSize@QWidget@@QAEXABVQSize@@@Z 0046db34     Qt5Widgets:Qt5Widgets.dll
 0002:00000b38       __imp_?setShortcut@QAction@@QAEXABVQKeySequence@@@Z 0046db38     Qt5Widgets:Qt5Widgets.dll
 0002:00000b3c       __imp_?setMinimum@QDoubleSpinBox@@QAEXN@Z 0046db3c     Qt5Widgets:Qt5Widgets.dll
 0002:00000b40       __imp_?clicked@QAbstractButton@@QAEX_N@Z 0046db40     Qt5Widgets:Qt5Widgets.dll
 0002:00000b44       __imp_?currentIndex@QComboBox@@QBEHXZ 0046db44     Qt5Widgets:Qt5Widgets.dll
 0002:00000b48       __imp_?setCurrentIndex@QComboBox@@QAEXH@Z 0046db48     Qt5Widgets:Qt5Widgets.dll
 0002:00000b4c       __imp_??0QGroupBox@@QAE@PAVQWidget@@@Z 0046db4c     Qt5Widgets:Qt5Widgets.dll
 0002:00000b50       __imp_??1QGroupBox@@UAE@XZ 0046db50     Qt5Widgets:Qt5Widgets.dll
 0002:00000b54       __imp_?setTitle@QGroupBox@@QAEXABVQString@@@Z 0046db54     Qt5Widgets:Qt5Widgets.dll
 0002:00000b58       __imp_?setAlignment@QLabel@@QAEXV?$QFlags@W4AlignmentFlag@Qt@@@@@Z 0046db58     Qt5Widgets:Qt5Widgets.dll
 0002:00000b5c       __imp_?setValidator@QLineEdit@@QAEXPBVQValidator@@@Z 0046db5c     Qt5Widgets:Qt5Widgets.dll
 0002:00000b60       __imp_?setInputMask@QLineEdit@@QAEXABVQString@@@Z 0046db60     Qt5Widgets:Qt5Widgets.dll
 0002:00000b64       __imp_?warning@QMessageBox@@SA?AW4StandardButton@1@PAVQWidget@@ABVQString@@1V?$QFlags@W4StandardButton@QMessageBox@@@@W421@@Z 0046db64     Qt5Widgets:Qt5Widgets.dll
 0002:00000b68       __imp_?getDouble@QInputDialog@@SANPAVQWidget@@ABVQString@@1NNNHPA_NV?$QFlags@W4WindowType@Qt@@@@@Z 0046db68     Qt5Widgets:Qt5Widgets.dll
 0002:00000b6c       __imp_?changeEvent@QGroupBox@@MAEXPAVQEvent@@@Z 0046db6c     Qt5Widgets:Qt5Widgets.dll
 0002:00000b70       __imp_?childEvent@QGroupBox@@MAEXPAVQChildEvent@@@Z 0046db70     Qt5Widgets:Qt5Widgets.dll
 0002:00000b74       __imp_?event@QGroupBox@@MAE_NPAVQEvent@@@Z 0046db74     Qt5Widgets:Qt5Widgets.dll
 0002:00000b78       __imp_?focusInEvent@QGroupBox@@MAEXPAVQFocusEvent@@@Z 0046db78     Qt5Widgets:Qt5Widgets.dll
 0002:00000b7c       __imp_?metaObject@QGroupBox@@UBEPBUQMetaObject@@XZ 0046db7c     Qt5Widgets:Qt5Widgets.dll
 0002:00000b80       __imp_?minimumSizeHint@QGroupBox@@UBE?AVQSize@@XZ 0046db80     Qt5Widgets:Qt5Widgets.dll
 0002:00000b84       __imp_?mouseMoveEvent@QGroupBox@@MAEXPAVQMouseEvent@@@Z 0046db84     Qt5Widgets:Qt5Widgets.dll
 0002:00000b88       __imp_?mousePressEvent@QGroupBox@@MAEXPAVQMouseEvent@@@Z 0046db88     Qt5Widgets:Qt5Widgets.dll
 0002:00000b8c       __imp_?mouseReleaseEvent@QGroupBox@@MAEXPAVQMouseEvent@@@Z 0046db8c     Qt5Widgets:Qt5Widgets.dll
 0002:00000b90       __imp_?paintEvent@QGroupBox@@MAEXPAVQPaintEvent@@@Z 0046db90     Qt5Widgets:Qt5Widgets.dll
 0002:00000b94       __imp_?qt_metacall@QGroupBox@@UAEHW4Call@QMetaObject@@HPAPAX@Z 0046db94     Qt5Widgets:Qt5Widgets.dll
 0002:00000b98       __imp_?qt_metacast@QGroupBox@@UAEPAXPBD@Z 0046db98     Qt5Widgets:Qt5Widgets.dll
 0002:00000b9c       __imp_?resizeEvent@QGroupBox@@MAEXPAVQResizeEvent@@@Z 0046db9c     Qt5Widgets:Qt5Widgets.dll
 0002:00000ba0       __imp_?staticMetaObject@QWidget@@2UQMetaObject@@B 0046dba0     Qt5Widgets:Qt5Widgets.dll
 0002:00000ba4       __imp_?staticMetaObject@QDialog@@2UQMetaObject@@B 0046dba4     Qt5Widgets:Qt5Widgets.dll
 0002:00000ba8       __imp_?qt_metacast@QDialog@@UAEPAXPBD@Z 0046dba8     Qt5Widgets:Qt5Widgets.dll
 0002:00000bac       __imp_?qt_metacall@QDialog@@UAEHW4Call@QMetaObject@@HPAPAX@Z 0046dbac     Qt5Widgets:Qt5Widgets.dll
 0002:00000bb0       __imp_?staticMetaObject@QMainWindow@@2UQMetaObject@@B 0046dbb0     Qt5Widgets:Qt5Widgets.dll
 0002:00000bb4       __imp_?qt_metacast@QMainWindow@@UAEPAXPBD@Z 0046dbb4     Qt5Widgets:Qt5Widgets.dll
 0002:00000bb8       __imp_?qt_metacall@QMainWindow@@UAEHW4Call@QMetaObject@@HPAPAX@Z 0046dbb8     Qt5Widgets:Qt5Widgets.dll
 0002:00000bbc       __imp_?setItemText@QComboBox@@QAEXHABVQString@@@Z 0046dbbc     Qt5Widgets:Qt5Widgets.dll
 0002:00000bc0       __imp_?addTab@QTabWidget@@QAEHPAVQWidget@@ABVQString@@@Z 0046dbc0     Qt5Widgets:Qt5Widgets.dll
 0002:00000bc4       __imp_??1QTabWidget@@UAE@XZ 0046dbc4     Qt5Widgets:Qt5Widgets.dll
 0002:00000bc8       __imp_??0QTabWidget@@QAE@PAVQWidget@@@Z 0046dbc8     Qt5Widgets:Qt5Widgets.dll
 0002:00000bcc       __imp_?setFrameShadow@QFrame@@QAEXW4Shadow@1@@Z 0046dbcc     Qt5Widgets:Qt5Widgets.dll
 0002:00000bd0       __imp_?setFrameShape@QFrame@@QAEXW4Shape@1@@Z 0046dbd0     Qt5Widgets:Qt5Widgets.dll
 0002:00000bd4       __imp_??1QFrame@@UAE@XZ    0046dbd4     Qt5Widgets:Qt5Widgets.dll
 0002:00000bd8       __imp_??0QFrame@@QAE@PAVQWidget@@V?$QFlags@W4WindowType@Qt@@@@@Z 0046dbd8     Qt5Widgets:Qt5Widgets.dll
 0002:00000bdc       __imp_?itemAtPosition@QGridLayout@@QBEPAVQLayoutItem@@HH@Z 0046dbdc     Qt5Widgets:Qt5Widgets.dll
 0002:00000be0       __imp_?setRowMinimumHeight@QGridLayout@@QAEXHH@Z 0046dbe0     Qt5Widgets:Qt5Widgets.dll
 0002:00000be4       __imp_?setColumnStretch@QGridLayout@@QAEXHH@Z 0046dbe4     Qt5Widgets:Qt5Widgets.dll
 0002:00000be8       __imp_?setRowStretch@QGridLayout@@QAEXHH@Z 0046dbe8     Qt5Widgets:Qt5Widgets.dll
 0002:00000bec       __imp_??0QVBoxLayout@@QAE@XZ 0046dbec     Qt5Widgets:Qt5Widgets.dll
 0002:00000bf0       __imp_?removeItem@QLayout@@QAEXPAVQLayoutItem@@@Z 0046dbf0     Qt5Widgets:Qt5Widgets.dll
 0002:00000bf4       __imp_?setParent@QWidget@@QAEXPAV1@@Z 0046dbf4     Qt5Widgets:Qt5Widgets.dll
 0002:00000bf8       __imp_?setLayout@QWidget@@QAEXPAVQLayout@@@Z 0046dbf8     Qt5Widgets:Qt5Widgets.dll
 0002:00000bfc       __imp_?adjustSize@QWidget@@QAEXXZ 0046dbfc     Qt5Widgets:Qt5Widgets.dll
 0002:00000c00       __imp_?setGeometry@QWidget@@QAEXABVQRect@@@Z 0046dc00     Qt5Widgets:Qt5Widgets.dll
 0002:00000c04       __imp_?setToolTip@QWidget@@QAEXABVQString@@@Z 0046dc04     Qt5Widgets:Qt5Widgets.dll
 0002:00000c08       __imp_?setFont@QWidget@@QAEXABVQFont@@@Z 0046dc08     Qt5Widgets:Qt5Widgets.dll
 0002:00000c0c       __imp_?setMaximumHeight@QWidget@@QAEXH@Z 0046dc0c     Qt5Widgets:Qt5Widgets.dll
 0002:00000c10       __imp_?setMinimumWidth@QWidget@@QAEXH@Z 0046dc10     Qt5Widgets:Qt5Widgets.dll
 0002:00000c14       __imp_?showMaximized@QWidget@@QAEXXZ 0046dc14     Qt5Widgets:Qt5Widgets.dll
 0002:00000c18       __imp_?exec@QApplication@@SAHXZ 0046dc18     Qt5Widgets:Qt5Widgets.dll
 0002:00000c1c       __imp_?setFont@QApplication@@SAXABVQFont@@PBD@Z 0046dc1c     Qt5Widgets:Qt5Widgets.dll
 0002:00000c20       __imp_??1QApplication@@UAE@XZ 0046dc20     Qt5Widgets:Qt5Widgets.dll
 0002:00000c24       __imp_??0QApplication@@QAE@AAHPAPADH@Z 0046dc24     Qt5Widgets:Qt5Widgets.dll
 0002:00000c28       __imp_?staticMetaObject@QAction@@2UQMetaObject@@B 0046dc28     Qt5Widgets:Qt5Widgets.dll
 0002:00000c2c       __imp_?wheelEvent@QMenu@@MAEXPAVQWheelEvent@@@Z 0046dc2c     Qt5Widgets:Qt5Widgets.dll
 0002:00000c30       __imp_?timerEvent@QMenu@@MAEXPAVQTimerEvent@@@Z 0046dc30     Qt5Widgets:Qt5Widgets.dll
 0002:00000c34       __imp_?sizeHint@QMenu@@UBE?AVQSize@@XZ 0046dc34     Qt5Widgets:Qt5Widgets.dll
 0002:00000c38       __imp_?qt_metacast@QMenu@@UAEPAXPBD@Z 0046dc38     Qt5Widgets:Qt5Widgets.dll
 0002:00000c3c       __imp_?qt_metacast@QAction@@UAEPAXPBD@Z 0046dc3c     Qt5Widgets:Qt5Widgets.dll
 0002:00000c40       __imp_?qt_metacall@QMenu@@UAEHW4Call@QMetaObject@@HPAPAX@Z 0046dc40     Qt5Widgets:Qt5Widgets.dll
 0002:00000c44       __imp_?qt_metacall@QAction@@UAEHW4Call@QMetaObject@@HPAPAX@Z 0046dc44     Qt5Widgets:Qt5Widgets.dll
 0002:00000c48       __imp_?paintEvent@QMenu@@MAEXPAVQPaintEvent@@@Z 0046dc48     Qt5Widgets:Qt5Widgets.dll
 0002:00000c4c       __imp_?mouseReleaseEvent@QMenu@@MAEXPAVQMouseEvent@@@Z 0046dc4c     Qt5Widgets:Qt5Widgets.dll
 0002:00000c50       __imp_?mousePressEvent@QMenu@@MAEXPAVQMouseEvent@@@Z 0046dc50     Qt5Widgets:Qt5Widgets.dll
 0002:00000c54       __imp_?mouseMoveEvent@QMenu@@MAEXPAVQMouseEvent@@@Z 0046dc54     Qt5Widgets:Qt5Widgets.dll
 0002:00000c58       __imp_?metaObject@QMenu@@UBEPBUQMetaObject@@XZ 0046dc58     Qt5Widgets:Qt5Widgets.dll
 0002:00000c5c       __imp_?metaObject@QAction@@UBEPBUQMetaObject@@XZ 0046dc5c     Qt5Widgets:Qt5Widgets.dll
 0002:00000c60       __imp_?leaveEvent@QMenu@@MAEXPAVQEvent@@@Z 0046dc60     Qt5Widgets:Qt5Widgets.dll
 0002:00000c64       __imp_?keyPressEvent@QMenu@@MAEXPAVQKeyEvent@@@Z 0046dc64     Qt5Widgets:Qt5Widgets.dll
 0002:00000c68       __imp_?hideEvent@QMenu@@MAEXPAVQHideEvent@@@Z 0046dc68     Qt5Widgets:Qt5Widgets.dll
 0002:00000c6c       __imp_?focusNextPrevChild@QMenu@@MAE_N_N@Z 0046dc6c     Qt5Widgets:Qt5Widgets.dll
 0002:00000c70       __imp_?event@QMenu@@MAE_NPAVQEvent@@@Z 0046dc70     Qt5Widgets:Qt5Widgets.dll
 0002:00000c74       __imp_?event@QAction@@MAE_NPAVQEvent@@@Z 0046dc74     Qt5Widgets:Qt5Widgets.dll
 0002:00000c78       __imp_?enterEvent@QMenu@@MAEXPAVQEvent@@@Z 0046dc78     Qt5Widgets:Qt5Widgets.dll
 0002:00000c7c       __imp_?changeEvent@QMenu@@MAEXPAVQEvent@@@Z 0046dc7c     Qt5Widgets:Qt5Widgets.dll
 0002:00000c80       __imp_?actionEvent@QMenu@@MAEXPAVQActionEvent@@@Z 0046dc80     Qt5Widgets:Qt5Widgets.dll
 0002:00000c84       __imp_?getOpenFileName@QFileDialog@@SA?AVQString@@PAVQWidget@@ABV2@11PAV2@V?$QFlags@W4Option@QFileDialog@@@@@Z 0046dc84     Qt5Widgets:Qt5Widgets.dll
 0002:00000c88       __imp_?setSpacing@QGridLayout@@QAEXH@Z 0046dc88     Qt5Widgets:Qt5Widgets.dll
 0002:00000c8c       __imp_??0QGridLayout@@QAE@PAVQWidget@@@Z 0046dc8c     Qt5Widgets:Qt5Widgets.dll
 0002:00000c90       __imp_?exec@QMenu@@QAEPAVQAction@@ABVQPoint@@PAV2@@Z 0046dc90     Qt5Widgets:Qt5Widgets.dll
 0002:00000c94       __imp_?addSeparator@QMenu@@QAEPAVQAction@@XZ 0046dc94     Qt5Widgets:Qt5Widgets.dll
 0002:00000c98       __imp_??1QMenu@@UAE@XZ     0046dc98     Qt5Widgets:Qt5Widgets.dll
 0002:00000c9c       __imp_?qt_metacall@QTabWidget@@UAEHW4Call@QMetaObject@@HPAPAX@Z 0046dc9c     Qt5Widgets:Qt5Widgets.dll
 0002:00000ca0       __imp_?qt_metacall@QSpinBox@@UAEHW4Call@QMetaObject@@HPAPAX@Z 0046dca0     Qt5Widgets:Qt5Widgets.dll
 0002:00000ca4       __imp_?qt_metacall@QScrollArea@@UAEHW4Call@QMetaObject@@HPAPAX@Z 0046dca4     Qt5Widgets:Qt5Widgets.dll
 0002:00000ca8       __imp_?qt_metacall@QMdiArea@@UAEHW4Call@QMetaObject@@HPAPAX@Z 0046dca8     Qt5Widgets:Qt5Widgets.dll
 0002:00000cac       __imp_?qt_metacall@QFrame@@UAEHW4Call@QMetaObject@@HPAPAX@Z 0046dcac     Qt5Widgets:Qt5Widgets.dll
 0002:00000cb0       __imp_?qt_metacall@QButtonGroup@@UAEHW4Call@QMetaObject@@HPAPAX@Z 0046dcb0     Qt5Widgets:Qt5Widgets.dll
 0002:00000cb4       __imp_?paintEvent@QTabWidget@@MAEXPAVQPaintEvent@@@Z 0046dcb4     Qt5Widgets:Qt5Widgets.dll
 0002:00000cb8       __imp_?paintEvent@QMdiArea@@MAEXPAVQPaintEvent@@@Z 0046dcb8     Qt5Widgets:Qt5Widgets.dll
 0002:00000cbc       __imp_?paintEvent@QFrame@@MAEXPAVQPaintEvent@@@Z 0046dcbc     Qt5Widgets:Qt5Widgets.dll
 0002:00000cc0       __imp_?paintEvent@QAbstractScrollArea@@MAEXPAVQPaintEvent@@@Z 0046dcc0     Qt5Widgets:Qt5Widgets.dll
 0002:00000cc4       __imp_?mouseReleaseEvent@QAbstractScrollArea@@MAEXPAVQMouseEvent@@@Z 0046dcc4     Qt5Widgets:Qt5Widgets.dll
 0002:00000cc8       __imp_?mousePressEvent@QAbstractScrollArea@@MAEXPAVQMouseEvent@@@Z 0046dcc8     Qt5Widgets:Qt5Widgets.dll
 0002:00000ccc       __imp_?mouseMoveEvent@QAbstractScrollArea@@MAEXPAVQMouseEvent@@@Z 0046dccc     Qt5Widgets:Qt5Widgets.dll
 0002:00000cd0       __imp_?paintEvent@QDockWidget@@MAEXPAVQPaintEvent@@@Z 0046dcd0     Qt5Widgets:Qt5Widgets.dll
 0002:00000cd4       __imp_?mouseDoubleClickEvent@QAbstractScrollArea@@MAEXPAVQMouseEvent@@@Z 0046dcd4     Qt5Widgets:Qt5Widgets.dll
 0002:00000cd8       __imp_??0QMenu@@QAE@PAVQWidget@@@Z 0046dcd8     Qt5Widgets:Qt5Widgets.dll
 0002:00000cdc       __imp_?triggered@QAction@@QAEX_N@Z 0046dcdc     Qt5Widgets:Qt5Widgets.dll
 0002:00000ce0       __imp_?text@QAction@@QBE?AVQString@@XZ 0046dce0     Qt5Widgets:Qt5Widgets.dll
 0002:00000ce4       __imp_?setText@QAction@@QAEXABVQString@@@Z 0046dce4     Qt5Widgets:Qt5Widgets.dll
 0002:00000ce8       __imp_??1QAction@@UAE@XZ   0046dce8     Qt5Widgets:Qt5Widgets.dll
 0002:00000cec       __imp_??0QAction@@QAE@PAVQObject@@@Z 0046dcec     Qt5Widgets:Qt5Widgets.dll
 0002:00000cf0       __imp_?addAction@QWidget@@QAEXPAVQAction@@@Z 0046dcf0     Qt5Widgets:Qt5Widgets.dll
 0002:00000cf4       __imp_?raise@QWidget@@QAEXXZ 0046dcf4     Qt5Widgets:Qt5Widgets.dll
 0002:00000cf8       __imp_?show@QWidget@@QAEXXZ 0046dcf8     Qt5Widgets:Qt5Widgets.dll
 0002:00000cfc       __imp_?setContextMenuPolicy@QWidget@@QAEXW4ContextMenuPolicy@Qt@@@Z 0046dcfc     Qt5Widgets:Qt5Widgets.dll
 0002:00000d00       __imp_?wheelEvent@QComboBox@@MAEXPAVQWheelEvent@@@Z 0046dd00     Qt5Widgets:Qt5Widgets.dll
 0002:00000d04       __imp_?sizeHint@QComboBox@@UBE?AVQSize@@XZ 0046dd04     Qt5Widgets:Qt5Widgets.dll
 0002:00000d08       __imp_?sizeHint@QCheckBox@@UBE?AVQSize@@XZ 0046dd08     Qt5Widgets:Qt5Widgets.dll
 0002:00000d0c       __imp_?showPopup@QComboBox@@UAEXXZ 0046dd0c     Qt5Widgets:Qt5Widgets.dll
 0002:00000d10       __imp_?showEvent@QComboBox@@MAEXPAVQShowEvent@@@Z 0046dd10     Qt5Widgets:Qt5Widgets.dll
 0002:00000d14       __imp_?resizeEvent@QComboBox@@MAEXPAVQResizeEvent@@@Z 0046dd14     Qt5Widgets:Qt5Widgets.dll
 0002:00000d18       __imp_?qt_metacast@QComboBox@@UAEPAXPBD@Z 0046dd18     Qt5Widgets:Qt5Widgets.dll
 0002:00000d1c       __imp_?qt_metacast@QCheckBox@@UAEPAXPBD@Z 0046dd1c     Qt5Widgets:Qt5Widgets.dll
 0002:00000d20       __imp_?qt_metacall@QComboBox@@UAEHW4Call@QMetaObject@@HPAPAX@Z 0046dd20     Qt5Widgets:Qt5Widgets.dll
 0002:00000d24       __imp_?qt_metacall@QCheckBox@@UAEHW4Call@QMetaObject@@HPAPAX@Z 0046dd24     Qt5Widgets:Qt5Widgets.dll
 0002:00000d28       __imp_?paintEvent@QComboBox@@MAEXPAVQPaintEvent@@@Z 0046dd28     Qt5Widgets:Qt5Widgets.dll
 0002:00000d2c       __imp_?paintEvent@QCheckBox@@MAEXPAVQPaintEvent@@@Z 0046dd2c     Qt5Widgets:Qt5Widgets.dll
 0002:00000d30       __imp_?nextCheckState@QCheckBox@@MAEXXZ 0046dd30     Qt5Widgets:Qt5Widgets.dll
 0002:00000d34       __imp_?mouseReleaseEvent@QComboBox@@MAEXPAVQMouseEvent@@@Z 0046dd34     Qt5Widgets:Qt5Widgets.dll
 0002:00000d38       __imp_?mousePressEvent@QComboBox@@MAEXPAVQMouseEvent@@@Z 0046dd38     Qt5Widgets:Qt5Widgets.dll
 0002:00000d3c       __imp_?mouseMoveEvent@QCheckBox@@MAEXPAVQMouseEvent@@@Z 0046dd3c     Qt5Widgets:Qt5Widgets.dll
 0002:00000d40       __imp_?minimumSizeHint@QComboBox@@UBE?AVQSize@@XZ 0046dd40     Qt5Widgets:Qt5Widgets.dll
 0002:00000d44       __imp_?minimumSizeHint@QCheckBox@@UBE?AVQSize@@XZ 0046dd44     Qt5Widgets:Qt5Widgets.dll
 0002:00000d48       __imp_?metaObject@QComboBox@@UBEPBUQMetaObject@@XZ 0046dd48     Qt5Widgets:Qt5Widgets.dll
 0002:00000d4c       __imp_?metaObject@QCheckBox@@UBEPBUQMetaObject@@XZ 0046dd4c     Qt5Widgets:Qt5Widgets.dll
 0002:00000d50       __imp_?keyReleaseEvent@QComboBox@@MAEXPAVQKeyEvent@@@Z 0046dd50     Qt5Widgets:Qt5Widgets.dll
 0002:00000d54       __imp_?keyPressEvent@QComboBox@@MAEXPAVQKeyEvent@@@Z 0046dd54     Qt5Widgets:Qt5Widgets.dll
 0002:00000d58       __imp_?keyPressEvent@QAbstractButton@@MAEXPAVQKeyEvent@@@Z 0046dd58     Qt5Widgets:Qt5Widgets.dll
 0002:00000d5c       __imp_?inputMethodQuery@QComboBox@@UBE?AVQVariant@@W4InputMethodQuery@Qt@@@Z 0046dd5c     Qt5Widgets:Qt5Widgets.dll
 0002:00000d60       __imp_?inputMethodEvent@QComboBox@@MAEXPAVQInputMethodEvent@@@Z 0046dd60     Qt5Widgets:Qt5Widgets.dll
 0002:00000d64       __imp_?hitButton@QCheckBox@@MBE_NABVQPoint@@@Z 0046dd64     Qt5Widgets:Qt5Widgets.dll
 0002:00000d68       __imp_?hidePopup@QComboBox@@UAEXXZ 0046dd68     Qt5Widgets:Qt5Widgets.dll
 0002:00000d6c       __imp_?hideEvent@QComboBox@@MAEXPAVQHideEvent@@@Z 0046dd6c     Qt5Widgets:Qt5Widgets.dll
 0002:00000d70       __imp_?focusOutEvent@QComboBox@@MAEXPAVQFocusEvent@@@Z 0046dd70     Qt5Widgets:Qt5Widgets.dll
 0002:00000d74       __imp_?focusOutEvent@QAbstractButton@@MAEXPAVQFocusEvent@@@Z 0046dd74     Qt5Widgets:Qt5Widgets.dll
 0002:00000d78       __imp_?focusInEvent@QComboBox@@MAEXPAVQFocusEvent@@@Z 0046dd78     Qt5Widgets:Qt5Widgets.dll
 0002:00000d7c       __imp_?focusInEvent@QAbstractButton@@MAEXPAVQFocusEvent@@@Z 0046dd7c     Qt5Widgets:Qt5Widgets.dll
 0002:00000d80       __imp_?event@QComboBox@@UAE_NPAVQEvent@@@Z 0046dd80     Qt5Widgets:Qt5Widgets.dll
 0002:00000d84       __imp_?event@QCheckBox@@MAE_NPAVQEvent@@@Z 0046dd84     Qt5Widgets:Qt5Widgets.dll
 0002:00000d88       __imp_?contextMenuEvent@QComboBox@@MAEXPAVQContextMenuEvent@@@Z 0046dd88     Qt5Widgets:Qt5Widgets.dll
 0002:00000d8c       __imp_?checkStateSet@QCheckBox@@MAEXXZ 0046dd8c     Qt5Widgets:Qt5Widgets.dll
 0002:00000d90       __imp_?changeEvent@QComboBox@@MAEXPAVQEvent@@@Z 0046dd90     Qt5Widgets:Qt5Widgets.dll
 0002:00000d94       __imp_?setScaledContents@QLabel@@QAEX_N@Z 0046dd94     Qt5Widgets:Qt5Widgets.dll
 0002:00000d98       __imp_?minimumSizeHint@QMdiArea@@UBE?AVQSize@@XZ 0046dd98     Qt5Widgets:Qt5Widgets.dll
 0002:00000d9c       __imp_?metaObject@QTabWidget@@UBEPBUQMetaObject@@XZ 0046dd9c     Qt5Widgets:Qt5Widgets.dll
 0002:00000da0       __imp_?metaObject@QSpinBox@@UBEPBUQMetaObject@@XZ 0046dda0     Qt5Widgets:Qt5Widgets.dll
 0002:00000da4       __imp_?metaObject@QScrollArea@@UBEPBUQMetaObject@@XZ 0046dda4     Qt5Widgets:Qt5Widgets.dll
 0002:00000da8       __imp_?setTabText@QTabWidget@@QAEXHABVQString@@@Z 0046dda8     Qt5Widgets:Qt5Widgets.dll
 0002:00000dac       __imp_?metaObject@QMdiArea@@UBEPBUQMetaObject@@XZ 0046ddac     Qt5Widgets:Qt5Widgets.dll
 0002:00000db0       __imp_?metaObject@QFrame@@UBEPBUQMetaObject@@XZ 0046ddb0     Qt5Widgets:Qt5Widgets.dll
 0002:00000db4       __imp_?metaObject@QButtonGroup@@UBEPBUQMetaObject@@XZ 0046ddb4     Qt5Widgets:Qt5Widgets.dll
 0002:00000db8       __imp_?keyPressEvent@QTabWidget@@MAEXPAVQKeyEvent@@@Z 0046ddb8     Qt5Widgets:Qt5Widgets.dll
 0002:00000dbc       __imp_?keyPressEvent@QAbstractScrollArea@@MAEXPAVQKeyEvent@@@Z 0046ddbc     Qt5Widgets:Qt5Widgets.dll
 0002:00000dc0       __imp_?heightForWidth@QTabWidget@@UBEHH@Z 0046ddc0     Qt5Widgets:Qt5Widgets.dll
 0002:00000dc4       __imp_?hasHeightForWidth@QTabWidget@@UBE_NXZ 0046ddc4     Qt5Widgets:Qt5Widgets.dll
 0002:00000dc8       __imp_?focusNextPrevChild@QScrollArea@@UAE_N_N@Z 0046ddc8     Qt5Widgets:Qt5Widgets.dll
 0002:00000dcc       __imp_?fixup@QSpinBox@@MBEXAAVQString@@@Z 0046ddcc     Qt5Widgets:Qt5Widgets.dll
 0002:00000dd0       __imp_?eventFilter@QScrollArea@@MAE_NPAVQObject@@PAVQEvent@@@Z 0046ddd0     Qt5Widgets:Qt5Widgets.dll
 0002:00000dd4       __imp_?eventFilter@QMdiArea@@MAE_NPAVQObject@@PAVQEvent@@@Z 0046ddd4     Qt5Widgets:Qt5Widgets.dll
 0002:00000dd8       __imp_?event@QTabWidget@@MAE_NPAVQEvent@@@Z 0046ddd8     Qt5Widgets:Qt5Widgets.dll
 0002:00000ddc       __imp_?event@QSpinBox@@MAE_NPAVQEvent@@@Z 0046dddc     Qt5Widgets:Qt5Widgets.dll
 0002:00000de0       __imp_?event@QScrollArea@@MAE_NPAVQEvent@@@Z 0046dde0     Qt5Widgets:Qt5Widgets.dll
 0002:00000de4       __imp_?event@QMdiArea@@MAE_NPAVQEvent@@@Z 0046dde4     Qt5Widgets:Qt5Widgets.dll
 0002:00000de8       __imp_?event@QFrame@@MAE_NPAVQEvent@@@Z 0046dde8     Qt5Widgets:Qt5Widgets.dll
 0002:00000dec       __imp_?dropEvent@QAbstractScrollArea@@MAEXPAVQDropEvent@@@Z 0046ddec     Qt5Widgets:Qt5Widgets.dll
 0002:00000df0       __imp_?dragMoveEvent@QAbstractScrollArea@@MAEXPAVQDragMoveEvent@@@Z 0046ddf0     Qt5Widgets:Qt5Widgets.dll
 0002:00000df4       __imp_?dragLeaveEvent@QAbstractScrollArea@@MAEXPAVQDragLeaveEvent@@@Z 0046ddf4     Qt5Widgets:Qt5Widgets.dll
 0002:00000df8       __imp_?dragEnterEvent@QAbstractScrollArea@@MAEXPAVQDragEnterEvent@@@Z 0046ddf8     Qt5Widgets:Qt5Widgets.dll
 0002:00000dfc       __imp_?childEvent@QMdiArea@@MAEXPAVQChildEvent@@@Z 0046ddfc     Qt5Widgets:Qt5Widgets.dll
 0002:00000e00       __imp_?changeEvent@QTabWidget@@MAEXPAVQEvent@@@Z 0046de00     Qt5Widgets:Qt5Widgets.dll
 0002:00000e04       __imp_?getExistingDirectory@QFileDialog@@SA?AVQString@@PAVQWidget@@ABV2@1V?$QFlags@W4Option@QFileDialog@@@@@Z 0046de04     Qt5Widgets:Qt5Widgets.dll
 0002:00000e08       __imp_?setButtonText@QMessageBox@@QAEXHABVQString@@@Z 0046de08     Qt5Widgets:Qt5Widgets.dll
 0002:00000e0c       __imp_??1QMessageBox@@UAE@XZ 0046de0c     Qt5Widgets:Qt5Widgets.dll
 0002:00000e10       __imp_??0QMessageBox@@QAE@W4Icon@0@ABVQString@@1V?$QFlags@W4StandardButton@QMessageBox@@@@PAVQWidget@@V?$QFlags@W4WindowType@Qt@@@@@Z 0046de10     Qt5Widgets:Qt5Widgets.dll
 0002:00000e14       __imp_?setWidgetResizable@QScrollArea@@QAEX_N@Z 0046de14     Qt5Widgets:Qt5Widgets.dll
 0002:00000e18       __imp_?setWidget@QScrollArea@@QAEXPAVQWidget@@@Z 0046de18     Qt5Widgets:Qt5Widgets.dll
 0002:00000e1c       __imp_??1QScrollArea@@UAE@XZ 0046de1c     Qt5Widgets:Qt5Widgets.dll
 0002:00000e20       __imp_??0QScrollArea@@QAE@PAVQWidget@@@Z 0046de20     Qt5Widgets:Qt5Widgets.dll
 0002:00000e24       __imp_?setBackground@QMdiArea@@QAEXABVQBrush@@@Z 0046de24     Qt5Widgets:Qt5Widgets.dll
 0002:00000e28       __imp_??1QMdiArea@@UAE@XZ  0046de28     Qt5Widgets:Qt5Widgets.dll
 0002:00000e2c       __imp_??0QMdiArea@@QAE@PAVQWidget@@@Z 0046de2c     Qt5Widgets:Qt5Widgets.dll
 0002:00000e30       __imp_?setTextFormat@QLabel@@QAEXW4TextFormat@Qt@@@Z 0046de30     Qt5Widgets:Qt5Widgets.dll
 0002:00000e34       __imp_?click@QAbstractButton@@QAEXXZ 0046de34     Qt5Widgets:Qt5Widgets.dll
 0002:00000e38       __imp_?setId@QButtonGroup@@QAEXPAVQAbstractButton@@H@Z 0046de38     Qt5Widgets:Qt5Widgets.dll
 0002:00000e3c       __imp_?buttons@QButtonGroup@@QBE?AV?$QList@PAVQAbstractButton@@@@XZ 0046de3c     Qt5Widgets:Qt5Widgets.dll
 0002:00000e40       __imp_?addButton@QButtonGroup@@QAEXPAVQAbstractButton@@H@Z 0046de40     Qt5Widgets:Qt5Widgets.dll
 0002:00000e44       __imp_??1QButtonGroup@@UAE@XZ 0046de44     Qt5Widgets:Qt5Widgets.dll
 0002:00000e48       __imp_??0QButtonGroup@@QAE@PAVQObject@@@Z 0046de48     Qt5Widgets:Qt5Widgets.dll
 0002:00000e4c       __imp_?setValue@QSpinBox@@QAEXH@Z 0046de4c     Qt5Widgets:Qt5Widgets.dll
 0002:00000e50       __imp_?setMaximum@QSpinBox@@QAEXH@Z 0046de50     Qt5Widgets:Qt5Widgets.dll
 0002:00000e54       __imp_?setMinimum@QSpinBox@@QAEXH@Z 0046de54     Qt5Widgets:Qt5Widgets.dll
 0002:00000e58       __imp_?value@QSpinBox@@QBEHXZ 0046de58     Qt5Widgets:Qt5Widgets.dll
 0002:00000e5c       __imp_??1QSpinBox@@UAE@XZ  0046de5c     Qt5Widgets:Qt5Widgets.dll
 0002:00000e60       __imp_??0QSpinBox@@QAE@PAVQWidget@@@Z 0046de60     Qt5Widgets:Qt5Widgets.dll
 0002:00000e64       __imp_?setCurrentIndex@QTabWidget@@QAEXH@Z 0046de64     Qt5Widgets:Qt5Widgets.dll
 0002:00000e68       __imp_?setTabPosition@QTabWidget@@QAEXW4TabPosition@1@@Z 0046de68     Qt5Widgets:Qt5Widgets.dll
 0002:00000e6c       __imp_?indexOf@QTabWidget@@QBEHPAVQWidget@@@Z 0046de6c     Qt5Widgets:Qt5Widgets.dll
 0002:00000e70       __imp_?selectAll@QTreeView@@UAEXXZ 0046de70     Qt5Widgets:Qt5Widgets.dll
 0002:00000e74       __imp_?insertItem@QComboBox@@QAEXHABVQIcon@@ABVQString@@ABVQVariant@@@Z 0046de74     Qt5Widgets:Qt5Widgets.dll
 0002:00000e78       __imp_?currentText@QComboBox@@QBE?AVQString@@XZ 0046de78     Qt5Widgets:Qt5Widgets.dll
 0002:00000e7c       __imp_?count@QComboBox@@QBEHXZ 0046de7c     Qt5Widgets:Qt5Widgets.dll
 0002:00000e80       __imp_??1QComboBox@@UAE@XZ 0046de80     Qt5Widgets:Qt5Widgets.dll
 0002:00000e84       __imp_??0QComboBox@@QAE@PAVQWidget@@@Z 0046de84     Qt5Widgets:Qt5Widgets.dll
 0002:00000e88       __imp_??1QCheckBox@@UAE@XZ 0046de88     Qt5Widgets:Qt5Widgets.dll
 0002:00000e8c       __imp_??0QCheckBox@@QAE@PAVQWidget@@@Z 0046de8c     Qt5Widgets:Qt5Widgets.dll
 0002:00000e90       __imp_?setChecked@QAbstractButton@@QAEX_N@Z 0046de90     Qt5Widgets:Qt5Widgets.dll
 0002:00000e94       __imp_?isChecked@QAbstractButton@@QBE_NXZ 0046de94     Qt5Widgets:Qt5Widgets.dll
 0002:00000e98       __imp_?isEnabled@QWidget@@QBE_NXZ 0046de98     Qt5Widgets:Qt5Widgets.dll
 0002:00000e9c       __imp_?write@QTableWidgetItem@@UBEXAAVQDataStream@@@Z 0046de9c     Qt5Widgets:Qt5Widgets.dll
 0002:00000ea0       __imp_?wheelEvent@QAbstractScrollArea@@MAEXPAVQWheelEvent@@@Z 0046dea0     Qt5Widgets:Qt5Widgets.dll
 0002:00000ea4       __imp_?visualRegionForSelection@QTableView@@MBE?AVQRegion@@ABVQItemSelection@@@Z 0046dea4     Qt5Widgets:Qt5Widgets.dll
 0002:00000ea8       __imp_?visualRect@QTableView@@UBE?AVQRect@@ABVQModelIndex@@@Z 0046dea8     Qt5Widgets:Qt5Widgets.dll
 0002:00000eac       __imp_?viewportSizeHint@QTableView@@MBE?AVQSize@@XZ 0046deac     Qt5Widgets:Qt5Widgets.dll
 0002:00000eb0       __imp_?viewportEvent@QAbstractItemView@@MAE_NPAVQEvent@@@Z 0046deb0     Qt5Widgets:Qt5Widgets.dll
 0002:00000eb4       __imp_?viewOptions@QTableView@@MBE?AVQStyleOptionViewItem@@XZ 0046deb4     Qt5Widgets:Qt5Widgets.dll
 0002:00000eb8       __imp_?verticalScrollbarValueChanged@QAbstractItemView@@MAEXH@Z 0046deb8     Qt5Widgets:Qt5Widgets.dll
 0002:00000ebc       __imp_?verticalScrollbarAction@QTableView@@MAEXH@Z 0046debc     Qt5Widgets:Qt5Widgets.dll
 0002:00000ec0       __imp_?verticalOffset@QTableView@@MBEHXZ 0046dec0     Qt5Widgets:Qt5Widgets.dll
 0002:00000ec4       __imp_?updateGeometries@QTableView@@MAEXXZ 0046dec4     Qt5Widgets:Qt5Widgets.dll
 0002:00000ec8       __imp_?updateEditorGeometries@QAbstractItemView@@MAEXXZ 0046dec8     Qt5Widgets:Qt5Widgets.dll
 0002:00000ecc       __imp_?updateEditorData@QAbstractItemView@@MAEXXZ 0046decc     Qt5Widgets:Qt5Widgets.dll
 0002:00000ed0       __imp_?timerEvent@QTableView@@MAEXPAVQTimerEvent@@@Z 0046ded0     Qt5Widgets:Qt5Widgets.dll
 0002:00000ed4       __imp_?supportedDropActions@QTableWidget@@MBE?AV?$QFlags@W4DropAction@Qt@@@@XZ 0046ded4     Qt5Widgets:Qt5Widgets.dll
 0002:00000ed8       __imp_?startDrag@QAbstractItemView@@MAEXV?$QFlags@W4DropAction@Qt@@@@@Z 0046ded8     Qt5Widgets:Qt5Widgets.dll
 0002:00000edc       __imp_?sizeHintForRow@QTableView@@MBEHH@Z 0046dedc     Qt5Widgets:Qt5Widgets.dll
 0002:00000ee0       __imp_?sizeHintForColumn@QTableView@@MBEHH@Z 0046dee0     Qt5Widgets:Qt5Widgets.dll
 0002:00000ee4       __imp_?sizeHint@QAbstractScrollArea@@UBE?AVQSize@@XZ 0046dee4     Qt5Widgets:Qt5Widgets.dll
 0002:00000ee8       __imp_?setupViewport@QAbstractScrollArea@@UAEXPAVQWidget@@@Z 0046dee8     Qt5Widgets:Qt5Widgets.dll
 0002:00000eec       __imp_?setSelectionModel@QTableView@@UAEXPAVQItemSelectionModel@@@Z 0046deec     Qt5Widgets:Qt5Widgets.dll
 0002:00000ef0       __imp_?setSelection@QTableView@@MAEXABVQRect@@V?$QFlags@W4SelectionFlag@QItemSelectionModel@@@@@Z 0046def0     Qt5Widgets:Qt5Widgets.dll
 0002:00000ef4       __imp_?setRootIndex@QTableView@@UAEXABVQModelIndex@@@Z 0046def4     Qt5Widgets:Qt5Widgets.dll
 0002:00000ef8       __imp_?setModel@QTableWidget@@EAEXPAVQAbstractItemModel@@@Z 0046def8     Qt5Widgets:Qt5Widgets.dll
 0002:00000efc       __imp_?setData@QTableWidgetItem@@UAEXHABVQVariant@@@Z 0046defc     Qt5Widgets:Qt5Widgets.dll
 0002:00000f00       __imp_?selectionCommand@QAbstractItemView@@MBE?AV?$QFlags@W4SelectionFlag@QItemSelectionModel@@@@ABVQModelIndex@@PBVQEvent@@@Z 0046df00     Qt5Widgets:Qt5Widgets.dll
 0002:00000f04       __imp_?selectionChanged@QTableView@@MAEXABVQItemSelection@@0@Z 0046df04     Qt5Widgets:Qt5Widgets.dll
 0002:00000f08       __imp_?selectedIndexes@QTableView@@MBE?AV?$QList@VQModelIndex@@@@XZ 0046df08     Qt5Widgets:Qt5Widgets.dll
 0002:00000f0c       __imp_?selectAll@QAbstractItemView@@UAEXXZ 0046df0c     Qt5Widgets:Qt5Widgets.dll
 0002:00000f10       __imp_?scrollTo@QTableView@@UAEXABVQModelIndex@@W4ScrollHint@QAbstractItemView@@@Z 0046df10     Qt5Widgets:Qt5Widgets.dll
 0002:00000f14       __imp_?scrollContentsBy@QTableView@@MAEXHH@Z 0046df14     Qt5Widgets:Qt5Widgets.dll
 0002:00000f18       __imp_?rowsInserted@QAbstractItemView@@MAEXABVQModelIndex@@HH@Z 0046df18     Qt5Widgets:Qt5Widgets.dll
 0002:00000f1c       __imp_?rowsAboutToBeRemoved@QAbstractItemView@@MAEXABVQModelIndex@@HH@Z 0046df1c     Qt5Widgets:Qt5Widgets.dll
 0002:00000f20       __imp_?resizeEvent@QAbstractItemView@@MAEXPAVQResizeEvent@@@Z 0046df20     Qt5Widgets:Qt5Widgets.dll
 0002:00000f24       __imp_?reset@QAbstractItemView@@UAEXXZ 0046df24     Qt5Widgets:Qt5Widgets.dll
 0002:00000f28       __imp_?read@QTableWidgetItem@@UAEXAAVQDataStream@@@Z 0046df28     Qt5Widgets:Qt5Widgets.dll
 0002:00000f2c       __imp_?qt_metacast@QTableWidget@@UAEPAXPBD@Z 0046df2c     Qt5Widgets:Qt5Widgets.dll
 0002:00000f30       __imp_?qt_metacall@QTableWidget@@UAEHW4Call@QMetaObject@@HPAPAX@Z 0046df30     Qt5Widgets:Qt5Widgets.dll
 0002:00000f34       __imp_?paintEvent@QTableView@@MAEXPAVQPaintEvent@@@Z 0046df34     Qt5Widgets:Qt5Widgets.dll
 0002:00000f38       __imp_?moveCursor@QTableView@@MAE?AVQModelIndex@@W4CursorAction@QAbstractItemView@@V?$QFlags@W4KeyboardModifier@Qt@@@@@Z 0046df38     Qt5Widgets:Qt5Widgets.dll
 0002:00000f3c       __imp_?mouseReleaseEvent@QAbstractItemView@@MAEXPAVQMouseEvent@@@Z 0046df3c     Qt5Widgets:Qt5Widgets.dll
 0002:00000f40       __imp_?mousePressEvent@QAbstractItemView@@MAEXPAVQMouseEvent@@@Z 0046df40     Qt5Widgets:Qt5Widgets.dll
 0002:00000f44       __imp_?mouseMoveEvent@QAbstractItemView@@MAEXPAVQMouseEvent@@@Z 0046df44     Qt5Widgets:Qt5Widgets.dll
 0002:00000f48       __imp_?mouseDoubleClickEvent@QAbstractItemView@@MAEXPAVQMouseEvent@@@Z 0046df48     Qt5Widgets:Qt5Widgets.dll
 0002:00000f4c       __imp_?minimumSizeHint@QAbstractScrollArea@@UBE?AVQSize@@XZ 0046df4c     Qt5Widgets:Qt5Widgets.dll
 0002:00000f50       __imp_?mimeTypes@QTableWidget@@MBE?AVQStringList@@XZ 0046df50     Qt5Widgets:Qt5Widgets.dll
 0002:00000f54       __imp_?mimeData@QTableWidget@@MBEPAVQMimeData@@V?$QList@PAVQTableWidgetItem@@@@@Z 0046df54     Qt5Widgets:Qt5Widgets.dll
 0002:00000f58       __imp_?metaObject@QTableWidget@@UBEPBUQMetaObject@@XZ 0046df58     Qt5Widgets:Qt5Widgets.dll
 0002:00000f5c       __imp_?keyboardSearch@QAbstractItemView@@UAEXABVQString@@@Z 0046df5c     Qt5Widgets:Qt5Widgets.dll
 0002:00000f60       __imp_?keyPressEvent@QAbstractItemView@@MAEXPAVQKeyEvent@@@Z 0046df60     Qt5Widgets:Qt5Widgets.dll
 0002:00000f64       __imp_?isIndexHidden@QTableView@@MBE_NABVQModelIndex@@@Z 0046df64     Qt5Widgets:Qt5Widgets.dll
 0002:00000f68       __imp_?inputMethodQuery@QAbstractItemView@@UBE?AVQVariant@@W4InputMethodQuery@Qt@@@Z 0046df68     Qt5Widgets:Qt5Widgets.dll
 0002:00000f6c       __imp_?inputMethodEvent@QAbstractItemView@@MAEXPAVQInputMethodEvent@@@Z 0046df6c     Qt5Widgets:Qt5Widgets.dll
 0002:00000f70       __imp_?indexAt@QTableView@@UBE?AVQModelIndex@@ABVQPoint@@@Z 0046df70     Qt5Widgets:Qt5Widgets.dll
 0002:00000f74       __imp_?horizontalScrollbarValueChanged@QAbstractItemView@@MAEXH@Z 0046df74     Qt5Widgets:Qt5Widgets.dll
 0002:00000f78       __imp_?horizontalScrollbarAction@QTableView@@MAEXH@Z 0046df78     Qt5Widgets:Qt5Widgets.dll
 0002:00000f7c       __imp_?horizontalOffset@QTableView@@MBEHXZ 0046df7c     Qt5Widgets:Qt5Widgets.dll
 0002:00000f80       __imp_?focusOutEvent@QAbstractItemView@@MAEXPAVQFocusEvent@@@Z 0046df80     Qt5Widgets:Qt5Widgets.dll
 0002:00000f84       __imp_?focusNextPrevChild@QAbstractItemView@@MAE_N_N@Z 0046df84     Qt5Widgets:Qt5Widgets.dll
 0002:00000f88       __imp_?focusInEvent@QAbstractItemView@@MAEXPAVQFocusEvent@@@Z 0046df88     Qt5Widgets:Qt5Widgets.dll
 0002:00000f8c       __imp_?eventFilter@QAbstractItemView@@MAE_NPAVQObject@@PAVQEvent@@@Z 0046df8c     Qt5Widgets:Qt5Widgets.dll
 0002:00000f90       __imp_?event@QTableWidget@@MAE_NPAVQEvent@@@Z 0046df90     Qt5Widgets:Qt5Widgets.dll
 0002:00000f94       __imp_?editorDestroyed@QAbstractItemView@@MAEXPAVQObject@@@Z 0046df94     Qt5Widgets:Qt5Widgets.dll
 0002:00000f98       __imp_?edit@QAbstractItemView@@MAE_NABVQModelIndex@@W4EditTrigger@1@PAVQEvent@@@Z 0046df98     Qt5Widgets:Qt5Widgets.dll
 0002:00000f9c       __imp_?dropMimeData@QTableWidget@@MAE_NHHPBVQMimeData@@W4DropAction@Qt@@@Z 0046df9c     Qt5Widgets:Qt5Widgets.dll
 0002:00000fa0       __imp_?dropEvent@QTableWidget@@MAEXPAVQDropEvent@@@Z 0046dfa0     Qt5Widgets:Qt5Widgets.dll
 0002:00000fa4       __imp_?dragMoveEvent@QAbstractItemView@@MAEXPAVQDragMoveEvent@@@Z 0046dfa4     Qt5Widgets:Qt5Widgets.dll
 0002:00000fa8       __imp_?dragLeaveEvent@QAbstractItemView@@MAEXPAVQDragLeaveEvent@@@Z 0046dfa8     Qt5Widgets:Qt5Widgets.dll
 0002:00000fac       __imp_?dragEnterEvent@QAbstractItemView@@MAEXPAVQDragEnterEvent@@@Z 0046dfac     Qt5Widgets:Qt5Widgets.dll
 0002:00000fb0       __imp_?doItemsLayout@QTableView@@UAEXXZ 0046dfb0     Qt5Widgets:Qt5Widgets.dll
 0002:00000fb4       __imp_?dataChanged@QAbstractItemView@@MAEXABVQModelIndex@@0ABV?$QVector@H@@@Z 0046dfb4     Qt5Widgets:Qt5Widgets.dll
 0002:00000fb8       __imp_?data@QTableWidgetItem@@UBE?AVQVariant@@H@Z 0046dfb8     Qt5Widgets:Qt5Widgets.dll
 0002:00000fbc       __imp_?currentChanged@QTableView@@MAEXABVQModelIndex@@0@Z 0046dfbc     Qt5Widgets:Qt5Widgets.dll
 0002:00000fc0       __imp_?contextMenuEvent@QAbstractScrollArea@@MAEXPAVQContextMenuEvent@@@Z 0046dfc0     Qt5Widgets:Qt5Widgets.dll
 0002:00000fc4       __imp_?commitData@QAbstractItemView@@MAEXPAVQWidget@@@Z 0046dfc4     Qt5Widgets:Qt5Widgets.dll
 0002:00000fc8       __imp_?closeEditor@QAbstractItemView@@MAEXPAVQWidget@@W4EndEditHint@QAbstractItemDelegate@@@Z 0046dfc8     Qt5Widgets:Qt5Widgets.dll
 0002:00000fcc       __imp_?clone@QTableWidgetItem@@UBEPAV1@XZ 0046dfcc     Qt5Widgets:Qt5Widgets.dll
 0002:00000fd0       __imp_?changeEvent@QFrame@@MAEXPAVQEvent@@@Z 0046dfd0     Qt5Widgets:Qt5Widgets.dll
 0002:00000fd4       __imp_??MQTableWidgetItem@@UBE_NABV0@@Z 0046dfd4     Qt5Widgets:Qt5Widgets.dll
 0002:00000fd8       __imp_?text@QLabel@@QBE?AVQString@@XZ 0046dfd8     Qt5Widgets:Qt5Widgets.dll
 0002:00000fdc       __imp_?setSectionResizeMode@QHeaderView@@QAEXW4ResizeMode@1@@Z 0046dfdc     Qt5Widgets:Qt5Widgets.dll
 0002:00000fe0       __imp_?setHorizontalHeaderLabels@QTableWidget@@QAEXABVQStringList@@@Z 0046dfe0     Qt5Widgets:Qt5Widgets.dll
 0002:00000fe4       __imp_?setItem@QTableWidget@@QAEXHHPAVQTableWidgetItem@@@Z 0046dfe4     Qt5Widgets:Qt5Widgets.dll
 0002:00000fe8       __imp_?columnCount@QTableWidget@@QBEHXZ 0046dfe8     Qt5Widgets:Qt5Widgets.dll
 0002:00000fec       __imp_?setColumnCount@QTableWidget@@QAEXH@Z 0046dfec     Qt5Widgets:Qt5Widgets.dll
 0002:00000ff0       __imp_?setRowCount@QTableWidget@@QAEXH@Z 0046dff0     Qt5Widgets:Qt5Widgets.dll
 0002:00000ff4       __imp_??1QTableWidget@@UAE@XZ 0046dff4     Qt5Widgets:Qt5Widgets.dll
 0002:00000ff8       __imp_??0QTableWidget@@QAE@PAVQWidget@@@Z 0046dff8     Qt5Widgets:Qt5Widgets.dll
 0002:00000ffc       __imp_?setBackgroundColor@QTableWidgetItem@@QAEXABVQColor@@@Z 0046dffc     Qt5Widgets:Qt5Widgets.dll
 0002:00001000       __imp_?setTextAlignment@QTableWidgetItem@@QAEXH@Z 0046e000     Qt5Widgets:Qt5Widgets.dll
 0002:00001004       __imp_??1QTableWidgetItem@@UAE@XZ 0046e004     Qt5Widgets:Qt5Widgets.dll
 0002:00001008       __imp_??0QTableWidgetItem@@QAE@H@Z 0046e008     Qt5Widgets:Qt5Widgets.dll
 0002:0000100c       __imp_?horizontalHeader@QTableView@@QBEPAVQHeaderView@@XZ 0046e00c     Qt5Widgets:Qt5Widgets.dll
 0002:00001010       __imp_?setFixedHeight@QWidget@@QAEXH@Z 0046e010     Qt5Widgets:Qt5Widgets.dll
 0002:00001014       __imp_?setReadOnly@QLineEdit@@QAEX_N@Z 0046e014     Qt5Widgets:Qt5Widgets.dll
 0002:00001018       __imp_??0QHBoxLayout@@QAE@XZ 0046e018     Qt5Widgets:Qt5Widgets.dll
 0002:0000101c       __imp_?setWindowFlag@QWidget@@QAEXW4WindowType@Qt@@_N@Z 0046e01c     Qt5Widgets:Qt5Widgets.dll
 0002:00001020       __imp_?setEnabled@QWidget@@QAEX_N@Z 0046e020     Qt5Widgets:Qt5Widgets.dll
 0002:00001024       __imp_?timerEvent@QAbstractButton@@MAEXPAVQTimerEvent@@@Z 0046e024     Qt5Widgets:Qt5Widgets.dll
 0002:00001028       __imp_?takeAt@QGridLayout@@UAEPAVQLayoutItem@@H@Z 0046e028     Qt5Widgets:Qt5Widgets.dll
 0002:0000102c       __imp_?spacerItem@QSpacerItem@@UAEPAV1@XZ 0046e02c     Qt5Widgets:Qt5Widgets.dll
 0002:00001030       __imp_?sizeHint@QSpacerItem@@UBE?AVQSize@@XZ 0046e030     Qt5Widgets:Qt5Widgets.dll
 0002:00001034       __imp_?sizeHint@QPushButton@@UBE?AVQSize@@XZ 0046e034     Qt5Widgets:Qt5Widgets.dll
 0002:00001038       __imp_?sizeHint@QLineEdit@@UBE?AVQSize@@XZ 0046e038     Qt5Widgets:Qt5Widgets.dll
 0002:0000103c       __imp_?sizeHint@QGridLayout@@UBE?AVQSize@@XZ 0046e03c     Qt5Widgets:Qt5Widgets.dll
 0002:00001040       __imp_?sizeHint@QDialog@@UBE?AVQSize@@XZ 0046e040     Qt5Widgets:Qt5Widgets.dll
 0002:00001044       __imp_?showEvent@QDialog@@MAEXPAVQShowEvent@@@Z 0046e044     Qt5Widgets:Qt5Widgets.dll
 0002:00001048       __imp_?setVisible@QDialog@@UAEX_N@Z 0046e048     Qt5Widgets:Qt5Widgets.dll
 0002:0000104c       __imp_?setGeometry@QSpacerItem@@UAEXABVQRect@@@Z 0046e04c     Qt5Widgets:Qt5Widgets.dll
 0002:00001050       __imp_?setGeometry@QGridLayout@@UAEXABVQRect@@@Z 0046e050     Qt5Widgets:Qt5Widgets.dll
 0002:00001054       __imp_?resizeEvent@QDialog@@MAEXPAVQResizeEvent@@@Z 0046e054     Qt5Widgets:Qt5Widgets.dll
 0002:00001058       __imp_?reject@QDialog@@UAEXXZ 0046e058     Qt5Widgets:Qt5Widgets.dll
 0002:0000105c       __imp_?qt_metacast@QWidget@@UAEPAXPBD@Z 0046e05c     Qt5Widgets:Qt5Widgets.dll
 0002:00001060       __imp_?qt_metacast@QVBoxLayout@@UAEPAXPBD@Z 0046e060     Qt5Widgets:Qt5Widgets.dll
 0002:00001064       __imp_?qt_metacast@QPushButton@@UAEPAXPBD@Z 0046e064     Qt5Widgets:Qt5Widgets.dll
 0002:00001068       __imp_?qt_metacast@QLineEdit@@UAEPAXPBD@Z 0046e068     Qt5Widgets:Qt5Widgets.dll
 0002:0000106c       __imp_?qt_metacast@QGridLayout@@UAEPAXPBD@Z 0046e06c     Qt5Widgets:Qt5Widgets.dll
 0002:00001070       __imp_?qt_metacall@QWidget@@UAEHW4Call@QMetaObject@@HPAPAX@Z 0046e070     Qt5Widgets:Qt5Widgets.dll
 0002:00001074       __imp_?qt_metacall@QVBoxLayout@@UAEHW4Call@QMetaObject@@HPAPAX@Z 0046e074     Qt5Widgets:Qt5Widgets.dll
 0002:00001078       __imp_?qt_metacall@QPushButton@@UAEHW4Call@QMetaObject@@HPAPAX@Z 0046e078     Qt5Widgets:Qt5Widgets.dll
 0002:0000107c       __imp_?qt_metacall@QLineEdit@@UAEHW4Call@QMetaObject@@HPAPAX@Z 0046e07c     Qt5Widgets:Qt5Widgets.dll
 0002:00001080       __imp_?qt_metacall@QGridLayout@@UAEHW4Call@QMetaObject@@HPAPAX@Z 0046e080     Qt5Widgets:Qt5Widgets.dll
 0002:00001084       __imp_?paintEvent@QPushButton@@MAEXPAVQPaintEvent@@@Z 0046e084     Qt5Widgets:Qt5Widgets.dll
 0002:00001088       __imp_?paintEvent@QLineEdit@@MAEXPAVQPaintEvent@@@Z 0046e088     Qt5Widgets:Qt5Widgets.dll
 0002:0000108c       __imp_?open@QDialog@@UAEXXZ 0046e08c     Qt5Widgets:Qt5Widgets.dll
 0002:00001090       __imp_?nextCheckState@QAbstractButton@@MAEXXZ 0046e090     Qt5Widgets:Qt5Widgets.dll
 0002:00001094       __imp_?mouseReleaseEvent@QLineEdit@@MAEXPAVQMouseEvent@@@Z 0046e094     Qt5Widgets:Qt5Widgets.dll
 0002:00001098       __imp_?mouseReleaseEvent@QAbstractButton@@MAEXPAVQMouseEvent@@@Z 0046e098     Qt5Widgets:Qt5Widgets.dll
 0002:0000109c       __imp_?mousePressEvent@QLineEdit@@MAEXPAVQMouseEvent@@@Z 0046e09c     Qt5Widgets:Qt5Widgets.dll
 0002:000010a0       __imp_?mousePressEvent@QAbstractButton@@MAEXPAVQMouseEvent@@@Z 0046e0a0     Qt5Widgets:Qt5Widgets.dll
 0002:000010a4       __imp_?mouseMoveEvent@QLineEdit@@MAEXPAVQMouseEvent@@@Z 0046e0a4     Qt5Widgets:Qt5Widgets.dll
 0002:000010a8       __imp_?mouseMoveEvent@QAbstractButton@@MAEXPAVQMouseEvent@@@Z 0046e0a8     Qt5Widgets:Qt5Widgets.dll
 0002:000010ac       __imp_?mouseDoubleClickEvent@QLineEdit@@MAEXPAVQMouseEvent@@@Z 0046e0ac     Qt5Widgets:Qt5Widgets.dll
 0002:000010b0       __imp_?minimumSizeHint@QPushButton@@UBE?AVQSize@@XZ 0046e0b0     Qt5Widgets:Qt5Widgets.dll
 0002:000010b4       __imp_?minimumSizeHint@QLineEdit@@UBE?AVQSize@@XZ 0046e0b4     Qt5Widgets:Qt5Widgets.dll
 0002:000010b8       __imp_?minimumSizeHint@QDialog@@UBE?AVQSize@@XZ 0046e0b8     Qt5Widgets:Qt5Widgets.dll
 0002:000010bc       __imp_?minimumSize@QSpacerItem@@UBE?AVQSize@@XZ 0046e0bc     Qt5Widgets:Qt5Widgets.dll
 0002:000010c0       __imp_?minimumSize@QGridLayout@@UBE?AVQSize@@XZ 0046e0c0     Qt5Widgets:Qt5Widgets.dll
 0002:000010c4       __imp_?minimumHeightForWidth@QLayoutItem@@UBEHH@Z 0046e0c4     Qt5Widgets:Qt5Widgets.dll
 0002:000010c8       __imp_?minimumHeightForWidth@QGridLayout@@UBEHH@Z 0046e0c8     Qt5Widgets:Qt5Widgets.dll
 0002:000010cc       __imp_?metaObject@QWidget@@UBEPBUQMetaObject@@XZ 0046e0cc     Qt5Widgets:Qt5Widgets.dll
 0002:000010d0       __imp_?metaObject@QVBoxLayout@@UBEPBUQMetaObject@@XZ 0046e0d0     Qt5Widgets:Qt5Widgets.dll
 0002:000010d4       __imp_?metaObject@QPushButton@@UBEPBUQMetaObject@@XZ 0046e0d4     Qt5Widgets:Qt5Widgets.dll
 0002:000010d8       __imp_?metaObject@QLineEdit@@UBEPBUQMetaObject@@XZ 0046e0d8     Qt5Widgets:Qt5Widgets.dll
 0002:000010dc       __imp_?metaObject@QGridLayout@@UBEPBUQMetaObject@@XZ 0046e0dc     Qt5Widgets:Qt5Widgets.dll
 0002:000010e0       __imp_?maximumSize@QSpacerItem@@UBE?AVQSize@@XZ 0046e0e0     Qt5Widgets:Qt5Widgets.dll
 0002:000010e4       __imp_?maximumSize@QGridLayout@@UBE?AVQSize@@XZ 0046e0e4     Qt5Widgets:Qt5Widgets.dll
 0002:000010e8       __imp_?layout@QLayoutItem@@UAEPAVQLayout@@XZ 0046e0e8     Qt5Widgets:Qt5Widgets.dll
 0002:000010ec       __imp_?keyReleaseEvent@QAbstractButton@@MAEXPAVQKeyEvent@@@Z 0046e0ec     Qt5Widgets:Qt5Widgets.dll
 0002:000010f0       __imp_?keyPressEvent@QPushButton@@MAEXPAVQKeyEvent@@@Z 0046e0f0     Qt5Widgets:Qt5Widgets.dll
 0002:000010f4       __imp_?keyPressEvent@QLineEdit@@MAEXPAVQKeyEvent@@@Z 0046e0f4     Qt5Widgets:Qt5Widgets.dll
 0002:000010f8       __imp_?keyPressEvent@QDialog@@MAEXPAVQKeyEvent@@@Z 0046e0f8     Qt5Widgets:Qt5Widgets.dll
 0002:000010fc       __imp_?itemAt@QGridLayout@@UBEPAVQLayoutItem@@H@Z 0046e0fc     Qt5Widgets:Qt5Widgets.dll
 0002:00001100       __imp_?isEmpty@QSpacerItem@@UBE_NXZ 0046e100     Qt5Widgets:Qt5Widgets.dll
 0002:00001104       __imp_?invalidate@QLayoutItem@@UAEXXZ 0046e104     Qt5Widgets:Qt5Widgets.dll
 0002:00001108       __imp_?invalidate@QGridLayout@@UAEXXZ 0046e108     Qt5Widgets:Qt5Widgets.dll
 0002:0000110c       __imp_?inputMethodQuery@QLineEdit@@UBE?AVQVariant@@W4InputMethodQuery@Qt@@@Z 0046e10c     Qt5Widgets:Qt5Widgets.dll
 0002:00001110       __imp_?inputMethodEvent@QLineEdit@@MAEXPAVQInputMethodEvent@@@Z 0046e110     Qt5Widgets:Qt5Widgets.dll
 0002:00001114       __imp_?hitButton@QAbstractButton@@MBE_NABVQPoint@@@Z 0046e114     Qt5Widgets:Qt5Widgets.dll
 0002:00001118       __imp_?heightForWidth@QLayoutItem@@UBEHH@Z 0046e118     Qt5Widgets:Qt5Widgets.dll
 0002:0000111c       __imp_?heightForWidth@QGridLayout@@UBEHH@Z 0046e11c     Qt5Widgets:Qt5Widgets.dll
 0002:00001120       __imp_?hasHeightForWidth@QLayoutItem@@UBE_NXZ 0046e120     Qt5Widgets:Qt5Widgets.dll
 0002:00001124       __imp_?hasHeightForWidth@QGridLayout@@UBE_NXZ 0046e124     Qt5Widgets:Qt5Widgets.dll
 0002:00001128       __imp_?geometry@QSpacerItem@@UBE?AVQRect@@XZ 0046e128     Qt5Widgets:Qt5Widgets.dll
 0002:0000112c       __imp_?focusOutEvent@QPushButton@@MAEXPAVQFocusEvent@@@Z 0046e12c     Qt5Widgets:Qt5Widgets.dll
 0002:00001130       __imp_?focusOutEvent@QLineEdit@@MAEXPAVQFocusEvent@@@Z 0046e130     Qt5Widgets:Qt5Widgets.dll
 0002:00001134       __imp_?focusInEvent@QPushButton@@MAEXPAVQFocusEvent@@@Z 0046e134     Qt5Widgets:Qt5Widgets.dll
 0002:00001138       __imp_?focusInEvent@QLineEdit@@MAEXPAVQFocusEvent@@@Z 0046e138     Qt5Widgets:Qt5Widgets.dll
 0002:0000113c       __imp_?expandingDirections@QSpacerItem@@UBE?AV?$QFlags@W4Orientation@Qt@@@@XZ 0046e13c     Qt5Widgets:Qt5Widgets.dll
 0002:00001140       __imp_?expandingDirections@QGridLayout@@UBE?AV?$QFlags@W4Orientation@Qt@@@@XZ 0046e140     Qt5Widgets:Qt5Widgets.dll
 0002:00001144       __imp_?exec@QDialog@@UAEHXZ 0046e144     Qt5Widgets:Qt5Widgets.dll
 0002:00001148       __imp_?eventFilter@QDialog@@MAE_NPAVQObject@@PAVQEvent@@@Z 0046e148     Qt5Widgets:Qt5Widgets.dll
 0002:0000114c       __imp_?event@QPushButton@@MAE_NPAVQEvent@@@Z 0046e14c     Qt5Widgets:Qt5Widgets.dll
 0002:00001150       __imp_?event@QLineEdit@@UAE_NPAVQEvent@@@Z 0046e150     Qt5Widgets:Qt5Widgets.dll
 0002:00001154       __imp_?dropEvent@QLineEdit@@MAEXPAVQDropEvent@@@Z 0046e154     Qt5Widgets:Qt5Widgets.dll
 0002:00001158       __imp_?dragMoveEvent@QLineEdit@@MAEXPAVQDragMoveEvent@@@Z 0046e158     Qt5Widgets:Qt5Widgets.dll
 0002:0000115c       __imp_?dragLeaveEvent@QLineEdit@@MAEXPAVQDragLeaveEvent@@@Z 0046e15c     Qt5Widgets:Qt5Widgets.dll
 0002:00001160       __imp_?dragEnterEvent@QLineEdit@@MAEXPAVQDragEnterEvent@@@Z 0046e160     Qt5Widgets:Qt5Widgets.dll
 0002:00001164       __imp_?done@QDialog@@UAEXH@Z 0046e164     Qt5Widgets:Qt5Widgets.dll
 0002:00001168       __imp_?count@QGridLayout@@UBEHXZ 0046e168     Qt5Widgets:Qt5Widgets.dll
 0002:0000116c       __imp_?controlTypes@QLayoutItem@@UBE?AV?$QFlags@W4ControlType@QSizePolicy@@@@XZ 0046e16c     Qt5Widgets:Qt5Widgets.dll
 0002:00001170       __imp_?contextMenuEvent@QLineEdit@@MAEXPAVQContextMenuEvent@@@Z 0046e170     Qt5Widgets:Qt5Widgets.dll
 0002:00001174       __imp_?contextMenuEvent@QDialog@@MAEXPAVQContextMenuEvent@@@Z 0046e174     Qt5Widgets:Qt5Widgets.dll
 0002:00001178       __imp_?closeEvent@QDialog@@MAEXPAVQCloseEvent@@@Z 0046e178     Qt5Widgets:Qt5Widgets.dll
 0002:0000117c       __imp_?checkStateSet@QAbstractButton@@MAEXXZ 0046e17c     Qt5Widgets:Qt5Widgets.dll
 0002:00001180       __imp_?changeEvent@QLineEdit@@MAEXPAVQEvent@@@Z 0046e180     Qt5Widgets:Qt5Widgets.dll
 0002:00001184       __imp_?changeEvent@QAbstractButton@@MAEXPAVQEvent@@@Z 0046e184     Qt5Widgets:Qt5Widgets.dll
 0002:00001188       __imp_?addItem@QGridLayout@@MAEXPAVQLayoutItem@@@Z 0046e188     Qt5Widgets:Qt5Widgets.dll
 0002:0000118c       __imp_?accept@QDialog@@UAEXXZ 0046e18c     Qt5Widgets:Qt5Widgets.dll
 0002:00001190       __imp_??1QPushButton@@UAE@XZ 0046e190     Qt5Widgets:Qt5Widgets.dll
 0002:00001194       __imp_??0QPushButton@@QAE@PAVQWidget@@@Z 0046e194     Qt5Widgets:Qt5Widgets.dll
 0002:00001198       __imp_?setText@QAbstractButton@@QAEXABVQString@@@Z 0046e198     Qt5Widgets:Qt5Widgets.dll
 0002:0000119c       __imp_?setText@QLineEdit@@QAEXABVQString@@@Z 0046e19c     Qt5Widgets:Qt5Widgets.dll
 0002:000011a0       __imp_?setEchoMode@QLineEdit@@QAEXW4EchoMode@1@@Z 0046e1a0     Qt5Widgets:Qt5Widgets.dll
 0002:000011a4       __imp_?setPlaceholderText@QLineEdit@@QAEXABVQString@@@Z 0046e1a4     Qt5Widgets:Qt5Widgets.dll
 0002:000011a8       __imp_?text@QLineEdit@@QBE?AVQString@@XZ 0046e1a8     Qt5Widgets:Qt5Widgets.dll
 0002:000011ac       __imp_??1QLineEdit@@UAE@XZ 0046e1ac     Qt5Widgets:Qt5Widgets.dll
 0002:000011b0       __imp_??0QLineEdit@@QAE@PAVQWidget@@@Z 0046e1b0     Qt5Widgets:Qt5Widgets.dll
 0002:000011b4       __imp_?addWidget@QGridLayout@@QAEXPAVQWidget@@HHHHV?$QFlags@W4AlignmentFlag@Qt@@@@@Z 0046e1b4     Qt5Widgets:Qt5Widgets.dll
 0002:000011b8       __imp_?setVerticalSpacing@QGridLayout@@QAEXH@Z 0046e1b8     Qt5Widgets:Qt5Widgets.dll
 0002:000011bc       __imp_??1QGridLayout@@UAE@XZ 0046e1bc     Qt5Widgets:Qt5Widgets.dll
 0002:000011c0       __imp_??0QGridLayout@@QAE@XZ 0046e1c0     Qt5Widgets:Qt5Widgets.dll
 0002:000011c4       __imp_??1QVBoxLayout@@UAE@XZ 0046e1c4     Qt5Widgets:Qt5Widgets.dll
 0002:000011c8       __imp_??0QVBoxLayout@@QAE@PAVQWidget@@@Z 0046e1c8     Qt5Widgets:Qt5Widgets.dll
 0002:000011cc       __imp_?addLayout@QBoxLayout@@QAEXPAVQLayout@@H@Z 0046e1cc     Qt5Widgets:Qt5Widgets.dll
 0002:000011d0       __imp_??1QSpacerItem@@UAE@XZ 0046e1d0     Qt5Widgets:Qt5Widgets.dll
 0002:000011d4       __imp_??0QSpacerItem@@QAE@HHW4Policy@QSizePolicy@@0@Z 0046e1d4     Qt5Widgets:Qt5Widgets.dll
 0002:000011d8       __imp_??1QDialog@@UAE@XZ   0046e1d8     Qt5Widgets:Qt5Widgets.dll
 0002:000011dc       __imp_??0QDialog@@QAE@PAVQWidget@@V?$QFlags@W4WindowType@Qt@@@@@Z 0046e1dc     Qt5Widgets:Qt5Widgets.dll
 0002:000011e0       __imp_?close@QWidget@@QAE_NXZ 0046e1e0     Qt5Widgets:Qt5Widgets.dll
 0002:000011e4       __imp_?widget@QLayoutItem@@UAEPAVQWidget@@XZ 0046e1e4     Qt5Widgets:Qt5Widgets.dll
 0002:000011e8       __imp_?wheelEvent@QWidget@@MAEXPAVQWheelEvent@@@Z 0046e1e8     Qt5Widgets:Qt5Widgets.dll
 0002:000011ec       __imp_?wheelEvent@QAbstractSpinBox@@MAEXPAVQWheelEvent@@@Z 0046e1ec     Qt5Widgets:Qt5Widgets.dll
 0002:000011f0       __imp_?valueFromText@QDoubleSpinBox@@UBENABVQString@@@Z 0046e1f0     Qt5Widgets:Qt5Widgets.dll
 0002:000011f4       __imp_?validate@QDoubleSpinBox@@UBE?AW4State@QValidator@@AAVQString@@AAH@Z 0046e1f4     Qt5Widgets:Qt5Widgets.dll
 0002:000011f8       __imp_?timerEvent@QAbstractSpinBox@@MAEXPAVQTimerEvent@@@Z 0046e1f8     Qt5Widgets:Qt5Widgets.dll
 0002:000011fc       __imp_?textFromValue@QDoubleSpinBox@@UBE?AVQString@@N@Z 0046e1fc     Qt5Widgets:Qt5Widgets.dll
 0002:00001200       __imp_?takeAt@QBoxLayout@@UAEPAVQLayoutItem@@H@Z 0046e200     Qt5Widgets:Qt5Widgets.dll
 0002:00001204       __imp_?tabletEvent@QWidget@@MAEXPAVQTabletEvent@@@Z 0046e204     Qt5Widgets:Qt5Widgets.dll
 0002:00001208       __imp_?stepEnabled@QAbstractSpinBox@@MBE?AV?$QFlags@W4StepEnabledFlag@QAbstractSpinBox@@@@XZ 0046e208     Qt5Widgets:Qt5Widgets.dll
 0002:0000120c       __imp_?stepBy@QAbstractSpinBox@@UAEXH@Z 0046e20c     Qt5Widgets:Qt5Widgets.dll
 0002:00001210       __imp_?spacerItem@QLayoutItem@@UAEPAVQSpacerItem@@XZ 0046e210     Qt5Widgets:Qt5Widgets.dll
 0002:00001214       __imp_?sizeHint@QWidget@@UBE?AVQSize@@XZ 0046e214     Qt5Widgets:Qt5Widgets.dll
 0002:00001218       __imp_?sizeHint@QLabel@@UBE?AVQSize@@XZ 0046e218     Qt5Widgets:Qt5Widgets.dll
 0002:0000121c       __imp_?sizeHint@QBoxLayout@@UBE?AVQSize@@XZ 0046e21c     Qt5Widgets:Qt5Widgets.dll
 0002:00001220       __imp_?sizeHint@QAbstractSpinBox@@UBE?AVQSize@@XZ 0046e220     Qt5Widgets:Qt5Widgets.dll
 0002:00001224       __imp_?showEvent@QWidget@@MAEXPAVQShowEvent@@@Z 0046e224     Qt5Widgets:Qt5Widgets.dll
 0002:00001228       __imp_?showEvent@QAbstractSpinBox@@MAEXPAVQShowEvent@@@Z 0046e228     Qt5Widgets:Qt5Widgets.dll
 0002:0000122c       __imp_?sharedPainter@QWidget@@MBEPAVQPainter@@XZ 0046e22c     Qt5Widgets:Qt5Widgets.dll
 0002:00001230       __imp_?setVisible@QWidget@@UAEX_N@Z 0046e230     Qt5Widgets:Qt5Widgets.dll
 0002:00001234       __imp_?setGeometry@QBoxLayout@@UAEXABVQRect@@@Z 0046e234     Qt5Widgets:Qt5Widgets.dll
 0002:00001238       __imp_?resizeEvent@QWidget@@MAEXPAVQResizeEvent@@@Z 0046e238     Qt5Widgets:Qt5Widgets.dll
 0002:0000123c       __imp_?resizeEvent@QAbstractSpinBox@@MAEXPAVQResizeEvent@@@Z 0046e23c     Qt5Widgets:Qt5Widgets.dll
 0002:00001240       __imp_?redirected@QWidget@@MBEPAVQPaintDevice@@PAVQPoint@@@Z 0046e240     Qt5Widgets:Qt5Widgets.dll
 0002:00001244       __imp_?qt_metacast@QLabel@@UAEPAXPBD@Z 0046e244     Qt5Widgets:Qt5Widgets.dll
 0002:00001248       __imp_?qt_metacast@QHBoxLayout@@UAEPAXPBD@Z 0046e248     Qt5Widgets:Qt5Widgets.dll
 0002:0000124c       __imp_?qt_metacast@QDoubleSpinBox@@UAEPAXPBD@Z 0046e24c     Qt5Widgets:Qt5Widgets.dll
 0002:00001250       __imp_?qt_metacall@QLabel@@UAEHW4Call@QMetaObject@@HPAPAX@Z 0046e250     Qt5Widgets:Qt5Widgets.dll
 0002:00001254       __imp_?qt_metacall@QHBoxLayout@@UAEHW4Call@QMetaObject@@HPAPAX@Z 0046e254     Qt5Widgets:Qt5Widgets.dll
 0002:00001258       __imp_?qt_metacall@QDoubleSpinBox@@UAEHW4Call@QMetaObject@@HPAPAX@Z 0046e258     Qt5Widgets:Qt5Widgets.dll
 0002:0000125c       __imp_?paintEvent@QWidget@@MAEXPAVQPaintEvent@@@Z 0046e25c     Qt5Widgets:Qt5Widgets.dll
 0002:00001260       __imp_?paintEvent@QLabel@@MAEXPAVQPaintEvent@@@Z 0046e260     Qt5Widgets:Qt5Widgets.dll
 0002:00001264       __imp_?paintEvent@QAbstractSpinBox@@MAEXPAVQPaintEvent@@@Z 0046e264     Qt5Widgets:Qt5Widgets.dll
 0002:00001268       __imp_?paintEngine@QWidget@@UBEPAVQPaintEngine@@XZ 0046e268     Qt5Widgets:Qt5Widgets.dll
 0002:0000126c       __imp_?nativeEvent@QWidget@@MAE_NABVQByteArray@@PAXPAJ@Z 0046e26c     Qt5Widgets:Qt5Widgets.dll
 0002:00001270       __imp_?moveEvent@QWidget@@MAEXPAVQMoveEvent@@@Z 0046e270     Qt5Widgets:Qt5Widgets.dll
 0002:00001274       __imp_?mouseReleaseEvent@QWidget@@MAEXPAVQMouseEvent@@@Z 0046e274     Qt5Widgets:Qt5Widgets.dll
 0002:00001278       __imp_?mouseReleaseEvent@QLabel@@MAEXPAVQMouseEvent@@@Z 0046e278     Qt5Widgets:Qt5Widgets.dll
 0002:0000127c       __imp_?mouseReleaseEvent@QAbstractSpinBox@@MAEXPAVQMouseEvent@@@Z 0046e27c     Qt5Widgets:Qt5Widgets.dll
 0002:00001280       __imp_?mousePressEvent@QWidget@@MAEXPAVQMouseEvent@@@Z 0046e280     Qt5Widgets:Qt5Widgets.dll
 0002:00001284       __imp_?mousePressEvent@QLabel@@MAEXPAVQMouseEvent@@@Z 0046e284     Qt5Widgets:Qt5Widgets.dll
 0002:00001288       __imp_?mousePressEvent@QAbstractSpinBox@@MAEXPAVQMouseEvent@@@Z 0046e288     Qt5Widgets:Qt5Widgets.dll
 0002:0000128c       __imp_?mouseMoveEvent@QWidget@@MAEXPAVQMouseEvent@@@Z 0046e28c     Qt5Widgets:Qt5Widgets.dll
 0002:00001290       __imp_?mouseMoveEvent@QLabel@@MAEXPAVQMouseEvent@@@Z 0046e290     Qt5Widgets:Qt5Widgets.dll
 0002:00001294       __imp_?mouseMoveEvent@QAbstractSpinBox@@MAEXPAVQMouseEvent@@@Z 0046e294     Qt5Widgets:Qt5Widgets.dll
 0002:00001298       __imp_?mouseDoubleClickEvent@QWidget@@MAEXPAVQMouseEvent@@@Z 0046e298     Qt5Widgets:Qt5Widgets.dll
 0002:0000129c       __imp_?minimumSizeHint@QWidget@@UBE?AVQSize@@XZ 0046e29c     Qt5Widgets:Qt5Widgets.dll
 0002:000012a0       __imp_?minimumSizeHint@QLabel@@UBE?AVQSize@@XZ 0046e2a0     Qt5Widgets:Qt5Widgets.dll
 0002:000012a4       __imp_?minimumSizeHint@QAbstractSpinBox@@UBE?AVQSize@@XZ 0046e2a4     Qt5Widgets:Qt5Widgets.dll
 0002:000012a8       __imp_?minimumSize@QBoxLayout@@UBE?AVQSize@@XZ 0046e2a8     Qt5Widgets:Qt5Widgets.dll
 0002:000012ac       __imp_?minimumHeightForWidth@QBoxLayout@@UBEHH@Z 0046e2ac     Qt5Widgets:Qt5Widgets.dll
 0002:000012b0       __imp_?metric@QWidget@@MBEHW4PaintDeviceMetric@QPaintDevice@@@Z 0046e2b0     Qt5Widgets:Qt5Widgets.dll
 0002:000012b4       __imp_?metaObject@QLabel@@UBEPBUQMetaObject@@XZ 0046e2b4     Qt5Widgets:Qt5Widgets.dll
 0002:000012b8       __imp_?metaObject@QHBoxLayout@@UBEPBUQMetaObject@@XZ 0046e2b8     Qt5Widgets:Qt5Widgets.dll
 0002:000012bc       __imp_?metaObject@QDoubleSpinBox@@UBEPBUQMetaObject@@XZ 0046e2bc     Qt5Widgets:Qt5Widgets.dll
 0002:000012c0       __imp_?maximumSize@QBoxLayout@@UBE?AVQSize@@XZ 0046e2c0     Qt5Widgets:Qt5Widgets.dll
 0002:000012c4       __imp_?leaveEvent@QWidget@@MAEXPAVQEvent@@@Z 0046e2c4     Qt5Widgets:Qt5Widgets.dll
 0002:000012c8       __imp_?layout@QLayout@@UAEPAV1@XZ 0046e2c8     Qt5Widgets:Qt5Widgets.dll
 0002:000012cc       __imp_?keyReleaseEvent@QWidget@@MAEXPAVQKeyEvent@@@Z 0046e2cc     Qt5Widgets:Qt5Widgets.dll
 0002:000012d0       __imp_?keyReleaseEvent@QAbstractSpinBox@@MAEXPAVQKeyEvent@@@Z 0046e2d0     Qt5Widgets:Qt5Widgets.dll
 0002:000012d4       __imp_?keyPressEvent@QWidget@@MAEXPAVQKeyEvent@@@Z 0046e2d4     Qt5Widgets:Qt5Widgets.dll
 0002:000012d8       __imp_?keyPressEvent@QLabel@@MAEXPAVQKeyEvent@@@Z 0046e2d8     Qt5Widgets:Qt5Widgets.dll
 0002:000012dc       __imp_?keyPressEvent@QAbstractSpinBox@@MAEXPAVQKeyEvent@@@Z 0046e2dc     Qt5Widgets:Qt5Widgets.dll
 0002:000012e0       __imp_?itemAt@QBoxLayout@@UBEPAVQLayoutItem@@H@Z 0046e2e0     Qt5Widgets:Qt5Widgets.dll
 0002:000012e4       __imp_?isEmpty@QLayout@@UBE_NXZ 0046e2e4     Qt5Widgets:Qt5Widgets.dll
 0002:000012e8       __imp_?invalidate@QBoxLayout@@UAEXXZ 0046e2e8     Qt5Widgets:Qt5Widgets.dll
 0002:000012ec       __imp_?inputMethodQuery@QWidget@@UBE?AVQVariant@@W4InputMethodQuery@Qt@@@Z 0046e2ec     Qt5Widgets:Qt5Widgets.dll
 0002:000012f0       __imp_?inputMethodQuery@QAbstractSpinBox@@UBE?AVQVariant@@W4InputMethodQuery@Qt@@@Z 0046e2f0     Qt5Widgets:Qt5Widgets.dll
 0002:000012f4       __imp_?inputMethodEvent@QWidget@@MAEXPAVQInputMethodEvent@@@Z 0046e2f4     Qt5Widgets:Qt5Widgets.dll
 0002:000012f8       __imp_?initPainter@QWidget@@MBEXPAVQPainter@@@Z 0046e2f8     Qt5Widgets:Qt5Widgets.dll
 0002:000012fc       __imp_?indexOf@QLayout@@UBEHPAVQWidget@@@Z 0046e2fc     Qt5Widgets:Qt5Widgets.dll
 0002:00001300       __imp_?hideEvent@QWidget@@MAEXPAVQHideEvent@@@Z 0046e300     Qt5Widgets:Qt5Widgets.dll
 0002:00001304       __imp_?hideEvent@QAbstractSpinBox@@MAEXPAVQHideEvent@@@Z 0046e304     Qt5Widgets:Qt5Widgets.dll
 0002:00001308       __imp_?heightForWidth@QWidget@@UBEHH@Z 0046e308     Qt5Widgets:Qt5Widgets.dll
 0002:0000130c       __imp_?heightForWidth@QLabel@@UBEHH@Z 0046e30c     Qt5Widgets:Qt5Widgets.dll
 0002:00001310       __imp_?heightForWidth@QBoxLayout@@UBEHH@Z 0046e310     Qt5Widgets:Qt5Widgets.dll
 0002:00001314       __imp_?hasHeightForWidth@QWidget@@UBE_NXZ 0046e314     Qt5Widgets:Qt5Widgets.dll
 0002:00001318       __imp_?hasHeightForWidth@QBoxLayout@@UBE_NXZ 0046e318     Qt5Widgets:Qt5Widgets.dll
 0002:0000131c       __imp_?geometry@QLayout@@UBE?AVQRect@@XZ 0046e31c     Qt5Widgets:Qt5Widgets.dll
 0002:00001320       __imp_?focusOutEvent@QWidget@@MAEXPAVQFocusEvent@@@Z 0046e320     Qt5Widgets:Qt5Widgets.dll
 0002:00001324       __imp_?focusOutEvent@QLabel@@MAEXPAVQFocusEvent@@@Z 0046e324     Qt5Widgets:Qt5Widgets.dll
 0002:00001328       __imp_?focusOutEvent@QAbstractSpinBox@@MAEXPAVQFocusEvent@@@Z 0046e328     Qt5Widgets:Qt5Widgets.dll
 0002:0000132c       __imp_?focusNextPrevChild@QWidget@@MAE_N_N@Z 0046e32c     Qt5Widgets:Qt5Widgets.dll
 0002:00001330       __imp_?focusNextPrevChild@QLabel@@MAE_N_N@Z 0046e330     Qt5Widgets:Qt5Widgets.dll
 0002:00001334       __imp_?focusInEvent@QWidget@@MAEXPAVQFocusEvent@@@Z 0046e334     Qt5Widgets:Qt5Widgets.dll
 0002:00001338       __imp_?focusInEvent@QLabel@@MAEXPAVQFocusEvent@@@Z 0046e338     Qt5Widgets:Qt5Widgets.dll
 0002:0000133c       __imp_?focusInEvent@QAbstractSpinBox@@MAEXPAVQFocusEvent@@@Z 0046e33c     Qt5Widgets:Qt5Widgets.dll
 0002:00001340       __imp_?fixup@QDoubleSpinBox@@UBEXAAVQString@@@Z 0046e340     Qt5Widgets:Qt5Widgets.dll
 0002:00001344       __imp_?expandingDirections@QBoxLayout@@UBE?AV?$QFlags@W4Orientation@Qt@@@@XZ 0046e344     Qt5Widgets:Qt5Widgets.dll
 0002:00001348       __imp_?event@QWidget@@MAE_NPAVQEvent@@@Z 0046e348     Qt5Widgets:Qt5Widgets.dll
 0002:0000134c       __imp_?event@QLabel@@MAE_NPAVQEvent@@@Z 0046e34c     Qt5Widgets:Qt5Widgets.dll
 0002:00001350       __imp_?event@QAbstractSpinBox@@UAE_NPAVQEvent@@@Z 0046e350     Qt5Widgets:Qt5Widgets.dll
 0002:00001354       __imp_?enterEvent@QWidget@@MAEXPAVQEvent@@@Z 0046e354     Qt5Widgets:Qt5Widgets.dll
 0002:00001358       __imp_?dropEvent@QWidget@@MAEXPAVQDropEvent@@@Z 0046e358     Qt5Widgets:Qt5Widgets.dll
 0002:0000135c       __imp_?dragMoveEvent@QWidget@@MAEXPAVQDragMoveEvent@@@Z 0046e35c     Qt5Widgets:Qt5Widgets.dll
 0002:00001360       __imp_?dragLeaveEvent@QWidget@@MAEXPAVQDragLeaveEvent@@@Z 0046e360     Qt5Widgets:Qt5Widgets.dll
 0002:00001364       __imp_?dragEnterEvent@QWidget@@MAEXPAVQDragEnterEvent@@@Z 0046e364     Qt5Widgets:Qt5Widgets.dll
 0002:00001368       __imp_?devType@QWidget@@UBEHXZ 0046e368     Qt5Widgets:Qt5Widgets.dll
 0002:0000136c       __imp_?count@QBoxLayout@@UBEHXZ 0046e36c     Qt5Widgets:Qt5Widgets.dll
 0002:00001370       __imp_?controlTypes@QLayout@@UBE?AV?$QFlags@W4ControlType@QSizePolicy@@@@XZ 0046e370     Qt5Widgets:Qt5Widgets.dll
 0002:00001374       __imp_?contextMenuEvent@QWidget@@MAEXPAVQContextMenuEvent@@@Z 0046e374     Qt5Widgets:Qt5Widgets.dll
 0002:00001378       __imp_?contextMenuEvent@QLabel@@MAEXPAVQContextMenuEvent@@@Z 0046e378     Qt5Widgets:Qt5Widgets.dll
 0002:0000137c       __imp_?contextMenuEvent@QAbstractSpinBox@@MAEXPAVQContextMenuEvent@@@Z 0046e37c     Qt5Widgets:Qt5Widgets.dll
 0002:00001380       __imp_?closeEvent@QWidget@@MAEXPAVQCloseEvent@@@Z 0046e380     Qt5Widgets:Qt5Widgets.dll
 0002:00001384       __imp_?closeEvent@QAbstractSpinBox@@MAEXPAVQCloseEvent@@@Z 0046e384     Qt5Widgets:Qt5Widgets.dll
 0002:00001388       __imp_?clear@QAbstractSpinBox@@UAEXXZ 0046e388     Qt5Widgets:Qt5Widgets.dll
 0002:0000138c       __imp_?childEvent@QLayout@@MAEXPAVQChildEvent@@@Z 0046e38c     Qt5Widgets:Qt5Widgets.dll
 0002:00001390       __imp_?changeEvent@QWidget@@MAEXPAVQEvent@@@Z 0046e390     Qt5Widgets:Qt5Widgets.dll
 0002:00001394       __imp_?changeEvent@QLabel@@MAEXPAVQEvent@@@Z 0046e394     Qt5Widgets:Qt5Widgets.dll
 0002:00001398       __imp_?changeEvent@QAbstractSpinBox@@MAEXPAVQEvent@@@Z 0046e398     Qt5Widgets:Qt5Widgets.dll
 0002:0000139c       __imp_?addItem@QBoxLayout@@UAEXPAVQLayoutItem@@@Z 0046e39c     Qt5Widgets:Qt5Widgets.dll
 0002:000013a0       __imp_?actionEvent@QWidget@@MAEXPAVQActionEvent@@@Z 0046e3a0     Qt5Widgets:Qt5Widgets.dll
 0002:000013a4       __imp_?setText@QLabel@@QAEXABVQString@@@Z 0046e3a4     Qt5Widgets:Qt5Widgets.dll
 0002:000013a8       __imp_??1QLabel@@UAE@XZ    0046e3a8     Qt5Widgets:Qt5Widgets.dll
 0002:000013ac       __imp_??0QLabel@@QAE@PAVQWidget@@V?$QFlags@W4WindowType@Qt@@@@@Z 0046e3ac     Qt5Widgets:Qt5Widgets.dll
 0002:000013b0       __imp_??1QHBoxLayout@@UAE@XZ 0046e3b0     Qt5Widgets:Qt5Widgets.dll
 0002:000013b4       __imp_??0QHBoxLayout@@QAE@PAVQWidget@@@Z 0046e3b4     Qt5Widgets:Qt5Widgets.dll
 0002:000013b8       __imp_?setStretch@QBoxLayout@@QAEXHH@Z 0046e3b8     Qt5Widgets:Qt5Widgets.dll
 0002:000013bc       __imp_?setSpacing@QBoxLayout@@QAEXH@Z 0046e3bc     Qt5Widgets:Qt5Widgets.dll
 0002:000013c0       __imp_?addWidget@QBoxLayout@@QAEXPAVQWidget@@HV?$QFlags@W4AlignmentFlag@Qt@@@@@Z 0046e3c0     Qt5Widgets:Qt5Widgets.dll
 0002:000013c4       __imp_?setContentsMargins@QLayout@@QAEXHHHH@Z 0046e3c4     Qt5Widgets:Qt5Widgets.dll
 0002:000013c8       __imp_?setValue@QDoubleSpinBox@@QAEXN@Z 0046e3c8     Qt5Widgets:Qt5Widgets.dll
 0002:000013cc       __imp_?setMaximum@QDoubleSpinBox@@QAEXN@Z 0046e3cc     Qt5Widgets:Qt5Widgets.dll
 0002:000013d0       __imp_?setSingleStep@QDoubleSpinBox@@QAEXN@Z 0046e3d0     Qt5Widgets:Qt5Widgets.dll
 0002:000013d4       __imp_?value@QDoubleSpinBox@@QBENXZ 0046e3d4     Qt5Widgets:Qt5Widgets.dll
 0002:000013d8       __imp_??1QDoubleSpinBox@@UAE@XZ 0046e3d8     Qt5Widgets:Qt5Widgets.dll
 0002:000013dc       __imp_??0QDoubleSpinBox@@QAE@PAVQWidget@@@Z 0046e3dc     Qt5Widgets:Qt5Widgets.dll
 0002:000013e0       __imp_?setAlignment@QAbstractSpinBox@@QAEXV?$QFlags@W4AlignmentFlag@Qt@@@@@Z 0046e3e0     Qt5Widgets:Qt5Widgets.dll
 0002:000013e4       __imp_?setButtonSymbols@QAbstractSpinBox@@QAEXW4ButtonSymbols@1@@Z 0046e3e4     Qt5Widgets:Qt5Widgets.dll
 0002:000013e8       __imp_?setSizePolicy@QWidget@@QAEXVQSizePolicy@@@Z 0046e3e8     Qt5Widgets:Qt5Widgets.dll
 0002:000013ec       __imp_?sizePolicy@QWidget@@QBE?AVQSizePolicy@@XZ 0046e3ec     Qt5Widgets:Qt5Widgets.dll
 0002:000013f0       __imp_?resize@QWidget@@QAEXHH@Z 0046e3f0     Qt5Widgets:Qt5Widgets.dll
 0002:000013f4       __imp_?setWindowTitle@QWidget@@QAEXABVQString@@@Z 0046e3f4     Qt5Widgets:Qt5Widgets.dll
 0002:000013f8       __imp_??1QWidget@@UAE@XZ   0046e3f8     Qt5Widgets:Qt5Widgets.dll
 0002:000013fc       __imp_??0QWidget@@QAE@PAV0@V?$QFlags@W4WindowType@Qt@@@@@Z 0046e3fc     Qt5Widgets:Qt5Widgets.dll
 0002:00001400       __imp_?setVerticalStretch@QSizePolicy@@QAEXH@Z 0046e400     Qt5Widgets:Qt5Widgets.dll
 0002:00001404       __imp_?setHorizontalStretch@QSizePolicy@@QAEXH@Z 0046e404     Qt5Widgets:Qt5Widgets.dll
 0002:00001408       __imp_?hasHeightForWidth@QSizePolicy@@QBE_NXZ 0046e408     Qt5Widgets:Qt5Widgets.dll
 0002:0000140c       __imp_?setHeightForWidth@QSizePolicy@@QAEX_N@Z 0046e40c     Qt5Widgets:Qt5Widgets.dll
 0002:00001410       __imp_??0QSizePolicy@@QAE@W4Policy@0@0W4ControlType@0@@Z 0046e410     Qt5Widgets:Qt5Widgets.dll
 0002:00001414       __imp_?setDecimals@QDoubleSpinBox@@QAEXH@Z 0046e414     Qt5Widgets:Qt5Widgets.dll
 0002:00001418       __imp_?doItemsLayout@QTreeView@@UAEXXZ 0046e418     Qt5Widgets:Qt5Widgets.dll
 0002:0000141c       \177Qt5Widgets_NULL_THUNK_DATA 0046e41c     Qt5Widgets:Qt5Widgets.dll
 0002:00001420       __imp__CommandLineToArgvW@8 0046e420     shell32:SHELL32.dll
 0002:00001424       \177SHELL32_NULL_THUNK_DATA 0046e424     shell32:SHELL32.dll
 0002:00001428       __imp_?SetCustomWidgetCreator@Builder@tt@@QAEXABVQString@@ABV?$function@$$A6APAVQWidget@@XZ@std@@@Z 0046e428     TabToolbar:TabToolbar.dll
 0002:0000142c       __imp_?CreateTabToolbar@Builder@tt@@QAEPAVTabToolbar@2@ABVQString@@@Z 0046e42c     TabToolbar:TabToolbar.dll
 0002:00001430       __imp_??0Builder@tt@@QAE@PAVQWidget@@@Z 0046e430     TabToolbar:TabToolbar.dll
 0002:00001434       __imp_??1Builder@tt@@UAE@XZ 0046e434     TabToolbar:TabToolbar.dll
 0002:00001438       \177TabToolbar_NULL_THUNK_DATA 0046e438     TabToolbar:TabToolbar.dll
 0002:0000143c       __imp____std_exception_destroy 0046e43c     vcruntime:VCRUNTIME140.dll
 0002:00001440       __imp____std_exception_copy 0046e440     vcruntime:VCRUNTIME140.dll
 0002:00001444       __imp___except_handler4_common 0046e444     vcruntime:VCRUNTIME140.dll
 0002:00001448       __imp____current_exception_context 0046e448     vcruntime:VCRUNTIME140.dll
 0002:0000144c       __imp____current_exception 0046e44c     vcruntime:VCRUNTIME140.dll
 0002:00001450       __imp____CxxFrameHandler3  0046e450     vcruntime:VCRUNTIME140.dll
 0002:00001454       __imp__memset              0046e454     vcruntime:VCRUNTIME140.dll
 0002:00001458       __imp__memcpy              0046e458     vcruntime:VCRUNTIME140.dll
 0002:0000145c       __imp___CxxThrowException@8 0046e45c     vcruntime:VCRUNTIME140.dll
 0002:00001460       __imp____std_terminate     0046e460     vcruntime:VCRUNTIME140.dll
 0002:00001464       __imp__memchr              0046e464     vcruntime:VCRUNTIME140.dll
 0002:00001468       \177VCRUNTIME140_NULL_THUNK_DATA 0046e468     vcruntime:VCRUNTIME140.dll
 0002:0000146c       __imp__strtoul             0046e46c     ucrt:api-ms-win-crt-convert-l1-1-0.dll
 0002:00001470       \177api-ms-win-crt-convert-l1-1-0_NULL_THUNK_DATA 0046e470     ucrt:api-ms-win-crt-convert-l1-1-0.dll
 0002:00001474       __imp__free                0046e474     ucrt:api-ms-win-crt-heap-l1-1-0.dll
 0002:00001478       __imp__malloc              0046e478     ucrt:api-ms-win-crt-heap-l1-1-0.dll
 0002:0000147c       __imp___callnewh           0046e47c     ucrt:api-ms-win-crt-heap-l1-1-0.dll
 0002:00001480       __imp___set_new_mode       0046e480     ucrt:api-ms-win-crt-heap-l1-1-0.dll
 0002:00001484       \177api-ms-win-crt-heap-l1-1-0_NULL_THUNK_DATA 0046e484     ucrt:api-ms-win-crt-heap-l1-1-0.dll
 0002:00001488       __imp___configthreadlocale 0046e488     ucrt:api-ms-win-crt-locale-l1-1-0.dll
 0002:0000148c       \177api-ms-win-crt-locale-l1-1-0_NULL_THUNK_DATA 0046e48c     ucrt:api-ms-win-crt-locale-l1-1-0.dll
 0002:00001490       __imp____setusermatherr    0046e490     ucrt:api-ms-win-crt-math-l1-1-0.dll
 0002:00001494       \177api-ms-win-crt-math-l1-1-0_NULL_THUNK_DATA 0046e494     ucrt:api-ms-win-crt-math-l1-1-0.dll
 0002:00001498       __imp___initterm_e         0046e498     ucrt:api-ms-win-crt-runtime-l1-1-0.dll
 0002:0000149c       __imp___initterm           0046e49c     ucrt:api-ms-win-crt-runtime-l1-1-0.dll
 0002:000014a0       __imp___get_narrow_winmain_command_line 0046e4a0     ucrt:api-ms-win-crt-runtime-l1-1-0.dll
 0002:000014a4       __imp__exit                0046e4a4     ucrt:api-ms-win-crt-runtime-l1-1-0.dll
 0002:000014a8       __imp___exit               0046e4a8     ucrt:api-ms-win-crt-runtime-l1-1-0.dll
 0002:000014ac       __imp___register_thread_local_exe_atexit_callback 0046e4ac     ucrt:api-ms-win-crt-runtime-l1-1-0.dll
 0002:000014b0       __imp___seh_filter_exe     0046e4b0     ucrt:api-ms-win-crt-runtime-l1-1-0.dll
 0002:000014b4       __imp___c_exit             0046e4b4     ucrt:api-ms-win-crt-runtime-l1-1-0.dll
 0002:000014b8       __imp___cexit              0046e4b8     ucrt:api-ms-win-crt-runtime-l1-1-0.dll
 0002:000014bc       __imp___crt_atexit         0046e4bc     ucrt:api-ms-win-crt-runtime-l1-1-0.dll
 0002:000014c0       __imp___register_onexit_function 0046e4c0     ucrt:api-ms-win-crt-runtime-l1-1-0.dll
 0002:000014c4       __imp___initialize_onexit_table 0046e4c4     ucrt:api-ms-win-crt-runtime-l1-1-0.dll
 0002:000014c8       __imp___initialize_narrow_environment 0046e4c8     ucrt:api-ms-win-crt-runtime-l1-1-0.dll
 0002:000014cc       __imp___configure_narrow_argv 0046e4cc     ucrt:api-ms-win-crt-runtime-l1-1-0.dll
 0002:000014d0       __imp___controlfp_s        0046e4d0     ucrt:api-ms-win-crt-runtime-l1-1-0.dll
 0002:000014d4       __imp__terminate           0046e4d4     ucrt:api-ms-win-crt-runtime-l1-1-0.dll
 0002:000014d8       __imp___set_app_type       0046e4d8     ucrt:api-ms-win-crt-runtime-l1-1-0.dll
 0002:000014dc       \177api-ms-win-crt-runtime-l1-1-0_NULL_THUNK_DATA 0046e4dc     ucrt:api-ms-win-crt-runtime-l1-1-0.dll
 0002:000014e0       __imp___set_fmode          0046e4e0     ucrt:api-ms-win-crt-stdio-l1-1-0.dll
 0002:000014e4       __imp____p__commode        0046e4e4     ucrt:api-ms-win-crt-stdio-l1-1-0.dll
 0002:000014e8       \177api-ms-win-crt-stdio-l1-1-0_NULL_THUNK_DATA 0046e4e8     ucrt:api-ms-win-crt-stdio-l1-1-0.dll
 0002:000014ec       __imp__MiniDumpWriteDump@28 0046e4ec     Dbghelp:dbghelp.dll
 0002:000014f0       \177dbghelp_NULL_THUNK_DATA 0046e4f0     Dbghelp:dbghelp.dll
 0002:000014f4       __imp_?getIP@IPAddress@@QBE?AVQString@@XZ 0046e4f4     quc:quc.dll
 0002:000014f8       __imp_?setIP@IPAddress@@QAEXABVQString@@@Z 0046e4f8     quc:quc.dll
 0002:000014fc       __imp_?setBorderColor@PanelItem@@QAEXABVQColor@@@Z 0046e4fc     quc:quc.dll
 0002:00001500       __imp_?setTitleText@PanelItem@@QAEXABVQString@@@Z 0046e500     quc:quc.dll
 0002:00001504       __imp_?getBorderColor@PanelItem@@QBE?AVQColor@@XZ 0046e504     quc:quc.dll
 0002:00001508       __imp_??0PanelItem@@QAE@PAVQWidget@@@Z 0046e508     quc:quc.dll
 0002:0000150c       __imp_??0IPAddress@@QAE@PAVQWidget@@@Z 0046e50c     quc:quc.dll
 0002:00001510       \177quc_NULL_THUNK_DATA    0046e510     quc:quc.dll
 0002:00001514       __imp_?graphToExel@customPlot@@AAEXXZ 0046e514     yecplot:yecplot.dll
 0002:00001518       __imp_?stoppedDrag@customPlot@@AAEXPAVQMouseEvent@@@Z 0046e518     yecplot:yecplot.dll
 0002:0000151c       __imp_?onMouseMoveDrag@customPlot@@AAEXPAVQMouseEvent@@@Z 0046e51c     yecplot:yecplot.dll
 0002:00001520       __imp_?onMouseMovePoint@customPlot@@AAEXPAVQMouseEvent@@@Z 0046e520     yecplot:yecplot.dll
 0002:00001524       __imp_?graphToPNG@customPlot@@AAEXXZ 0046e524     yecplot:yecplot.dll
 0002:00001528       __imp_?onMouseMoveBand@customPlot@@AAEXPAVQMouseEvent@@@Z 0046e528     yecplot:yecplot.dll
 0002:0000152c       __imp_?xLogModeChange@customPlot@@AAEXXZ 0046e52c     yecplot:yecplot.dll
 0002:00001530       __imp_?copyGraphData@customPlot@@AAEXXZ 0046e530     yecplot:yecplot.dll
 0002:00001534       __imp_?graphPause@customPlot@@AAEXXZ 0046e534     yecplot:yecplot.dll
 0002:00001538       __imp_?onMouseMoveBand2@customPlot@@AAEXPAVQMouseEvent@@@Z 0046e538     yecplot:yecplot.dll
 0002:0000153c       __imp_?legendDoubleClick@customPlot@@AAEXPAVQCPLegend@@PAVQCPAbstractLegendItem@@@Z 0046e53c     yecplot:yecplot.dll
 0002:00001540       __imp_??0customPlot@@QAE@PAVQWidget@@@Z 0046e540     yecplot:yecplot.dll
 0002:00001544       __imp_?addLine@customPlot@@QAEXVQString@@@Z 0046e544     yecplot:yecplot.dll
 0002:00001548       __imp_?clearAllLines@customPlot@@QAEXXZ 0046e548     yecplot:yecplot.dll
 0002:0000154c       __imp_?setData@customPlot@@QAEXV?$QVector@N@@0H@Z 0046e54c     yecplot:yecplot.dll
 0002:00001550       __imp_?setChartName@customPlot@@QAEXVQString@@@Z 0046e550     yecplot:yecplot.dll
 0002:00001554       __imp_?getLineCount@customPlot@@QAEHXZ 0046e554     yecplot:yecplot.dll
 0002:00001558       __imp_?setMouseType@customPlot@@QAEXW4mouseType@1@@Z 0046e558     yecplot:yecplot.dll
 0002:0000155c       __imp_?showTracer@customPlot@@QAEX_N@Z 0046e55c     yecplot:yecplot.dll
 0002:00001560       __imp_?setXLabel@customPlot@@QAEXVQString@@@Z 0046e560     yecplot:yecplot.dll
 0002:00001564       __imp_?setYLabel@customPlot@@QAEXVQString@@@Z 0046e564     yecplot:yecplot.dll
 0002:00001568       __imp_?setXLogMode@customPlot@@QAEX_N@Z 0046e568     yecplot:yecplot.dll
 0002:0000156c       __imp_?setYLogMode@customPlot@@QAEX_N@Z 0046e56c     yecplot:yecplot.dll
 0002:00001570       __imp_?plotContextMenuEvent@customPlot@@QAEXVQPoint@@@Z 0046e570     yecplot:yecplot.dll
 0002:00001574       __imp_?setLineVisible@customPlot@@QAEXH_N@Z 0046e574     yecplot:yecplot.dll
 0002:00001578       __imp_?isShowTracer@customPlot@@QAE_NXZ 0046e578     yecplot:yecplot.dll
 0002:0000157c       __imp_?mousePressSignal@customPlot@@AAEXPAVQMouseEvent@@@Z 0046e57c     yecplot:yecplot.dll
 0002:00001580       __imp_?mouseReleaseSignal@customPlot@@AAEXPAVQMouseEvent@@@Z 0046e580     yecplot:yecplot.dll
 0002:00001584       __imp_?onMouseMoveZoom@customPlot@@AAEXPAVQMouseEvent@@@Z 0046e584     yecplot:yecplot.dll
 0002:00001588       __imp_?stoppedZoom@customPlot@@AAEXXZ 0046e588     yecplot:yecplot.dll
 0002:0000158c       __imp_?hideShow@customPlot@@AAEXXZ 0046e58c     yecplot:yecplot.dll
 0002:00001590       __imp_?setMinMaxType@customPlot@@AAEXH@Z 0046e590     yecplot:yecplot.dll
 0002:00001594       __imp_?stoppedBand@customPlot@@AAEXXZ 0046e594     yecplot:yecplot.dll
 0002:00001598       __imp_?mouseWheel@customPlot@@AAEXXZ 0046e598     yecplot:yecplot.dll
 0002:0000159c       __imp_?titleDoubleClick@customPlot@@AAEXPAVQMouseEvent@@@Z 0046e59c     yecplot:yecplot.dll
 0002:000015a0       __imp_?pressDrag@customPlot@@AAEXPAVQMouseEvent@@@Z 0046e5a0     yecplot:yecplot.dll
 0002:000015a4       __imp_?zoomGroupTriggered@customPlot@@AAEXH@Z 0046e5a4     yecplot:yecplot.dll
 0002:000015a8       __imp_?minMaxGroupTriggered@customPlot@@AAEXH@Z 0046e5a8     yecplot:yecplot.dll
 0002:000015ac       __imp_?contextActTriggered@customPlot@@AAEXPAVQAction@@@Z 0046e5ac     yecplot:yecplot.dll
 0002:000015b0       __imp_?yLogModeChange@customPlot@@AAEXXZ 0046e5b0     yecplot:yecplot.dll
 0002:000015b4       \177yecplot_NULL_THUNK_DATA 0046e5b4     yecplot:yecplot.dll
 0002:000015b8       ___guard_check_icall_fptr  0046e5b8     MSVCRT:guard_support.obj
 0002:000015bc       ___xc_a                    0046e5bc     MSVCRT:initializers.obj
 0002:0000168c       ___xc_z                    0046e68c     MSVCRT:initializers.obj
 0002:00001690       ___xi_a                    0046e690     MSVCRT:initializers.obj
 0002:000016a0       ___xi_z                    0046e6a0     MSVCRT:initializers.obj
 0002:000016a4       ___xl_a                    0046e6a4     MSVCRT:tlssup.obj
 0002:000016a8       ___xl_z                    0046e6a8     MSVCRT:tlssup.obj
 0002:000016ac       ___xp_a                    0046e6ac     MSVCRT:initializers.obj
 0002:000016b0       ___xp_z                    0046e6b0     MSVCRT:initializers.obj
 0002:000016b4       ___xt_a                    0046e6b4     MSVCRT:initializers.obj
 0002:000016b8       ___xt_z                    0046e6b8     MSVCRT:initializers.obj
 0002:000016c0       ??_C@_0BL@HCMDKCOP@?9?f?$LD?$KC?e?$LN?$KC?f?$JF?$LA?f?$IN?$KO?9?f?$IM?$KP?e?$IK?$KI?i?$IA?$JK?i?$IB?$JD@ 0046e6c0     mysave.obj
 0002:000016dc       ??_C@_0BL@LABIDNNC@?9?h?$IH?$KK?e?$IK?$KI?d?$LI?$IK?d?$LM?$KA?f?$JF?$LA?f?$IN?$KO?9?i?$IA?$JK?i?$IB?$JD@ 0046e6dc     mysave.obj
 0002:000016f8       ??_C@_0BL@NDHCGPEL@?9?e?$IN?$JF?f?$KM?$KB?h?$KP?$LH?f?$LB?$IC?f?$LD?$KC?e?$LN?$KC?9?i?$IA?$JK?i?$IB?$JD@ 0046e6f8     mysave.obj
 0002:0000171c       ??_SQFile@@6B@             0046e71c     mysave.obj
 0002:0000179c       ??_SQTextStream@@6B@       0046e79c     mysave.obj
 0002:000017a0       ??_C@_04LCMACLFG@?4txt@    0046e7a0     mysave.obj
 0002:000017a8       ??_C@_0P@BABBNOBC@yyyy?9M?9d?9H?9m?9s@ 0046e7a8     mysave.obj
 0002:000017b8       ??_C@_01JOAMLHOP@?9@       0046e7b8     mysave.obj
 0002:000017bc       ??_C@_0M@JNBIKINJ@?1dataFiles?1@ 0046e7bc     mysave.obj
 0002:000017c8       ??_C@_0BC@LDIBJBEO@?$CF1?9?$CF2?9?$CF3?9?$CF4?9?$CF5?9?$CF6@ 0046e7c8     mysave.obj
 0002:000017e0       ??_7MySocket@@6B@          0046e7e0     mysocket.obj
 0002:00001878       ??_C@_0M@BLMLJBME@1recvData?$CI?$CJ@ 0046e878     mysocket.obj
 0002:00001884       ??_C@_0N@HMJECBDI@2readyRead?$CI?$CJ@ 0046e884     mysocket.obj
 0002:00001894       ??_C@_0BB@OAGDADFL@1sendHeartBeat?$CI?$CJ@ 0046e894     mysocket.obj
 0002:000018a8       ??_C@_0L@CHKJBFLD@2timeout?$CI?$CJ@ 0046e8a8     mysocket.obj
 0002:000018c2       ??_C@_00CNPNBAHC@@         0046e8c2     tcpdataanalysis.obj
 0002:000018c8       ??_7tcpDataAnalysis@@6B@   0046e8c8     tcpdataanalysis.obj
 0002:000018f8       ??_C@_0BJ@DAGNHBKJ@1sendSingleImmediately?$CI?$CJ@ 0046e8f8     tcpdataanalysis.obj
 0002:00001914       ??_C@_0BB@PILNOCKN@?5?e?$LK?$JE?h?$KP?$KF?i?$JF?$LP?e?$LK?$KG?o?$LM?$JK@ 0046e914     tcpdataanalysis.obj
 0002:00001928       ??_C@_0BB@IKAODHID@?5?e?$LN?$JD?e?$IJ?$IN?i?$JF?$LP?e?$LK?$KG?o?$LM?$JK@ 0046e928     tcpdataanalysis.obj
 0002:0000193c       ??_C@_0CN@MHBDIKIJ@?5?f?$IO?$IJ?g?$LK?$LP?e?$IJ?$IN?h?$IH?$KK?e?$IK?$KI?d?$LI?$IK?d?$LM?$KA?f?$LD?$KC?e?$LN?$KC?d?$LI?$KC@ 0046e93c     tcpdataanalysis.obj
 0002:0000196c       ??_C@_0BB@FKIMOFOE@analysis?5count?3?5@ 0046e96c     tcpdataanalysis.obj
 0002:00001980       ??_C@_0CB@FGGKMCI@command?53?5internal?5length?5error@ 0046e980     tcpdataanalysis.obj
 0002:000019a4       ??_C@_0CD@OOJMHJDC@network?5parameters?5internal?5err@ 0046e9a4     tcpdataanalysis.obj
 0002:000019c8       ??_C@_0CC@JILIFCDH@sample?5parameters?5internal?5erro@ 0046e9c8     tcpdataanalysis.obj
 0002:000019ec       ??_C@_0BL@CKKLBFIO@command?50b?5internal?5error?$CB@ 0046e9ec     tcpdataanalysis.obj
 0002:00001a08       ??_C@_01JLIPDDHJ@?3@       0046ea08     tcpdataanalysis.obj
 0002:00001a0c       ??_C@_01CLKCMJKC@?5@       0046ea0c     tcpdataanalysis.obj
 0002:00001a10       ??_C@_01LFCBOECM@?4@       0046ea10     tcpdataanalysis.obj
 0002:00001a14       ??_C@_0BB@FAPENONN@?5?e?$LK?$JE?f?$JE?$LG?i?$JF?$LP?e?$LK?$KG?o?$LM?$JK@ 0046ea14     tcpdataanalysis.obj
 0002:00001a28       ??_C@_0DC@DKACPMJH@?h?$IH?$KK?e?$IK?$KI?d?$LI?$IK?d?$LM?$KA?f?$LD?$KC?e?$LN?$KC?e?$IP?$JB?g?$JE?$JP?d?$LI?$KC?e?$IM?$IF?0@ 0046ea28     tcpdataanalysis.obj
 0002:00001a5c       ??_C@_0BK@HBNENFMO@?3?i?$IA?$JK?i?$IB?$JD?e?$LH?$LC?e?$II?$IH?f?$IN?$KC?o?$LM?$IM?i?$IA?$JK?i?$IB?$JD@ 0046ea5c     tcpdataanalysis.obj
 0002:00001a78       ??_C@_0BA@KIMBKCMJ@?d?$LI?$KC?e?$KE?$LB?e?$IM?$IF?f?$JF?$LA?o?$LM?$JK@ 0046ea78     tcpdataanalysis.obj
 0002:00001a88       ??_C@_0BA@IGJMMMKM@?e?$LN?$JD?e?$IJ?$IN?e?$IM?$IF?e?$IP?$LH?o?$LM?$JK@ 0046ea88     tcpdataanalysis.obj
 0002:00001a98       ??_C@_0BA@EKBJMOHD@?d?$LI?$IK?d?$LI?$IA?e?$IM?$IF?e?$IP?$LH?o?$LM?$JK@ 0046ea98     tcpdataanalysis.obj
 0002:00001aa8       ??_C@_0EB@KGOLOKLI@?3?f?$JF?$LA?f?$IN?$KO?e?$IM?$IF?e?$IP?$LH?d?$LI?$IN?h?$LP?$JO?g?$LL?$KN?o?$LM?$IM?h?$IH?$KK?e?$IK?$KI@ 0046eaa8     tcpdataanalysis.obj
 0002:00001af0       ??_C@_0FH@JCJBCAKG@?3?f?$JH?$LG?i?$JH?$LE?f?$II?$LD?e?$LH?$LC?f?$JL?$LE?f?$JG?$LA?o?$LM?$IM?d?$LI?$IK?d?$LI?$IA?e?$LI?$KH@ 0046eaf0     tcpdataanalysis.obj
 0002:00001b48       ??_C@_0BD@GJJKNDC@?h?$KH?$KG?e?$IP?$JB?f?$IK?$KF?h?$KN?$KG?h?$KH?$IE?e?$II?$JJ@ 0046eb48     tcpdataanalysis.obj
 0002:00001b5c       ??_C@_01IHBHIGKO@?0@       0046eb5c     tcpdataanalysis.obj
 0002:00001b60       ??_C@_0O@JFKHBDC@wrong?5packet?3@ 0046eb60     tcpdataanalysis.obj
 0002:00001b70       ??_C@_0O@NICNEKPF@?3?f?$JE?$LG?e?$II?$LA?i?$JE?$JJ?e?$IM?$IF@ 0046eb70     tcpdataanalysis.obj
 0002:00001b80       __real@3f00000000000000    0046eb80     tcpdataanalysis.obj
 0002:00001b88       ??_C@_0CL@GGBGAILI@QtMetaTypePrivate?3?3QSequentialI@ 0046eb88     tcpserver.obj
 0002:00001bb4       ??_C@_0N@PCGEENFC@WifiFsParas?$CK@ 0046ebb4     tcpserver.obj
 0002:00001bc8       ??_7tcpServer@@6B@         0046ebc8     tcpserver.obj
 0002:00001c00       ??_C@_0BA@DPFMDDMD@server?5start?5ok@ 0046ec00     tcpserver.obj
 0002:00001c10       ??_C@_0BD@IIEEJLGL@sever?5start?5failed@ 0046ec10     tcpserver.obj
 0002:00001c28       ??_C@_0EB@BFMCMDEP@?f?$KD?$IA?f?$LF?$IL?e?$II?$LA?f?$JG?$LA?h?$LP?$JO?f?$IO?$KF?o?$LM?$IM?e?$IH?$IG?e?$KE?$IH?f?$JP?$KF?h@ 0046ec28     tcpserver.obj
 0002:00001c6c       ??_C@_0BM@OOLAEIN@1aboutToStart?$CIQString?0bool?$CJ@ 0046ec6c     tcpserver.obj
 0002:00001c88       ??_C@_0BM@MDFADKK@2aboutToStart?$CIQString?0bool?$CJ@ 0046ec88     tcpserver.obj
 0002:00001ca4       ??_C@_0BB@LJAIHBAH@1delDaq?$CIQString?$CJ@ 0046eca4     tcpserver.obj
 0002:00001cb8       ??_C@_0BB@OKJCCKID@2delDaq?$CIQString?$CJ@ 0046ecb8     tcpserver.obj
 0002:00001ccc       ??_C@_0CL@PCPFFNED@2updateCurrentFirmwareVer?$CIQStri@ 0046eccc     tcpserver.obj
 0002:00001cf8       ??_C@_0P@BPOMNCBJ@1deleteLater?$CI?$CJ@ 0046ecf8     tcpserver.obj
 0002:00001d08       ??_C@_0M@BMAHFEDH@2finished?$CI?$CJ@ 0046ed08     tcpserver.obj
 0002:00001d14       ??_C@_0BI@COJJIEF@2updateMessage?$CIQString?$CJ@ 0046ed14     tcpserver.obj
 0002:00001d2c       ??_C@_0BE@OBFFHMEI@2errerInfo?$CIQString?$CJ@ 0046ed2c     tcpserver.obj
 0002:00001d40       ??_C@_0CH@OLBCPNIJ@2updateDeviceInfo?$CIint?0QString?0Q@ 0046ed40     tcpserver.obj
 0002:00001d68       ??_C@_0CD@MPLMAKFD@2createWidget?$CIint?0QString?0QStri@ 0046ed68     tcpserver.obj
 0002:00001d8c       ??_C@_0CD@EEGPDEEK@1createWidget?$CIint?0QString?0QStri@ 0046ed8c     tcpserver.obj
 0002:00001db0       ??_C@_0DB@OFNGAFFJ@2updateCurrentVValue?$CIQString?0QL@ 0046edb0     tcpserver.obj
 0002:00001de4       ??_C@_0CP@FHMMINFL@2updateCurrentTemperature?$CIQStri@ 0046ede4     tcpserver.obj
 0002:00001e14       ??_C@_0CG@OBDNNIHL@2updateWave?$CIQString?0QVector?$DMdou@ 0046ee14     tcpserver.obj
 0002:00001e3c       ??_C@_0CF@CHGAHFLC@2updateFFT?$CIQString?0QVector?$DMdoub@ 0046ee3c     tcpserver.obj
 0002:00001e64       ??_C@_0CA@HPNIFHKP@2updateAlertStatus?$CIQString?0int?$CJ@ 0046ee64     tcpserver.obj
 0002:00001e84       ??_C@_0CF@INMDDIPI@2updateAlertData?$CIQString?0float?$CK@ 0046ee84     tcpserver.obj
 0002:00001eac       ??_C@_0CD@FFOGBMIO@2updateAPdata?$CIQString?0WifiApPar@ 0046eeac     tcpserver.obj
 0002:00001ed0       ??_C@_0CG@HLILJNIB@2updateTCPServer?$CIQString?0QStrin@ 0046eed0     tcpserver.obj
 0002:00001ef8       ??_C@_0CH@HDKJIEB@2updateNetParas?$CIQString?0WifiNet@ 0046eef8     tcpserver.obj
 0002:00001f20       ??_C@_0CF@GDICEFMA@2updateFsParas?$CIQString?0WifiFsPa@ 0046ef20     tcpserver.obj
 0002:00001f48       ??_C@_0BM@CBHCGKCL@2updateFsMode?$CIQString?0int?5?$CJ@ 0046ef48     tcpserver.obj
 0002:00001f64       ??_C@_0CE@FMFINHOA@2updateChParas?$CIQString?0WifiChPa@ 0046ef64     tcpserver.obj
 0002:00001f88       ??_C@_0CB@DNANFCGH@2updateChStatus?$CIQString?0quint16@ 0046ef88     tcpserver.obj
 0002:00001fac       ??_C@_0DB@EJPDFCPB@2updateSingleWave?$CIQString?0int?5?0@ 0046efac     tcpserver.obj
 0002:00001fe0       ??_C@_0CL@CPEKMIHJ@2saveErrorData?$CIQString?0QString?0@ 0046efe0     tcpserver.obj
 0002:0000200c       ??_C@_0DI@DMLMDDJN@2updateAutoWave2?$CIQString?0QByteA@ 0046f00c     tcpserver.obj
 0002:00002044       ??_C@_0M@JNHEKGCN@1stopByMe?$CI?$CJ@ 0046f044     tcpserver.obj
 0002:00002050       ??_C@_0L@CKMCPBDN@2stopAll?$CI?$CJ@ 0046f050     tcpserver.obj
 0002:0000205c       ??_C@_0DD@BBCKPMPH@1setPowerMode?$CIQString?0quint8?0qu@ 0046f05c     tcpserver.obj
 0002:00002090       ??_C@_0DD@JEBIOOAD@2setPowerMode?$CIQString?0quint8?0qu@ 0046f090     tcpserver.obj
 0002:000020c4       ??_C@_0CF@MNFHPIPD@1setAlertSpanJunyue?$CIQString?0int@ 0046f0c4     tcpserver.obj
 0002:000020ec       ??_C@_0CL@EBJEKIAC@2setAlertSpanJunyueDirect?$CIQStri@ 0046f0ec     tcpserver.obj
 0002:00002118       ??_C@_0EC@PAELBCJG@2updateCharactersJunyue?$CIQString@ 0046f118     tcpserver.obj
 0002:0000215c       ??_C@_0CP@EAOCLHGN@2updatePowerMode?$CIQString?0quint8@ 0046f15c     tcpserver.obj
 0002:0000218c       ??_C@_0DH@FIGDBKJP@2updatePowerMode2?$CIQString?0quint@ 0046f18c     tcpserver.obj
 0002:000021c4       ??_C@_0DG@DDAJGCBB@2updatePowerMode?$CIQString?0quint8@ 0046f1c4     tcpserver.obj
 0002:000021fc       ??_C@_0CG@DEAINGCM@2updateAlertTimeSpan?$CIQString?0in@ 0046f1fc     tcpserver.obj
 0002:00002224       ??_C@_0CJ@PGIBFOBB@2updateAlertJunyue?$CIQString?0QLis@ 0046f224     tcpserver.obj
 0002:00002250       ??_C@_0BO@GGFFGPKC@1setAP?$CIQString?0WifiApParas?5?$CK?$CJ@ 0046f250     tcpserver.obj
 0002:00002270       ??_C@_0CB@HOEEDHDO@2changeAP?$CIQString?0WifiApParas?5?$CK@ 0046f270     tcpserver.obj
 0002:00002294       ??_C@_0CE@COBOCFLC@1setNetParas?$CIQString?0WifiNetPar@ 0046f294     tcpserver.obj
 0002:000022b8       ??_C@_0CH@LGEJLFLC@2changeNetParas?$CIQString?0WifiNet@ 0046f2b8     tcpserver.obj
 0002:000022e0       ??_C@_0BI@JLIBDELB@1setFsMode?$CIQString?0int?$CJ@ 0046f2e0     tcpserver.obj
 0002:000022f8       ??_C@_0BM@PGJAIEDA@2changeFsMode?$CIQString?0int?5?$CJ@ 0046f2f8     tcpserver.obj
 0002:00002314       ??_C@_0CC@HJIKFCBG@1setfsParas?$CIQString?0WifiFsParas@ 0046f314     tcpserver.obj
 0002:00002338       ??_C@_0CL@DHELFKMF@2changeFsParasDirect?$CIQString?0Wi@ 0046f338     tcpserver.obj
 0002:00002364       ??_C@_0CC@BABBHBBJ@1setChParas?$CIQString?0WifiChParas@ 0046f364     tcpserver.obj
 0002:00002388       ??_C@_0CL@FMLLBKHI@2changeChParasDirect?$CIQString?0Wi@ 0046f388     tcpserver.obj
 0002:000023b4       ??_C@_0BG@GHBNDAFK@1applyNewNet?$CIQString?$CJ@ 0046f3b4     tcpserver.obj
 0002:000023cc       ??_C@_0BD@NHJPBEFA@2applyNet?$CIQString?$CJ@ 0046f3cc     tcpserver.obj
 0002:000023e0       ??_C@_0BI@JPEFELDJ@1setSN?$CIQString?0QString?$CJ@ 0046f3e0     tcpserver.obj
 0002:000023f8       ??_C@_0BL@LOBGDHHI@2changeSN?$CIQString?0QString?$CJ@ 0046f3f8     tcpserver.obj
 0002:00002414       ??_C@_0CO@MJPKPLKJ@1changeTCPServer?$CIQString?0QStrin@ 0046f414     tcpserver.obj
 0002:00002444       ??_C@_0CO@EJKAFHBM@2changeTCPServer?$CIQString?0QStrin@ 0046f444     tcpserver.obj
 0002:00002474       ??_C@_0CA@CHEBNIGE@1showDisconnection?$CIint?0QString?$CJ@ 0046f474     tcpserver.obj
 0002:00002494       ??_C@_0BK@PBKBAFGA@2disconnInfo?$CIint?0QString?$CJ@ 0046f494     tcpserver.obj
 0002:000024b0       ??_C@_0BK@LLIOFIJH@1commandSent?$CIQStringList?$CJ@ 0046f4b0     tcpserver.obj
 0002:000024cc       ??_C@_0BK@EJNJLFGP@2commandSent?$CIQStringList?$CJ@ 0046f4cc     tcpserver.obj
 0002:000024e8       ??_C@_0BJ@CGEBJCFL@1commandsToSend?$CIQString?$CJ@ 0046f4e8     tcpserver.obj
 0002:00002504       ??_C@_0BN@BEMCHDNE@2aboutTosendCommand?$CIQString?$CJ@ 0046f504     tcpserver.obj
 0002:00002524       ??_C@_0DA@JDCIFNPD@1sendCommands?$CIQString?0QStringLi@ 0046f524     tcpserver.obj
 0002:00002554       ??_C@_0DA@NFPKGIJH@2sendCommands?$CIQString?0QStringLi@ 0046f554     tcpserver.obj
 0002:00002584       ??_C@_0CB@DANNDKII@1updateFirmware?$CIQString?0QString@ 0046f584     tcpserver.obj
 0002:000025a8       ??_C@_0CB@GLMKILJN@2updateFirmware?$CIQString?0QString@ 0046f5a8     tcpserver.obj
 0002:000025cc       ??_C@_0CH@HHALPMCB@2updateFirmwareStatus?$CIQString?0i@ 0046f5cc     tcpserver.obj
 0002:000025f4       ??_C@_0BP@GEMMHPFD@2updateStatus?$CIQString?0int?0int?$CJ@ 0046f5f4     tcpserver.obj
 0002:00002614       ??_C@_0CC@PGLJEJPP@2updateUpdateResult?$CIQString?0boo@ 0046f614     tcpserver.obj
 0002:00002638       ??_C@_03KDBLNKAE@?301@     0046f638     tcpserver.obj
 0002:0000263c       ??_C@_03IIDGIJMH@?302@     0046f63c     tcpserver.obj
 0002:00002640       ??_C@_03JBCNLIIG@?303@     0046f640     tcpserver.obj
 0002:00002644       ??_C@_03NOGMCOEB@?304@     0046f644     tcpserver.obj
 0002:00002648       ??_C@_05PBJBIFJL@?5SN?3?5@ 0046f648     tcpserver.obj
 0002:00002650       ??_C@_0CA@MDMMLEEG@?h?$KO?$LO?e?$KE?$IH?f?$JG?$KN?e?$LM?$IA?h?$LP?$JO?f?$IO?$KF?0socket?e?$IP?$LH?o?$LM?$JK@ 0046f650     tcpserver.obj
 0002:00002670       ??_C@_0M@NEIINJEL@?5objThread?3@ 0046f670     tcpserver.obj
 0002:0000267c       ??_C@_08NOANOBOB@?5socket?3@ 0046f67c     tcpserver.obj
 0002:00002688       ??_C@_0CA@JJKOBOGH@back?5componentscount?9?9analysis?3@ 0046f688     tcpserver.obj
 0002:000026a8       ??_C@_0BO@PCGKBDAG@in?5tcpServer?3?5rec?5setAlerts?9?9@ 0046f6a8     tcpserver.obj
 0002:000026c8       ??_C@_05EPCGOCDE@QList@    0046f6c8     tcpserver.obj
 0002:000026e4       ??_7tcpServerThread@@6B@   0046f6e4     tcpserverthread.obj
 0002:00002714       ??_C@_06CJNJFBNP@1?42?411@ 0046f714     tcpserverthread.obj
 0002:0000271c       ??_C@_07JMMMDOKH@1stop?$CI?$CJ@ 0046f71c     tcpserverthread.obj
 0002:00002724       ??_C@_0O@CMAFGKIG@2stopSocket?$CI?$CJ@ 0046f724     tcpserverthread.obj
 0002:00002734       ??_C@_0BH@ENNGICAF@1recErrorInfo?$CIQString?$CJ@ 0046f734     tcpserverthread.obj
 0002:0000274c       ??_C@_0BD@GJEMIHDM@2dataInfo?$CIQString?$CJ@ 0046f74c     tcpserverthread.obj
 0002:00002760       ??_C@_0BP@LODPKFHH@1recvData?$CIQString?0?5QByteArray?$CJ@ 0046f760     tcpserverthread.obj
 0002:00002780       ??_C@_0BO@FJPEDCGN@2revData?$CIQString?0?5QByteArray?$CJ@ 0046f780     tcpserverthread.obj
 0002:000027a0       ??_C@_0BK@MDDCNJLF@1sendMsg?$CIQByteArray?0?5int?$CJ@ 0046f7a0     tcpserverthread.obj
 0002:000027bc       ??_C@_0BK@BBFBNOKP@2sendDat?$CIQByteArray?0?5int?$CJ@ 0046f7bc     tcpserverthread.obj
 0002:000027d8       ??_C@_0BN@EHLBPIBN@1readSN?$CIint?0QString?0QString?$CJ@ 0046f7d8     tcpserverthread.obj
 0002:000027f8       ??_C@_0CG@MECMHLCB@2updateNetParas?$CIQString?0WifiNet@ 0046f7f8     tcpserverthread.obj
 0002:00002820       ??_C@_0CE@BHFJDKDI@2updateFsParas?$CIQString?0WifiFsPa@ 0046f820     tcpserverthread.obj
 0002:00002844       ??_C@_0BL@FFOOLNBB@2updateFsMode?$CIQString?0int?$CJ@ 0046f844     tcpserverthread.obj
 0002:00002860       ??_C@_0O@JPDOCEMO@1reset30?$CIint?$CJ@ 0046f860     tcpserverthread.obj
 0002:00002870       ??_C@_0O@ODFPABBF@2reset30?$CIint?$CJ@ 0046f870     tcpserverthread.obj
 0002:00002880       ??_C@_0BC@CMDEOCKD@1requireData?$CIint?$CJ@ 0046f880     tcpserverthread.obj
 0002:00002894       ??_C@_0BD@KOPHAIOF@2readyForRead?$CIint?$CJ@ 0046f894     tcpserverthread.obj
 0002:000028a8       ??_C@_0M@BGGMLPJP@1sendOver?$CI?$CJ@ 0046f8a8     tcpserverthread.obj
 0002:000028b4       ??_C@_0M@GBPCGNGP@2sendOver?$CI?$CJ@ 0046f8b4     tcpserverthread.obj
 0002:000028c0       ??_C@_0CJ@OFNBPAGD@2updateAlertRule?$CIQString?0int?0QB@ 0046f8c0     tcpserverthread.obj
 0002:000028ec       ??_C@_0CM@DCLGCBNM@2updateAlertRuleFitness?$CIQString@ 0046f8ec     tcpserverthread.obj
 0002:00002918       ??_C@_0O@DHNPKBFM@2noResponse?$CI?$CJ@ 0046f918     tcpserverthread.obj
 0002:00002928       ??_C@_0BA@IEKCMBLA@1sendFirmData?$CI?$CJ@ 0046f928     tcpserverthread.obj
 0002:00002938       ??_C@_0BI@NFNDPAFC@2readyForsendFirmware?$CI?$CJ@ 0046f938     tcpserverthread.obj
 0002:00002950       ??_C@_0BA@LABDJJIM@1finishUpdate?$CI?$CJ@ 0046f950     tcpserverthread.obj
 0002:00002960       ??_C@_0O@CLJNKDKL@2stopUpdate?$CI?$CJ@ 0046f960     tcpserverthread.obj
 0002:00002970       ??_C@_0BO@KBIMDFDH@2updateComplete?$CIQString?0bool?$CJ@ 0046f970     tcpserverthread.obj
 0002:00002990       ??_C@_0CE@EJMBLDFO@1updateCurrentFirm?$CIQString?0QStr@ 0046f990     tcpserverthread.obj
 0002:000029b4       ??_C@_0O@INMMPCEG@into?5sendOver@ 0046f9b4     tcpserverthread.obj
 0002:000029c8       ??_7virbValue@@6B@         0046f9c8     virbvalue.obj
 0002:000029f8       ??_7WifiChParas@@6B@       0046f9f8     wifichparas.obj
 0002:00002a2c       ??_SQDoubleSpinBox@@6BQObject@@@ 0046fa2c     alertchjunyue.obj
 0002:00002b00       ??_SQDoubleSpinBox@@6BQPaintDevice@@@ 0046fb00     alertchjunyue.obj
 0002:00002b20       ??_7alertChJunyue@@6BQObject@@@ 0046fb20     alertchjunyue.obj
 0002:00002bd8       ??_7alertChJunyue@@6BQPaintDevice@@@ 0046fbd8     alertchjunyue.obj
 0002:00002bfc       ??_SQHBoxLayout@@6BQObject@@@ 0046fbfc     alertchjunyue.obj
 0002:00002c44       ??_SQHBoxLayout@@6BQLayoutItem@@@ 0046fc44     alertchjunyue.obj
 0002:00002c8c       ??_SQLabel@@6BQObject@@@   0046fc8c     alertchjunyue.obj
 0002:00002d44       ??_SQLabel@@6BQPaintDevice@@@ 0046fd44     alertchjunyue.obj
 0002:00002d60       ??_C@_0O@GHMCHPOA@alertChJunyue@ 0046fd60     alertchjunyue.obj
 0002:00002d70       ??_C@_0BB@LNMDAGHP@horizontalLayout@ 0046fd70     alertchjunyue.obj
 0002:00002d84       ??_C@_05OJHFALHP@lblCH@    0046fd84     alertchjunyue.obj
 0002:00002d8c       ??_C@_03FJGAPNJI@acc@      0046fd8c     alertchjunyue.obj
 0002:00002d90       ??_C@_03BHLLPCMD@vel@      0046fd90     alertchjunyue.obj
 0002:00002d94       ??_C@_04GKMJMOBJ@disp@     0046fd94     alertchjunyue.obj
 0002:00002d9c       ??_C@_06NNPGPCGL@qiaodu@   0046fd9c     alertchjunyue.obj
 0002:00002da4       ??_C@_07EILCBCEA@envelop@  0046fda4     alertchjunyue.obj
 0002:00002dac       ??_C@_04KANOLIK@Form@      0046fdac     alertchjunyue.obj
 0002:00002db8       __real@411e848000000000    0046fdb8     alertchjunyue.obj
 0002:00002dc4       ??_SQWidget@@6BQObject@@@  0046fdc4     apdialog.obj
 0002:00002e7c       ??_SQWidget@@6BQPaintDevice@@@ 0046fe7c     apdialog.obj
 0002:00002e9c       ??_7apDialog@@6BQObject@@@ 0046fe9c     apdialog.obj
 0002:00002f68       ??_7apDialog@@6BQPaintDevice@@@ 0046ff68     apdialog.obj
 0002:00002f8c       ??_SQSpacerItem@@6B@       0046ff8c     apdialog.obj
 0002:00002fd4       ??_SQVBoxLayout@@6BQObject@@@ 0046ffd4     apdialog.obj
 0002:0000301c       ??_SQVBoxLayout@@6BQLayoutItem@@@ 0047001c     apdialog.obj
 0002:00003064       ??_SQGridLayout@@6BQObject@@@ 00470064     apdialog.obj
 0002:000030ac       ??_SQGridLayout@@6BQLayoutItem@@@ 004700ac     apdialog.obj
 0002:000030f4       ??_SQLineEdit@@6BQObject@@@ 004700f4     apdialog.obj
 0002:000031ac       ??_SQLineEdit@@6BQPaintDevice@@@ 004701ac     apdialog.obj
 0002:000031cc       ??_SQPushButton@@6BQObject@@@ 004701cc     apdialog.obj
 0002:00003290       ??_SQPushButton@@6BQPaintDevice@@@ 00470290     apdialog.obj
 0002:000032ac       ??_C@_08NNJEIHOF@apDialog@ 004702ac     apdialog.obj
 0002:000032b8       ??_C@_0P@OKOIOHML@verticalLayout@ 004702b8     apdialog.obj
 0002:000032c8       ??_C@_0L@HFKHLBOD@gridLayout@ 004702c8     apdialog.obj
 0002:000032d4       ??_C@_05IDCCNNGI@label@    004702d4     apdialog.obj
 0002:000032dc       ??_C@_06HIKMNLMO@apName@   004702dc     apdialog.obj
 0002:000032e4       ??_C@_07NPNGPBBI@label_2@  004702e4     apdialog.obj
 0002:000032ec       ??_C@_07NJNLGIMB@usrName@  004702ec     apdialog.obj
 0002:000032f4       ??_C@_0L@ECOPBNHN@label_Pass@ 004702f4     apdialog.obj
 0002:00003300       ??_C@_07MCLHKIP@usrPass@   00470300     apdialog.obj
 0002:00003308       ??_C@_06KLKLDLLI@widget@   00470308     apdialog.obj
 0002:00003310       ??_C@_05LEOBGKAB@btnOK@    00470310     apdialog.obj
 0002:00003318       ??_C@_09JPMHGMCO@btnCancel@ 00470318     apdialog.obj
 0002:00003324       ??_C@_0P@JEEDKAFL@AP?e?$IP?$IC?f?$JF?$LA?h?$KO?$LO?g?$LN?$KO@ 00470324     apdialog.obj
 0002:00003334       ??_C@_09DDDGPKEE@AP?e?$JA?$IN?g?$KH?$LA?3@ 00470334     apdialog.obj
 0002:00003340       ??_C@_0BI@PNAFLIPG@?h?$KP?$LH?h?$LO?$JD?e?$IF?$KF?f?$JG?$LA?g?$JK?$IEAP?e?$JA?$IN?g?$KH?$LA@ 00470340     apdialog.obj
 0002:00003358       ??_C@_0L@GFPDKEEP@?g?$JE?$KI?f?$II?$LH?e?$JA?$IN?3@ 00470358     apdialog.obj
 0002:00003364       ??_C@_0BD@MJNFEKDB@?h?$KP?$LH?h?$LO?$JD?e?$IF?$KF?g?$JE?$KI?f?$II?$LH?e?$JA?$IN@ 00470364     apdialog.obj
 0002:00003378       ??_C@_07DKCGPCNF@?e?$KP?$IG?g?$KA?$IB?3@ 00470378     apdialog.obj
 0002:00003380       ??_C@_0BA@NLGBPOLM@?h?$KP?$LH?h?$LO?$JD?e?$IF?$KF?e?$KP?$IG?g?$KA?$IB@ 00470380     apdialog.obj
 0002:00003390       ??_C@_06CKPIFE@?g?$KB?$KO?e?$KO?$JK@ 00470390     apdialog.obj
 0002:00003398       ??_C@_06EDDGFDIJ@?e?$IP?$JG?f?$LG?$II@ 00470398     apdialog.obj
 0002:000033a0       ??_C@_0N@JLNFPJLA@?e?$KO?$JO?f?$JH?$LG?f?$LD?$KC?e?$LN?$KC@ 004703a0     baseform2.obj
 0002:000033b0       ??_C@_0BD@IKOJIIOB@?h?$IH?$KK?e?$IK?$KI?d?$LI?$IK?d?$LM?$KA?f?$LD?$KC?e?$LN?$KC@ 004703b0     baseform2.obj
 0002:000033c4       ??_C@_03MHPPIDFM@fft@      004703c4     baseform2.obj
 0002:000033c8       ??_C@_0N@OENHNLGK@1?13?e?$IA?$IN?i?$KC?$JB?g?$KI?$IL@ 004703c8     baseform2.obj
 0002:000033d8       ??_C@_06DGCHCEDB@?h?$LG?$IL?e?$IK?$LP@ 004703d8     baseform2.obj
 0002:000033e0       ??_C@_09CFFPELN@?e?$IK?$JP?g?$IO?$IH?h?$LA?$LB@ 004703e0     baseform2.obj
 0002:000033ec       ??_C@_0BA@LCPGGDNC@?e?$IK?$JP?g?$IO?$IH?h?$LA?$LB?e?$KP?$IG?e?$LK?$KG@ 004703ec     baseform2.obj
 0002:000033fc       ??_C@_06HMCIOPBG@?e?$IM?$IF?g?$LL?$JM@ 004703fc     baseform2.obj
 0002:00003404       ??_C@_09NPLDJAFJ@?e?$IM?$IF?g?$LL?$JM?h?$LA?$LB@ 00470404     baseform2.obj
 0002:00003414       ??_7baseForm2@@6BQObject@@@ 00470414     baseform2.obj
 0002:000034e0       ??_7baseForm2@@6BQPaintDevice@@@ 004704e0     baseform2.obj
 0002:000034fc       ??_C@_09NHAEEOOK@baseForm2@ 004704fc     baseform2.obj
 0002:00003508       ??_C@_09GMMNPHKA@freshTime@ 00470508     baseform2.obj
 0002:00003514       ??_C@_0BA@LILDIOBB@?e?$II?$LH?f?$JG?$LA?f?$KM?$KB?f?$JF?$LA?o?$LM?$JK@ 00470514     baseform2.obj
 0002:00003524       ??_C@_02OHALLCDL@ch@       00470524     baseform2.obj
 0002:0000352c       ??_SQTableWidgetItem@@6B@  0047052c     characterform.obj
 0002:0000354c       ??_SQTableWidget@@6BQObject@@@ 0047054c     characterform.obj
 0002:000036bc       ??_SQTableWidget@@6BQPaintDevice@@@ 004706bc     characterform.obj
 0002:000036dc       ??_7characterForm@@6BQObject@@@ 004706dc     characterform.obj
 0002:000037a8       ??_7characterForm@@6BQPaintDevice@@@ 004707a8     characterform.obj
 0002:000037c4       ??_C@_0O@EANEIPAJ@characterForm@ 004707c4     characterform.obj
 0002:000037d4       ??_C@_0M@MDPHOAGE@tableWidget@ 004707d4     characterform.obj
 0002:000037e0       ??_C@_07NANNEIDA@lblTemp@  004707e0     characterform.obj
 0002:000037e8       ??_C@_07MGMNMAFJ@label_3@  004707e8     characterform.obj
 0002:000037f0       ??_C@_0L@NOBLBOLI@lblBattery@ 004707f0     characterform.obj
 0002:000037fc       ??_C@_07KNLOBBJM@lblTime@  004707fc     characterform.obj
 0002:00003804       ??_C@_09HPDONDLA@?g?$IJ?$LJ?e?$LO?$IB?e?$IA?$LM@ 00470804     characterform.obj
 0002:00003810       ??_C@_09LMGPJDIC@?f?$LI?$KJ?e?$LK?$KG?o?$LM?$JK@ 00470810     characterform.obj
 0002:0000381c       ??_C@_09KPOJJOBN@?g?$JE?$LF?i?$IH?$IP?o?$LM?$JK@ 0047081c     characterform.obj
 0002:00003828       ??_C@_0BA@CMBPPLBB@?f?$JL?$LE?f?$JG?$LA?f?$JH?$LG?i?$JH?$LE?o?$LM?$JK@ 00470828     characterform.obj
 0002:00003838       ??_C@_0N@GHNMEBJC@?g?$IJ?$LJ?e?$LO?$IB?e?$IA?$LM?o?$LM?$JK@ 00470838     characterform.obj
 0002:00003848       ??_C@_09EIHKIPMB@?i?$IA?$JK?i?$IB?$JD?e?$JA?$IN@ 00470848     characterform.obj
 0002:00003854       ??_C@_09JOGDKKJP@?e?$IK?$KA?i?$IA?$JP?e?$LK?$KG@ 00470854     characterform.obj
 0002:00003860       ??_C@_06GIHILGPP@?i?$IA?$JP?e?$LK?$KG@ 00470860     characterform.obj
 0002:00003868       ??_C@_06OKPAJDBK@?d?$LN?$IN?g?$KH?$LL@ 00470868     characterform.obj
 0002:00003870       ??_C@_06PGNHECGO@?e?$LD?$KN?e?$LK?$KG@ 00470870     characterform.obj
 0002:00003878       ??_C@_07MPLPGEAO@?i?$IA?$JK?i?$IB?$JDX@ 00470878     characterform.obj
 0002:00003880       ??_C@_07NGKEFFEP@?i?$IA?$JK?i?$IB?$JDY@ 00470880     characterform.obj
 0002:00003888       ??_C@_07PNIJAGIM@?i?$IA?$JK?i?$IB?$JDZ@ 00470888     characterform.obj
 0002:00003890       ??_C@_0N@LDPKOAJN@?$DMfont?5color?$DN@ 00470890     characterform.obj
 0002:000038a0       ??_C@_04LICMMEPN@red?$DO@  004708a0     characterform.obj
 0002:000038a8       ??_C@_06IJAKILMA@black?$DO@ 004708a8     characterform.obj
 0002:000038b0       ??_C@_07HNEBHIML@?$DM?1font?$DO@ 004708b0     characterform.obj
 0002:000038b8       ??_C@_07JJNHAPIE@AC?5Mode@ 004708b8     characterform.obj
 0002:000038c0       ??_C@_01FGNFDNOH@?$CF@     004708c0     characterform.obj
 0002:000038c4       ??_C@_0M@LEOIDFKC@?5?b?$IE?$ID?$DM?1font?$DO@ 004708c4     characterform.obj
 0002:000038d0       __real@3f800000            004708d0     characterform.obj
 0002:000038d4       __real@437f0000            004708d4     characterform.obj
 0002:000038e0       __xmm@7fffffff7fffffff7fffffff7fffffff 004708e0     characterform.obj
 0002:000038f4       ??_7chControlAFD@@6BQObject@@@ 004708f4     chcontrolafd.obj
 0002:000039ac       ??_7chControlAFD@@6BQPaintDevice@@@ 004709ac     chcontrolafd.obj
 0002:000039cc       ??_SQCheckBox@@6BQObject@@@ 004709cc     chcontrolafd.obj
 0002:00003a90       ??_SQCheckBox@@6BQPaintDevice@@@ 00470a90     chcontrolafd.obj
 0002:00003ab4       ??_SQComboBox@@6BQObject@@@ 00470ab4     chcontrolafd.obj
 0002:00003b74       ??_SQComboBox@@6BQPaintDevice@@@ 00470b74     chcontrolafd.obj
 0002:00003b90       ??_C@_0N@KDCMFCLO@chControlAFD@ 00470b90     chcontrolafd.obj
 0002:00003ba0       ??_C@_06LGEKBB@chName@     00470ba0     chcontrolafd.obj
 0002:00003ba8       ??_C@_08EDGHBAAC@sampFreq@ 00470ba8     chcontrolafd.obj
 0002:00003bb4       ??_C@_03BCFDGAHD@sen@      00470bb4     chcontrolafd.obj
 0002:00003bb8       ??_C@_0L@GLJKINNO@alertValue@ 00470bb8     chcontrolafd.obj
 0002:00003bc4       ??_C@_05CCGOGOBM@range@    00470bc4     chcontrolafd.obj
 0002:00003bcc       ??_C@_05KLANBDFN@useit@    00470bcc     chcontrolafd.obj
 0002:00003bd4       ??_C@_09BHFPINEP@TextLabel@ 00470bd4     chcontrolafd.obj
 0002:00003be0       ??_C@_04MJHCKDHM@1024@     00470be0     chcontrolafd.obj
 0002:00003be8       ??_C@_05ENLHCFHI@32768@    00470be8     chcontrolafd.obj
 0002:00003bf0       ??_C@_04CGOKOKBC@2048@     00470bf0     chcontrolafd.obj
 0002:00003bf8       ??_C@_04DPPBKBGP@4096@     00470bf8     chcontrolafd.obj
 0002:00003c00       ??_C@_04CGNBOOAP@8192@     00470c00     chcontrolafd.obj
 0002:00003c08       ??_C@_05NMLGNHOC@16384@    00470c08     chcontrolafd.obj
 0002:00003c10       ??_C@_03PANGFEPN@600@      00470c10     chcontrolafd.obj
 0002:00003c14       ??_C@_05JEEIGCJP@12800@    00470c14     chcontrolafd.obj
 0002:00003c1c       ??_C@_05EACDLLBC@25600@    00470c1c     chcontrolafd.obj
 0002:00003c24       ??_C@_05CHMELKDN@51200@    00470c24     chcontrolafd.obj
 0002:00003c2c       ??_C@_06LHGOIHJ@?e?$JA?$KP?g?$JE?$KI@ 00470c2c     chcontrolafd.obj
 0002:00003c38       __real@3ff0000000000000    00470c38     chcontrolafd.obj
 0002:00003c40       __real@4049000000000000    00470c40     chcontrolafd.obj
 0002:00003c48       __real@40f869f000000000    00470c48     chcontrolafd.obj
 0002:00003c50       __real@4202a05f1ff80000    00470c50     chcontrolafd.obj
 0002:00003c5c       ??_SQAction@@6B@           00470c5c     daqinfo.obj
 0002:00003c8c       ??_SQMenu@@6BQObject@@@    00470c8c     daqinfo.obj
 0002:00003d44       ??_SQMenu@@6BQPaintDevice@@@ 00470d44     daqinfo.obj
 0002:00003d64       ??_SQThread@@6B@           00470d64     daqinfo.obj
 0002:00003d98       ??_7daqInfo@@6BQObject@@@  00470d98     daqinfo.obj
 0002:00003e50       ??_7daqInfo@@6BQPaintDevice@@@ 00470e50     daqinfo.obj
 0002:00003e6c       ??_C@_07DOGGNBA@daqInfo@   00470e6c     daqinfo.obj
 0002:00003e74       ??_C@_09DNAIEFFD@actionDel@ 00470e74     daqinfo.obj
 0002:00003e80       ??_C@_0O@IECKHEHG@actionSetting@ 00470e80     daqinfo.obj
 0002:00003e90       ??_C@_0BE@NEFDJCNB@actionViewCharacter@ 00470e90     daqinfo.obj
 0002:00003ea4       ??_C@_0P@KAPLALLN@actionViewWave@ 00470ea4     daqinfo.obj
 0002:00003eb4       ??_C@_0BF@JJLAALGC@actionUpdateFirmware@ 00470eb4     daqinfo.obj
 0002:00003ecc       ??_C@_0BA@KNMNDNA@actionStartStop@ 00470ecc     daqinfo.obj
 0002:00003edc       ??_C@_0BD@JCKDNMOA@actionViewAutoWave@ 00470edc     daqinfo.obj
 0002:00003ef0       ??_C@_0L@EGKAFPBC@alarmCount@ 00470ef0     daqinfo.obj
 0002:00003efc       ??_C@_05NCCFOPHA@model@    00470efc     daqinfo.obj
 0002:00003f04       ??_C@_07IJIMFGJO@label_4@  00470f04     daqinfo.obj
 0002:00003f0c       ??_C@_0BA@HOHDHJND@firmWareVersion@ 00470f0c     daqinfo.obj
 0002:00003f1c       ??_C@_07CFDJBJJC@label_8@  00470f1c     daqinfo.obj
 0002:00003f24       ??_C@_07LHEPONKL@address@  00470f24     daqinfo.obj
 0002:00003f2c       ??_C@_0M@FBAFOCA@currentTemp@ 00470f2c     daqinfo.obj
 0002:00003f38       ??_C@_07LLLKDEBM@label_6@  00470f38     daqinfo.obj
 0002:00003f40       ??_C@_0L@OJAKNHAD@alertCount@ 00470f40     daqinfo.obj
 0002:00003f4c       ??_C@_07JAJHGHNP@label_5@  00470f4c     daqinfo.obj
 0002:00003f54       ??_C@_07KCKBAFFN@label_7@  00470f54     daqinfo.obj
 0002:00003f5c       ??_C@_02LONEIP@SN@         00470f5c     daqinfo.obj
 0002:00003f60       ??_C@_0L@GDKMDJHF@updateTime@ 00470f60     daqinfo.obj
 0002:00003f6c       ??_C@_07DMCCCIND@label_9@  00470f6c     daqinfo.obj
 0002:00003f74       ??_C@_0P@DLHALGMH@currentBattery@ 00470f74     daqinfo.obj
 0002:00003f84       ??_C@_0N@KAPBAJHI@?e?$II?$KA?i?$JJ?$KE?h?$KO?$LO?e?$KE?$IH@ 00470f84     daqinfo.obj
 0002:00003f94       ??_C@_0N@NCKIGFKO@?h?$KO?$LO?g?$LN?$KO?e?$IP?$IC?f?$JF?$LA@ 00470f94     daqinfo.obj
 0002:00003fa4       ??_C@_0BA@DMAECIGN@?f?$JP?$KF?g?$JM?$IL?g?$IJ?$LJ?e?$LO?$IB?e?$IA?$LM@ 00470fa4     daqinfo.obj
 0002:00003fb4       ??_C@_0N@NBIHJAAC@?f?$JP?$KF?g?$JM?$IL?f?$LD?$KC?e?$LN?$KC@ 00470fb4     daqinfo.obj
 0002:00003fc4       ??_C@_0N@BFLELIIO@?e?$IN?$IH?g?$LK?$KH?e?$JL?$LK?d?$LL?$LG@ 00470fc4     daqinfo.obj
 0002:00003fd4       ??_C@_06LHMHKOII@?e?$JA?$KP?e?$IK?$KI@ 00470fd4     daqinfo.obj
 0002:00003fdc       ??_C@_0BJ@EIHPKEEN@?f?$JP?$KF?g?$JM?$IL?h?$IH?$KK?e?$IK?$KI?d?$LI?$IK?d?$LM?$KA?f?$LD?$KC?e?$LN?$KC@ 00470fdc     daqinfo.obj
 0002:00003ff8       ??_C@_0N@IJHMGAEK@temperature?3@ 00470ff8     daqinfo.obj
 0002:00004008       ??_C@_0M@FKFPHPD@updateTime?3@ 00471008     daqinfo.obj
 0002:00004014       ??_C@_03FIKOPOBM@SN?3@     00471014     daqinfo.obj
 0002:00004018       ??_C@_07DAGCOONM@alarms?3@ 00471018     daqinfo.obj
 0002:00004020       ??_C@_08OGOLGJFH@Address?3@ 00471020     daqinfo.obj
 0002:0000402c       ??_C@_07IGOCLENP@alerts?3@ 0047102c     daqinfo.obj
 0002:00004034       ??_C@_06LKMDLDDG@Model?3@  00471034     daqinfo.obj
 0002:0000403c       ??_C@_09CMKOLDKI@firmware?3@ 0047103c     daqinfo.obj
 0002:00004048       ??_C@_08BBNLEEDF@battery?3@ 00471048     daqinfo.obj
 0002:00004054       ??_C@_0BE@MCNAOFJD@?e?$IN?$IH?g?$LK?$KH?f?$JG?$IH?d?$LL?$LG?$CI?$CK?4bin?$CJ@ 00471054     daqinfo.obj
 0002:00004068       ??_C@_0BD@IJPADLK@?i?$IA?$IJ?f?$IL?$KJ?e?$IN?$IH?g?$LK?$KH?f?$JG?$IH?d?$LL?$LG@ 00471068     daqinfo.obj
 0002:0000407c       ??_C@_03FEFPNBIE@?b?$IE?$ID@ 0047107c     daqinfo.obj
 0002:00004080       ??_C@_0P@LKGPEBLF@yyyy?9M?9d?5H?3m?3s@ 00471080     daqinfo.obj
 0002:00004090       ??_C@_0L@EPFPMAEB@wifiJunyue@ 00471090     daqinfo.obj
 0002:0000409c       ??_C@_06EMJEKKOB@?e?$IB?$JM?f?$KN?$KC@ 0047109c     daqinfo.obj
 0002:000040a8       __real@406fe00000000000    004710a8     daqinfo.obj
 0002:000040b0       ??_C@_06FKDAMKFP@DELETE@   004710b0     http_parser.obj
 0002:000040b8       ??_C@_03HAPOJHBM@GET@      004710b8     http_parser.obj
 0002:000040bc       ??_C@_04BINJNOJD@HEAD@     004710bc     http_parser.obj
 0002:000040c4       ??_C@_04HCJEIHPL@POST@     004710c4     http_parser.obj
 0002:000040cc       ??_C@_03KBBGFLEK@PUT@      004710cc     http_parser.obj
 0002:000040d0       ??_C@_07FNNMGOPK@CONNECT@  004710d0     http_parser.obj
 0002:000040d8       ??_C@_07KDKMIPIP@OPTIONS@  004710d8     http_parser.obj
 0002:000040e0       ??_C@_05EHILDPJH@TRACE@    004710e0     http_parser.obj
 0002:000040e8       ??_C@_04OCDMKKLN@COPY@     004710e8     http_parser.obj
 0002:000040f0       ??_C@_04GPIFAJG@LOCK@      004710f0     http_parser.obj
 0002:000040f8       ??_C@_05HMHDBDJB@MKCOL@    004710f8     http_parser.obj
 0002:00004100       ??_C@_04LPPGDFDD@MOVE@     00471100     http_parser.obj
 0002:00004108       ??_C@_08BNNEMDGO@PROPFIND@ 00471108     http_parser.obj
 0002:00004114       ??_C@_09ENKDFGKI@PROPPATCH@ 00471114     http_parser.obj
 0002:00004120       ??_C@_06GBNAAIDA@SEARCH@   00471120     http_parser.obj
 0002:00004128       ??_C@_06BJAJNFPJ@UNLOCK@   00471128     http_parser.obj
 0002:00004130       ??_C@_04BDODDOLH@BIND@     00471130     http_parser.obj
 0002:00004138       ??_C@_06KDHCHFJF@REBIND@   00471138     http_parser.obj
 0002:00004140       ??_C@_06MBCLLNI@UNBIND@    00471140     http_parser.obj
 0002:00004148       ??_C@_03NDADCMCL@ACL@      00471148     http_parser.obj
 0002:0000414c       ??_C@_06MDMHKGOO@REPORT@   0047114c     http_parser.obj
 0002:00004154       ??_C@_0L@CPELOPEL@MKACTIVITY@ 00471154     http_parser.obj
 0002:00004160       ??_C@_08MDJKHKOP@CHECKOUT@ 00471160     http_parser.obj
 0002:0000416c       ??_C@_05PEDHHHPL@MERGE@    0047116c     http_parser.obj
 0002:00004174       ??_C@_08FHBLFADH@M?9SEARCH@ 00471174     http_parser.obj
 0002:00004180       ??_C@_06LMEIPPMP@NOTIFY@   00471180     http_parser.obj
 0002:00004188       ??_C@_09NMAFIJHB@SUBSCRIBE@ 00471188     http_parser.obj
 0002:00004194       ??_C@_0M@GELMDIJN@UNSUBSCRIBE@ 00471194     http_parser.obj
 0002:000041a0       ??_C@_05CJDDEJDD@PATCH@    004711a0     http_parser.obj
 0002:000041a8       ??_C@_05CLJPPBDM@PURGE@    004711a8     http_parser.obj
 0002:000041b0       ??_C@_0L@DLIIGOKM@MKCALENDAR@ 004711b0     http_parser.obj
 0002:000041bc       ??_C@_04CLELJMBJ@LINK@     004711bc     http_parser.obj
 0002:000041c4       ??_C@_06DELKBJHG@UNLINK@   004711c4     http_parser.obj
 0002:000043f0       ??_C@_06HCMPIHJG@HPE_OK@   004713f0     http_parser.obj
 0002:000043f8       ??_C@_07IPNMCAN@success@   004713f8     http_parser.obj
 0002:00004400       ??_C@_0BF@IPCPDMDP@HPE_CB_message_begin@ 00471400     http_parser.obj
 0002:00004418       ??_C@_0CF@FIKLBLKE@the?5on_message_begin?5callback?5f@ 00471418     http_parser.obj
 0002:00004440       ??_C@_0L@BGAIMDHB@HPE_CB_url@ 00471440     http_parser.obj
 0002:0000444c       ??_C@_0BL@FHNPBLJD@the?5on_url?5callback?5failed@ 0047144c     http_parser.obj
 0002:00004468       ??_C@_0BE@EGJFLKIM@HPE_CB_header_field@ 00471468     http_parser.obj
 0002:0000447c       ??_C@_0CE@NCPJEBFC@the?5on_header_field?5callback?5fa@ 0047147c     http_parser.obj
 0002:000044a0       ??_C@_0BE@CNHBFOC@HPE_CB_header_value@ 004714a0     http_parser.obj
 0002:000044b4       ??_C@_0CE@IEBDPPKH@the?5on_header_value?5callback?5fa@ 004714b4     http_parser.obj
 0002:000044d8       ??_C@_0BI@MFDJEDCB@HPE_CB_headers_complete@ 004714d8     http_parser.obj
 0002:000044f0       ??_C@_0CI@FJODALIB@the?5on_headers_complete?5callbac@ 004714f0     http_parser.obj
 0002:00004518       ??_C@_0M@KHEJBOLO@HPE_CB_body@ 00471518     http_parser.obj
 0002:00004524       ??_C@_0BM@OEICKNJO@the?5on_body?5callback?5failed@ 00471524     http_parser.obj
 0002:00004540       ??_C@_0BI@MMENOJCN@HPE_CB_message_complete@ 00471540     http_parser.obj
 0002:00004558       ??_C@_0CI@CLNKFNMM@the?5on_message_complete?5callbac@ 00471558     http_parser.obj
 0002:00004580       ??_C@_0O@EEFDKLBN@HPE_CB_status@ 00471580     http_parser.obj
 0002:00004590       ??_C@_0BO@LICKLEHA@the?5on_status?5callback?5failed@ 00471590     http_parser.obj
 0002:000045b0       ??_C@_0BE@OMJKMENK@HPE_CB_chunk_header@ 004715b0     http_parser.obj
 0002:000045c4       ??_C@_0CE@NNMBJODJ@the?5on_chunk_header?5callback?5fa@ 004715c4     http_parser.obj
 0002:000045e8       ??_C@_0BG@CAAADNHD@HPE_CB_chunk_complete@ 004715e8     http_parser.obj
 0002:00004600       ??_C@_0CG@MFPHODCA@the?5on_chunk_complete?5callback?5@ 00471600     http_parser.obj
 0002:00004628       ??_C@_0BG@GGGHMKAI@HPE_INVALID_EOF_STATE@ 00471628     http_parser.obj
 0002:00004640       ??_C@_0CD@BNLCGJEB@stream?5ended?5at?5an?5unexpected?5t@ 00471640     http_parser.obj
 0002:00004664       ??_C@_0BE@FMGFKNKB@HPE_HEADER_OVERFLOW@ 00471664     http_parser.obj
 0002:00004678       ??_C@_0CO@GGIKFED@too?5many?5header?5bytes?5seen?$DL?5ove@ 00471678     http_parser.obj
 0002:000046a8       ??_C@_0BG@GCINOCIP@HPE_CLOSED_CONNECTION@ 004716a8     http_parser.obj
 0002:000046c0       ??_C@_0DI@CKAHDGDC@data?5received?5after?5completed?5c@ 004716c0     http_parser.obj
 0002:000046f8       ??_C@_0BE@FFIHLPNJ@HPE_INVALID_VERSION@ 004716f8     http_parser.obj
 0002:0000470c       ??_C@_0BF@CFOPGFMA@invalid?5HTTP?5version@ 0047170c     http_parser.obj
 0002:00004724       ??_C@_0BD@MAJDLGBL@HPE_INVALID_STATUS@ 00471724     http_parser.obj
 0002:00004738       ??_C@_0BJ@KBCLEIIE@invalid?5HTTP?5status?5code@ 00471738     http_parser.obj
 0002:00004754       ??_C@_0BD@JJAFNCFD@HPE_INVALID_METHOD@ 00471754     http_parser.obj
 0002:00004768       ??_C@_0BE@KAEFGEJO@invalid?5HTTP?5method@ 00471768     http_parser.obj
 0002:0000477c       ??_C@_0BA@DBELOOBJ@HPE_INVALID_URL@ 0047177c     http_parser.obj
 0002:0000478c       ??_C@_0M@IHNFGJMC@invalid?5URL@ 0047178c     http_parser.obj
 0002:00004798       ??_C@_0BB@JHPEEDEC@HPE_INVALID_HOST@ 00471798     http_parser.obj
 0002:000047ac       ??_C@_0N@EKHJDEOB@invalid?5host@ 004717ac     http_parser.obj
 0002:000047bc       ??_C@_0BB@MGKGPFDG@HPE_INVALID_PORT@ 004717bc     http_parser.obj
 0002:000047d0       ??_C@_0N@BLCLICJF@invalid?5port@ 004717d0     http_parser.obj
 0002:000047e0       ??_C@_0BB@MEIDKDOK@HPE_INVALID_PATH@ 004717e0     http_parser.obj
 0002:000047f4       ??_C@_0N@BJAONEEJ@invalid?5path@ 004717f4     http_parser.obj
 0002:00004804       ??_C@_0BJ@NLLIIAID@HPE_INVALID_QUERY_STRING@ 00471804     http_parser.obj
 0002:00004820       ??_C@_0BF@PGFEONOK@invalid?5query?5string@ 00471820     http_parser.obj
 0002:00004838       ??_C@_0BF@KPHPIPKG@HPE_INVALID_FRAGMENT@ 00471838     http_parser.obj
 0002:00004850       ??_C@_0BB@BLGKONIP@invalid?5fragment@ 00471850     http_parser.obj
 0002:00004864       ??_C@_0BA@LPCFBFPI@HPE_LF_EXPECTED@ 00471864     http_parser.obj
 0002:00004874       ??_C@_0BG@HEBLPMDJ@LF?5character?5expected@ 00471874     http_parser.obj
 0002:0000488c       ??_C@_0BJ@IHOEECLA@HPE_INVALID_HEADER_TOKEN@ 0047188c     http_parser.obj
 0002:000048a8       ??_C@_0BM@JNNMENMG@invalid?5character?5in?5header@ 004718a8     http_parser.obj
 0002:000048c4       ??_C@_0BL@OLDOOILG@HPE_INVALID_CONTENT_LENGTH@ 004718c4     http_parser.obj
 0002:000048e0       ??_C@_0CL@NJOOFCA@invalid?5character?5in?5content?9le@ 004718e0     http_parser.obj
 0002:0000490c       ??_C@_0BO@GDGKAFKO@HPE_UNEXPECTED_CONTENT_LENGTH@ 0047190c     http_parser.obj
 0002:0000492c       ??_C@_0CB@GJJNEHCK@unexpected?5content?9length?5heade@ 0047192c     http_parser.obj
 0002:00004950       ??_C@_0BH@DNFJEHAE@HPE_INVALID_CHUNK_SIZE@ 00471950     http_parser.obj
 0002:00004968       ??_C@_0CH@KJBEIJMP@invalid?5character?5in?5chunk?5size@ 00471968     http_parser.obj
 0002:00004990       ??_C@_0BF@IOMLLMND@HPE_INVALID_CONSTANT@ 00471990     http_parser.obj
 0002:000049a8       ??_C@_0BI@FIOFDGGO@invalid?5constant?5string@ 004719a8     http_parser.obj
 0002:000049c0       ??_C@_0BL@KCFJDMGA@HPE_INVALID_INTERNAL_STATE@ 004719c0     http_parser.obj
 0002:000049dc       ??_C@_0CG@MCDPPGMC@encountered?5unexpected?5internal@ 004719dc     http_parser.obj
 0002:00004a04       ??_C@_0L@NEACAOMN@HPE_STRICT@ 00471a04     http_parser.obj
 0002:00004a10       ??_C@_0BN@FGOIJDFH@strict?5mode?5assertion?5failed@ 00471a10     http_parser.obj
 0002:00004a30       ??_C@_0L@HFDKICHA@HPE_PAUSED@ 00471a30     http_parser.obj
 0002:00004a3c       ??_C@_0BB@JFDHKBPI@parser?5is?5paused@ 00471a3c     http_parser.obj
 0002:00004a50       ??_C@_0M@FAFDJKCN@HPE_UNKNOWN@ 00471a50     http_parser.obj
 0002:00004a5c       ??_C@_0BK@FGOEOOHP@an?5unknown?5error?5occurred@ 00471a5c     http_parser.obj
 0002:00004a78       ??_C@_0L@IJAFCDGM@connection@ 00471a78     http_parser.obj
 0002:00004a84       ??_C@_0BB@GDGALMED@proxy?9connection@ 00471a84     http_parser.obj
 0002:00004a98       ??_C@_0P@DJOOPABC@content?9length@ 00471a98     http_parser.obj
 0002:00004aa8       ??_C@_0BC@JEMMGIEE@transfer?9encoding@ 00471aa8     http_parser.obj
 0002:00004abc       ??_C@_07NACIIPHM@upgrade@  00471abc     http_parser.obj
 0002:00004ac4       ??_C@_07KCKHAHHI@chunked@  00471ac4     http_parser.obj
 0002:00004acc       ??_C@_0L@FFDPOIEG@keep?9alive@ 00471acc     http_parser.obj
 0002:00004ad8       ??_C@_05LBOHBHFK@close@    00471ad8     http_parser.obj
 0002:00004ae0       ??_C@_0BM@JDFAKCJE@?1api?1remoteservice_plcalert@ 00471ae0     qasynhttpsocket.obj
 0002:00004afc       ??_C@_0BM@FJNIIAAO@?1api?1remoteservice_plcsetup@ 00471afc     qasynhttpsocket.obj
 0002:00004b18       ??_C@_08CHOMKDC@api?1lora@ 00471b18     qasynhttpsocket.obj
 0002:00004b24       ??_C@_05LAPONLG@false@     00471b24     qasynhttpsocket.obj
 0002:00004b2c       ??_C@_04LOAJBDKD@true@     00471b2c     qasynhttpsocket.obj
 0002:00004b38       ??_7QAsynHttpSocket@@6B@   00471b38     qasynhttpsocket.obj
 0002:00004bd0       ??_C@_05JNKNAC@State@      00471bd0     qasynhttpsocket.obj
 0002:00004bd8       ??_C@_04KOACHJEN@Type@     00471bd8     qasynhttpsocket.obj
 0002:00004be0       ??_C@_0BC@IBBAJFEJ@1doParseRequest?$CI?$CJ@ 00471be0     qasynhttpsocket.obj
 0002:00004bf4       ??_C@_0BC@DECAJDGD@1doDisconnected?$CI?$CJ@ 00471bf4     qasynhttpsocket.obj
 0002:00004c08       ??_C@_0BA@GKAMIBNA@2disconnected?$CI?$CJ@ 00471c08     qasynhttpsocket.obj
 0002:00004c18       ??_C@_0BM@LCJLBABI@1doUpdateWriteCount?$CIqint64?$CJ@ 00471c18     qasynhttpsocket.obj
 0002:00004c34       ??_C@_0BG@IMKMHMAI@2bytesWritten?$CIqint64?$CJ@ 00471c34     qasynhttpsocket.obj
 0002:00004c4c       ??_C@_0DA@LGEJHEMP@1handleRequest?$CIQHttpRequest?5?$CK?0?5@ 00471c4c     qasynhttpsocket.obj
 0002:00004c7c       ??_C@_0CN@PLHMEFDN@2newRequest?$CIQHttpRequest?5?$CK?0?5QHt@ 00471c7c     qasynhttpsocket.obj
 0002:00004cac       ??_C@_05GGHNHOEK@path?3@   00471cac     qasynhttpsocket.obj
 0002:00004cb4       ??_C@_02JFDKPACN@Sn@       00471cb4     qasynhttpsocket.obj
 0002:00004cb8       ??_C@_0M@HNCDJEJD@AlertValues@ 00471cb8     qasynhttpsocket.obj
 0002:00004cc4       ??_C@_09KABDMIOB@text?1html@ 00471cc4     qasynhttpsocket.obj
 0002:00004cd0       ??_C@_0N@LAFFMKKA@Content?9Type@ 00471cd0     qasynhttpsocket.obj
 0002:00004ce0       ??_C@_0P@HOJGPHBA@Content?9Length@ 00471ce0     qasynhttpsocket.obj
 0002:00004cf0       ??_C@_0BF@BCJILHHO@http?3?1?1www?4baidu?4com@ 00471cf0     qasynhttpsocket.obj
 0002:00004d08       ??_C@_08CBBFJFMD@location@ 00471d08     qasynhttpsocket.obj
 0002:00004d14       ??_C@_0BC@EJNHAAMF@SamplingFrequency@ 00471d14     qasynhttpsocket.obj
 0002:00004d28       ??_C@_0M@ININPOCK@Sensitivity@ 00471d28     qasynhttpsocket.obj
 0002:00004d34       ??_C@_0BF@NPHBKAON@TemperatureDeviation@ 00471d34     qasynhttpsocket.obj
 0002:00004d4c       ??_C@_09CPCFLBE@AlertSpan@ 00471d4c     qasynhttpsocket.obj
 0002:00004d58       ??_C@_08HODLJMFI@00?300?310@ 00471d58     qasynhttpsocket.obj
 0002:00004d64       ??_C@_0L@FBABAHPH@NormalSpan@ 00471d64     qasynhttpsocket.obj
 0002:00004d70       ??_C@_08PBHGPBIM@03?300?300@ 00471d70     qasynhttpsocket.obj
 0002:00004d7c       ??_C@_02FAMKOJFE@Ip@       00471d7c     qasynhttpsocket.obj
 0002:00004d80       ??_C@_02NPEGPENL@Ch@       00471d80     qasynhttpsocket.obj
 0002:00004d84       ??_C@_0O@BHJDPFAF@FsBottomLimit@ 00471d84     qasynhttpsocket.obj
 0002:00004d94       ??_C@_0L@FEEHGNMK@FsTopLimit@ 00471d94     qasynhttpsocket.obj
 0002:00004da0       ??_C@_0L@FIFPBHCO@SensorType@ 00471da0     qasynhttpsocket.obj
 0002:00004dac       ??_C@_09OOJJFHMJ@ChartType@ 00471dac     qasynhttpsocket.obj
 0002:00004db8       ??_C@_0N@BPGDFIPP@TsTimeLength@ 00471db8     qasynhttpsocket.obj
 0002:00004dc8       ??_C@_04DICKPMGH@Data@     00471dc8     qasynhttpsocket.obj
 0002:00004dd0       ??_C@_0BP@NGKHJABA@Error?3?5Not?5valid?5data?5request?$CB@ 00471dd0     qasynhttpsocket.obj
 0002:00004df0       ??_C@_07CNNPNLPM@man_num@  00471df0     qasynhttpsocket.obj
 0002:00004df8       ??_C@_0P@IMICPPG@20150601113432@ 00471df8     qasynhttpsocket.obj
 0002:00004e08       ??_C@_04CLCEDBPF@time@     00471e08     qasynhttpsocket.obj
 0002:00004e10       ??_C@_05BGAGFDJI@?$CF1?4?$CF2@ 00471e10     qasynhttpsocket.obj
 0002:00004e18       __real@bff0000000000000    00471e18     qasynhttpsocket.obj
 0002:00004e24       ??_7QAsynTcpServer@@6B@    00471e24     qasyntcpserver.obj
 0002:00004e60       ??_7QAsynTcpSocket@@6B@    00471e60     qasyntcpsocket.obj
 0002:00004efc       ??_7QHttpRequest@@6B@      00471efc     qhttprequest.obj
 0002:00004f28       ??_C@_0BC@HNLDCEOJ@http?3?1?1localhost?1@ 00471f28     qhttprequest.obj
 0002:00004f3c       ??_C@_02LMMGGCAJ@?3?5@     00471f3c     qhttpresponse.obj
 0002:00004f44       ??_7QHttpResponse@@6B@     00471f44     qhttpresponse.obj
 0002:00004f70       ??_C@_0BD@KFCEFLGM@2allBytesWritten?$CI?$CJ@ 00471f70     qhttpresponse.obj
 0002:00004f84       ??_C@_08LJHDLOLO@Continue@ 00471f84     qhttpresponse.obj
 0002:00004f90       ??_C@_0BE@FGMIEJDD@Switching?5Protocols@ 00471f90     qhttpresponse.obj
 0002:00004fa4       ??_C@_0L@HFFAKEO@Processing@ 00471fa4     qhttpresponse.obj
 0002:00004fb0       ??_C@_02GIPFHKNO@OK@       00471fb0     qhttpresponse.obj
 0002:00004fb4       ??_C@_07BBIDHECN@Created@  00471fb4     qhttpresponse.obj
 0002:00004fbc       ??_C@_08DOBOODLA@Accepted@ 00471fbc     qhttpresponse.obj
 0002:00004fc8       ??_C@_0BO@NKBPKPBI@Non?9Authoritative?5Information@ 00471fc8     qhttpresponse.obj
 0002:00004fe8       ??_C@_0L@FDPJCNGK@No?5Content@ 00471fe8     qhttpresponse.obj
 0002:00004ff4       ??_C@_0O@BFFLKCLE@Reset?5Content@ 00471ff4     qhttpresponse.obj
 0002:00005004       ??_C@_0BA@NNLNHGMN@Partial?5Content@ 00472004     qhttpresponse.obj
 0002:00005014       ??_C@_0N@BFLFIKGM@Multi?9Status@ 00472014     qhttpresponse.obj
 0002:00005024       ??_C@_0BB@HLFEHKPE@Multiple?5Choices@ 00472024     qhttpresponse.obj
 0002:00005038       ??_C@_0BC@BPBCNFPI@Moved?5Permanently@ 00472038     qhttpresponse.obj
 0002:0000504c       ??_C@_0BC@LODIMCJL@Moved?5Temporarily@ 0047204c     qhttpresponse.obj
 0002:00005060       ??_C@_09FAMPMKIP@See?5Other@ 00472060     qhttpresponse.obj
 0002:0000506c       ??_C@_0N@IFEFAIJB@Not?5Modified@ 0047206c     qhttpresponse.obj
 0002:0000507c       ??_C@_09JFBGBFIM@Use?5Proxy@ 0047207c     qhttpresponse.obj
 0002:00005088       ??_C@_0BD@PJMNAMDM@Temporary?5Redirect@ 00472088     qhttpresponse.obj
 0002:0000509c       ??_C@_0M@LNAIDEEG@Bad?5Request@ 0047209c     qhttpresponse.obj
 0002:000050a8       ??_C@_0N@OOAPMOJA@Unauthorized@ 004720a8     qhttpresponse.obj
 0002:000050b8       ??_C@_0BB@LMPIHCBH@Payment?5Required@ 004720b8     qhttpresponse.obj
 0002:000050cc       ??_C@_09LMDIMFJD@Forbidden@ 004720cc     qhttpresponse.obj
 0002:000050d8       ??_C@_09CFCBFJND@Not?5Found@ 004720d8     qhttpresponse.obj
 0002:000050e4       ??_C@_0BD@CCIPIALO@Method?5Not?5Allowed@ 004720e4     qhttpresponse.obj
 0002:000050f8       ??_C@_0P@HHIDFAOI@Not?5Acceptable@ 004720f8     qhttpresponse.obj
 0002:00005108       ??_C@_0BO@ONPAAOGI@Proxy?5Authentication?5Required@ 00472108     qhttpresponse.obj
 0002:00005128       ??_C@_0BB@GKNJPEJG@Request?5Time?9out@ 00472128     qhttpresponse.obj
 0002:0000513c       ??_C@_08OJCIFGDF@Conflict@ 0047213c     qhttpresponse.obj
 0002:00005148       ??_C@_04OKIIBCCG@Gone@     00472148     qhttpresponse.obj
 0002:00005150       ??_C@_0BA@JCKHPIPI@Length?5Required@ 00472150     qhttpresponse.obj
 0002:00005160       ??_C@_0BE@BBDBJOM@Precondition?5Failed@ 00472160     qhttpresponse.obj
 0002:00005174       ??_C@_0BJ@MMEIEOIG@Request?5Entity?5Too?5Large@ 00472174     qhttpresponse.obj
 0002:00005190       ??_C@_0BG@PMALKKB@Request?9URI?5Too?5Large@ 00472190     qhttpresponse.obj
 0002:000051a8       ??_C@_0BH@HLJJIAEN@Unsupported?5Media?5Type@ 004721a8     qhttpresponse.obj
 0002:000051c0       ??_C@_0CA@CBAMGINK@Requested?5Range?5Not?5Satisfiable@ 004721c0     qhttpresponse.obj
 0002:000051e0       ??_C@_0BD@NDMHPAED@Expectation?5Failed@ 004721e0     qhttpresponse.obj
 0002:000051f4       ??_C@_0N@NPEBOMFI@I?$CCm?5a?5teapot@ 004721f4     qhttpresponse.obj
 0002:00005204       ??_C@_0BF@BHJGKCEF@Unprocessable?5Entity@ 00472204     qhttpresponse.obj
 0002:0000521c       ??_C@_06GFKCFIPE@Locked@   0047221c     qhttpresponse.obj
 0002:00005224       ??_C@_0BC@KKPOPIFM@Failed?5Dependency@ 00472224     qhttpresponse.obj
 0002:00005238       ??_C@_0BF@JKJGKGEF@Unordered?5Collection@ 00472238     qhttpresponse.obj
 0002:00005250       ??_C@_0BB@NMNIKHMI@Upgrade?5Required@ 00472250     qhttpresponse.obj
 0002:00005264       ??_C@_0BG@NJGANGCC@Internal?5Server?5Error@ 00472264     qhttpresponse.obj
 0002:0000527c       ??_C@_0BA@JGKGKAME@Not?5Implemented@ 0047227c     qhttpresponse.obj
 0002:0000528c       ??_C@_0M@BNCNLPGM@Bad?5Gateway@ 0047228c     qhttpresponse.obj
 0002:00005298       ??_C@_0BE@NGHLFKBN@Service?5Unavailable@ 00472298     qhttpresponse.obj
 0002:000052ac       ??_C@_0BB@PHMOGCPC@Gateway?5Time?9out@ 004722ac     qhttpresponse.obj
 0002:000052c0       ??_C@_0BL@GBBFKFHI@HTTP?5Version?5not?5supported@ 004722c0     qhttpresponse.obj
 0002:000052dc       ??_C@_0BI@PDOLHBJO@Variant?5Also?5Negotiates@ 004722dc     qhttpresponse.obj
 0002:000052f4       ??_C@_0BF@GDOFGFPB@Insufficient?5Storage@ 004722f4     qhttpresponse.obj
 0002:0000530c       ??_C@_0BJ@DHMPCKNA@Bandwidth?5Limit?5Exceeded@ 0047230c     qhttpresponse.obj
 0002:00005328       ??_C@_0N@JKOFFNBC@Not?5Extended@ 00472328     qhttpresponse.obj
 0002:00005338       ??_C@_0EL@HOHFGBME@QHttpResponse?3?3setHeader?$CI?$CJ?5Cann@ 00472338     qhttpresponse.obj
 0002:00005384       ??_C@_02PCIJFNDE@?$AN?6@   00472384     qhttpresponse.obj
 0002:00005388       ??_C@_0EP@FGLBOIGK@QHttpResponse?3?3writeHeader?$CI?$CJ?5Ca@ 00472388     qhttpresponse.obj
 0002:000053d8       ??_C@_04JNIHBGGH@date@     004723d8     qhttpresponse.obj
 0002:000053e0       ??_C@_0L@PJJKMLL@Connection@ 004723e0     qhttpresponse.obj
 0002:000053ec       ??_C@_0BC@ELHLFCNH@Transfer?9Encoding@ 004723ec     qhttpresponse.obj
 0002:00005400       ??_C@_04FIEKMBKB@?5GMT@    00472400     qhttpresponse.obj
 0002:00005408       ??_C@_0BK@JPODEMDG@ddd?0?5dd?5MMM?5yyyy?5hh?3mm?3ss@ 00472408     qhttpresponse.obj
 0002:00005424       ??_C@_04FMEGDJGD@Date@     00472424     qhttpresponse.obj
 0002:00005430       ??_C@_0EN@BDNBEEHD@QHttpResponse?3?3writeHead?$CI?$CJ?5Cann@ 00472430     qhttpresponse.obj
 0002:00005480       ??_C@_0EC@FFBLMGBD@QHttpResponse?3?3writeHead?$CI?$CJ?5Alre@ 00472480     qhttpresponse.obj
 0002:000054c4       ??_C@_0BB@GBHCONLN@HTTP?11?41?5?$CF1?5?$CF2?$AN?6@ 004724c4     qhttpresponse.obj
 0002:000054d8       ??_C@_0EG@FLBNPCCO@QHttpResponse?3?3write?$CI?$CJ?5Cannot?5w@ 004724d8     qhttpresponse.obj
 0002:00005520       ??_C@_0EL@LAIDCBDG@QHttpResponse?3?3write?$CI?$CJ?5You?5must@ 00472520     qhttpresponse.obj
 0002:00005570       ??_C@_0ED@GJINGODK@QHttpResponse?3?3end?$CI?$CJ?5Cannot?5wri@ 00472570     qhttpresponse.obj
 0002:000055b8       ??_7QHttpServer@@6B@       004725b8     qhttpserver.obj
 0002:000055f0       ??_C@_0EJ@EEIJPDEE@1sockDisConnectSlot?$CIconst?5int?5?0@ 004725f0     qhttpserver.obj
 0002:00005640       ??_C@_0EF@OPIKGHMN@2sockDisConnect?$CIconst?5int?5?0cons@ 00472640     qhttpserver.obj
 0002:00005688       ??_C@_0EL@BIEOGPP@2getAlertData?$CIQString?0quint8?0qu@ 00472688     qhttpserver.obj
 0002:000056d8       ??_C@_0EG@OIJEPHOF@2getData?$CIQString?0quint8?0int?0int@ 004726d8     qhttpserver.obj
 0002:00005720       ??_C@_0CC@PMGKFAEF@2setAlert?$CIQString?0quint8?0quint6@ 00472720     qhttpserver.obj
 0002:00005744       ??_C@_0DK@IJMCKNKC@2setChParas?$CIQString?0quint8?0floa@ 00472744     qhttpserver.obj
 0002:00005780       ??_C@_0BL@GBFMCINE@2timeOut?$CIConditionPointer?$CJ@ 00472780     qhttpserver.obj
 0002:0000579c       ??_C@_0BC@BJFHOMHN@2message?$CIQString?$CJ@ 0047279c     qhttpserver.obj
 0002:000057b0       ??_C@_05EGJIMALK@UTF?98@   004727b0     staticfilecontroller.obj
 0002:000057b8       ??_C@_07HPCADMJF@QVector@  004727b8     main.obj
 0002:000057c0       ??_C@_0M@NNPGNFIF@WifiFsParas@ 004727c0     main.obj
 0002:000057cc       ??_C@_0M@OGNLMGAB@WifiApParas@ 004727cc     main.obj
 0002:000057d8       ??_C@_0M@PAMPBDNF@WifiChParas@ 004727d8     main.obj
 0002:000057e4       ??_C@_1BK@MGMFAEKH@?$AAk?$AAe?$AAr?$AAn?$AAe?$AAl?$AA3?$AA2?$AA?4?$AAd?$AAl?$AAl@ 004727e4     main.obj
 0002:00005800       ??_C@_0BM@EBDAABIF@SetUnhandledExceptionFilter@ 00472800     main.obj
 0002:0000581c       ??_C@_09ELOIGFDA@errCode?3?5@ 0047281c     main.obj
 0002:00005828       ??_C@_09HLHOOLPM@errAddr?3?5@ 00472828     main.obj
 0002:00005834       ??_C@_09PNKNHPMC@errFlag?3?5@ 00472834     main.obj
 0002:00005840       ??_C@_09EHBGHHGG@errPara?3?5@ 00472840     main.obj
 0002:0000584c       ??_C@_1BE@EJCCJHCK@?$AAc?$AAr?$AAa?$AAs?$AAh?$AA?4?$AAd?$AAm?$AAp@ 0047284c     main.obj
 0002:00005860       ??_C@_0BA@GEJHMDAN@hDumpFile?$DN?$DNNULL@ 00472860     main.obj
 0002:00005870       ??_C@_0BA@HEHOPGBN@Microsoft?5Yahei@ 00472870     main.obj
 0002:00005880       ??_C@_06FNMMJIFN@Debug?3@  00472880     main.obj
 0002:00005888       ??_C@_05DIAHDGGP@Info?3@   00472888     main.obj
 0002:00005890       ??_C@_08HNGHFODD@Warning?3@ 00472890     main.obj
 0002:0000589c       ??_C@_09HGLJKAIF@Critical?3@ 0047289c     main.obj
 0002:000058a8       ??_C@_06GNEMIGGJ@Fatal?3@  004728a8     main.obj
 0002:000058b0       ??_C@_0BI@OPAEGIIN@yyyy?9MM?9dd?5hh?3mm?3ss?5ddd@ 004728b0     main.obj
 0002:000058c8       ??_C@_0BH@KNPDNJPO@DateTime?3?$CF1?5Message?3?$CF2@ 004728c8     main.obj
 0002:000058e0       ??_C@_07POILLFDI@log?4txt@ 004728e0     main.obj
 0002:000058e8       ??_C@_0L@ILPNADAC@logold?4txt@ 004728e8     main.obj
 0002:000058fc       ??_SQFrame@@6BQObject@@@   004728fc     maintab.obj
 0002:000059b4       ??_SQFrame@@6BQPaintDevice@@@ 004729b4     maintab.obj
 0002:000059d4       ??_SQTabWidget@@6BQObject@@@ 004729d4     maintab.obj
 0002:00005a94       ??_SQTabWidget@@6BQPaintDevice@@@ 00472a94     maintab.obj
 0002:00005ab4       ??_SQSpinBox@@6BQObject@@@ 00472ab4     maintab.obj
 0002:00005b88       ??_SQSpinBox@@6BQPaintDevice@@@ 00472b88     maintab.obj
 0002:00005ba8       ??_7mainTab@@6BQObject@@@  00472ba8     maintab.obj
 0002:00005c60       ??_7mainTab@@6BQPaintDevice@@@ 00472c60     maintab.obj
 0002:00005c80       ??_SQButtonGroup@@6B@      00472c80     maintab.obj
 0002:00005cb4       ??_SQMdiArea@@6BQObject@@@ 00472cb4     maintab.obj
 0002:00005d7c       ??_SQMdiArea@@6BQPaintDevice@@@ 00472d7c     maintab.obj
 0002:00005d9c       ??_SQScrollArea@@6BQObject@@@ 00472d9c     maintab.obj
 0002:00005e64       ??_SQScrollArea@@6BQPaintDevice@@@ 00472e64     maintab.obj
 0002:00005e80       ??_C@_07KPLKHFNE@mainTab@  00472e80     maintab.obj
 0002:00005e88       ??_C@_0BD@LGCDLEHG@horizontalLayout_7@ 00472e88     maintab.obj
 0002:00005e9c       ??_C@_09DMIEKCOP@tabWidget@ 00472e9c     maintab.obj
 0002:00005ea8       ??_C@_0L@IKDKNCOL@tabWelcome@ 00472ea8     maintab.obj
 0002:00005eb4       ??_C@_0L@JEEJIDE@tabDaqView@ 00472eb4     maintab.obj
 0002:00005ec0       ??_C@_0BB@GGBPEGMA@verticalLayout_8@ 00472ec0     maintab.obj
 0002:00005ed4       ??_C@_0L@LLIJDPKF@scrollArea@ 00472ed4     maintab.obj
 0002:00005ee0       ??_C@_0BJ@GIOELLGD@scrollAreaWidgetContents@ 00472ee0     maintab.obj
 0002:00005efc       ??_C@_0L@MDMIKCPE@tabDUTview@ 00472efc     maintab.obj
 0002:00005f08       ??_C@_0M@HMIBKAFP@tabDataView@ 00472f08     maintab.obj
 0002:00005f14       ??_C@_0BB@JMPAKOEK@verticalLayout_2@ 00472f14     maintab.obj
 0002:00005f28       ??_C@_07BHGOOJFL@mdiArea@  00472f28     maintab.obj
 0002:00005f30       ??_C@_0P@CJFAFMPF@tabHistoryData@ 00472f30     maintab.obj
 0002:00005f40       ??_C@_0M@LKDPBELB@tabSettings@ 00472f40     maintab.obj
 0002:00005f4c       ??_C@_0BB@MKKKAJMM@verticalLayout_4@ 00472f4c     maintab.obj
 0002:00005f60       ??_C@_0BB@IFOLJPAL@verticalLayout_3@ 00472f60     maintab.obj
 0002:00005f74       ??_C@_0O@BNDJPAN@btnGrpSetLeft@ 00472f74     maintab.obj
 0002:00005f84       ??_C@_0N@BGNMOIIN@btnTcpServer@ 00472f84     maintab.obj
 0002:00005f94       ??_C@_0O@JDHKOPKM@btnDutSetting@ 00472f94     maintab.obj
 0002:00005fa4       ??_C@_09MKBIPFLC@btnPosMap@ 00472fa4     maintab.obj
 0002:00005fb0       ??_C@_09LLJNNLFM@tabForSet@ 00472fb0     maintab.obj
 0002:00005fbc       ??_C@_0L@EOKCHKAE@tabGeneral@ 00472fbc     maintab.obj
 0002:00005fc8       ??_C@_0BC@EJNDGOND@verticalLayout_20@ 00472fc8     maintab.obj
 0002:00005fdc       ??_C@_0BD@DBLLKILJ@horizontalLayout_8@ 00472fdc     maintab.obj
 0002:00005ff0       ??_C@_0BE@HEFIBKOJ@localTcpServerFrame@ 00472ff0     maintab.obj
 0002:00006004       ??_C@_0BB@NDLBDIIN@verticalLayout_5@ 00473004     maintab.obj
 0002:00006018       ??_C@_0BD@MLFEEADD@horizontalLayout_2@ 00473018     maintab.obj
 0002:0000602c       ??_C@_05LJNFHEHL@ipTcp@    0047302c     maintab.obj
 0002:00006034       ??_C@_0BD@NCEPHBHC@horizontalLayout_3@ 00473034     maintab.obj
 0002:00006048       ??_C@_07CAAKPDLF@portTcp@  00473048     maintab.obj
 0002:00006050       ??_C@_0BD@IAMCGMNO@autoStartTcpServer@ 00473050     maintab.obj
 0002:00006064       ??_C@_0M@OCHCFBKP@btnApplyTcp@ 00473064     maintab.obj
 0002:00006070       ??_C@_0BF@HOBFCLPP@localHttpServerFrame@ 00473070     maintab.obj
 0002:00006088       ??_C@_0BC@DGOCCEMP@verticalLayout_15@ 00473088     maintab.obj
 0002:0000609c       ??_C@_0BC@ELJFNAIK@verticalLayout_10@ 0047309c     maintab.obj
 0002:000060b0       ??_C@_08KKNPADAJ@label_14@ 004730b0     maintab.obj
 0002:000060bc       ??_C@_0BE@EJDGOODP@horizontalLayout_13@ 004730bc     maintab.obj
 0002:000060d0       ??_C@_08LDMEDCEI@label_15@ 004730d0     maintab.obj
 0002:000060dc       ??_C@_0N@BLMGAFKN@ipHttpServer@ 004730dc     maintab.obj
 0002:000060ec       ??_C@_0BE@GHHHIPI@horizontalLayout_14@ 004730ec     maintab.obj
 0002:00006100       ??_C@_08JIOJGBIL@label_16@ 00473100     maintab.obj
 0002:0000610c       ??_C@_0P@EPLMIDLN@portHttpServer@ 0047310c     maintab.obj
 0002:0000611c       ??_C@_0BE@EMEMJHOA@autoStartHttpServer@ 0047311c     maintab.obj
 0002:00006130       ??_C@_0BD@MNCAHNFL@btnApplyHttpServer@ 00473130     maintab.obj
 0002:00006144       ??_C@_0BL@DCCFCPNA@remoteWebSocketServerFrame@ 00473144     maintab.obj
 0002:00006160       ??_C@_0BC@FAMIFPJC@verticalLayout_21@ 00473160     maintab.obj
 0002:00006174       ??_C@_0BC@HLOFAMFB@verticalLayout_22@ 00473174     maintab.obj
 0002:00006188       ??_C@_08MOLDMGAN@label_10@ 00473188     maintab.obj
 0002:00006194       ??_C@_0BE@FCGLGBCH@horizontalLayout_22@ 00473194     maintab.obj
 0002:000061a8       ??_C@_08JKKPNPNC@label_26@ 004731a8     maintab.obj
 0002:000061b4       ??_C@_0BI@PILFLCIL@ipRemoteWebsocketServer@ 004731b4     maintab.obj
 0002:000061cc       ??_C@_0BE@ELHAFAGG@horizontalLayout_23@ 004731cc     maintab.obj
 0002:000061e0       ??_C@_08IDLEOOJD@label_27@ 004731e0     maintab.obj
 0002:000061ec       ??_C@_0BD@GFGPJLNK@portRemoteWSserver@ 004731ec     maintab.obj
 0002:00006200       ??_C@_0BJ@GEFGNAPG@autoStartRemoteWebSocket@ 00473200     maintab.obj
 0002:0000621c       ??_C@_0BI@NJNGNDOB@btnApplyRemoteWebSocket@ 0047321c     maintab.obj
 0002:00006234       ??_C@_0BE@KIGOGLMB@localUdpServerFrame@ 00473234     maintab.obj
 0002:00006248       ??_C@_0BC@CPPJBFIO@verticalLayout_14@ 00473248     maintab.obj
 0002:0000625c       ??_C@_0BB@PIJMGLEO@verticalLayout_6@ 0047325c     maintab.obj
 0002:00006270       ??_C@_0BD@JNAOOHLF@horizontalLayout_4@ 00473270     maintab.obj
 0002:00006284       ??_C@_0M@OJEGACFN@ipUdpServer@ 00473284     maintab.obj
 0002:00006290       ??_C@_0BD@IEBFNGPE@horizontalLayout_5@ 00473290     maintab.obj
 0002:000062a4       ??_C@_07JNPJICFF@portUdp@  004732a4     maintab.obj
 0002:000062ac       ??_C@_0BD@LGBGKCJ@autoStartUdpServer@ 004732ac     maintab.obj
 0002:000062c0       ??_C@_0O@LPGDBOMK@btnApplyTcp_2@ 004732c0     maintab.obj
 0002:000062d0       ??_C@_0BE@BPGMEJLJ@horizontalLayout_15@ 004732d0     maintab.obj
 0002:000062e4       ??_C@_0BK@LHPKCDGF@localWebSocketServerFrame@ 004732e4     maintab.obj
 0002:00006300       ??_C@_0BC@JKFHGLMD@verticalLayout_19@ 00473300     maintab.obj
 0002:00006314       ??_C@_0BC@HJKDLCAI@verticalLayout_12@ 00473314     maintab.obj
 0002:00006328       ??_C@_08MMPFHIFE@label_20@ 00473328     maintab.obj
 0002:00006334       ??_C@_0BE@KKMCDHPE@horizontalLayout_18@ 00473334     maintab.obj
 0002:00006348       ??_C@_08NFOOEJBF@label_21@ 00473348     maintab.obj
 0002:00006354       ??_C@_0BC@CODMGBOL@ipWebSocketServer@ 00473354     maintab.obj
 0002:00006368       ??_C@_0BE@LDNJAGLF@horizontalLayout_19@ 00473368     maintab.obj
 0002:0000637c       ??_C@_08POMDBKNG@label_22@ 0047337c     maintab.obj
 0002:00006388       ??_C@_0BE@BFPGKFI@portWebSocketServer@ 00473388     maintab.obj
 0002:0000639c       ??_C@_0BJ@DDDAMKAM@autoStartWebsocketServer@ 0047339c     maintab.obj
 0002:000063b8       ??_C@_0BI@DNMOICOO@btnApplyWebSocketServer@ 004733b8     maintab.obj
 0002:000063d0       ??_C@_0BH@CGCHDCOA@localModbusServerFrame@ 004733d0     maintab.obj
 0002:000063e8       ??_C@_0BC@IDEMFKIC@verticalLayout_18@ 004733e8     maintab.obj
 0002:000063fc       ??_C@_0BB@HPAEHHIB@verticalLayout_9@ 004733fc     maintab.obj
 0002:00006410       ??_C@_08NHKIPHEM@label_11@ 00473410     maintab.obj
 0002:0000641c       ??_C@_0BE@HLAAIMLN@horizontalLayout_11@ 0047341c     maintab.obj
 0002:00006430       ??_C@_08PMIFKEIP@label_12@ 00473430     maintab.obj
 0002:0000643c       ??_C@_0P@CPMLANPA@ipModbusServer@ 0047343c     maintab.obj
 0002:0000644c       ??_C@_0BE@FACNNPHO@horizontalLayout_12@ 0047344c     maintab.obj
 0002:00006460       ??_C@_08OFJOJFMO@label_13@ 00473460     maintab.obj
 0002:0000646c       ??_C@_0BB@GBNCGNMO@portModbusServer@ 0047346c     maintab.obj
 0002:00006480       ??_C@_0BG@HEBNJJFK@autoStartModbusServer@ 00473480     maintab.obj
 0002:00006498       ??_C@_0BF@DDPDGECD@btnApplyModbusServer@ 00473498     maintab.obj
 0002:000064b0       ??_C@_0BF@FIPFNGHH@remoteTcpServerFrame@ 004734b0     maintab.obj
 0002:000064c8       ??_C@_0BC@ENEEGEN@verticalLayout_17@ 004734c8     maintab.obj
 0002:000064dc       ??_C@_0BC@GALIIDEJ@verticalLayout_13@ 004734dc     maintab.obj
 0002:000064f0       ??_C@_08OHNICLJH@label_23@ 004734f0     maintab.obj
 0002:000064fc       ??_C@_0BE@GAFNADKF@horizontalLayout_20@ 004734fc     maintab.obj
 0002:00006510       ??_C@_08KIJJLNFA@label_24@ 00473510     maintab.obj
 0002:0000651c       ??_C@_0BC@GEKFHBKL@ipRemoteTcpServer@ 0047351c     maintab.obj
 0002:00006530       ??_C@_0BE@HJEGDCOE@horizontalLayout_21@ 00473530     maintab.obj
 0002:00006544       ??_C@_08LBICIMBB@label_25@ 00473544     maintab.obj
 0002:00006550       ??_C@_0BE@ELMGHKBI@portRemoteTcpServer@ 00473550     maintab.obj
 0002:00006564       ??_C@_0BD@MPIALHFN@autoStartTcpClient@ 00473564     maintab.obj
 0002:00006578       ??_C@_0BC@BNHMMBIJ@btnApplyTcpClient@ 00473578     maintab.obj
 0002:0000658c       ??_C@_0BG@GJIODIHA@remoteHttpServerFrame@ 0047358c     maintab.obj
 0002:000065a4       ??_C@_0BC@BNMPHHAM@verticalLayout_16@ 004735a4     maintab.obj
 0002:000065b8       ??_C@_0BC@FCIOOBML@verticalLayout_11@ 004735b8     maintab.obj
 0002:000065cc       ??_C@_08IBPCFAMK@label_17@ 004735cc     maintab.obj
 0002:000065d8       ??_C@_0BE@DEEBBKHK@horizontalLayout_16@ 004735d8     maintab.obj
 0002:000065ec       ??_C@_08GGKEMAF@label_18@  004735ec     maintab.obj
 0002:000065f8       ??_C@_0BD@GMMHHFEO@ipRemoteHttpServer@ 004735f8     maintab.obj
 0002:0000660c       ??_C@_0BE@CNFKCLDL@horizontalLayout_17@ 0047360c     maintab.obj
 0002:00006620       ??_C@_08BPHBHNEE@label_19@ 00473620     maintab.obj
 0002:0000662c       ??_C@_0BF@DOIAPEHD@portRemoteHttpServer@ 0047362c     maintab.obj
 0002:00006644       ??_C@_0BE@DAOEMGD@autoStartHttpClient@ 00473644     maintab.obj
 0002:00006658       ??_C@_0BJ@BMLOHDCC@btnApplyRemoteHttpServer@ 00473658     maintab.obj
 0002:00006674       ??_C@_0BB@OBIHFKAP@verticalLayout_7@ 00473674     maintab.obj
 0002:00006688       ??_C@_0BD@CIKAJJPI@horizontalLayout_9@ 00473688     maintab.obj
 0002:0000669c       ??_C@_0N@GEPOHKLD@saveDataPath@ 0047369c     maintab.obj
 0002:000066ac       ??_C@_0BC@PGLDINJJ@btnChangeLocation@ 004736ac     maintab.obj
 0002:000066c0       ??_C@_0BE@GCBLLNPM@horizontalLayout_10@ 004736c0     maintab.obj
 0002:000066d4       ??_C@_08FKEHMHCB@saveWave@ 004736d4     maintab.obj
 0002:000066e0       ??_C@_0O@NOCJAHDN@saveCharacter@ 004736e0     maintab.obj
 0002:000066f0       ??_C@_0BC@GHGDHCJE@saveOrignalPacket@ 004736f0     maintab.obj
 0002:00006704       ??_C@_0BD@KPDIIFDH@horizontalLayout_6@ 00473704     maintab.obj
 0002:00006718       ??_C@_0L@GIJLFFPA@pushButton@ 00473718     maintab.obj
 0002:00006724       ??_C@_0O@GMIEEBEN@tabDUTSetting@ 00473724     maintab.obj
 0002:00006734       ??_C@_0BB@GCCGFNGH@tabPosMapSetting@ 00473734     maintab.obj
 0002:00006748       ??_C@_06NMGEPFMN@tabSys@   00473748     maintab.obj
 0002:00006750       ??_C@_0O@FEMCKONB@tabDataExport@ 00473750     maintab.obj
 0002:00006760       ??_C@_07NALDAJPH@tabHelp@  00473760     maintab.obj
 0002:00006768       ??_C@_0EJ@LOLOMIBC@?f?$KM?$KC?h?$LP?$IO?i?$KB?$LF?o?$LM?$IM?f?$IP?$JA?d?$LO?$JL?f?$JM?$IA?h?$LP?$JB?d?$LN?$LP?g?$JE?$KI?g@ 00473768     maintab.obj
 0002:000067b4       ??_C@_0N@KNBCMHEF@?e?$LI?$LI?h?$KH?$IE?h?$KO?$LO?g?$LN?$KO@ 004737b4     maintab.obj
 0002:000067c4       ??_C@_0N@BIFKFNLF@?f?$LF?$IL?g?$IC?$LJ?h?$KO?$LO?g?$LN?$KO@ 004737c4     maintab.obj
 0002:000067d4       ??_C@_0N@IKBODDLH@?f?$LF?$IL?g?$IC?$LJ?e?$KP?$LJ?e?$LK?$JE@ 004737d4     maintab.obj
 0002:000067e4       ??_C@_0BG@IEEOBPDO@?g?$JE?$KI?d?$LK?$IO?h?$LP?$JO?f?$IO?$KF?d?$LM?$KA?f?$IE?$JP?e?$JJ?$KI@ 004737e4     maintab.obj
 0002:000067fc       ??_C@_0BA@GJDILKPO@?f?$JM?$KM?e?$JM?$LAtcpServer@ 004737fc     maintab.obj
 0002:0000680c       ??_C@_0M@PCLCMAFI@IP?e?$JM?$LA?e?$JN?$IA?o?$LM?$JK@ 0047380c     maintab.obj
 0002:00006818       ??_C@_0N@FFNHDPMM@?5?g?$KL?$KP?5?e?$IP?$KD?5?o?$LM?$JK@ 00473818     maintab.obj
 0002:00006828       ??_C@_09NEKNMCMH@?h?$IH?$KK?e?$JA?$KP?e?$IK?$KI@ 00473828     maintab.obj
 0002:00006834       ??_C@_0BD@IFCCEKEP@?g?$JE?$KI?d?$LK?$IO?f?$IO?$KF?f?$JE?$LG?h?$KP?$LH?f?$LB?$IC@ 00473834     maintab.obj
 0002:00006848       ??_C@_0BC@BOIBNAFO@?f?$JM?$KM?e?$JM?$LAhttp?5Server@ 00473848     maintab.obj
 0002:0000685c       ??_C@_0DB@KCCNKJPL@?h?$LP?$JM?g?$KI?$ILwebSocketServer?o?$LM?$IM?g?$JE?$KI?d?$LK?$IO?f@ 0047385c     maintab.obj
 0002:00006890       ??_C@_0BA@NIJBKDKJ@?h?$LP?$JM?g?$KI?$ILWS?5Server@ 00473890     maintab.obj
 0002:000068a0       ??_C@_0BA@OCJLLMAJ@?f?$JM?$KM?e?$JM?$LAudpServer@ 004738a0     maintab.obj
 0002:000068b0       ??_C@_0BH@OPFPDIAJ@?f?$JM?$KM?e?$JM?$LAwebsocket?5Server@ 004738b0     maintab.obj
 0002:000068c8       ??_C@_0BE@NBIKNECM@?f?$JM?$KM?e?$JM?$LAmodbus?5Server@ 004738c8     maintab.obj
 0002:000068dc       ??_C@_0BP@FGGNPFF@?g?$JE?$KI?d?$LK?$IO?d?$LI?$IK?d?$LM?$KA?f?$JF?$LA?f?$IN?$KO?e?$II?$LA?f?$JM?$IN?e?$IK?$KB?e?$JJ?$KI@ 004738dc     maintab.obj
 0002:000068fc       ??_C@_0BA@HOMCIGO@?h?$LP?$JM?g?$KI?$ILtcpServer@ 004738fc     maintab.obj
 0002:0000690c       ??_C@_0CO@LEKFLDDD@?g?$JE?$KI?d?$LK?$IO?d?$LI?$IK?d?$LM?$KA?f?$JF?$LA?f?$IN?$KO?h?$IH?$LDweb?f?$JM?$IN?e?$IK?$KB?e@ 0047390c     maintab.obj
 0002:0000693c       ??_C@_0BC@HBMBMGPI@?h?$LP?$JM?g?$KI?$ILhttp?5Server@ 0047393c     maintab.obj
 0002:00006950       ??_C@_0N@CMHEOJDL@?e?$KN?$JI?e?$IC?$KI?h?$KO?$LO?g?$LN?$KO@ 00473950     maintab.obj
 0002:00006960       ??_C@_0BA@BOAEAIGJ@?f?$JG?$IH?d?$LL?$LG?d?$LN?$IN?g?$LN?$KO?o?$LM?$JK@ 00473960     maintab.obj
 0002:00006970       ??_C@_03KHICJKCI@?4?4?4@   00473970     maintab.obj
 0002:00006974       ??_C@_0N@GAKPHOCH@?e?$KN?$JI?e?$IC?$KI?f?$LD?$KC?e?$LN?$KC@ 00473974     maintab.obj
 0002:00006984       ??_C@_0BA@PHMKNKEP@?e?$KN?$JI?e?$IC?$KI?g?$IJ?$LJ?e?$LO?$IB?e?$IA?$LM@ 00473984     maintab.obj
 0002:00006994       ??_C@_0BD@BDCFCFKB@?e?$KN?$JI?e?$IC?$KI?e?$IO?$JP?e?$KH?$IL?f?$IK?$KF?f?$JG?$IH@ 00473994     maintab.obj
 0002:000069a8       ??_C@_0N@LIBDPBJA@?d?$LP?$JN?e?$KN?$JI?h?$KO?$LO?g?$LN?$KO@ 004739a8     maintab.obj
 0002:000069b8       ??_C@_07ECEMPDJM@General@  004739b8     maintab.obj
 0002:000069c0       ??_C@_0L@HJEHEKNA@dutSetting@ 004739c0     maintab.obj
 0002:000069cc       ??_C@_0BD@HGJGDJGB@?f?$LF?$IL?g?$IC?$LJ?i?$IA?$JK?i?$IB?$JD?e?$KP?$LJ?e?$LK?$JE@ 004739cc     maintab.obj
 0002:000069e0       ??_C@_06CLKHBOGD@?g?$LD?$LL?g?$LL?$JP@ 004739e0     maintab.obj
 0002:000069e8       ??_C@_0BH@BNHNABFI@1changeSettingTab?$CIint?$CJ@ 004739e8     maintab.obj
 0002:00006a00       ??_C@_0BE@JGHJFAF@2buttonClicked?$CIint?$CJ@ 00473a00     maintab.obj
 0002:00006a14       ??_C@_04GPMDFGEJ@type@     00473a14     maintab.obj
 0002:00006a1c       ??_C@_0BG@CBGKNNBI@?e?$IN?$LD?e?$LA?$IG?e?$II?$KA?i?$JJ?$KE?h?$KO?$LO?e?$KE?$IH?o?$LM?$JK@ 00473a1c     maintab.obj
 0002:00006a34       ??_C@_0BG@CHPCCKOC@?g?$KB?$KO?h?$KO?$KE?e?$II?$KA?i?$JJ?$KE?f?$KN?$KE?h?$KO?$LO?e?$KE?$IH@ 00473a34     maintab.obj
 0002:00006a4c       ??_C@_04EDLMILMO@add?3@    00473a4c     maintab.obj
 0002:00006a54       ??_C@_0BD@MPICGIEL@?i?$IA?$IJ?f?$IL?$KJ?d?$LP?$JN?e?$KN?$JI?h?$LH?$KP?e?$LO?$IE@ 00473a54     maintab.obj
 0002:00006a68       ??_C@_0L@HLODIJDH@ws?3?1?1?$CF1?3?$CF2@ 00473a68     maintab.obj
 0002:00006a7c       ??_SQTextEdit@@6BQObject@@@ 00473a7c     mainwindow.obj
 0002:00006b58       ??_SQTextEdit@@6BQPaintDevice@@@ 00473b58     mainwindow.obj
 0002:00006b7c       ??_SQTextBrowser@@6BQObject@@@ 00473b7c     mainwindow.obj
 0002:00006c6c       ??_SQTextBrowser@@6BQPaintDevice@@@ 00473c6c     mainwindow.obj
 0002:00006c8c       ??_SQSqlTableModel@@6B@    00473c8c     mainwindow.obj
 0002:00006d80       ??_7CMainWindow@@6BQObject@@@ 00473d80     mainwindow.obj
 0002:00006e3c       ??_7CMainWindow@@6BQPaintDevice@@@ 00473e3c     mainwindow.obj
 0002:00006e5c       ??_SQDockWidget@@6BQObject@@@ 00473e5c     mainwindow.obj
 0002:00006f14       ??_SQDockWidget@@6BQPaintDevice@@@ 00473f14     mainwindow.obj
 0002:00006f34       ??_SQStatusBar@@6BQObject@@@ 00473f34     mainwindow.obj
 0002:00006fec       ??_SQStatusBar@@6BQPaintDevice@@@ 00473fec     mainwindow.obj
 0002:0000700c       ??_SQTreeView@@6BQObject@@@ 0047400c     mainwindow.obj
 0002:00007174       ??_SQTreeView@@6BQPaintDevice@@@ 00474174     mainwindow.obj
 0002:00007190       ??_C@_0L@PKBKLDDM@MainWindow@ 00474190     mainwindow.obj
 0002:0000719c       ??_C@_0BO@GOJANJF@?3?1icons?1icons?1stupid_logo?4png@ 0047419c     mainwindow.obj
 0002:000071bc       ??_C@_0N@IHCFAGCA@actionSaveAs@ 004741bc     mainwindow.obj
 0002:000071cc       ??_C@_0CI@OMGJIPDP@?3?1icons?1icons?148px?9Document?9sav@ 004741cc     mainwindow.obj
 0002:000071f4       ??_C@_0L@BGOHODBB@actionOpen@ 004741f4     mainwindow.obj
 0002:00007200       ??_C@_0CF@LMCJFBNI@?3?1icons?1icons?148px?9Document?9ope@ 00474200     mainwindow.obj
 0002:00007228       ??_C@_0L@KGMGGNIK@actionSave@ 00474228     mainwindow.obj
 0002:00007234       ??_C@_0CF@HKDNKHJI@?3?1icons?1icons?148px?9Document?9sav@ 00474234     mainwindow.obj
 0002:0000725c       ??_C@_0M@KNJODEHI@actionScale@ 0047425c     mainwindow.obj
 0002:00007268       ??_C@_0BI@KMHFBFIH@?3?1icons?1icons?1Scale?4png@ 00474268     mainwindow.obj
 0002:00007280       ??_C@_0BA@NBNBHMNF@actionPolypaint@ 00474280     mainwindow.obj
 0002:00007290       ??_C@_0CB@OPPFLICH@?3?1icons?1icons?148px?9Polypaint?4pn@ 00474290     mainwindow.obj
 0002:000072b4       ??_C@_0P@LNPANEEI@actionSettings@ 004742b4     mainwindow.obj
 0002:000072c4       ??_C@_0CK@PNCDHCDE@?3?1icons?1icons?148px?9Preferences?9@ 004742c4     mainwindow.obj
 0002:000072f0       ??_C@_0M@PBIOOMKL@actionDummy@ 004742f0     mainwindow.obj
 0002:000072fc       ??_C@_0L@PBIJEMPJ@actionRedo@ 004742fc     mainwindow.obj
 0002:00007308       ??_C@_0CB@PKHDKEIH@?3?1icons?1icons?148px?9Edit?9redo?4pn@ 00474308     mainwindow.obj
 0002:0000732c       ??_C@_0L@JEKIBHOI@actionUndo@ 0047432c     mainwindow.obj
 0002:00007338       ??_C@_0CB@MDHINFBI@?3?1icons?1icons?148px?9Edit?9undo?4pn@ 00474338     mainwindow.obj
 0002:0000735c       ??_C@_0M@NLLNDCEM@actionClose@ 0047435c     mainwindow.obj
 0002:00007368       ??_C@_0BI@JPCDKGHL@?3?1icons?1icons?1close?4png@ 00474368     mainwindow.obj
 0002:00007380       ??_C@_0L@BIJAJMPM@actionHelp@ 00474380     mainwindow.obj
 0002:0000738c       ??_C@_0BP@GACPOOOJ@?3?1icons?1icons?1Help?9browser?4png@ 0047438c     mainwindow.obj
 0002:000073ac       ??_C@_0O@OJPNIIDF@actionDAQmode@ 004743ac     mainwindow.obj
 0002:000073bc       ??_C@_0N@JIOBBOPD@actionNewDAQ@ 004743bc     mainwindow.obj
 0002:000073cc       ??_C@_0CE@JPANDDMG@?3?1icons?1icons?148px?9Document?9new@ 004743cc     mainwindow.obj
 0002:000073f0       ??_C@_0N@POLJOBBK@actionNewDUT@ 004743f0     mainwindow.obj
 0002:00007400       ??_C@_0CC@KHFKCEGO@?3?1icons?1icons?148px?9AddTexture?4p@ 00474400     mainwindow.obj
 0002:00007424       ??_C@_0BH@LBMPKMGL@actionTcpServerSetting@ 00474424     mainwindow.obj
 0002:0000743c       ??_C@_0BH@MLJAJPFN@actionUdpServerSetting@ 0047443c     mainwindow.obj
 0002:00007454       ??_C@_0BN@DCGGKMDL@?3?1icons?1icons?1light_bulb?4png@ 00474454     mainwindow.obj
 0002:00007474       ??_C@_0BC@CGEEMPOG@actionSaveSetting@ 00474474     mainwindow.obj
 0002:00007488       ??_C@_0O@KCJAGLJO@actionDAQview@ 00474488     mainwindow.obj
 0002:00007498       ??_C@_0CH@OEHBBHAC@?3?1icons?1icons?148px?9Image?9x?9gene@ 00474498     mainwindow.obj
 0002:000074c0       ??_C@_0O@GBMMECPA@actionDUTview@ 004744c0     mainwindow.obj
 0002:000074d0       ??_C@_0P@HLEOGAKG@actionDataView@ 004744d0     mainwindow.obj
 0002:000074e0       ??_C@_0BC@FDGEBMMC@actionHistoryData@ 004744e0     mainwindow.obj
 0002:000074f4       ??_C@_0N@COGDCEEN@actionExport@ 004744f4     mainwindow.obj
 0002:00007504       ??_C@_0BA@OFBCCGOP@actionAutoScale@ 00474504     mainwindow.obj
 0002:00007514       ??_C@_0BE@PFNNGCJD@actionCharacterView@ 00474514     mainwindow.obj
 0002:00007528       ??_C@_0CK@IAJOGELB@?3?1icons?1icons?148px?9Antialias_Ic@ 00474528     mainwindow.obj
 0002:00007554       ??_C@_0P@GNGCBHON@actionAutoWave@ 00474554     mainwindow.obj
 0002:00007564       ??_C@_0O@HKNJIMPD@centralWidget@ 00474564     mainwindow.obj
 0002:00007574       ??_C@_09CILOEDGO@statusBar@ 00474574     mainwindow.obj
 0002:00007580       ??_C@_08FGFOJKBH@dockMain@ 00474580     mainwindow.obj
 0002:0000758c       ??_C@_0BG@IAHNDAFE@dockWidgetContents_14@ 0047458c     mainwindow.obj
 0002:000075a4       ??_C@_0BD@DONPPACK@dockAnalysisOption@ 004745a4     mainwindow.obj
 0002:000075b8       ??_C@_0BG@JJGGABBF@dockWidgetContents_15@ 004745b8     mainwindow.obj
 0002:000075d0       ??_C@_0P@IDJDENPH@dockPlotOption@ 004745d0     mainwindow.obj
 0002:000075e0       ??_C@_0BG@LCELFCNG@dockWidgetContents_16@ 004745e0     mainwindow.obj
 0002:000075f8       ??_C@_0L@DFGJANJ@dockLegend@ 004745f8     mainwindow.obj
 0002:00007604       ??_C@_0BG@KLFAGDJH@dockWidgetContents_17@ 00474604     mainwindow.obj
 0002:0000761c       ??_C@_0M@IMGNNBDL@dockStatics@ 0047461c     mainwindow.obj
 0002:00007628       ??_C@_0BG@CMMIHPFI@dockWidgetContents_18@ 00474628     mainwindow.obj
 0002:00007640       ??_C@_0M@GOOCPDM@dockMessage@ 00474640     mainwindow.obj
 0002:0000764c       ??_C@_0BB@MPCHNPIJ@messageContainer@ 0047464c     mainwindow.obj
 0002:00007660       ??_C@_0P@ICKECKAH@dockChsettings@ 00474660     mainwindow.obj
 0002:00007670       ??_C@_0BF@BCMODIOD@dockWidgetContents_2@ 00474670     mainwindow.obj
 0002:00007688       ??_C@_0M@KANHMMHC@tabLeftMain@ 00474688     mainwindow.obj
 0002:00007694       ??_C@_06PKDIJHAK@tabDUT@   00474694     mainwindow.obj
 0002:0000769c       ??_C@_0M@EAMKKKJA@dutTreeView@ 0047469c     mainwindow.obj
 0002:000076a8       ??_C@_06JMGAGIOD@tabDAQ@   004746a8     mainwindow.obj
 0002:000076b0       ??_C@_0M@LIMMNGJN@daqTreeView@ 004746b0     mainwindow.obj
 0002:000076bc       ??_C@_0BA@MMFIAEKK@TabToolbar?5Test@ 004746bc     mainwindow.obj
 0002:000076cc       ??_C@_07DFGEOHPP@Save?5As@ 004746cc     mainwindow.obj
 0002:000076d4       ??_C@_04DNCDCIAE@Open@     004746d4     mainwindow.obj
 0002:000076dc       ??_C@_04INACKGJP@Save@     004746dc     mainwindow.obj
 0002:000076e4       ??_C@_05MAGIBEFI@Scale@    004746e4     mainwindow.obj
 0002:000076ec       ??_C@_09DIELMONF@Polypaint@ 004746ec     mainwindow.obj
 0002:000076f8       ??_C@_08EEOHOBEO@Settings@ 004746f8     mainwindow.obj
 0002:00007704       ??_C@_05JLNEMJLN@dummy@    00474704     mainwindow.obj
 0002:0000770c       ??_C@_04BLIMKIOI@redo@     0047470c     mainwindow.obj
 0002:00007714       ??_C@_04HOKNPDPJ@undo@     00474714     mainwindow.obj
 0002:0000771c       ??_C@_04DDFEFHOJ@Help@     0047471c     mainwindow.obj
 0002:00007724       ??_C@_07EHBHOBKJ@DAQmode@  00474724     mainwindow.obj
 0002:0000772c       ??_C@_06KDOCMIBL@NewDAQ@   0047472c     mainwindow.obj
 0002:00007734       ??_C@_06MFLKDHPC@NewDUT@   00474734     mainwindow.obj
 0002:0000773c       ??_C@_0BB@NGAMCPBG@TcpServerSetting@ 0047473c     mainwindow.obj
 0002:00007750       ??_C@_0BB@KMFDBMCA@UdpServerSetting@ 00474750     mainwindow.obj
 0002:00007764       ??_C@_0M@DCLPENM@SaveSetting@ 00474764     mainwindow.obj
 0002:00007770       ??_C@_07MHKACAC@DAQview@   00474770     mainwindow.obj
 0002:00007778       ??_C@_07MPCGCLGM@DUTview@  00474778     mainwindow.obj
 0002:00007780       ??_C@_08ICFJFFKA@DataView@ 00474780     mainwindow.obj
 0002:0000778c       ??_C@_0M@HGALCHPI@HistoryData@ 0047478c     mainwindow.obj
 0002:00007798       ??_C@_06BFGAPCKF@Export@   00474798     mainwindow.obj
 0002:000077a0       ??_C@_09EDNFJHDP@autoScale@ 004747a0     mainwindow.obj
 0002:000077ac       ??_C@_0BF@OAGGKJLJ@auto?5Fits?5Data?5Range@ 004747ac     mainwindow.obj
 0002:000077c4       ??_C@_0O@GBHPHAKB@CharacterView@ 004747c4     mainwindow.obj
 0002:000077d4       ??_C@_08JEHFCCOL@AutoWave@ 004747d4     mainwindow.obj
 0002:000077e0       ??_C@_0BF@FHAKBPBH@dockAnalysissettings@ 004747e0     mainwindow.obj
 0002:000077f8       ??_C@_0L@EBKJBFOC@plotOption@ 004747f8     mainwindow.obj
 0002:00007804       ??_C@_06BCIOHMBM@legend@   00474804     mainwindow.obj
 0002:0000780c       ??_C@_07GHHCDPOI@statics@  0047480c     mainwindow.obj
 0002:00007814       ??_C@_07ONPBMBOP@message@  00474814     mainwindow.obj
 0002:0000781c       ??_C@_0L@MCGPPALB@chSettings@ 0047481c     mainwindow.obj
 0002:00007828       ??_C@_0N@MEKELCKI@?h?$KO?$LO?e?$KE?$IH?e?$II?$JH?h?$KB?$KI@ 00474828     mainwindow.obj
 0002:00007838       ??_C@_0BA@JAAJAOOG@?i?$IH?$IH?i?$JL?$IG?e?$JJ?$KI?e?$II?$JH?h?$KB?$KI@ 00474838     mainwindow.obj
 0002:00007848       ??_C@_04HKFDNBLD@init@     00474848     mainwindow.obj
 0002:00007850       ??_C@_08ELIEPNPM@textEdit@ 00474850     mainwindow.obj
 0002:0000785c       ??_C@_08FDGKFKIB@checkBox@ 0047485c     mainwindow.obj
 0002:00007868       ??_C@_0BF@PBOAIEEH@?3?1tt?1tabtoolbar?4json@ 00474868     mainwindow.obj
 0002:00007880       ??_C@_0BK@HFLJKGNN@QTextBrowser?$HLborder?30px?$DL?$HN@ 00474880     mainwindow.obj
 0002:0000789c       ??_C@_0BB@NLEOKMGG@?5?e?$IN?$IH?g?$LK?$KH?h?$LP?$JL?e?$LK?$KG?o?$LM?$JK@ 0047489c     mainwindow.obj
 0002:000078b0       ??_C@_06NKNMLLIA@?f?$II?$JA?e?$IK?$JP@ 004748b0     mainwindow.obj
 0002:000078b8       ??_C@_06JOMNKMNK@?e?$KE?$LB?h?$LE?$KF@ 004748b8     mainwindow.obj
 0002:000078c0       ??_C@_0BA@OJPPMINK@?e?$IN?$IH?g?$LK?$KH?g?$LL?$JD?f?$JO?$JM?o?$LM?$JK@ 004748c0     mainwindow.obj
 0002:000078d0       ??_C@_0P@NKDKBAPO@192?4168?499?4102@ 004748d0     mainwindow.obj
 0002:000078e0       ??_C@_0BE@HAPPMMON@yyyy?9MM?9dd?5HH?3mm?3ss@ 004748e0     mainwindow.obj
 0002:000078f4       ??_C@_05GLAHCKBE@?5IP?3?5@ 004748f4     mainwindow.obj
 0002:000078fc       ??_C@_0BF@IFHGAJAH@?f?$JG?$LA?h?$KO?$LO?e?$KE?$IH?h?$LP?$JO?f?$IO?$KF?0SN?3?5@ 004748fc     mainwindow.obj
 0002:00007914       ??_C@_05KBOMEDGA@total@    00474914     mainwindow.obj
 0002:0000791c       ??_C@_07ELBKGEGF@QSQLITE@  0047491c     mainwindow.obj
 0002:00007924       ??_C@_08BLFAGDGE@?1conf?4db@ 00474924     mainwindow.obj
 0002:00007930       ??_C@_0BA@BMKMIIHG@?3?1icons?1conf?4db@ 00474930     mainwindow.obj
 0002:00007940       ??_C@_0DK@EGBKDLLO@?f?$JH?$KA?f?$LD?$JF?f?$IJ?$JD?e?$LM?$IA?i?$IF?$IN?g?$LN?$KO?f?$JG?$IH?d?$LL?$LG?o?$LM?$IM?h?$KP?$LH?f@ 00474940     mainwindow.obj
 0002:0000797c       ??_C@_05NPAPGJEJ@basic@    0047497c     mainwindow.obj
 0002:00007984       ??_C@_0BB@JBNAGKJB@localTcpServerIP@ 00474984     mainwindow.obj
 0002:00007998       ??_C@_0BD@BMKDLPAF@localTcpServerPort@ 00474998     mainwindow.obj
 0002:000079ac       ??_C@_0BB@CDEODDHN@localUdpServerIP@ 004749ac     mainwindow.obj
 0002:000079c0       ??_C@_0BD@PMNPFICL@localUdpServerPort@ 004749c0     mainwindow.obj
 0002:000079d4       ??_C@_0BE@BHLOEFBO@localModbusServerIP@ 004749d4     mainwindow.obj
 0002:000079e8       ??_C@_0BG@LGJIALG@localModbusServerPort@ 004749e8     mainwindow.obj
 0002:00007a00       ??_C@_0BD@CACOKDON@remoteHttpServerIP@ 00474a00     mainwindow.obj
 0002:00007a14       ??_C@_0BF@HNJBECBF@remoteHttpServerPort@ 00474a14     mainwindow.obj
 0002:00007a2c       ??_C@_0N@OIJIBHGO@saveAutoWave@ 00474a2c     mainwindow.obj
 0002:00007a3c       ??_C@_0BC@MDOJIHGO@localHttpServerIP@ 00474a3c     mainwindow.obj
 0002:00007a50       ??_C@_0BE@FBDMIOIL@localHttpServerPort@ 00474a50     mainwindow.obj
 0002:00007a64       ??_C@_0BC@NBGNOINH@showOrignalPacket@ 00474a64     mainwindow.obj
 0002:00007a78       ??_C@_0BJ@IAEOIBPJ@autoStartWebSocketServer@ 00474a78     mainwindow.obj
 0002:00007a94       ??_C@_0BH@NAFMEIEL@localWebSocketServerIP@ 00474a94     mainwindow.obj
 0002:00007aac       ??_C@_0BJ@LCBEJCPI@localWebSocketServerPort@ 00474aac     mainwindow.obj
 0002:00007ac8       ??_C@_0BC@DFPPPLBJ@remoteTcpServerIP@ 00474ac8     mainwindow.obj
 0002:00007adc       ??_C@_0BE@GIPBKKLL@remoteTcpServerPort@ 00474adc     mainwindow.obj
 0002:00007af0       ??_C@_0BA@GOODEBMH@enableTcpClient@ 00474af0     mainwindow.obj
 0002:00007b00       ??_C@_0BB@BDHFFFMP@enableHttpClient@ 00474b00     mainwindow.obj
 0002:00007b14       ??_C@_0BF@DPMIPKGF@enableLocalTcpServer@ 00474b14     mainwindow.obj
 0002:00007b2c       ??_C@_0BF@LEGLPMJC@enableLocalUdpServer@ 00474b2c     mainwindow.obj
 0002:00007b44       ??_C@_0BG@BAEAPHHC@enableLocalHttpServer@ 00474b44     mainwindow.obj
 0002:00007b5c       ??_C@_0BL@LMMEKCED@enableLocalWebsocketServer@ 00474b5c     mainwindow.obj
 0002:00007b78       ??_C@_0BI@HKNIEMJG@enableLocalModbusServer@ 00474b78     mainwindow.obj
 0002:00007b90       ??_C@_0BI@GADMKEBE@remoteWebsocketServerIP@ 00474b90     mainwindow.obj
 0002:00007ba8       ??_C@_0BK@CGILMNFA@remoteWebsocketServerPort@ 00474ba8     mainwindow.obj
 0002:00007bc4       ??_C@_0BG@CBELBGAI@enableRemoteWebsocket@ 00474bc4     mainwindow.obj
 0002:00007bdc       ??_C@_0BP@IMKPMOLJ@autoStartRemoteWebsocketServer@ 00474bdc     mainwindow.obj
 0002:00007c50       __real@4059000000000000    00474c50     mainwindow.obj
 0002:00007c5c       ??_SQRegExpValidator@@6B@  00474c5c     settingwifijunyue.obj
 0002:00007c94       ??_7settingWifiJunyue@@6BQObject@@@ 00474c94     settingwifijunyue.obj
 0002:00007d60       ??_7settingWifiJunyue@@6BQPaintDevice@@@ 00474d60     settingwifijunyue.obj
 0002:00007d84       ??_SQGroupBox@@6BQObject@@@ 00474d84     settingwifijunyue.obj
 0002:00007e3c       ??_SQGroupBox@@6BQPaintDevice@@@ 00474e3c     settingwifijunyue.obj
 0002:00007e58       ??_C@_0BC@GMNJKAMO@settingWifiJunyue@ 00474e58     settingwifijunyue.obj
 0002:00007e6c       ??_C@_06CEGKLGFM@tabNet@   00474e6c     settingwifijunyue.obj
 0002:00007e74       ??_C@_0N@PBNLJLML@lblCurrentAP@ 00474e74     settingwifijunyue.obj
 0002:00007e84       ??_C@_0M@NGLBGFMN@btnChangeAP@ 00474e84     settingwifijunyue.obj
 0002:00007e90       ??_C@_0L@OJMAGHND@groupBox_2@ 00474e90     settingwifijunyue.obj
 0002:00007e9c       ??_C@_0N@BGHEJMPN@chkEnableWWW@ 00474e9c     settingwifijunyue.obj
 0002:00007eac       ??_C@_0M@LMFFHBDJ@tcpServerIP@ 00474eac     settingwifijunyue.obj
 0002:00007eb8       ??_C@_0M@MGBABPHF@lblPortName@ 00474eb8     settingwifijunyue.obj
 0002:00007ec4       ??_C@_0O@PABIGNIN@tcpServerPort@ 00474ec4     settingwifijunyue.obj
 0002:00007ed4       ??_C@_0L@BHNCJGPF@wwwAddress@ 00474ed4     settingwifijunyue.obj
 0002:00007ee0       ??_C@_0BA@GCPAJCKB@btnChangeServer@ 00474ee0     settingwifijunyue.obj
 0002:00007ef0       ??_C@_08IFDCDODF@groupBox@ 00474ef0     settingwifijunyue.obj
 0002:00007efc       ??_C@_0O@ENLEAGFO@chkEnableDHCP@ 00474efc     settingwifijunyue.obj
 0002:00007f0c       ??_C@_05HCOPPHG@devIP@     00474f0c     settingwifijunyue.obj
 0002:00007f14       ??_C@_07DJMOGLLC@devMask@  00474f14     settingwifijunyue.obj
 0002:00007f1c       ??_C@_0L@EOPKBOAA@devGateway@ 00474f1c     settingwifijunyue.obj
 0002:00007f28       ??_C@_06MIJPFDDK@lblDNS@   00474f28     settingwifijunyue.obj
 0002:00007f30       ??_C@_06MMCFKCMG@devDNS@   00474f30     settingwifijunyue.obj
 0002:00007f38       ??_C@_0M@LNDHFPOC@btnApplyNet@ 00474f38     settingwifijunyue.obj
 0002:00007f44       ??_C@_06DBKJAKKB@tabDaq@   00474f44     settingwifijunyue.obj
 0002:00007f4c       ??_C@_0L@PANLFGJC@groupBox_3@ 00474f4c     settingwifijunyue.obj
 0002:00007f58       ??_C@_05NKIMFBFD@daqFs@    00474f58     settingwifijunyue.obj
 0002:00007f60       ??_C@_0N@GAECEEHH@sampleReriod@ 00474f60     settingwifijunyue.obj
 0002:00007f70       ??_C@_0L@HOCJKIAN@sampleSpan@ 00474f70     settingwifijunyue.obj
 0002:00007f7c       ??_C@_0BC@CKHDHHEI@chkEnableAutoWave@ 00474f7c     settingwifijunyue.obj
 0002:00007f90       ??_C@_08KJFLNHGH@label_34@ 00474f90     settingwifijunyue.obj
 0002:00007f9c       ??_C@_0N@IKAEDHBF@autoWaveSpan@ 00474f9c     settingwifijunyue.obj
 0002:00007fac       ??_C@_0BH@FLCEGICB@chkEnableAutoCharacter@ 00474fac     settingwifijunyue.obj
 0002:00007fc4       ??_C@_07LHLBJAFB@daqMode@  00474fc4     settingwifijunyue.obj
 0002:00007fcc       ??_C@_0M@JGGGPPK@enableHeart@ 00474fcc     settingwifijunyue.obj
 0002:00007fd8       ??_C@_09JJFDMLKP@heartSpan@ 00474fd8     settingwifijunyue.obj
 0002:00007fe4       ??_C@_08JLGNLFOF@label_36@ 00474fe4     settingwifijunyue.obj
 0002:00007ff0       ??_C@_08GEADNJPL@IEPEtime@ 00474ff0     settingwifijunyue.obj
 0002:00007ffc       ??_C@_08FOOJIGL@label_38@  00474ffc     settingwifijunyue.obj
 0002:00008008       ??_C@_08OGBKEBKA@label_33@ 00475008     settingwifijunyue.obj
 0002:00008014       ??_C@_09MEGFIMNG@powerMode@ 00475014     settingwifijunyue.obj
 0002:00008020       ??_C@_0M@BCAANANK@scanChannel@ 00475020     settingwifijunyue.obj
 0002:0000802c       ??_C@_08MMNALFJK@waitTime@ 0047502c     settingwifijunyue.obj
 0002:00008038       ??_C@_08NBGDDFKH@label_41@ 00475038     settingwifijunyue.obj
 0002:00008044       ??_C@_0L@PKPDBAN@tempAdjust@ 00475044     settingwifijunyue.obj
 0002:00008050       ??_C@_08PKEOGGGE@label_42@ 00475050     settingwifijunyue.obj
 0002:0000805c       ??_C@_0BB@CCOCLKOB@groupBox_Factory@ 0047505c     settingwifijunyue.obj
 0002:00008070       ??_C@_06KFOPHPCN@snEdit@   00475070     settingwifijunyue.obj
 0002:00008078       ??_C@_0M@BNFCCNAM@btnChangeSN@ 00475078     settingwifijunyue.obj
 0002:00008084       ??_C@_0L@LEJMOBGG@btnPrepare@ 00475084     settingwifijunyue.obj
 0002:00008090       ??_C@_08FIINAICG@btnADch1@ 00475090     settingwifijunyue.obj
 0002:0000809c       ??_C@_08HDKAFLOF@btnADch2@ 0047509c     settingwifijunyue.obj
 0002:000080a8       ??_C@_08GKLLGKKE@btnADch3@ 004750a8     settingwifijunyue.obj
 0002:000080b4       ??_C@_08CFPKPMGD@btnADch4@ 004750b4     settingwifijunyue.obj
 0002:000080c0       ??_C@_08DMOBMNCC@btnADch5@ 004750c0     settingwifijunyue.obj
 0002:000080cc       ??_C@_08BHMMJOOB@btnADch6@ 004750cc     settingwifijunyue.obj
 0002:000080d8       ??_C@_08ONHKPKA@btnADch7@  004750d8     settingwifijunyue.obj
 0002:000080e4       ??_C@_08IJEPLDGP@btnADch8@ 004750e4     settingwifijunyue.obj
 0002:000080f0       ??_C@_0M@FMCLFLPJ@btnTempZero@ 004750f0     settingwifijunyue.obj
 0002:000080fc       ??_C@_07IMJBFCPN@btnTemp@  004750fc     settingwifijunyue.obj
 0002:00008104       ??_C@_0BB@LHIJAEII@btnChangeBattery@ 00475104     settingwifijunyue.obj
 0002:00008118       ??_C@_0M@KIPEODBP@btnApplyDaq@ 00475118     settingwifijunyue.obj
 0002:00008124       ??_C@_05DEALKCMI@tabCh@    00475124     settingwifijunyue.obj
 0002:0000812c       ??_C@_08FIMGMNAE@widget_5@ 0047512c     settingwifijunyue.obj
 0002:00008138       ??_C@_08ECMPCFM@label_28@  00475138     settingwifijunyue.obj
 0002:00008144       ??_C@_08BNDHMDBN@label_29@ 00475144     settingwifijunyue.obj
 0002:00008150       ??_C@_08MNDHBCGD@label_30@ 00475150     settingwifijunyue.obj
 0002:0000815c       ??_C@_08NECMCDCC@label_31@ 0047515c     settingwifijunyue.obj
 0002:00008168       ??_C@_08PPABHAOB@label_32@ 00475168     settingwifijunyue.obj
 0002:00008174       ??_C@_08BMPFKJCK@label_39@ 00475174     settingwifijunyue.obj
 0002:00008180       ??_C@_0M@MFIGBPDO@chContainer@ 00475180     settingwifijunyue.obj
 0002:0000818c       ??_C@_0L@GALDKGML@btnApplyCh@ 0047518c     settingwifijunyue.obj
 0002:00008198       ??_C@_08DMMJMABJ@tabAlert@ 00475198     settingwifijunyue.obj
 0002:000081a4       ??_C@_08MIHIAEOG@label_40@ 004751a4     settingwifijunyue.obj
 0002:000081b0       ??_C@_0BF@JEHNMMBL@widgetAlertContainer@ 004751b0     settingwifijunyue.obj
 0002:000081c8       ??_C@_09NKLNFHLJ@tempAlert@ 004751c8     settingwifijunyue.obj
 0002:000081d4       ??_C@_0N@JFODHBBK@batteryAlert@ 004751d4     settingwifijunyue.obj
 0002:000081e4       ??_C@_08LAEAOGCG@label_35@ 004751e4     settingwifijunyue.obj
 0002:000081f0       ??_C@_09ENKPFIME@alertSpan@ 004751f0     settingwifijunyue.obj
 0002:000081fc       ??_C@_08ICHGIEKE@label_37@ 004751fc     settingwifijunyue.obj
 0002:00008208       ??_C@_0O@JPFJIAKO@btnApplyAlert@ 00475208     settingwifijunyue.obj
 0002:00008218       ??_C@_0N@BIOPIODG@?e?$IP?$IC?f?$JF?$LA?h?$KO?$LO?g?$LN?$KO@ 00475218     settingwifijunyue.obj
 0002:00008228       ??_C@_0M@KGKLOOJ@?e?$LN?$JD?e?$IJ?$INAP?o?$LM?$JK@ 00475228     settingwifijunyue.obj
 0002:00008234       ??_C@_08LJAIBCNI@?f?$JL?$LE?f?$JE?$LJAP@ 00475234     settingwifijunyue.obj
 0002:00008240       ??_C@_0BG@CFKKNCHN@TCP?f?$JM?$IN?e?$IK?$KB?e?$JJ?$KI?e?$JM?$LA?e?$JN?$IA?o?$LM?$JK@ 00475240     settingwifijunyue.obj
 0002:00008258       ??_C@_0N@PPBHHFPF@?d?$LN?$LP?g?$JE?$KI?e?$JP?$JP?e?$JA?$IN@ 00475258     settingwifijunyue.obj
 0002:00008268       ??_C@_07BFLHPLMD@?g?$KL?$KP?e?$IP?$KD?3@ 00475268     settingwifijunyue.obj
 0002:00008270       ??_C@_0N@HDDOBLHN@?f?$JL?$LE?f?$JE?$LJserver@ 00475270     settingwifijunyue.obj
 0002:00008280       ??_C@_08CBMFNPBP@?h?$KO?$LO?e?$KE?$IHIP@ 00475280     settingwifijunyue.obj
 0002:0000828c       ??_C@_04CGJOIHE@DHCP@      0047528c     settingwifijunyue.obj
 0002:00008294       ??_C@_0N@DFGNALEA@?5IP?e?$JM?$LA?e?$JN?$IA?o?$LM?$JK@ 00475294     settingwifijunyue.obj
 0002:000082a4       ??_C@_0BA@EJBMJHHE@?e?$KN?$JA?g?$LN?$JB?f?$IO?$KJ?g?$KA?$IB?o?$LM?$JK@ 004752a4     settingwifijunyue.obj
 0002:000082b4       ??_C@_09BCDOFILB@?g?$LN?$JB?e?$IF?$LD?o?$LM?$JK@ 004752b4     settingwifijunyue.obj
 0002:000082c0       ??_C@_06FBMAJLGG@DNS?o?$LM?$JK@ 004752c0     settingwifijunyue.obj
 0002:000082c8       ??_C@_0BD@FKLMNGID@?d?$LI?$IL?e?$IP?$JB?g?$LN?$JB?g?$LL?$JM?e?$IP?$IC?f?$JF?$LA@ 004752c8     settingwifijunyue.obj
 0002:000082dc       ??_C@_0N@CPMINJAM@?g?$LN?$JB?g?$LL?$JM?e?$IP?$IC?f?$JF?$LA@ 004752dc     settingwifijunyue.obj
 0002:000082ec       ??_C@_0N@KFBFKENF@?g?$JE?$KI?f?$II?$LH?e?$IP?$IC?f?$JF?$LA@ 004752ec     settingwifijunyue.obj
 0002:000082fc       ??_C@_0N@LJOEHPPC@?i?$IH?$IH?f?$KA?$LH?g?$IO?$IH?o?$LM?$JK@ 004752fc     settingwifijunyue.obj
 0002:0000830c       ??_C@_02KLOHGLOJ@Hz@       0047530c     settingwifijunyue.obj
 0002:00008310       ??_C@_0BA@HNHIDCCH@?i?$IH?$IH?f?$KA?$LH?e?$JB?$KI?f?$JM?$JP?o?$LM?$JK@ 00475310     settingwifijunyue.obj
 0002:00008320       ??_C@_01LKDEMHDF@s@        00475320     settingwifijunyue.obj
 0002:00008324       ??_C@_0BA@GIILCNKC@?i?$IH?$IH?f?$KA?$LH?i?$JH?$LE?i?$JK?$JE?o?$LM?$JK@ 00475324     settingwifijunyue.obj
 0002:00008334       ??_C@_0BD@LCDOBHNO@?h?$IH?$KK?e?$IK?$KI?e?$IP?$JB?i?$IA?$IB?f?$LD?$KC?e?$LN?$KC@ 00475334     settingwifijunyue.obj
 0002:00008348       ??_C@_0BG@NFPCLPMF@?f?$LD?$KC?e?$LN?$KC?e?$IP?$JB?i?$IA?$IB?i?$JH?$LE?i?$JK?$JE?o?$LM?$JK@ 00475348     settingwifijunyue.obj
 0002:00008360       ??_C@_0BG@HOOIOBPO@?h?$IH?$KK?e?$IK?$KI?e?$IP?$JB?i?$IA?$IB?g?$IJ?$LJ?e?$LO?$IB?e?$IA?$LM@ 00475360     settingwifijunyue.obj
 0002:00008378       ??_C@_0BA@ENOPPDAJ@?e?$LH?$KF?d?$LN?$JM?f?$KI?$KB?e?$LM?$IP?o?$LM?$JK@ 00475378     settingwifijunyue.obj
 0002:00008388       ??_C@_0BG@DOLIPNCI@?f?$JH?$LG?e?$JP?$JP?g?$IJ?$LJ?e?$LO?$IB?e?$IA?$LM?f?$KI?$KB?e?$LM?$IP@ 00475388     settingwifijunyue.obj
 0002:000083a0       ??_C@_0N@CKEPCPEP@?f?$JH?$LG?e?$JP?$JP?f?$KI?$KB?e?$LM?$IP@ 004753a0     settingwifijunyue.obj
 0002:000083b0       ??_C@_09LKLDODKN@FFT?f?$KI?$KB?e?$LM?$IP@ 004753b0     settingwifijunyue.obj
 0002:000083bc       ??_C@_0BG@EIJFKDOB@?i?$KC?$JB?e?$JP?$JP?g?$IJ?$LJ?e?$LO?$IB?e?$IA?$LM?f?$KI?$KB?e?$LM?$IP@ 004753bc     settingwifijunyue.obj
 0002:000083d4       ??_C@_0N@MDEMLEAG@?g?$KJ?$LK?i?$JH?$LC?f?$KI?$KB?e?$LM?$IP@ 004753d4     settingwifijunyue.obj
 0002:000083e4       ??_C@_0N@NOPHNCPP@?d?$LN?$LP?h?$ID?$LN?e?$LP?$ID?h?$LH?$LD@ 004753e4     settingwifijunyue.obj
 0002:000083f4       ??_C@_0BA@PCGHHIOD@?e?$LP?$ID?h?$LH?$LD?e?$JB?$KI?f?$JM?$JP?o?$LM?$JK@ 004753f4     settingwifijunyue.obj
 0002:00008404       ??_C@_0BE@JBNCKJCH@IEPE?g?$KI?$LD?e?$KO?$JK?f?$JH?$LG?i?$JH?$LE?o?$LM?$JK@ 00475404     settingwifijunyue.obj
 0002:00008418       ??_C@_0BA@DHLKLHKO@?e?$IK?$JP?h?$IA?$JH?f?$KI?$KB?e?$LM?$IP?o?$LM?$JK@ 00475418     settingwifijunyue.obj
 0002:00008428       ??_C@_0N@BONDBNIG@?f?$KN?$KD?e?$LI?$LI?f?$KI?$KB?e?$LM?$IP@ 00475428     settingwifijunyue.obj
 0002:00008438       ??_C@_0BA@MJAFLLED@?d?$LN?$IO?e?$IK?$JP?h?$IA?$JH?f?$KI?$KB?e?$LM?$IP@ 00475438     settingwifijunyue.obj
 0002:00008448       ??_C@_0BA@OLODCEFM@?f?$IJ?$KL?f?$IP?$IP?i?$IA?$JK?i?$IB?$JD?o?$LM?$JK@ 00475448     settingwifijunyue.obj
 0002:00008458       ??_C@_0BA@IKMMANNK@?g?$KN?$IJ?e?$LO?$IF?f?$JH?$LG?i?$JH?$LE?o?$LM?$JK@ 00475458     settingwifijunyue.obj
 0002:00008468       ??_C@_0BD@GJNEHJAN@?f?$LI?$KJ?e?$LK?$KG?f?$KA?$KB?e?$IH?$IG?e?$IA?$LM?o?$LM?$JK@ 00475468     settingwifijunyue.obj
 0002:0000847c       ??_C@_0N@BNFFMMAI@?e?$IH?$LK?e?$IO?$IC?e?$IP?$IC?f?$JF?$LA@ 0047547c     settingwifijunyue.obj
 0002:0000848c       ??_C@_05OKBCPGKH@SN?o?$LM?$JK@ 0047548c     settingwifijunyue.obj
 0002:00008494       ??_C@_0BC@KGIGKDEC@?h?$KP?$LH?h?$LO?$JD?e?$IF?$KF?f?$JG?$LA?g?$JK?$IESN@ 00475494     settingwifijunyue.obj
 0002:000084a8       ??_C@_08HCOLFKBJ@?f?$JL?$LE?f?$JE?$LJSN@ 004754a8     settingwifijunyue.obj
 0002:000084b4       ??_C@_0N@KFGCKCKF@?e?$IH?$IG?e?$KE?$IH?f?$KA?$KB?e?$IH?$IG@ 004754b4     settingwifijunyue.obj
 0002:000084c4       ??_C@_09PJDEELLK@?f?$KA?$KB?e?$IH?$IGCH1@ 004754c4     settingwifijunyue.obj
 0002:000084d0       ??_C@_09NCBJBIHJ@?f?$KA?$KB?e?$IH?$IGCH2@ 004754d0     settingwifijunyue.obj
 0002:000084dc       ??_C@_09MLACCJDI@?f?$KA?$KB?e?$IH?$IGCH3@ 004754dc     settingwifijunyue.obj
 0002:000084e8       ??_C@_09IEEDLPPP@?f?$KA?$KB?e?$IH?$IGCH4@ 004754e8     settingwifijunyue.obj
 0002:000084f4       ??_C@_09JNFIIOLO@?f?$KA?$KB?e?$IH?$IGCH5@ 004754f4     settingwifijunyue.obj
 0002:00008500       ??_C@_09LGHFNNHN@?f?$KA?$KB?e?$IH?$IGCH6@ 00475500     settingwifijunyue.obj
 0002:0000850c       ??_C@_09KPGOOMDM@?f?$KA?$KB?e?$IH?$IGCH7@ 0047550c     settingwifijunyue.obj
 0002:00008518       ??_C@_09CIPGPAPD@?f?$KA?$KB?e?$IH?$IGCH8@ 00475518     settingwifijunyue.obj
 0002:00008524       ??_C@_0BD@LBJNMAAJ@?f?$LI?$KJ?e?$LK?$KG?i?$JL?$LG?g?$IC?$LJ?f?$KA?$KB?e?$IH?$IG@ 00475524     settingwifijunyue.obj
 0002:00008538       ??_C@_0BD@JFNJLLEB@?f?$LI?$KJ?e?$LK?$KG?e?$KC?$JO?g?$JL?$IK?f?$KA?$KB?e?$IH?$IG@ 00475538     settingwifijunyue.obj
 0002:0000854c       ??_C@_0N@FLMOEPAA@?d?$LP?$KO?f?$KN?$KD?g?$JE?$LF?i?$IH?$IP@ 0047554c     settingwifijunyue.obj
 0002:0000855c       ??_C@_0BG@FODDHBKI@?d?$LI?$IL?e?$IP?$JB?i?$IH?$IH?i?$JL?$IG?e?$JJ?$KI?e?$IP?$IC?f?$JF?$LA@ 0047555c     settingwifijunyue.obj
 0002:00008574       ??_C@_0BA@GEKKIEIK@?i?$IH?$IH?i?$JL?$IG?e?$JJ?$KI?e?$IP?$IC?f?$JF?$LA@ 00475574     settingwifijunyue.obj
 0002:00008584       ??_C@_06GAEBEOPA@?i?$IA?$JK?i?$IB?$JD@ 00475584     settingwifijunyue.obj
 0002:0000858c       ??_C@_0M@NDOGLKAB@?i?$IH?$IH?f?$KA?$LH?g?$IO?$IHHz@ 0047558c     settingwifijunyue.obj
 0002:00008598       ??_C@_09OJCLKPHD@?g?$IB?$LF?f?$JF?$IP?e?$LK?$KG@ 00475598     settingwifijunyue.obj
 0002:000085a4       ??_C@_09HFABAOCH@?f?$IK?$KF?h?$KN?$KG?i?$JJ?$JA@ 004755a4     settingwifijunyue.obj
 0002:000085b0       ??_C@_06IABMPELP@?i?$IH?$IP?g?$KI?$IL@ 004755b0     settingwifijunyue.obj
 0002:000085b8       ??_C@_0M@JPBHMBAO@?e?$JA?$KP?g?$JE?$KI?5?5?5?5?5@ 004755b8     settingwifijunyue.obj
 0002:000085c4       ??_C@_0BD@HFALACMO@?d?$LI?$IL?e?$IP?$JB?i?$IA?$JK?i?$IB?$JD?e?$IP?$IC?f?$JF?$LA@ 004755c4     settingwifijunyue.obj
 0002:000085d8       ??_C@_0N@HPANEB@?i?$IA?$JK?i?$IB?$JD?e?$IP?$IC?f?$JF?$LA@ 004755d8     settingwifijunyue.obj
 0002:000085e8       ??_C@_0N@NDGJGLPD@?5?5?5?5?5?5?f?$LI?$KJ?e?$LK?$KG@ 004755e8     settingwifijunyue.obj
 0002:000085f8       ??_C@_06JFCOMBK@?g?$JE?$LF?i?$IH?$IP@ 004755f8     settingwifijunyue.obj
 0002:00008600       ??_C@_0BM@PMEBCAL@?f?$IK?$KF?h?$KN?$KG?f?$LD?$KC?e?$LN?$KC?e?$IP?$JB?i?$IA?$IB?i?$JH?$LE?i?$JK?$JE?o?$LM?$JK@ 00475600     settingwifijunyue.obj
 0002:0000861c       ??_C@_0BD@EFPEMHNA@?d?$LI?$IL?e?$IP?$JB?f?$IK?$KF?h?$KN?$KG?e?$IP?$IC?f?$JF?$LA@ 0047561c     settingwifijunyue.obj
 0002:00008630       ??_C@_0N@DAIAMIFP@?f?$IK?$KF?h?$KN?$KG?e?$IP?$IC?f?$JF?$LA@ 00475630     settingwifijunyue.obj
 0002:00008640       ??_C@_0BO@EDANLIKP@1changeAPinside?$CIWifiApParas?$CK?$CJ@ 00475640     settingwifijunyue.obj
 0002:00008660       ??_C@_0BI@HFNNFDL@2changeAP?$CIWifiApParas?$CK?$CJ@ 00475660     settingwifijunyue.obj
 0002:00008678       ??_C@_07NBGGDJJD@?$FL0?99?$FN?$CL$@ 00475678     settingwifijunyue.obj
 0002:00008680       ??_C@_0BC@IKACNMMJ@1enabledFac?$CIbool?$CJ@ 00475680     settingwifijunyue.obj
 0002:00008694       ??_C@_0BB@CGDKPOPA@2triggered?$CIbool?$CJ@ 00475694     settingwifijunyue.obj
 0002:000086a8       ??_C@_07HLJMGDHJ@?h?$KO?$LO?g?$LN?$KO?9@ 004756a8     settingwifijunyue.obj
 0002:000086b0       ??_C@_0N@KAHFCLKK@?f?$IM?$KP?e?$IK?$KI?i?$IA?$JK?i?$IB?$JD@ 004756b0     settingwifijunyue.obj
 0002:000086c0       ??_C@_0N@GEFEDOHC@?f?$LI?$KJ?e?$LK?$KG?i?$IA?$JK?i?$IB?$JD@ 004756c0     settingwifijunyue.obj
 0002:000086d0       ??_C@_0BN@DNFPIELL@SN?i?$JF?$LP?e?$LK?$KG?d?$LI?$LK8?o?$LM?$IM?d?$LI?$IN?e?$IM?$IF?e?$JA?$KLG100@ 004756d0     settingwifijunyue.obj
 0002:000086f0       ??_C@_0P@GIODBJKL@SN?i?$JF?$LP?e?$LK?$KG?i?$JE?$JJ?h?$KP?$KP@ 004756f0     settingwifijunyue.obj
 0002:00008700       ??_C@_0BP@PBJMGLPM@?h?$KP?$LH?h?$LO?$JD?e?$IF?$KF?g?$IO?$LA?f?$JM?$IJ?g?$JE?$LF?i?$IH?$IP?g?$JJ?$LO?e?$II?$IG?f?$JF?$LA@ 00475700     settingwifijunyue.obj
 0002:00008720       __real@3fb999999999999a    00475720     settingwifijunyue.obj
 0002:00008728       __real@4024000000000000    00475728     settingwifijunyue.obj
 0002:00008730       __real@40e86a0000000000    00475730     settingwifijunyue.obj
 0002:00008738       __real@416312d000000000    00475738     settingwifijunyue.obj
 0002:00008740       __real@c16312d000000000    00475740     settingwifijunyue.obj
 0002:00008748       ??_C@_01MMEEDKFM@X@        00475748     tcpclient.obj
 0002:0000874c       ??_C@_01NFFPALBN@Y@        0047574c     tcpclient.obj
 0002:00008750       ??_C@_01POHCFINO@Z@        00475750     tcpclient.obj
 0002:00008758       ??_7tcpClient@@6B@         00475758     tcpclient.obj
 0002:00008784       ??_C@_0L@LAPNHMFE@CreateTime@ 00475784     tcpclient.obj
 0002:00008790       ??_C@_06KLBDMJOP@Values@   00475790     tcpclient.obj
 0002:00008798       ??_C@_05BJKDBEGO@myObj@    00475798     tcpclient.obj
 0002:000087a0       ??_C@_01GBGANLPD@0@        004757a0     tcpclient.obj
 0002:000087a4       ??_C@_05LPIJGKJ@Value@     004757a4     tcpclient.obj
 0002:000087ac       ??_C@_08BFOPGFLN@DateTime@ 004757ac     tcpclient.obj
 0002:000087b8       ??_C@_0BN@JPAPCPBM@tcp?5not?5connected?0data?5abort@ 004757b8     tcpclient.obj
 0002:000087d8       ??_C@_04BLOJIGAO@m?1s2@    004757d8     tcpclient.obj
 0002:000087e0       ??_C@_06CGMNKLGA@Symbol@   004757e0     tcpclient.obj
 0002:000087e8       ??_C@_06CPODCDOI@Signal@   004757e8     tcpclient.obj
 0002:000087f0       ??_C@_03HBLCMHJN@IP?3@     004757f0     tcpclient.obj
 0002:000087f4       ??_C@_04OAHKNMM@len?3@     004757f4     tcpclient.obj
 0002:00008800       __xmm@4058c00000000000c049000000000000 00475800     tcpclient.obj
 0002:00008810       ??_C@_0BN@GAIPNHLC@QAbstractSocket?3?3SocketState@ 00475810     wsclient.obj
 0002:00008834       ??_SQWebSocket@@6B@        00475834     wsclient.obj
 0002:00008864       ??_7wsClient@@6B@          00475864     wsclient.obj
 0002:00008890       ??_C@_03KCHOJKKI@set@      00475890     wsclient.obj
 0002:0002eb58       ??_7netParas@@6B@          0049bb58     moc_daqinfo.obj
 0002:0002fed0       ?staticMetaObject@QHttpServer@@2UQMetaObject@@B 0049ced0     moc_qhttpserver.obj
 0002:00030584       ?staticMetaObject@StaticFileController@@2UQMetaObject@@B 0049d584     moc_staticfilecontroller.obj
 0002:00035298       ??_7type_info@@6B@         004a2298     MSVCRT:std_type_info_static.obj
 0002:000352a0       ??_C@_1EC@JIJBPKFM@?$AAa?$AAp?$AAi?$AA?9?$AAm?$AAs?$AA?9?$AAw?$AAi?$AAn?$AA?9?$AAc?$AAo?$AAr?$AAe@ 004a22a0     MSVCRT:thread_safe_statics.obj
 0002:000352e4       ??_C@_0BJ@JEBJOJFJ@SleepConditionVariableCS@ 004a22e4     MSVCRT:thread_safe_statics.obj
 0002:00035300       ??_C@_0BJ@PGPPEPCC@WakeAllConditionVariable@ 004a2300     MSVCRT:thread_safe_statics.obj
 0002:0003533c       ??_7exception@std@@6B@     004a233c     MSVCRT:throw_bad_alloc.obj
 0002:00035344       ??_C@_0BC@EOODALEL@Unknown?5exception@ 004a2344     MSVCRT:throw_bad_alloc.obj
 0002:0003535c       ??_7bad_alloc@std@@6B@     004a235c     MSVCRT:throw_bad_alloc.obj
 0002:00035364       ??_C@_0P@GHFPNOJB@bad?5allocation@ 004a2364     MSVCRT:throw_bad_alloc.obj
 0002:00035378       ??_7bad_array_new_length@std@@6B@ 004a2378     MSVCRT:throw_bad_alloc.obj
 0002:00035380       ??_C@_0BF@KINCDENJ@bad?5array?5new?5length@ 004a2380     MSVCRT:throw_bad_alloc.obj
 0002:000353f8       __load_config_used         004a23f8     MSVCRT:loadcfg.obj
 0002:0003549c       __tls_used                 004a249c     MSVCRT:tlssup.obj
 0002:000354b4       ??_R4QFile@@6B@            004a24b4     mysave.obj
 0002:000354c8       ??_R3QFile@@8              004a24c8     mysave.obj
 0002:000354d8       ??_R2QFile@@8              004a24d8     mysave.obj
 0002:000354ec       ??_R1A@?0A@EA@QFile@@8     004a24ec     mysave.obj
 0002:00035508       ??_R1A@?0A@EA@QFileDevice@@8 004a2508     mysave.obj
 0002:00035524       ??_R3QFileDevice@@8        004a2524     mysave.obj
 0002:00035534       ??_R2QFileDevice@@8        004a2534     mysave.obj
 0002:00035544       ??_R1A@?0A@EA@QIODevice@@8 004a2544     mysave.obj
 0002:00035560       ??_R3QIODevice@@8          004a2560     mysave.obj
 0002:00035570       ??_R2QIODevice@@8          004a2570     mysave.obj
 0002:0003557c       ??_R1A@?0A@EA@QObject@@8   004a257c     mysave.obj
 0002:00035598       ??_R3QObject@@8            004a2598     mysave.obj
 0002:000355a8       ??_R2QObject@@8            004a25a8     mysave.obj
 0002:000355b0       ??_R4QTextStream@@6B@      004a25b0     mysave.obj
 0002:000355c4       ??_R3QTextStream@@8        004a25c4     mysave.obj
 0002:000355d4       ??_R2QTextStream@@8        004a25d4     mysave.obj
 0002:000355dc       ??_R1A@?0A@EA@QTextStream@@8 004a25dc     mysave.obj
 0002:000355f8       ??_R4MySocket@@6B@         004a25f8     mysocket.obj
 0002:0003560c       ??_R3MySocket@@8           004a260c     mysocket.obj
 0002:0003561c       ??_R2MySocket@@8           004a261c     mysocket.obj
 0002:00035634       ??_R1A@?0A@EA@MySocket@@8  004a2634     mysocket.obj
 0002:00035650       ??_R1A@?0A@EA@QTcpSocket@@8 004a2650     mysocket.obj
 0002:0003566c       ??_R3QTcpSocket@@8         004a266c     mysocket.obj
 0002:0003567c       ??_R2QTcpSocket@@8         004a267c     mysocket.obj
 0002:00035690       ??_R1A@?0A@EA@QAbstractSocket@@8 004a2690     mysocket.obj
 0002:000356ac       ??_R3QAbstractSocket@@8    004a26ac     mysocket.obj
 0002:000356bc       ??_R2QAbstractSocket@@8    004a26bc     mysocket.obj
 0002:000356cc       ??_R1A@?0A@EA@QThread@@8   004a26cc     savedatathread.obj
 0002:000356e8       ??_R3QThread@@8            004a26e8     savedatathread.obj
 0002:000356f8       ??_R2QThread@@8            004a26f8     savedatathread.obj
 0002:00035704       ??_R4tcpDataAnalysis@@6B@  004a2704     tcpdataanalysis.obj
 0002:00035718       ??_R3tcpDataAnalysis@@8    004a2718     tcpdataanalysis.obj
 0002:00035728       ??_R2tcpDataAnalysis@@8    004a2728     tcpdataanalysis.obj
 0002:00035738       ??_R1A@?0A@EA@tcpDataAnalysis@@8 004a2738     tcpdataanalysis.obj
 0002:00035754       ??_R4tcpServer@@6B@        004a2754     tcpserver.obj
