 universalDAQTest2

 Timestamp is 5dc92935 (Mon Nov 11 17:26:13 2019)

 Preferred load address is 00400000

 Start         Length     Name                   Class
 0001:00000000 00000ad0H .text$di                CODE
 0001:00000ad0 000607b0H .text$mn                CODE
 0001:00061280 0000aa40H .text$x                 CODE
 0001:0006bcc0 000005adH .text$yd                CODE
 0002:00000000 0000158cH .idata$5                DATA
 0002:0000158c 00000004H .00cfg                  DATA
 0002:00001590 00000004H .CRT$XCA                DATA
 0002:00001594 00000004H .CRT$XCAA               DATA
 0002:00001598 000000c8H .CRT$XCU                DATA
 0002:00001660 00000004H .CRT$XCZ                DATA
 0002:00001664 00000004H .CRT$XIA                DATA
 0002:00001668 00000004H .CRT$XIAA               DATA
 0002:0000166c 00000004H .CRT$XIAC               DATA
 0002:00001670 00000004H .CRT$XIC                DATA
 0002:00001674 00000004H .CRT$XIZ                DATA
 0002:00001678 00000004H .CRT$XLA                DATA
 0002:0000167c 00000004H .CRT$XLZ                DATA
 0002:00001680 00000004H .CRT$XPA                DATA
 0002:00001684 00000004H .CRT$XPZ                DATA
 0002:00001688 00000004H .CRT$XTA                DATA
 0002:0000168c 00000004H .CRT$XTZ                DATA
 0002:00001690 00000000H .gfids$y                DATA
 0002:00001690 0003384cH .rdata                  DATA
 0002:00034edc 00000018H .rdata$T                DATA
 0002:00034ef4 00001cacH .rdata$r                DATA
 0002:00036ba0 00000450H .rdata$sxdata           DATA
 0002:00036ff0 000003e4H .rdata$zzzdbg           DATA
 0002:000373d4 00000004H .rtc$IAA                DATA
 0002:000373d8 00000004H .rtc$IZZ                DATA
 0002:000373dc 00000004H .rtc$TAA                DATA
 0002:000373e0 00000004H .rtc$TZZ                DATA
 0002:000373e4 00000004H .tls                    DATA
 0002:000373e8 00000004H .tls$                   DATA
 0002:000373ec 00000004H .tls$ZZZ                DATA
 0002:000373f0 0000960cH .xdata$x                DATA
 0002:000409fc 00000000H .edata                  DATA
 0002:000409fc 0000017cH .idata$2                DATA
 0002:00040b78 00000014H .idata$3                DATA
 0002:00040b8c 0000158cH .idata$4                DATA
 0002:00042118 0000ed46H .idata$6                DATA
 0003:00000000 000004d0H .data                   DATA
 0003:000004d0 00000ae8H .data$r                 DATA
 0003:00000fb8 00000598H .bss                    DATA
 0004:00000000 00000060H .rsrc$01                DATA
 0004:00000060 00000280H .rsrc$02                DATA

  Address         Publics by Value              Rva+Base       Lib:Object

 0000:00000000       ___AbsoluteZero            00000000     <absolute>
 0000:00000000       ___hybrid_code_map_count   00000000     <absolute>
 0000:00000000       ___guard_iat_table         00000000     <absolute>
 0000:00000000       ___hybrid_auxiliary_iat    00000000     <absolute>
 0000:00000000       ___volatile_metadata       00000000     <absolute>
 0000:00000000       ___guard_longjmp_table     00000000     <absolute>
 0000:00000000       ___guard_fids_count        00000000     <absolute>
 0000:00000000       ___enclave_config          00000000     <absolute>
 0000:00000000       ___guard_iat_count         00000000     <absolute>
 0000:00000000       ___dynamic_value_reloc_table 00000000     <absolute>
 0000:00000000       ___guard_fids_table        00000000     <absolute>
 0000:00000000       ___guard_longjmp_count     00000000     <absolute>
 0000:00000000       ___hybrid_code_map         00000000     <absolute>
 0000:0000002c       __tls_array                0000002c     <absolute>
 0000:00000100       ___guard_flags             00000100     <absolute>
 0000:00000114       ___safe_se_handler_count   00000114     <absolute>
 0000:00000000       ___ImageBase               00400000     <linker-defined>
 0001:00000ad0       ??0?$QList@E@@QAE@ABV0@@Z  00401ad0 f i moc_tcpclient.obj
 0001:00000ad0       ??0?$QList@_N@@QAE@ABV0@@Z 00401ad0 f i tcpdataanalysis.obj
 0001:00000ad0       ??0?$QList@PAVQAction@@@@QAE@ABV0@@Z 00401ad0 f i mainwindow.obj
 0001:00000ad0       ??0?$QList@M@@QAE@ABV0@@Z  00401ad0 f i tcpdataanalysis.obj
 0001:00000ad0       ??0?$QList@H@@QAE@ABV0@@Z  00401ad0 f i mysave.obj
 0001:00000b80       ??1?$QList@PAVQAbstractButton@@@@QAE@XZ 00401b80 f i maintab.obj
 0001:00000b80       ??1?$QList@PAVvirbValue@@@@QAE@XZ 00401b80 f i maintab.obj
 0001:00000b80       ??1?$QList@M@@QAE@XZ       00401b80 f i tcpdataanalysis.obj
 0001:00000b80       ??1?$QList@PAVbaseForm2@@@@QAE@XZ 00401b80 f i maintab.obj
 0001:00000b80       ??1?$QList@PAVQDoubleSpinBox@@@@QAE@XZ 00401b80 f i alertchjunyue.obj
 0001:00000b80       ??1?$QList@E@@QAE@XZ       00401b80 f i tcpclient.obj
 0001:00000b80       ??1?$QList@PAVQAction@@@@QAE@XZ 00401b80 f i daqinfo.obj
 0001:00000b80       ??1?$QList@PAVQDockWidget@@@@QAE@XZ 00401b80 f i mainwindow.obj
 0001:00000b80       ??1?$QList@PAVQWidget@@@@QAE@XZ 00401b80 f i maintab.obj
 0001:00000b80       ??1?$QList@_N@@QAE@XZ      00401b80 f i tcpdataanalysis.obj
 0001:00000b80       ??1?$QList@H@@QAE@XZ       00401b80 f i mysave.obj
 0001:00000be0       ??1?$QList@VQString@@@@QAE@XZ 00401be0 f i mysave.obj
 0001:00000c70       ??1?$QVector@N@@QAE@XZ     00401c70 f i mysave.obj
 0001:00000ca0       ??H@YA?BVQString@@ABV0@PBD@Z 00401ca0 f i mysave.obj
 0001:00000d30       ??_EQFile@@UAEPAXI@Z       00401d30 f i mysave.obj
 0001:00000dd0       ??_GQTextStream@@UAEPAXI@Z 00401dd0 f i mysave.obj
 0001:00000dd0       ??_EQTextStream@@UAEPAXI@Z 00401dd0 f i mysave.obj
 0001:00000e00       ??_TQFile@@QAEXXZ          00401e00 f i mysave.obj
 0001:00000e20       ?append@?$QList@H@@QAEXABH@Z 00401e20 f i mysave.obj
 0001:00000e20       ?append@?$QList@PAVQTextStream@@@@QAEXABQAVQTextStream@@@Z 00401e20 f i mysave.obj
 0001:00000e20       ?append@?$QList@PAVQAction@@@@QAEXABQAVQAction@@@Z 00401e20 f i daqinfo.obj
 0001:00000e20       ?append@?$QList@M@@QAEXABM@Z 00401e20 f i tcpdataanalysis.obj
 0001:00000e20       ?append@?$QList@PAVQDockWidget@@@@QAEXABQAVQDockWidget@@@Z 00401e20 f i mainwindow.obj
 0001:00000e20       ?append@?$QList@PAVQDoubleSpinBox@@@@QAEXABQAVQDoubleSpinBox@@@Z 00401e20 f i alertchjunyue.obj
 0001:00000e20       ?append@?$QList@PAVvirbValue@@@@QAEXABQAVvirbValue@@@Z 00401e20 f i tcpdataanalysis.obj
 0001:00000e20       ?append@?$QList@PAVQFile@@@@QAEXABQAVQFile@@@Z 00401e20 f i mysave.obj
 0001:00000e20       ?append@?$QList@PAVQWidget@@@@QAEXABQAVQWidget@@@Z 00401e20 f i maintab.obj
 0001:00000ed0       ?append@?$QList@VQString@@@@QAEXABVQString@@@Z 00401ed0 f i mysave.obj
 0001:00000f90       ?clear@?$QList@PAVQTextStream@@@@QAEXXZ 00401f90 f i mysave.obj
 0001:00000f90       ?clear@?$QList@_N@@QAEXXZ  00401f90 f i maintab.obj
 0001:00000f90       ?clear@?$QList@M@@QAEXXZ   00401f90 f i tcpdataanalysis.obj
 0001:00000f90       ?clear@?$QList@E@@QAEXXZ   00401f90 f i tcpclient.obj
 0001:00001030       ?detach_helper@?$QList@VQString@@@@AAEXH@Z 00402030 f i mysave.obj
 0001:00001120       ?detach_helper_grow@?$QList@E@@AAEPAUNode@1@HH@Z 00402120 f i tcpdataanalysis.obj
 0001:00001120       ?detach_helper_grow@?$QList@PAVQWidget@@@@AAEPAUNode@1@HH@Z 00402120 f i maintab.obj
 0001:00001120       ?detach_helper_grow@?$QList@PAVvirbValue@@@@AAEPAUNode@1@HH@Z 00402120 f i tcpdataanalysis.obj
 0001:00001120       ?detach_helper_grow@?$QList@G@@AAEPAUNode@1@HH@Z 00402120 f i tcpdataanalysis.obj
 0001:00001120       ?detach_helper_grow@?$QList@PAVQDoubleSpinBox@@@@AAEPAUNode@1@HH@Z 00402120 f i alertchjunyue.obj
 0001:00001120       ?detach_helper_grow@?$QList@PAVQDockWidget@@@@AAEPAUNode@1@HH@Z 00402120 f i mainwindow.obj
 0001:00001120       ?detach_helper_grow@?$QList@M@@AAEPAUNode@1@HH@Z 00402120 f i tcpdataanalysis.obj
 0001:00001120       ?detach_helper_grow@?$QList@PAVQFile@@@@AAEPAUNode@1@HH@Z 00402120 f i mysave.obj
 0001:00001120       ?detach_helper_grow@?$QList@PAVQTextStream@@@@AAEPAUNode@1@HH@Z 00402120 f i mysave.obj
 0001:00001120       ?detach_helper_grow@?$QList@H@@AAEPAUNode@1@HH@Z 00402120 f i mysave.obj
 0001:00001120       ?detach_helper_grow@?$QList@_N@@AAEPAUNode@1@HH@Z 00402120 f i tcpdataanalysis.obj
 0001:00001120       ?detach_helper_grow@?$QList@PAVQAction@@@@AAEPAUNode@1@HH@Z 00402120 f i daqinfo.obj
 0001:00001250       ?detach_helper_grow@?$QList@VQString@@@@AAEPAUNode@1@HH@Z 00402250 f i mysave.obj
 0001:000013b0       ?node_copy@?$QList@PAVQDockWidget@@@@AAEXPAUNode@1@00@Z 004023b0 f i mainwindow.obj
 0001:000013b0       ?node_copy@?$QList@M@@AAEXPAUNode@1@00@Z 004023b0 f i tcpdataanalysis.obj
 0001:000013b0       ?node_copy@?$QList@PAVbaseForm2@@@@AAEXPAUNode@1@00@Z 004023b0 f i maintab.obj
 0001:000013b0       ?node_copy@?$QList@PAVQTextStream@@@@AAEXPAUNode@1@00@Z 004023b0 f i mysave.obj
 0001:000013b0       ?node_copy@?$QList@PAVQDoubleSpinBox@@@@AAEXPAUNode@1@00@Z 004023b0 f i alertchjunyue.obj
 0001:000013b0       ?node_copy@?$QList@E@@AAEXPAUNode@1@00@Z 004023b0 f i tcpdataanalysis.obj
 0001:000013b0       ?node_copy@?$QList@_N@@AAEXPAUNode@1@00@Z 004023b0 f i tcpdataanalysis.obj
 0001:000013b0       ?node_copy@?$QList@H@@AAEXPAUNode@1@00@Z 004023b0 f i mysave.obj
 0001:000013b0       ?node_copy@?$QList@PAVQAction@@@@AAEXPAUNode@1@00@Z 004023b0 f i daqinfo.obj
 0001:000013b0       ?node_copy@?$QList@PAVvirbValue@@@@AAEXPAUNode@1@00@Z 004023b0 f i tcpdataanalysis.obj
 0001:000013b0       ?node_copy@?$QList@PAVQWidget@@@@AAEXPAUNode@1@00@Z 004023b0 f i maintab.obj
 0001:000013b0       ?node_copy@?$QList@PAVQFile@@@@AAEXPAUNode@1@00@Z 004023b0 f i mysave.obj
 0001:000013b0       ?node_copy@?$QList@G@@AAEXPAUNode@1@00@Z 004023b0 f i tcpdataanalysis.obj
 0001:000013e0       ?node_copy@?$QList@VQString@@@@AAEXPAUNode@1@00@Z 004023e0 f i mysave.obj
 0001:00001410       ?node_destruct@?$QList@PAVQDoubleSpinBox@@@@AAEXPAUNode@1@0@Z 00402410 f i alertchjunyue.obj
 0001:00001410       ?node_destruct@?$QList@M@@AAEXPAUNode@1@0@Z 00402410 f i tcpdataanalysis.obj
 0001:00001410       ?node_destruct@?$QList@H@@AAEXPAUNode@1@0@Z 00402410 f i mysave.obj
 0001:00001410       ?node_destruct@?$QList@_N@@AAEXPAUNode@1@0@Z 00402410 f i tcpdataanalysis.obj
 0001:00001410       ?node_destruct@?$QList@PAVQAction@@@@AAEXPAUNode@1@0@Z 00402410 f i daqinfo.obj
 0001:00001410       ?node_destruct@?$QList@PAVQDockWidget@@@@AAEXPAUNode@1@0@Z 00402410 f i mainwindow.obj
 0001:00001410       ?node_destruct@?$QList@PAVvirbValue@@@@AAEXPAUNode@1@0@Z 00402410 f i tcpdataanalysis.obj
 0001:00001410       ?updateWave@daqInfo@@QAEXPAV?$QVector@N@@H@Z 00402410 f i daqinfo.obj
 0001:00001410       ?node_destruct@?$QList@G@@AAEXPAUNode@1@0@Z 00402410 f i tcpdataanalysis.obj
 0001:00001410       ?node_destruct@?$QList@E@@AAEXPAUNode@1@0@Z 00402410 f i tcpdataanalysis.obj
 0001:00001410       ?node_destruct@?$QList@PAVQWidget@@@@AAEXPAUNode@1@0@Z 00402410 f i maintab.obj
 0001:00001410       ?node_destruct@?$QList@PAVQTextStream@@@@AAEXPAUNode@1@0@Z 00402410 f i mysave.obj
 0001:00001410       ?node_destruct@?$QList@PAVQFile@@@@AAEXPAUNode@1@0@Z 00402410 f i mysave.obj
 0001:00001420       ?node_destruct@?$QList@PAVQWidget@@@@AAEXPAUNode@1@@Z 00402420 f i maintab.obj
 0001:00001420       ?node_destruct@?$QList@PAVQFile@@@@AAEXPAUNode@1@@Z 00402420 f i mysave.obj
 0001:00001420       ?node_destruct@?$QList@_N@@AAEXPAUNode@1@@Z 00402420 f i tcpdataanalysis.obj
 0001:00001420       ?node_destruct@?$QList@PAVvirbValue@@@@AAEXPAUNode@1@@Z 00402420 f i tcpdataanalysis.obj
 0001:00001420       ?node_destruct@?$QList@G@@AAEXPAUNode@1@@Z 00402420 f i tcpdataanalysis.obj
 0001:00001420       ?node_destruct@?$QList@M@@AAEXPAUNode@1@@Z 00402420 f i tcpdataanalysis.obj
 0001:00001420       ?node_destruct@?$QList@PAVQDoubleSpinBox@@@@AAEXPAUNode@1@@Z 00402420 f i alertchjunyue.obj
 0001:00001420       ?node_destruct@?$QList@PAVQTextStream@@@@AAEXPAUNode@1@@Z 00402420 f i mysave.obj
 0001:00001420       ?node_destruct@?$QList@H@@AAEXPAUNode@1@@Z 00402420 f i mysave.obj
 0001:00001420       ?node_destruct@?$QList@PAVQDockWidget@@@@AAEXPAUNode@1@@Z 00402420 f i mainwindow.obj
 0001:00001420       ?node_destruct@?$QList@E@@AAEXPAUNode@1@@Z 00402420 f i tcpdataanalysis.obj
 0001:00001420       ?node_destruct@?$QList@PAVQAction@@@@AAEXPAUNode@1@@Z 00402420 f i daqinfo.obj
 0001:00001430       ?node_destruct@?$QList@VQString@@@@AAEXPAUNode@1@0@Z 00402430 f i mysave.obj
 0001:00001460       ?node_destruct@?$QList@VQString@@@@AAEXPAUNode@1@@Z 00402460 f i mysave.obj
 0001:00001470       ?saveData@mySave@@QAEXHPAV?$QVector@N@@@Z 00402470 f   mysave.obj
 0001:000017a0       ?saveData@mySave@@QAEXPAV?$QVector@N@@@Z 004027a0 f   mysave.obj
 0001:000018a0       ?saveData@mySave@@QAEXVQByteArray@@HPAV?$QVector@N@@@Z 004028a0 f   mysave.obj
 0001:00001d40       ?setEnabledch@mySave@@QAEXG@Z 00402d40 f   mysave.obj
 0001:00001e30       ?setFsMode@mySave@@QAEXH@Z 00402e30 f   mysave.obj
 0001:00001e40       ?setName@mySave@@QAEXVQString@@PAHHH@Z 00402e40 f   mysave.obj
 0001:00002190       ?setName@mySave@@QAEXVQString@@V?$QList@H@@@Z 00403190 f   mysave.obj
 0001:00002570       ?setName@mySave@@QAEXXZ    00403570 f   mysave.obj
 0001:00002920       ?setSave@mySave@@QAEX_N@Z  00403920 f   mysave.obj
 0001:00002930       ?setType@mySave@@QAEXVQString@@HH@Z 00403930 f   mysave.obj
 0001:00002960       ?startSave@mySave@@QAEXXZ  00403960 f   mysave.obj
 0001:000029a0       ?stopSave@mySave@@QAEXXZ   004039a0 f   mysave.obj
 0001:00002a50       ??0MySocket@@QAE@HPAVQObject@@@Z 00403a50 f   mysocket.obj
 0001:00002bd0       ??_GMySocket@@UAEPAXI@Z    00403bd0 f i mysocket.obj
 0001:00002bd0       ??_EMySocket@@UAEPAXI@Z    00403bd0 f i mysocket.obj
 0001:00002c70       ?recvData@MySocket@@QAEXXZ 00403c70 f   mysocket.obj
 0001:00002d50       ?sendHeartBeat@MySocket@@AAEXXZ 00403d50 f   mysocket.obj
 0001:00002e00       ?sendMsg@MySocket@@QAEXVQByteArray@@H@Z 00403e00 f   mysocket.obj
 0001:00002ea0       ?stop@MySocket@@QAEXXZ     00403ea0 f   mysocket.obj
 0001:00002ec0       ??0?$QVector@N@@QAE@XZ     00403ec0 f i tcpdataanalysis.obj
 0001:00002ed0       ??0tcpDataAnalysis@@QAE@PAVQObject@@@Z 00403ed0 f   tcpdataanalysis.obj
 0001:000032a0       ??1WifiChParas@@UAE@XZ     004042a0 f i tcpdataanalysis.obj
 0001:00003310       ??1WifiApParas@@QAE@XZ     00404310 f i wifiapparas.obj
 0001:00003310       ??1WifiNetParas@@QAE@XZ    00404310 f i tcpdataanalysis.obj
 0001:00003330       ??1tcpDataAnalysis@@UAE@XZ 00404330 f   tcpdataanalysis.obj
 0001:00003980       ??1wifiCharacterTest@@QAE@XZ 00404980 f i tcpdataanalysis.obj
 0001:00003990       ??8@YA_NABVQByteArray@@0@Z 00404990 f i tcpdataanalysis.obj
 0001:00003a50       ??H@YA?BVQString@@ABV0@0@Z 00404a50 f i tcpdataanalysis.obj
 0001:00003ac0       ??H@YA?BVQString@@PBDABV0@@Z 00404ac0 f i tcpdataanalysis.obj
 0001:00003b30       ??_E?$QVector@N@@QAEPAXI@Z 00404b30 f i tcpdataanalysis.obj
 0001:00003c00       ??_G?$QList@N@@QAEPAXI@Z   00404c00 f i tcpdataanalysis.obj
 0001:00003c80       ??_G?$QVector@N@@QAEPAXI@Z 00404c80 f i tcpdataanalysis.obj
 0001:00003cd0       ??_GWifiSingleChannel@@QAEPAXI@Z 00404cd0 f i tcpdataanalysis.obj
 0001:00003cf0       ??_GtcpDataAnalysis@@UAEPAXI@Z 00404cf0 f i tcpdataanalysis.obj
 0001:00003cf0       ??_EtcpDataAnalysis@@UAEPAXI@Z 00404cf0 f i tcpdataanalysis.obj
 0001:00003d20       ?append@?$QList@E@@QAEXABE@Z 00404d20 f i tcpdataanalysis.obj
 0001:00003d20       ?append@?$QList@_N@@QAEXAB_N@Z 00404d20 f i tcpdataanalysis.obj
 0001:00003dd0       ?append@?$QList@G@@QAEXABG@Z 00404dd0 f i tcpdataanalysis.obj
 0001:00003e80       ?append@?$QList@N@@QAEXABN@Z 00404e80 f i tcpdataanalysis.obj
 0001:00003f20       ?append@?$QList@VWifiSingleChannel@@@@QAEXABVWifiSingleChannel@@@Z 00404f20 f i tcpdataanalysis.obj
 0001:00003fe0       ?append@?$QVector@N@@QAEX$$QAN@Z 00404fe0 f i tcpdataanalysis.obj
 0001:00004050       ?calCharacter2@tcpDataAnalysis@@AAEXVQByteArray@@HPAV?$QVector@N@@H@Z 00405050 f   tcpdataanalysis.obj
 0001:00004060       ?clear@?$QList@N@@QAEXXZ   00405060 f i tcpdataanalysis.obj
 0001:00004100       ?dealPacket@tcpDataAnalysis@@QAEXXZ 00405100 f   tcpdataanalysis.obj
 0001:000095c0       ?dealloc@?$QList@N@@AAEXPAUData@QListData@@@Z 0040a5c0 f i tcpdataanalysis.obj
 0001:00009610       ?dealloc@?$QList@VWifiSingleChannel@@@@AAEXPAUData@QListData@@@Z 0040a610 f i tcpdataanalysis.obj
 0001:00009670       ?deallocate@?$QTypedArrayData@N@@SAXPAUQArrayData@@@Z 0040a670 f i tcpdataanalysis.obj
 0001:00009690       ?detach_helper@?$QList@M@@AAEXH@Z 0040a690 f i characterform.obj
 0001:00009690       ?detach_helper@?$QList@G@@AAEXH@Z 0040a690 f i tcpdataanalysis.obj
 0001:00009690       ?detach_helper@?$QList@PAVQWidget@@@@AAEXH@Z 0040a690 f i maintab.obj
 0001:00009690       ?detach_helper@?$QList@H@@AAEXH@Z 0040a690 f i tcpserver.obj
 0001:00009690       ?detach_helper@?$QList@_N@@AAEXH@Z 0040a690 f i characterform.obj
 0001:00009690       ?detach_helper@?$QList@E@@AAEXH@Z 0040a690 f i tcpdataanalysis.obj
 0001:00009690       ?detach_helper@?$QList@PAVbaseForm2@@@@AAEXH@Z 0040a690 f i maintab.obj
 0001:00009760       ?detach_helper@?$QList@VWifiSingleChannel@@@@AAEXH@Z 0040a760 f i tcpdataanalysis.obj
 0001:00009820       ?detach_helper_grow@?$QList@N@@AAEPAUNode@1@HH@Z 0040a820 f i tcpdataanalysis.obj
 0001:00009950       ?detach_helper_grow@?$QList@VWifiSingleChannel@@@@AAEPAUNode@1@HH@Z 0040a950 f i tcpdataanalysis.obj
 0001:00009a80       ?node_copy@?$QList@N@@AAEXPAUNode@1@00@Z 0040aa80 f i tcpdataanalysis.obj
 0001:00009b30       ?node_copy@?$QList@VWifiSingleChannel@@@@AAEXPAUNode@1@00@Z 0040ab30 f i tcpdataanalysis.obj
 0001:00009be0       ?node_destruct@?$QList@N@@AAEXPAUNode@1@0@Z 0040abe0 f i tcpdataanalysis.obj
 0001:00009c10       ?node_destruct@?$QList@VWifiSingleChannel@@@@AAEXPAUNode@1@0@Z 0040ac10 f i tcpdataanalysis.obj
 0001:00009c50       ?reallocData@?$QVector@N@@AAEXHHV?$QFlags@W4AllocationOption@QArrayData@@@@@Z 0040ac50 f i tcpdataanalysis.obj
 0001:00009df0       ?recvData@tcpDataAnalysis@@QAEXVQString@@VQByteArray@@@Z 0040adf0 f   tcpdataanalysis.obj
 0001:00009fa0       ?reset30@tcpDataAnalysis@@QAEXH@Z 0040afa0 f   tcpdataanalysis.obj
 0001:00009fb0       ?sendDataImmediately@tcpDataAnalysis@@AAEXXZ 0040afb0 f   tcpdataanalysis.obj
 0001:0000a000       ?sendSingleImmediately@tcpDataAnalysis@@AAEXXZ 0040b000 f   tcpdataanalysis.obj
 0001:0000a040       ?widgetReady@tcpDataAnalysis@@QAEXVQString@@@Z 0040b040 f   tcpdataanalysis.obj
 0001:0000a070       ??$atImpl@V?$QList@_N@@@QSequentialIterableImpl@QtMetaTypePrivate@@SAPBXPBXH@Z 0040b070 f i daqinfo.obj
 0001:0000a070       ??$atImpl@V?$QList@H@@@QSequentialIterableImpl@QtMetaTypePrivate@@SAPBXPBXH@Z 0040b070 f i tcpserver.obj
 0001:0000a070       ??$atImpl@V?$QList@M@@@QSequentialIterableImpl@QtMetaTypePrivate@@SAPBXPBXH@Z 0040b070 f i daqinfo.obj
 0001:0000a070       ??$atImpl@V?$QList@E@@@QSequentialIterableImpl@QtMetaTypePrivate@@SAPBXPBXH@Z 0040b070 f i moc_tcpclient.obj
 0001:0000a090       ??$atImpl@V?$QList@N@@@QSequentialIterableImpl@QtMetaTypePrivate@@SAPBXPBXH@Z 0040b090 f i tcpserver.obj
 0001:0000a0b0       ??$getImpl@V?$QList@H@@@QSequentialIterableImpl@QtMetaTypePrivate@@SA?AUVariantData@1@PBQAXHI@Z 0040b0b0 f i tcpserver.obj
 0001:0000a0b0       ??$getImpl@V?$QList@M@@@QSequentialIterableImpl@QtMetaTypePrivate@@SA?AUVariantData@1@PBQAXHI@Z 0040b0b0 f i daqinfo.obj
 0001:0000a0b0       ??$getImpl@V?$QList@_N@@@QSequentialIterableImpl@QtMetaTypePrivate@@SA?AUVariantData@1@PBQAXHI@Z 0040b0b0 f i daqinfo.obj
 0001:0000a0b0       ??$getImpl@V?$QList@E@@@QSequentialIterableImpl@QtMetaTypePrivate@@SA?AUVariantData@1@PBQAXHI@Z 0040b0b0 f i moc_tcpclient.obj
 0001:0000a0d0       ??$getImpl@V?$QList@N@@@QSequentialIterableImpl@QtMetaTypePrivate@@SA?AUVariantData@1@PBQAXHI@Z 0040b0d0 f i tcpserver.obj
 0001:0000a0f0       ??$moveToBeginImpl@V?$QList@N@@@QSequentialIterableImpl@QtMetaTypePrivate@@SAXPBXPAPAX@Z 0040b0f0 f i tcpserver.obj
 0001:0000a0f0       ??$moveToBeginImpl@V?$QList@M@@@QSequentialIterableImpl@QtMetaTypePrivate@@SAXPBXPAPAX@Z 0040b0f0 f i daqinfo.obj
 0001:0000a0f0       ??$moveToBeginImpl@V?$QList@_N@@@QSequentialIterableImpl@QtMetaTypePrivate@@SAXPBXPAPAX@Z 0040b0f0 f i daqinfo.obj
 0001:0000a0f0       ??$moveToBeginImpl@V?$QList@E@@@QSequentialIterableImpl@QtMetaTypePrivate@@SAXPBXPAPAX@Z 0040b0f0 f i moc_tcpclient.obj
 0001:0000a0f0       ??$moveToBeginImpl@V?$QList@H@@@QSequentialIterableImpl@QtMetaTypePrivate@@SAXPBXPAPAX@Z 0040b0f0 f i tcpserver.obj
 0001:0000a120       ??$moveToEndImpl@V?$QList@_N@@@QSequentialIterableImpl@QtMetaTypePrivate@@SAXPBXPAPAX@Z 0040b120 f i daqinfo.obj
 0001:0000a120       ??$moveToEndImpl@V?$QList@E@@@QSequentialIterableImpl@QtMetaTypePrivate@@SAXPBXPAPAX@Z 0040b120 f i moc_tcpclient.obj
 0001:0000a120       ??$moveToEndImpl@V?$QList@H@@@QSequentialIterableImpl@QtMetaTypePrivate@@SAXPBXPAPAX@Z 0040b120 f i tcpserver.obj
 0001:0000a120       ??$moveToEndImpl@V?$QList@M@@@QSequentialIterableImpl@QtMetaTypePrivate@@SAXPBXPAPAX@Z 0040b120 f i daqinfo.obj
 0001:0000a120       ??$moveToEndImpl@V?$QList@N@@@QSequentialIterableImpl@QtMetaTypePrivate@@SAXPBXPAPAX@Z 0040b120 f i tcpserver.obj
 0001:0000a150       ??$setValue@PAVWifiChParas@@@QVariant@@QAEXABQAVWifiChParas@@@Z 0040b150 f i tcpserver.obj
 0001:0000a1e0       ??$setValue@PAVWifiFsParas@@@QVariant@@QAEXABQAVWifiFsParas@@@Z 0040b1e0 f i tcpserver.obj
 0001:0000a270       ??$sizeImpl@V?$QList@M@@@QSequentialIterableImpl@QtMetaTypePrivate@@SAHPBX@Z 0040b270 f i daqinfo.obj
 0001:0000a270       ??$sizeImpl@V?$QList@_N@@@QSequentialIterableImpl@QtMetaTypePrivate@@SAHPBX@Z 0040b270 f i daqinfo.obj
 0001:0000a270       ??$sizeImpl@V?$QList@H@@@QSequentialIterableImpl@QtMetaTypePrivate@@SAHPBX@Z 0040b270 f i tcpserver.obj
 0001:0000a270       ??$sizeImpl@V?$QList@E@@@QSequentialIterableImpl@QtMetaTypePrivate@@SAHPBX@Z 0040b270 f i moc_tcpclient.obj
 0001:0000a270       ??$sizeImpl@V?$QList@N@@@QSequentialIterableImpl@QtMetaTypePrivate@@SAHPBX@Z 0040b270 f i tcpserver.obj
 0001:0000a280       ??0?$QList@N@@QAE@ABV0@@Z  0040b280 f i tcpserver.obj
 0001:0000a330       ??0?$QList@VQString@@@@QAE@ABV0@@Z 0040b330 f i tcpserver.obj
 0001:0000a3e0       ??0?$QList@VQVariant@@@@QAE@ABV0@@Z 0040b3e0 f i tcpserver.obj
 0001:0000a490       ??0QSequentialIterableImpl@QtMetaTypePrivate@@QAE@XZ 0040b490 f i tcpserver.obj
 0001:0000a500       ??0tcpServer@@QAE@PAVCMainWindow@@PAVQObject@@@Z 0040b500 f   tcpserver.obj
 0001:0000a540       ??1?$QList@N@@QAE@XZ       0040b540 f i tcpserver.obj
 0001:0000a5d0       ??1?$QList@VQVariant@@@@QAE@XZ 0040b5d0 f i tcpserver.obj
 0001:0000a650       ??1?$QForeachContainer@V?$QList@VQString@@@@@QtPrivate@@QAE@XZ 0040b650 f i qhttpresponse.obj
 0001:0000a650       ??1QStringList@@QAE@XZ     0040b650 f i tcpserver.obj
 0001:0000a660       ??1tcpServer@@UAE@XZ       0040b660 f   tcpserver.obj
 0001:0000a740       ??A?$QMap@VQString@@VQVariant@@@@QAEAAVQVariant@@ABVQString@@@Z 0040b740 f i tcpserver.obj
 0001:0000a7d0       ??_GQString@@QAEPAXI@Z     0040b7d0 f i tcpserver.obj
 0001:0000a800       ??_GQVariant@@QAEPAXI@Z    0040b800 f i tcpserver.obj
 0001:0000a830       ??_GtcpServer@@UAEPAXI@Z   0040b830 f i tcpserver.obj
 0001:0000a830       ??_EtcpServer@@UAEPAXI@Z   0040b830 f i tcpserver.obj
 0001:0000a920       ?Construct@?$QMetaTypeFunctionHelper@PAVQThread@@$00@QtMetaTypePrivate@@SAPAXPAXPBX@Z 0040b920 f i qasyntcpserver.obj
 0001:0000a920       ?Construct@?$QMetaTypeFunctionHelper@PAVWifiChParas@@$00@QtMetaTypePrivate@@SAPAXPAXPBX@Z 0040b920 f i tcpserver.obj
 0001:0000a920       ?Construct@?$QMetaTypeFunctionHelper@PAVWifiFsParas@@$00@QtMetaTypePrivate@@SAPAXPAXPBX@Z 0040b920 f i tcpserver.obj
 0001:0000a920       ?Construct@?$QMetaTypeFunctionHelper@W4SocketState@QAbstractSocket@@$00@QtMetaTypePrivate@@SAPAXPAXPBX@Z 0040b920 f i wsclient.obj
 0001:0000a920       ?Construct@?$QMetaTypeFunctionHelper@PAVQAction@@$00@QtMetaTypePrivate@@SAPAXPAXPBX@Z 0040b920 f i moc_customplot.obj
 0001:0000a940       ?Construct@?$QMetaTypeFunctionHelper@V?$QList@E@@$00@QtMetaTypePrivate@@SAPAXPAXPBX@Z 0040b940 f i moc_tcpclient.obj
 0001:0000a940       ?Construct@?$QMetaTypeFunctionHelper@V?$QList@H@@$00@QtMetaTypePrivate@@SAPAXPAXPBX@Z 0040b940 f i tcpserver.obj
 0001:0000a940       ?Construct@?$QMetaTypeFunctionHelper@V?$QList@_N@@$00@QtMetaTypePrivate@@SAPAXPAXPBX@Z 0040b940 f i daqinfo.obj
 0001:0000a940       ?Construct@?$QMetaTypeFunctionHelper@V?$QList@M@@$00@QtMetaTypePrivate@@SAPAXPAXPBX@Z 0040b940 f i daqinfo.obj
 0001:0000a960       ?Construct@?$QMetaTypeFunctionHelper@V?$QList@N@@$00@QtMetaTypePrivate@@SAPAXPAXPBX@Z 0040b960 f i tcpserver.obj
 0001:0000a980       ?Construct@?$QMetaTypeFunctionHelper@VQSequentialIterableImpl@QtMetaTypePrivate@@$00@QtMetaTypePrivate@@SAPAXPAXPBX@Z 0040b980 f i tcpserver.obj
 0001:0000a9c0       ?qt_static_metacall@fsParas@@CAXPAVQObject@@W4Call@QMetaObject@@HPAPAX@Z 0040b9c0 f i moc_structs.obj
 0001:0000a9c0       ?qt_static_metacall@QHttpHandler@@CAXPAVQObject@@W4Call@QMetaObject@@HPAPAX@Z 0040b9c0 f i moc_httphandler.obj
 0001:0000a9c0       ?qt_static_metacall@objectConnect@@CAXPAVQObject@@W4Call@QMetaObject@@HPAPAX@Z 0040b9c0 f i moc_objectconnect.obj
 0001:0000a9c0       ?Destruct@?$QMetaTypeFunctionHelper@VQSequentialIterableImpl@QtMetaTypePrivate@@$00@QtMetaTypePrivate@@SAXPAX@Z 0040b9c0 f i tcpserver.obj
 0001:0000a9c0       ?deleteNode2@?$QHash@HPAVQTcpSocket@@@@CAXPAUNode@QHashData@@@Z 0040b9c0 f i qasyntcpserver.obj
 0001:0000a9c0       ?qt_static_metacall@singleAlertJunyue@@CAXPAVQObject@@W4Call@QMetaObject@@HPAPAX@Z 0040b9c0 f i moc_structs.obj
 0001:0000a9c0       ?Destruct@?$QMetaTypeFunctionHelper@PAVQAction@@$00@QtMetaTypePrivate@@SAXPAX@Z 0040b9c0 f i moc_customplot.obj
 0001:0000a9c0       ?Destruct@?$QMetaTypeFunctionHelper@PAVWifiChParas@@$00@QtMetaTypePrivate@@SAXPAX@Z 0040b9c0 f i tcpserver.obj
 0001:0000a9c0       __initialize_denormal_control 0040b9c0 f i MSVCRT:denormal_control.obj
 0001:0000a9c0       ?sendOver@tcpServerThread@@AAEXXZ 0040b9c0 f i tcpserverthread.obj
 0001:0000a9c0       ?Destruct@?$QMetaTypeFunctionHelper@PAVWifiFsParas@@$00@QtMetaTypePrivate@@SAXPAX@Z 0040b9c0 f i tcpserver.obj
 0001:0000a9c0       ?qt_static_metacall@StaticFileController@@CAXPAVQObject@@W4Call@QMetaObject@@HPAPAX@Z 0040b9c0 f i moc_staticfilecontroller.obj
 0001:0000a9c0       ?Destruct@?$QMetaTypeFunctionHelper@W4SocketState@QAbstractSocket@@$00@QtMetaTypePrivate@@SAXPAX@Z 0040b9c0 f i wsclient.obj
 0001:0000a9c0       ?qt_static_metacall@waveDataModel@@CAXPAVQObject@@W4Call@QMetaObject@@HPAPAX@Z 0040b9c0 f i moc_wavedatamodel.obj
 0001:0000a9c0       ?qt_static_metacall@WifiChParas@@CAXPAVQObject@@W4Call@QMetaObject@@HPAPAX@Z 0040b9c0 f i moc_wifichparas.obj
 0001:0000a9c0       ??1WifiSingleChannel@@QAE@XZ 0040b9c0 f i wifisinglechannel.obj
 0001:0000a9c0       ?on_btnApplyTcp_2_clicked@mainTab@@AAEXXZ 0040b9c0 f i maintab.obj
 0001:0000a9c0       ?setQObjectShared@ExternalRefCountData@QtSharedPointer@@QAAXZZ 0040b9c0 f i qasynhttpsocket.obj
 0001:0000a9c0       ?Destruct@?$QMetaTypeFunctionHelper@PAVQThread@@$00@QtMetaTypePrivate@@SAXPAX@Z 0040b9c0 f i qasyntcpserver.obj
 0001:0000a9c0       ?qt_static_metacall@chParas@@CAXPAVQObject@@W4Call@QMetaObject@@HPAPAX@Z 0040b9c0 f i moc_structs.obj
 0001:0000a9c0       ?qt_static_metacall@netParas@@CAXPAVQObject@@W4Call@QMetaObject@@HPAPAX@Z 0040b9c0 f i moc_structs.obj
 0001:0000a9c0       ?qt_static_metacall@alertChJunyue@@CAXPAVQObject@@W4Call@QMetaObject@@HPAPAX@Z 0040b9c0 f i moc_alertchjunyue.obj
 0001:0000a9c0       ?qt_static_metacall@chControlAFD@@CAXPAVQObject@@W4Call@QMetaObject@@HPAPAX@Z 0040b9c0 f i moc_chcontrolafd.obj
 0001:0000a9c0       ?enableSharedFromThis@?$QSharedPointer@VQWaitCondition@@@@AAAXZZ 0040b9c0 f i qasynhttpsocket.obj
 0001:0000a9c0       @_guard_check_icall_nop@4  0040b9c0 f i MSVCRT:guard_support.obj
 0001:0000a9c0       ?Destruct@?$QMetaTypeFunctionHelper@VWifiFsParas@@$00@QtMetaTypePrivate@@SAXPAX@Z 0040b9c0 f i main.obj
 0001:0000a9c0       ?qt_static_metacall@virbValue@@CAXPAVQObject@@W4Call@QMetaObject@@HPAPAX@Z 0040b9c0 f i moc_virbvalue.obj
 0001:0000a9c0       ?selectFirmware@daqInfo@@QAEXXZ 0040b9c0 f i daqinfo.obj
 0001:0000a9c0       __initialize_invalid_parameter_handler 0040b9c0 f i MSVCRT:invalid_parameter_handler.obj
 0001:0000a9c0       ?qt_static_metacall@apParas@@CAXPAVQObject@@W4Call@QMetaObject@@HPAPAX@Z 0040b9c0 f i moc_structs.obj
 0001:0000a9c0       ?deleteNode2@?$QHash@PAVQThread@@I@@CAXPAUNode@QHashData@@@Z 0040b9c0 f i threadhandle.obj
 0001:0000a9c0       ?destroy@?$IteratorOwner@PBN@QtMetaTypePrivate@@SAXPAPAX@Z 0040b9c0 f i main.obj
 0001:0000a9d0       ?Destruct@?$QMetaTypeFunctionHelper@V?$QList@_N@@$00@QtMetaTypePrivate@@SAXPAX@Z 0040b9d0 f i daqinfo.obj
 0001:0000a9d0       ?Destruct@?$QMetaTypeFunctionHelper@V?$QList@E@@$00@QtMetaTypePrivate@@SAXPAX@Z 0040b9d0 f i moc_tcpclient.obj
 0001:0000a9d0       ?Destruct@?$QMetaTypeFunctionHelper@V?$QList@M@@$00@QtMetaTypePrivate@@SAXPAX@Z 0040b9d0 f i daqinfo.obj
 0001:0000a9d0       ?Destruct@?$QMetaTypeFunctionHelper@V?$QList@H@@$00@QtMetaTypePrivate@@SAXPAX@Z 0040b9d0 f i tcpserver.obj
 0001:0000aa40       ?Destruct@?$QMetaTypeFunctionHelper@V?$QList@N@@$00@QtMetaTypePrivate@@SAXPAX@Z 0040ba40 f i tcpserver.obj
 0001:0000aa50       ?advance@?$IteratorOwnerCommon@Vconst_iterator@?$QList@E@@@QtMetaTypePrivate@@SAXPAPAXH@Z 0040ba50 f i moc_tcpclient.obj
 0001:0000aa50       ?advance@?$IteratorOwnerCommon@Vconst_iterator@?$QList@H@@@QtMetaTypePrivate@@SAXPAPAXH@Z 0040ba50 f i tcpserver.obj
 0001:0000aa50       ?advance@?$IteratorOwnerCommon@Vconst_iterator@?$QList@N@@@QtMetaTypePrivate@@SAXPAPAXH@Z 0040ba50 f i tcpserver.obj
 0001:0000aa50       ?advance@?$IteratorOwnerCommon@Vconst_iterator@?$QList@M@@@QtMetaTypePrivate@@SAXPAPAXH@Z 0040ba50 f i daqinfo.obj
 0001:0000aa50       ?advance@?$IteratorOwnerCommon@Vconst_iterator@?$QList@_N@@@QtMetaTypePrivate@@SAXPAPAXH@Z 0040ba50 f i daqinfo.obj
 0001:0000aa60       ?append@?$QList@VQVariant@@@@QAEXABVQVariant@@@Z 0040ba60 f i tcpserver.obj
 0001:0000ab20       ?assign@?$IteratorOwnerCommon@Vconst_iterator@?$QList@E@@@QtMetaTypePrivate@@SAXPAPAXPBQAX@Z 0040bb20 f i moc_tcpclient.obj
 0001:0000ab20       ?assign@?$IteratorOwnerCommon@Vconst_iterator@?$QList@N@@@QtMetaTypePrivate@@SAXPAPAXPBQAX@Z 0040bb20 f i tcpserver.obj
 0001:0000ab20       ?assign@?$IteratorOwnerCommon@Vconst_iterator@?$QList@H@@@QtMetaTypePrivate@@SAXPAPAXPBQAX@Z 0040bb20 f i tcpserver.obj
 0001:0000ab20       ?assign@?$IteratorOwnerCommon@Vconst_iterator@?$QList@M@@@QtMetaTypePrivate@@SAXPAPAXPBQAX@Z 0040bb20 f i daqinfo.obj
 0001:0000ab20       ?assign@?$IteratorOwnerCommon@Vconst_iterator@?$QList@_N@@@QtMetaTypePrivate@@SAXPAPAXPBQAX@Z 0040bb20 f i daqinfo.obj
 0001:0000ab40       ?changeChParas@tcpServer@@QAEXVQString@@PAVWifiChParas@@@Z 0040bb40 f   tcpserver.obj
 0001:0000ac80       ?changeFsParas@tcpServer@@QAEXVQString@@PAVWifiFsParas@@@Z 0040bc80 f   tcpserver.obj
 0001:0000adc0       ?commandSent@tcpServer@@QAEXVQStringList@@@Z 0040bdc0 f   tcpserver.obj
 0001:0000af40       ?commandsToSend@tcpServer@@QAEXVQString@@@Z 0040bf40 f   tcpserver.obj
 0001:0000b2f0       ?convert@?$ConverterFunctor@V?$QList@H@@VQSequentialIterableImpl@QtMetaTypePrivate@@U?$QSequentialIterableConvertFunctor@V?$QList@H@@@3@@QtPrivate@@SA_NPBUAbstractConverterFunction@2@PBXPAX@Z 0040c2f0 f i tcpserver.obj
 0001:0000b360       ?convert@?$ConverterFunctor@V?$QList@N@@VQSequentialIterableImpl@QtMetaTypePrivate@@U?$QSequentialIterableConvertFunctor@V?$QList@N@@@3@@QtPrivate@@SA_NPBUAbstractConverterFunction@2@PBXPAX@Z 0040c360 f i tcpserver.obj
 0001:0000b3d0       ?copy@?$QMapNode@VQString@@VQVariant@@@@QBEPAU1@PAU?$QMapData@VQString@@VQVariant@@@@@Z 0040c3d0 f i tcpserver.obj
 0001:0000b460       ?createNode@?$QMapData@VQString@@VQVariant@@@@QAEPAU?$QMapNode@VQString@@VQVariant@@@@ABVQString@@ABVQVariant@@PAU2@_N@Z 0040c460 f i tcpserver.obj
 0001:0000b510       ?createWidget@tcpServer@@AAEXHVQString@@0@Z 0040c510 f   tcpserver.obj
 0001:0000b630       ?destroy@?$IteratorOwnerCommon@Vconst_iterator@?$QList@E@@@QtMetaTypePrivate@@SAXPAPAX@Z 0040c630 f i moc_tcpclient.obj
 0001:0000b630       ?destroy@?$IteratorOwnerCommon@Vconst_iterator@?$QList@M@@@QtMetaTypePrivate@@SAXPAPAX@Z 0040c630 f i daqinfo.obj
 0001:0000b630       ?destroy@?$IteratorOwnerCommon@Vconst_iterator@?$QList@H@@@QtMetaTypePrivate@@SAXPAPAX@Z 0040c630 f i tcpserver.obj
 0001:0000b630       ?destroy@?$IteratorOwnerCommon@Vconst_iterator@?$QList@N@@@QtMetaTypePrivate@@SAXPAPAX@Z 0040c630 f i tcpserver.obj
 0001:0000b630       ?destroy@?$IteratorOwnerCommon@Vconst_iterator@?$QList@_N@@@QtMetaTypePrivate@@SAXPAPAX@Z 0040c630 f i daqinfo.obj
 0001:0000b650       ?destroySubTree@?$QMapNode@VQString@@VQVariant@@@@QAEXXZ 0040c650 f i tcpserver.obj
 0001:0000b690       ?detach@?$QMap@VQString@@VQVariant@@@@QAEXXZ 0040c690 f i tcpserver.obj
 0001:0000b720       ?detach_helper_grow@?$QList@VQVariant@@@@AAEPAUNode@1@HH@Z 0040c720 f i tcpserver.obj
 0001:0000b870       ?equal@?$IteratorOwnerCommon@Vconst_iterator@?$QList@E@@@QtMetaTypePrivate@@SA_NPBQAX0@Z 0040c870 f i moc_tcpclient.obj
 0001:0000b870       ?equal@?$IteratorOwnerCommon@Vconst_iterator@?$QList@M@@@QtMetaTypePrivate@@SA_NPBQAX0@Z 0040c870 f i daqinfo.obj
 0001:0000b870       ?equal@?$IteratorOwnerCommon@Vconst_iterator@?$QList@_N@@@QtMetaTypePrivate@@SA_NPBQAX0@Z 0040c870 f i daqinfo.obj
 0001:0000b870       ?equal@?$IteratorOwnerCommon@Vconst_iterator@?$QList@N@@@QtMetaTypePrivate@@SA_NPBQAX0@Z 0040c870 f i tcpserver.obj
 0001:0000b870       ?equal@?$IteratorOwnerCommon@Vconst_iterator@?$QList@H@@@QtMetaTypePrivate@@SA_NPBQAX0@Z 0040c870 f i tcpserver.obj
 0001:0000b890       ?findNode@?$QMapData@VQString@@VQVariant@@@@QBEPAU?$QMapNode@VQString@@VQVariant@@@@ABVQString@@@Z 0040c890 f i tcpserver.obj
 0001:0000b890       ?findNode@?$QMapData@VQString@@H@@QBEPAU?$QMapNode@VQString@@H@@ABVQString@@@Z 0040c890 f i maintab.obj
 0001:0000b8f0       ?impl@?$QSlotObject@P8tcpServerThread@@AEXVQString@@V?$QList@N@@@ZU?$List@VQString@@V?$QList@N@@@QtPrivate@@X@QtPrivate@@CAXHPAVQSlotObjectBase@2@PAVQObject@@PAPAXPA_N@Z 0040c8f0 f i tcpserver.obj
 0001:0000b8f0       ?impl@?$QSlotObject@P8tcpServer@@AEXVQString@@V?$QList@N@@@ZU?$List@VQString@@V?$QList@N@@@QtPrivate@@X@QtPrivate@@CAXHPAVQSlotObjectBase@2@PAVQObject@@PAPAXPA_N@Z 0040c8f0 f i main.obj
 0001:0000b960       ?incomingConnection@tcpServer@@EAEXH@Z 0040c960 f   tcpserver.obj
 0001:0000bef0       ?insert@?$QMap@VQString@@VQVariant@@@@QAE?AViterator@1@ABVQString@@ABVQVariant@@@Z 0040cef0 f i tcpserver.obj
 0001:0000bfb0       ?node_copy@?$QList@VQVariant@@@@AAEXPAUNode@1@00@Z 0040cfb0 f i tcpserver.obj
 0001:0000c060       ?node_destruct@?$QList@VQVariant@@@@AAEXPAUNode@1@0@Z 0040d060 f i tcpserver.obj
 0001:0000c0a0       ?qt_metatype_id@?$QMetaTypeId2@PAVWifiChParas@@@@SAHXZ 0040d0a0 f i tcpserver.obj
 0001:0000c0a0       ?qt_metatype_id@?$QMetaTypeIdHelper@PAVWifiChParas@@$00@QtPrivate@@SAHXZ 0040d0a0 f i daqinfo.obj
 0001:0000c1c0       ?qt_metatype_id@?$QMetaTypeIdHelper@PAVWifiFsParas@@$00@QtPrivate@@SAHXZ 0040d1c0 f i daqinfo.obj
 0001:0000c1c0       ?qt_metatype_id@?$QMetaTypeId2@PAVWifiFsParas@@@@SAHXZ 0040d1c0 f i tcpserver.obj
 0001:0000c2a0       ?qt_metatype_id@?$QMetaTypeId2@V?$QList@H@@@@SAHXZ 0040d2a0 f i tcpserver.obj
 0001:0000c480       ?qt_metatype_id@?$QMetaTypeId@V?$QList@N@@@@SAHXZ 0040d480 f i tcpserver.obj
 0001:0000c480       ?qt_metatype_id@?$QMetaTypeId2@V?$QList@N@@@@SAHXZ 0040d480 f i tcpserver.obj
 0001:0000c660       ?qt_metatype_id@?$QMetaTypeId2@VQSequentialIterableImpl@QtMetaTypePrivate@@@@SAHXZ 0040d660 f i tcpserver.obj
 0001:0000c740       ?setAlertSpanJunyue@tcpServer@@QAEXVQString@@HH@Z 0040d740 f   tcpserver.obj
 0001:0000c980       ?setAlerts@tcpServer@@QAEXVQString@@V?$QList@N@@@Z 0040d980 f   tcpserver.obj
 0001:0000cad0       ?showDisconnection@tcpServer@@AAEXHVQString@@@Z 0040dad0 f   tcpserver.obj
 0001:0000cd80       ?startListen@tcpServer@@QAEXVQString@@G@Z 0040dd80 f   tcpserver.obj
 0001:0000ce60       ??0tcpServerThread@@QAE@HPAVQObject@@@Z 0040de60 f   tcpserverthread.obj
 0001:0000d2f0       ??1?$QMap@VQString@@VQVariant@@@@QAE@XZ 0040e2f0 f i tcpserverthread.obj
 0001:0000d370       ??1tcpServerThread@@UAE@XZ 0040e370 f   tcpserverthread.obj
 0001:0000d590       ??_GtcpServerThread@@UAEPAXI@Z 0040e590 f i tcpserverthread.obj
 0001:0000d590       ??_EtcpServerThread@@UAEPAXI@Z 0040e590 f i tcpserverthread.obj
 0001:0000d5c0       ?aboutToStart@tcpServerThread@@QAEXVQString@@_N@Z 0040e5c0 f   tcpserverthread.obj
 0001:0000d6d0       ?adjustADC@tcpServerThread@@QAEXVQString@@H@Z 0040e6d0 f   tcpserverthread.obj
 0001:0000d830       ?adjustTime@tcpServerThread@@QAEXXZ 0040e830 f   tcpserverthread.obj
 0001:0000da70       ?applyNewNet@tcpServerThread@@QAEXVQString@@@Z 0040ea70 f   tcpserverthread.obj
 0001:0000daf0       ?changeTCPServer@tcpServerThread@@QAEXVQString@@0H0@Z 0040eaf0 f   tcpserverthread.obj
 0001:0000dc60       ?delDaq@tcpServerThread@@QAEXVQString@@@Z 0040ec60 f   tcpserverthread.obj
 0001:0000dcd0       ?disconnectToHost@tcpServerThread@@QAEXXZ 0040ecd0 f   tcpserverthread.obj
 0001:0000dcf0       ?finishUpdate@tcpServerThread@@QAEXXZ 0040ecf0 f   tcpserverthread.obj
 0001:0000de10       ?impl@?$QSlotObject@P8QAbstractSocket@@AEXXZU?$List@$$V@QtPrivate@@X@QtPrivate@@CAXHPAVQSlotObjectBase@2@PAVQObject@@PAPAXPA_N@Z 0040ee10 f i qasyntcpserver.obj
 0001:0000de10       ?impl@?$QSlotObject@P8tcpServerThread@@AEXXZU?$List@$$V@QtPrivate@@X@QtPrivate@@CAXHPAVQSlotObjectBase@2@PAVQObject@@PAPAXPA_N@Z 0040ee10 f i tcpserverthread.obj
 0001:0000de10       ?impl@?$QSlotObject@P8wsClient@@AEXXZU?$List@$$V@QtPrivate@@X@QtPrivate@@CAXHPAVQSlotObjectBase@2@PAVQObject@@PAPAXPA_N@Z 0040ee10 f i wsclient.obj
 0001:0000de10       ?impl@?$QSlotObject@P8QObject@@AEXXZU?$List@$$V@QtPrivate@@X@QtPrivate@@CAXHPAVQSlotObjectBase@2@PAVQObject@@PAPAXPA_N@Z 0040ee10 f i daqinfo.obj
 0001:0000de60       ?metaType@?$QVariantValueHelper@V?$QList@H@@@QtPrivate@@SA?AV?$QList@H@@ABVQVariant@@@Z 0040ee60 f i tcpserverthread.obj
 0001:0000df50       ?queryAP@tcpServerThread@@QAEXXZ 0040ef50 f   tcpserverthread.obj
 0001:0000df80       ?queryAlertJunyue@tcpServerThread@@QAEXXZ 0040ef80 f   tcpserverthread.obj
 0001:0000e030       ?queryAlertRules@tcpServerThread@@QAEXXZ 0040f030 f   tcpserverthread.obj
 0001:0000e0f0       ?queryAlertSpan@tcpServerThread@@QAEXXZ 0040f0f0 f   tcpserverthread.obj
 0001:0000e1a0       ?queryChParas@tcpServerThread@@QAEXXZ 0040f1a0 f   tcpserverthread.obj
 0001:0000e240       ?queryChStatus@tcpServerThread@@QAEXXZ 0040f240 f   tcpserverthread.obj
 0001:0000e2e0       ?queryFirmwareVer@tcpServerThread@@QAEXXZ 0040f2e0 f   tcpserverthread.obj
 0001:0000e380       ?queryFsMode@tcpServerThread@@QAEXXZ 0040f380 f   tcpserverthread.obj
 0001:0000e420       ?queryFsParas@tcpServerThread@@QAEXXZ 0040f420 f   tcpserverthread.obj
 0001:0000e4c0       ?queryNet@tcpServerThread@@QAEXXZ 0040f4c0 f   tcpserverthread.obj
 0001:0000e4f0       ?queryPowerMode@tcpServerThread@@QAEXXZ 0040f4f0 f   tcpserverthread.obj
 0001:0000e510       ?querySN@tcpServerThread@@QAEXXZ 0040f510 f   tcpserverthread.obj
 0001:0000e540       ?queryTCP@tcpServerThread@@QAEXXZ 0040f540 f   tcpserverthread.obj
 0001:0000e570       ?queryType@tcpServerThread@@QAEXXZ 0040f570 f   tcpserverthread.obj
 0001:0000e5a0       ?readSN@tcpServerThread@@AAEXHVQString@@0@Z 0040f5a0 f   tcpserverthread.obj
 0001:0000e7e0       ?recErrorInfo@tcpServerThread@@AAEXVQString@@@Z 0040f7e0 f   tcpserverthread.obj
 0001:0000e840       ?requireData@tcpServerThread@@QAEXH@Z 0040f840 f   tcpserverthread.obj
 0001:0000e910       ?run@tcpServerThread@@UAEXXZ 0040f910 f   tcpserverthread.obj
 0001:0000ef10       ?sendCommands@tcpServerThread@@QAEXVQString@@VQStringList@@V?$QList@VQVariant@@@@@Z 0040ff10 f   tcpserverthread.obj
 0001:0000f3e0       ?sendData@tcpServerThread@@AAEXVQByteArray@@@Z 004103e0 f   tcpserverthread.obj
 0001:0000f480       ?sendData@tcpServerThread@@AAEXVQByteArray@@H@Z 00410480 f   tcpserverthread.obj
 0001:0000f510       ?sendFirmData@tcpServerThread@@QAEXXZ 00410510 f   tcpserverthread.obj
 0001:0000f6f0       ?sendOver2@tcpServerThread@@AAEXXZ 004106f0 f   tcpserverthread.obj
 0001:0000f710       ?setAP@tcpServerThread@@QAEXVQString@@PAVWifiApParas@@@Z 00410710 f   tcpserverthread.obj
 0001:0000f880       ?setAlertJunyue@tcpServerThread@@QAEXVQString@@V?$QList@N@@@Z 00410880 f   tcpserverthread.obj
 0001:0000fa80       ?setAlertRule@tcpServerThread@@QAEXVQByteArray@@@Z 00410a80 f   tcpserverthread.obj
 0001:0000fb60       ?setAlertSpanJunyue@tcpServerThread@@QAEXVQString@@HH@Z 00410b60 f   tcpserverthread.obj
 0001:0000fc90       ?setChParas@tcpServerThread@@QAEXVQString@@PAVWifiChParas@@@Z 00410c90 f   tcpserverthread.obj
 0001:0000ff20       ?setChStatus@tcpServerThread@@QAEXVQString@@G@Z 00410f20 f   tcpserverthread.obj
 0001:00010020       ?setFsMode@tcpServerThread@@QAEXVQString@@H@Z 00411020 f   tcpserverthread.obj
 0001:00010110       ?setHeartSpan@tcpServerThread@@QAEXVQString@@H_N@Z 00411110 f   tcpserverthread.obj
 0001:000101e0       ?setNetParas@tcpServerThread@@QAEXVQString@@PAVWifiNetParas@@@Z 004111e0 f   tcpserverthread.obj
 0001:00010370       ?setPowerMode@tcpServerThread@@QAEXVQString@@EEEE@Z 00411370 f   tcpserverthread.obj
 0001:000104d0       ?setSN@tcpServerThread@@QAEXVQString@@0@Z 004114d0 f   tcpserverthread.obj
 0001:000106c0       ?setTCPserver@tcpServerThread@@QAEXVQString@@H@Z 004116c0 f   tcpserverthread.obj
 0001:00010800       ?setfsParas@tcpServerThread@@QAEXVQString@@PAVWifiFsParas@@@Z 00411800 f   tcpserverthread.obj
 0001:000109c0       ?startNow@tcpServerThread@@QAEXXZ 004119c0 f   tcpserverthread.obj
 0001:00010a80       ?stopByMe@tcpServerThread@@QAEXXZ 00411a80 f   tcpserverthread.obj
 0001:00010a90       ?stopNow@tcpServerThread@@QAEXXZ 00411a90 f   tcpserverthread.obj
 0001:00010ac0       ?sum@tcpServerThread@@AAEEVQByteArray@@@Z 00411ac0 f   tcpserverthread.obj
 0001:00010b80       ?tempGainAdjust@tcpServerThread@@QAEXVQString@@@Z 00411b80 f   tcpserverthread.obj
 0001:00010c70       ?tempZeroAdjust@tcpServerThread@@QAEXVQString@@@Z 00411c70 f   tcpserverthread.obj
 0001:00010d60       ?updateFirmware@tcpServerThread@@QAEXVQString@@@Z 00411d60 f   tcpserverthread.obj
 0001:00010f30       ??0virbValue@@QAE@PAVQObject@@@Z 00411f30 f   virbvalue.obj
 0001:00010f70       ??_GvirbValue@@UAEPAXI@Z   00411f70 f i virbvalue.obj
 0001:00010f70       ??_EvirbValue@@UAEPAXI@Z   00411f70 f i virbvalue.obj
 0001:00010fa0       ??0WifiApParas@@QAE@ABV0@@Z 00411fa0 f   wifiapparas.obj
 0001:00011000       ??0WifiApParas@@QAE@XZ     00412000 f   wifiapparas.obj
 0001:00011000       ??0WifiNetParas@@QAE@XZ    00412000 f   wifinetparas.obj
 0001:00011090       ??0wifiCharacterTest@@QAE@XZ 00412090 f   wificharactertest.obj
 0001:000110b0       ??0?$QList@VWifiSingleChannel@@@@QAE@ABV0@@Z 004120b0 f i wifichparas.obj
 0001:00011160       ??0WifiChParas@@QAE@ABV0@@Z 00412160 f   wifichparas.obj
 0001:00011200       ??0WifiChParas@@QAE@XZ     00412200 f   wifichparas.obj
 0001:00011260       ??1?$QList@VWifiSingleChannel@@@@QAE@XZ 00412260 f i wifichparas.obj
 0001:00011300       ??_GWifiChParas@@UAEPAXI@Z 00412300 f i wifichparas.obj
 0001:00011300       ??_EWifiChParas@@UAEPAXI@Z 00412300 f i wifichparas.obj
 0001:00011330       ??0WifiFsParas@@QAE@ABV0@@Z 00412330 f   wififsparas.obj
 0001:00011370       ??0WifiFsParas@@QAE@XZ     00412370 f   wififsparas.obj
 0001:00011390       ??0WifiNetParas@@QAE@ABV0@@Z 00412390 f   wifinetparas.obj
 0001:000113f0       ??0WifiSingleChannel@@QAE@ABV0@@Z 004123f0 f   wifisinglechannel.obj
 0001:00011410       ??0WifiSingleChannel@@QAE@XZ 00412410 f   wifisinglechannel.obj
 0001:00011430       ??0alertChJunyue@@QAE@PAVQWidget@@@Z 00412430 f   alertchjunyue.obj
 0001:000114fb       ??_EQDoubleSpinBox@@W7AEPAXI@Z 004124fb f i alertchjunyue.obj
 0001:00011503       ??_EQHBoxLayout@@W7AEPAXI@Z 00412503 f i alertchjunyue.obj
 0001:0001150b       ??_EQLabel@@W7AEPAXI@Z     0041250b f i alertchjunyue.obj
 0001:00011513       ??_EalertChJunyue@@W7AEPAXI@Z 00412513 f i alertchjunyue.obj
 0001:00011520       ??_GQDoubleSpinBox@@UAEPAXI@Z 00412520 f i alertchjunyue.obj
 0001:00011520       ??_EQDoubleSpinBox@@UAEPAXI@Z 00412520 f i alertchjunyue.obj
 0001:00011550       ??_EQHBoxLayout@@UAEPAXI@Z 00412550 f i alertchjunyue.obj
 0001:00011550       ??_GQHBoxLayout@@UAEPAXI@Z 00412550 f i alertchjunyue.obj
 0001:00011580       ??_GQLabel@@UAEPAXI@Z      00412580 f i alertchjunyue.obj
 0001:00011580       ??_EQLabel@@UAEPAXI@Z      00412580 f i alertchjunyue.obj
 0001:000115b0       ??_EalertChJunyue@@UAEPAXI@Z 004125b0 f i alertchjunyue.obj
 0001:000115b0       ??_GalertChJunyue@@UAEPAXI@Z 004125b0 f i alertchjunyue.obj
 0001:00011650       ?getValues@alertChJunyue@@QBE?AV?$QList@N@@XZ 00412650 f   alertchjunyue.obj
 0001:00011700       ?setupUi@Ui_alertChJunyue@@QAEXPAVQWidget@@@Z 00412700 f i alertchjunyue.obj
 0001:00011e60       ?updateName@alertChJunyue@@QAEXVQString@@@Z 00412e60 f   alertchjunyue.obj
 0001:00011e60       ?updateName@chControlAFD@@QAEXVQString@@@Z 00412e60 f   chcontrolafd.obj
 0001:00011ec0       ?updateParas@alertChJunyue@@QAEXV?$QList@N@@@Z 00412ec0 f   alertchjunyue.obj
 0001:00011fd0       ??0apDialog@@QAE@PAVQWidget@@@Z 00412fd0 f   apdialog.obj
 0001:00012080       ??1apDialog@@UAE@XZ        00413080 f   apdialog.obj
 0001:000120ae       ??_EQGridLayout@@W7AEPAXI@Z 004130ae f i apdialog.obj
 0001:000120b6       ??_EQLineEdit@@W7AEPAXI@Z  004130b6 f i apdialog.obj
 0001:000120be       ??_EQPushButton@@W7AEPAXI@Z 004130be f i apdialog.obj
 0001:000120c6       ??_EQVBoxLayout@@W7AEPAXI@Z 004130c6 f i apdialog.obj
 0001:000120ce       ??_EQWidget@@W7AEPAXI@Z    004130ce f i apdialog.obj
 0001:000120d6       ??_EapDialog@@W7AEPAXI@Z   004130d6 f i apdialog.obj
 0001:000120e0       ??_GQGridLayout@@UAEPAXI@Z 004130e0 f i apdialog.obj
 0001:000120e0       ??_EQGridLayout@@UAEPAXI@Z 004130e0 f i apdialog.obj
 0001:00012110       ??_EQLineEdit@@UAEPAXI@Z   00413110 f i apdialog.obj
 0001:00012110       ??_GQLineEdit@@UAEPAXI@Z   00413110 f i apdialog.obj
 0001:00012140       ??_EQPushButton@@UAEPAXI@Z 00413140 f i apdialog.obj
 0001:00012140       ??_GQPushButton@@UAEPAXI@Z 00413140 f i apdialog.obj
 0001:00012170       ??_EQSpacerItem@@UAEPAXI@Z 00413170 f i apdialog.obj
 0001:00012170       ??_GQSpacerItem@@UAEPAXI@Z 00413170 f i apdialog.obj
 0001:000121a0       ??_GQVBoxLayout@@UAEPAXI@Z 004131a0 f i apdialog.obj
 0001:000121a0       ??_EQVBoxLayout@@UAEPAXI@Z 004131a0 f i apdialog.obj
 0001:000121d0       ??_GQWidget@@UAEPAXI@Z     004131d0 f i apdialog.obj
 0001:000121d0       ??_EQWidget@@UAEPAXI@Z     004131d0 f i apdialog.obj
 0001:00012200       ??_EapDialog@@UAEPAXI@Z    00413200 f i apdialog.obj
 0001:00012200       ??_GapDialog@@UAEPAXI@Z    00413200 f i apdialog.obj
 0001:00012250       ?on_btnCancel_clicked@apDialog@@AAEXXZ 00413250 f   apdialog.obj
 0001:00012260       ?on_btnOK_clicked@apDialog@@AAEXXZ 00413260 f   apdialog.obj
 0001:000122f0       ?retranslateUi@Ui_apDialog@@QAEXPAVQDialog@@@Z 004132f0 f i apdialog.obj
 0001:00012530       ?setupUi@Ui_apDialog@@QAEXPAVQDialog@@@Z 00413530 f i apdialog.obj
 0001:00012cc0       ?updateAP@apDialog@@QAEXPAVWifiApParas@@@Z 00413cc0 f   apdialog.obj
 0001:00012cf0       ??0?$QVector@N@@QAE@ABV0@@Z 00413cf0 f i baseform2.obj
 0001:00012dc0       ??0baseForm2@@QAE@HHVQString@@PAV?$QVector@N@@PAVQWidget@@@Z 00413dc0 f   baseform2.obj
 0001:00012f91       ??_EbaseForm2@@W7AEPAXI@Z  00413f91 f i baseform2.obj
 0001:00012fa0       ??_EbaseForm2@@UAEPAXI@Z   00413fa0 f i baseform2.obj
 0001:00012fa0       ??_GbaseForm2@@UAEPAXI@Z   00413fa0 f i baseform2.obj
 0001:00013050       ?closeEvent@baseForm2@@MAEXPAVQCloseEvent@@@Z 00414050 f   baseform2.obj
 0001:00013080       ?setCh@baseForm2@@QAEXH@Z  00414080 f   baseform2.obj
 0001:00013120       ?setSN@baseForm2@@QAEXVQString@@@Z 00414120 f   baseform2.obj
 0001:00013240       ?setupUi@Ui_baseForm2@@QAEXPAVQDialog@@@Z 00414240 f i baseform2.obj
 0001:00013680       ?updateAutoWave@baseForm2@@QAEXHVQByteArray@@PAV?$QList@N@@@Z 00414680 f   baseform2.obj
 0001:00013890       ?updateWave@baseForm2@@QAEXPAV?$QVector@N@@@Z 00414890 f   baseform2.obj
 0001:00013bb0       ??0characterForm@@QAE@HHVQString@@PAVQWidget@@@Z 00414bb0 f   characterform.obj
 0001:000140ba       ??_EQTableWidget@@W7AEPAXI@Z 004150ba f i characterform.obj
 0001:000140d0       ??_EQTableWidgetItem@@UAEPAXI@Z 004150d0 f i characterform.obj
 0001:00014171       ??_EcharacterForm@@W7AEPAXI@Z 00415171 f i characterform.obj
 0001:00014180       ??_GQTableWidget@@UAEPAXI@Z 00415180 f i characterform.obj
 0001:00014180       ??_EQTableWidget@@UAEPAXI@Z 00415180 f i characterform.obj
 0001:000141b0       ??_GcharacterForm@@UAEPAXI@Z 004151b0 f i characterform.obj
 0001:000141b0       ??_EcharacterForm@@UAEPAXI@Z 004151b0 f i characterform.obj
 0001:00014260       ??_TQTableWidgetItem@@QAEXXZ 00415260 f i characterform.obj
 0001:00014280       ?setSN@characterForm@@QAEXVQString@@@Z 00415280 f   characterform.obj
 0001:00014330       ?setType@characterForm@@QAEXH@Z 00415330 f   characterform.obj
 0001:00014800       ?setupUi@Ui_characterForm@@QAEXPAVQDialog@@@Z 00415800 f i characterform.obj
 0001:00014eb0       ?updateCharacterJunyue@characterForm@@QAEXVQString@@V?$QList@M@@V?$QList@_N@@@Z 00415eb0 f   characterform.obj
 0001:000155c0       ?updateTemp@characterForm@@QAEXPANH@Z 004165c0 f   characterform.obj
 0001:00015630       ?updateVirb@characterForm@@QAEXPAV?$QList@PAVvirbValue@@@@@Z 00416630 f   characterform.obj
 0001:000157e0       ??0chControlAFD@@QAE@PAVQWidget@@@Z 004167e0 f   chcontrolafd.obj
 0001:00015881       ??_EQCheckBox@@W7AEPAXI@Z  00416881 f i chcontrolafd.obj
 0001:00015889       ??_EQComboBox@@W7AEPAXI@Z  00416889 f i chcontrolafd.obj
 0001:00015891       ??_EchControlAFD@@W7AEPAXI@Z 00416891 f i chcontrolafd.obj
 0001:000158a0       ??_GQCheckBox@@UAEPAXI@Z   004168a0 f i chcontrolafd.obj
 0001:000158a0       ??_EQCheckBox@@UAEPAXI@Z   004168a0 f i chcontrolafd.obj
 0001:000158d0       ??_EQComboBox@@UAEPAXI@Z   004168d0 f i chcontrolafd.obj
 0001:000158d0       ??_GQComboBox@@UAEPAXI@Z   004168d0 f i chcontrolafd.obj
 0001:00015900       ??_EchControlAFD@@UAEPAXI@Z 00416900 f i chcontrolafd.obj
 0001:00015900       ??_GchControlAFD@@UAEPAXI@Z 00416900 f i chcontrolafd.obj
 0001:00015940       ?getParas@chControlAFD@@QAE?AVWifiSingleChannel@@XZ 00416940 f   chcontrolafd.obj
 0001:00015a00       ?getValidate@chControlAFD@@QAE_NXZ 00416a00 f   chcontrolafd.obj
 0001:00015a10       ?retranslateUi@Ui_chControlAFD@@QAEXPAVQWidget@@@Z 00416a10 f i chcontrolafd.obj
 0001:00015d30       ?setupUi@Ui_chControlAFD@@QAEXPAVQWidget@@@Z 00416d30 f i chcontrolafd.obj
 0001:000166c0       ?updateParas@chControlAFD@@QAEXVWifiSingleChannel@@@Z 004176c0 f   chcontrolafd.obj
 0001:00016790       ?updateValidate@chControlAFD@@QAEX_N@Z 00417790 f   chcontrolafd.obj
 0001:000167a0       ??$connect@P8QAction@@AEX_N@ZP8daqInfo@@AEXXZ@QObject@@SA?AVConnection@QMetaObject@@PBVQAction@@P83@AEX_N@ZPBVdaqInfo@@P84@AEXXZW4ConnectionType@Qt@@@Z 004177a0 f i daqinfo.obj
 0001:00016860       ??$connect@P8settingWifiJunyue@@AEXVQString@@@ZP8daqInfo@@AEX0@Z@QObject@@SA?AVConnection@QMetaObject@@PBVsettingWifiJunyue@@P83@AEXVQString@@@ZPBVdaqInfo@@P85@AEX1@ZW4ConnectionType@Qt@@@Z 00417860 f i daqinfo.obj
 0001:00016920       ??$connect@P8settingWifiJunyue@@AEXVQString@@PAVWifiChParas@@@ZP8daqInfo@@AEX01@Z@QObject@@SA?AVConnection@QMetaObject@@PBVsettingWifiJunyue@@P83@AEXVQString@@PAVWifiChParas@@@ZPBVdaqInfo@@P86@AEX12@ZW4ConnectionType@Qt@@@Z 00417920 f i daqinfo.obj
 0001:00016a30       ??$connect@P8settingWifiJunyue@@AEXVQString@@PAVWifiFsParas@@@ZP8daqInfo@@AEX01@Z@QObject@@SA?AVConnection@QMetaObject@@PBVsettingWifiJunyue@@P83@AEXVQString@@PAVWifiFsParas@@@ZPBVdaqInfo@@P86@AEX12@ZW4ConnectionType@Qt@@@Z 00417a30 f i daqinfo.obj
 0001:00016b40       ??0daqInfo@@QAE@PAV?$QVector@N@@_NPAVQWidget@@@Z 00417b40 f   daqinfo.obj
 0001:00017761       ??_EQMenu@@W7AEPAXI@Z      00418761 f i daqinfo.obj
 0001:00017769       ??_EdaqInfo@@W7AEPAXI@Z    00418769 f i daqinfo.obj
 0001:00017780       ??_GQAction@@UAEPAXI@Z     00418780 f i daqinfo.obj
 0001:00017780       ??_EQAction@@UAEPAXI@Z     00418780 f i daqinfo.obj
 0001:000177b0       ??_EQMenu@@UAEPAXI@Z       004187b0 f i daqinfo.obj
 0001:000177b0       ??_GQMenu@@UAEPAXI@Z       004187b0 f i daqinfo.obj
 0001:000177e0       ??_GQThread@@UAEPAXI@Z     004187e0 f i daqinfo.obj
 0001:000177e0       ??_EQThread@@UAEPAXI@Z     004187e0 f i daqinfo.obj
 0001:00017810       ??_GdaqInfo@@UAEPAXI@Z     00418810 f i daqinfo.obj
 0001:00017810       ??_EdaqInfo@@UAEPAXI@Z     00418810 f i daqinfo.obj
 0001:00017950       ?changeLabelJunyue@daqInfo@@QAEXVQString@@00@Z 00418950 f   daqinfo.obj
 0001:000179e0       ?changeTcpAvilablity@daqInfo@@QAEX_N@Z 004189e0 f   daqinfo.obj
 0001:000179f0       ?contextMenuEvent@daqInfo@@MAEXPAVQContextMenuEvent@@@Z 004189f0 f   daqinfo.obj
 0001:00017a20       ?convert@?$ConverterFunctor@V?$QList@M@@VQSequentialIterableImpl@QtMetaTypePrivate@@U?$QSequentialIterableConvertFunctor@V?$QList@M@@@3@@QtPrivate@@SA_NPBUAbstractConverterFunction@2@PBXPAX@Z 00418a20 f i daqinfo.obj
 0001:00017a90       ?convert@?$ConverterFunctor@V?$QList@_N@@VQSequentialIterableImpl@QtMetaTypePrivate@@U?$QSequentialIterableConvertFunctor@V?$QList@_N@@@3@@QtPrivate@@SA_NPBUAbstractConverterFunction@2@PBXPAX@Z 00418a90 f i daqinfo.obj
 0001:00017b00       ?getAddress@daqInfo@@QBE?AVQString@@XZ 00418b00 f   daqinfo.obj
 0001:00017b20       ?getModel@daqInfo@@QBE?AVQString@@XZ 00418b20 f   daqinfo.obj
 0001:00017b40       ?getSN@daqInfo@@QBE?AVQString@@XZ 00418b40 f   daqinfo.obj
 0001:00017b60       ?getVersion@daqInfo@@QBE?AVQString@@XZ 00418b60 f   daqinfo.obj
 0001:00017b80       ?impl@?$QSlotObject@P8daqInfo@@AEXVQString@@00@ZU?$List@VQString@@V1@V1@@QtPrivate@@X@QtPrivate@@CAXHPAVQSlotObjectBase@2@PAVQObject@@PAPAXPA_N@Z 00418b80 f i daqinfo.obj
 0001:00017c40       ?impl@?$QSlotObject@P8mainTab@@AEXVQString@@0@ZU?$List@VQString@@V1@@QtPrivate@@X@QtPrivate@@CAXHPAVQSlotObjectBase@2@PAVQObject@@PAPAXPA_N@Z 00418c40 f i maintab.obj
 0001:00017c40       ?impl@?$QSlotObject@P8CMainWindow@@AEXVQString@@0@ZU?$List@VQString@@V1@@QtPrivate@@X@QtPrivate@@CAXHPAVQSlotObjectBase@2@PAVQObject@@PAPAXPA_N@Z 00418c40 f i main.obj
 0001:00017c40       ?impl@?$QSlotObject@P8daqInfo@@AEXVQString@@0@ZU?$List@VQString@@V1@@QtPrivate@@X@QtPrivate@@CAXHPAVQSlotObjectBase@2@PAVQObject@@PAPAXPA_N@Z 00418c40 f i daqinfo.obj
 0001:00017cf0       ?impl@?$QSlotObject@P8daqInfo@@AEXVQString@@0H0@ZU?$List@VQString@@V1@HV1@@QtPrivate@@X@QtPrivate@@CAXHPAVQSlotObjectBase@2@PAVQObject@@PAPAXPA_N@Z 00418cf0 f i daqinfo.obj
 0001:00017cf0       ?impl@?$QSlotObject@P8mainTab@@AEXVQString@@0H0@ZU?$List@VQString@@V1@HV1@@QtPrivate@@X@QtPrivate@@CAXHPAVQSlotObjectBase@2@PAVQObject@@PAPAXPA_N@Z 00418cf0 f i maintab.obj
 0001:00017cf0       ?impl@?$QSlotObject@P8CMainWindow@@AEXVQString@@0H0@ZU?$List@VQString@@V1@HV1@@QtPrivate@@X@QtPrivate@@CAXHPAVQSlotObjectBase@2@PAVQObject@@PAPAXPA_N@Z 00418cf0 f i mainwindow.obj
 0001:00017db0       ?impl@?$QSlotObject@P8daqInfo@@AEXVQString@@@ZU?$List@VQString@@@QtPrivate@@X@QtPrivate@@CAXHPAVQSlotObjectBase@2@PAVQObject@@PAPAXPA_N@Z 00418db0 f i daqinfo.obj
 0001:00017db0       ?impl@?$QSlotObject@P8mainTab@@AEXVQString@@@ZU?$List@VQString@@@QtPrivate@@X@QtPrivate@@CAXHPAVQSlotObjectBase@2@PAVQObject@@PAPAXPA_N@Z 00418db0 f i maintab.obj
 0001:00017db0       ?impl@?$QSlotObject@P8CMainWindow@@AEXVQString@@@ZU?$List@VQString@@@QtPrivate@@X@QtPrivate@@CAXHPAVQSlotObjectBase@2@PAVQObject@@PAPAXPA_N@Z 00418db0 f i main.obj
 0001:00017e50       ?impl@?$QSlotObject@P8CMainWindow@@AEXVQString@@EEEE@ZU?$List@VQString@@EEEE@QtPrivate@@X@QtPrivate@@CAXHPAVQSlotObjectBase@2@PAVQObject@@PAPAXPA_N@Z 00418e50 f i main.obj
 0001:00017e50       ?impl@?$QSlotObject@P8mainTab@@AEXVQString@@EEEE@ZU?$List@VQString@@EEEE@QtPrivate@@X@QtPrivate@@CAXHPAVQSlotObjectBase@2@PAVQObject@@PAPAXPA_N@Z 00418e50 f i maintab.obj
 0001:00017e50       ?impl@?$QSlotObject@P8daqInfo@@AEXVQString@@EEEE@ZU?$List@VQString@@EEEE@QtPrivate@@X@QtPrivate@@CAXHPAVQSlotObjectBase@2@PAVQObject@@PAPAXPA_N@Z 00418e50 f i daqinfo.obj
 0001:00017f10       ?impl@?$QSlotObject@P8CMainWindow@@AEXVQString@@G@ZU?$List@VQString@@G@QtPrivate@@X@QtPrivate@@CAXHPAVQSlotObjectBase@2@PAVQObject@@PAPAXPA_N@Z 00418f10 f i main.obj
 0001:00017f10       ?impl@?$QSlotObject@P8daqInfo@@AEXVQString@@G@ZU?$List@VQString@@G@QtPrivate@@X@QtPrivate@@CAXHPAVQSlotObjectBase@2@PAVQObject@@PAPAXPA_N@Z 00418f10 f i daqinfo.obj
 0001:00017f10       ?impl@?$QSlotObject@P8mainTab@@AEXVQString@@G@ZU?$List@VQString@@G@QtPrivate@@X@QtPrivate@@CAXHPAVQSlotObjectBase@2@PAVQObject@@PAPAXPA_N@Z 00418f10 f i maintab.obj
 0001:00017fb0       ?impl@?$QSlotObject@P8daqInfo@@AEXVQString@@PAVWifiApParas@@@ZU?$List@VQString@@PAVWifiApParas@@@QtPrivate@@X@QtPrivate@@CAXHPAVQSlotObjectBase@2@PAVQObject@@PAPAXPA_N@Z 00418fb0 f i daqinfo.obj
 0001:00017fb0       ?impl@?$QSlotObject@P8CMainWindow@@AEXVQString@@PAV?$QList@PAVvirbValue@@@@@ZU?$List@VQString@@PAV?$QList@PAVvirbValue@@@@@QtPrivate@@X@QtPrivate@@CAXHPAVQSlotObjectBase@2@PAVQObject@@PAPAXPA_N@Z 00418fb0 f i main.obj
 0001:00017fb0       ?impl@?$QSlotObject@P8daqInfo@@AEXVQString@@PAVWifiNetParas@@@ZU?$List@VQString@@PAVWifiNetParas@@@QtPrivate@@X@QtPrivate@@CAXHPAVQSlotObjectBase@2@PAVQObject@@PAPAXPA_N@Z 00418fb0 f i daqinfo.obj
 0001:00017fb0       ?impl@?$QSlotObject@P8CMainWindow@@AEXVQString@@H@ZU?$List@VQString@@H@QtPrivate@@X@QtPrivate@@CAXHPAVQSlotObjectBase@2@PAVQObject@@PAPAXPA_N@Z 00418fb0 f i main.obj
 0001:00017fb0       ?impl@?$QSlotObject@P8daqInfo@@AEXVQString@@PAVWifiFsParas@@@ZU?$List@VQString@@PAVWifiFsParas@@@QtPrivate@@X@QtPrivate@@CAXHPAVQSlotObjectBase@2@PAVQObject@@PAPAXPA_N@Z 00418fb0 f i daqinfo.obj
 0001:00017fb0       ?impl@?$QSlotObject@P8CMainWindow@@AEXVQString@@PAVWifiFsParas@@@ZU?$List@VQString@@PAVWifiFsParas@@@QtPrivate@@X@QtPrivate@@CAXHPAVQSlotObjectBase@2@PAVQObject@@PAPAXPA_N@Z 00418fb0 f i mainwindow.obj
 0001:00017fb0       ?impl@?$QSlotObject@P8mainTab@@AEXVQString@@PAVWifiNetParas@@@ZU?$List@VQString@@PAVWifiNetParas@@@QtPrivate@@X@QtPrivate@@CAXHPAVQSlotObjectBase@2@PAVQObject@@PAPAXPA_N@Z 00418fb0 f i maintab.obj
 0001:00017fb0       ?impl@?$QSlotObject@P8mainTab@@AEXVQString@@PAV?$QList@PAVvirbValue@@@@@ZU?$List@VQString@@PAV?$QList@PAVvirbValue@@@@@QtPrivate@@X@QtPrivate@@CAXHPAVQSlotObjectBase@2@PAVQObject@@PAPAXPA_N@Z 00418fb0 f i mainwindow.obj
 0001:00017fb0       ?impl@?$QSlotObject@P8daqInfo@@AEXVQString@@H@ZU?$List@VQString@@H@QtPrivate@@X@QtPrivate@@CAXHPAVQSlotObjectBase@2@PAVQObject@@PAPAXPA_N@Z 00418fb0 f i daqinfo.obj
 0001:00017fb0       ?impl@?$QSlotObject@P8CMainWindow@@AEXVQString@@PAVWifiApParas@@@ZU?$List@VQString@@PAVWifiApParas@@@QtPrivate@@X@QtPrivate@@CAXHPAVQSlotObjectBase@2@PAVQObject@@PAPAXPA_N@Z 00418fb0 f i mainwindow.obj
 0001:00017fb0       ?impl@?$QSlotObject@P8mainTab@@AEXVQString@@PAV?$QVector@N@@@ZU?$List@VQString@@PAV?$QVector@N@@@QtPrivate@@X@QtPrivate@@CAXHPAVQSlotObjectBase@2@PAVQObject@@PAPAXPA_N@Z 00418fb0 f i mainwindow.obj
 0001:00017fb0       ?impl@?$QSlotObject@P8daqInfo@@AEXVQString@@PAVWifiChParas@@@ZU?$List@VQString@@PAVWifiChParas@@@QtPrivate@@X@QtPrivate@@CAXHPAVQSlotObjectBase@2@PAVQObject@@PAPAXPA_N@Z 00418fb0 f i daqinfo.obj
 0001:00017fb0       ?impl@?$QSlotObject@P8mainTab@@AEXVQString@@PAVWifiApParas@@@ZU?$List@VQString@@PAVWifiApParas@@@QtPrivate@@X@QtPrivate@@CAXHPAVQSlotObjectBase@2@PAVQObject@@PAPAXPA_N@Z 00418fb0 f i maintab.obj
 0001:00017fb0       ?impl@?$QSlotObject@P8CMainWindow@@AEXVQString@@PAV?$QVector@N@@@ZU?$List@VQString@@PAV?$QVector@N@@@QtPrivate@@X@QtPrivate@@CAXHPAVQSlotObjectBase@2@PAVQObject@@PAPAXPA_N@Z 00418fb0 f i main.obj
 0001:00017fb0       ?impl@?$QSlotObject@P8mainTab@@AEXVQString@@PAVWifiFsParas@@@ZU?$List@VQString@@PAVWifiFsParas@@@QtPrivate@@X@QtPrivate@@CAXHPAVQSlotObjectBase@2@PAVQObject@@PAPAXPA_N@Z 00418fb0 f i maintab.obj
 0001:00017fb0       ?impl@?$QSlotObject@P8CMainWindow@@AEXVQString@@PAVWifiNetParas@@@ZU?$List@VQString@@PAVWifiNetParas@@@QtPrivate@@X@QtPrivate@@CAXHPAVQSlotObjectBase@2@PAVQObject@@PAPAXPA_N@Z 00418fb0 f i mainwindow.obj
 0001:00017fb0       ?impl@?$QSlotObject@P8mainTab@@AEXVQString@@PAVWifiChParas@@@ZU?$List@VQString@@PAVWifiChParas@@@QtPrivate@@X@QtPrivate@@CAXHPAVQSlotObjectBase@2@PAVQObject@@PAPAXPA_N@Z 00418fb0 f i maintab.obj
 0001:00017fb0       ?impl@?$QSlotObject@P8CMainWindow@@AEXVQString@@PAVWifiChParas@@@ZU?$List@VQString@@PAVWifiChParas@@@QtPrivate@@X@QtPrivate@@CAXHPAVQSlotObjectBase@2@PAVQObject@@PAPAXPA_N@Z 00418fb0 f i mainwindow.obj
 0001:00017fb0       ?impl@?$QSlotObject@P8mainTab@@AEXVQString@@H@ZU?$List@VQString@@H@QtPrivate@@X@QtPrivate@@CAXHPAVQSlotObjectBase@2@PAVQObject@@PAPAXPA_N@Z 00418fb0 f i maintab.obj
 0001:00018050       ?impl@?$QSlotObject@P8mainTab@@AEXVQString@@PANH@ZU?$List@VQString@@PANH@QtPrivate@@X@QtPrivate@@CAXHPAVQSlotObjectBase@2@PAVQObject@@PAPAXPA_N@Z 00419050 f i mainwindow.obj
 0001:00018050       ?impl@?$QSlotObject@P8CMainWindow@@AEXVQString@@HH@ZU?$List@VQString@@HH@QtPrivate@@X@QtPrivate@@CAXHPAVQSlotObjectBase@2@PAVQObject@@PAPAXPA_N@Z 00419050 f i main.obj
 0001:00018050       ?impl@?$QSlotObject@P8daqInfo@@AEXVQString@@HH@ZU?$List@VQString@@HH@QtPrivate@@X@QtPrivate@@CAXHPAVQSlotObjectBase@2@PAVQObject@@PAPAXPA_N@Z 00419050 f i daqinfo.obj
 0001:00018050       ?impl@?$QSlotObject@P8CMainWindow@@AEXVQString@@PANH@ZU?$List@VQString@@PANH@QtPrivate@@X@QtPrivate@@CAXHPAVQSlotObjectBase@2@PAVQObject@@PAPAXPA_N@Z 00419050 f i main.obj
 0001:00018050       ?impl@?$QSlotObject@P8mainTab@@AEXVQString@@HH@ZU?$List@VQString@@HH@QtPrivate@@X@QtPrivate@@CAXHPAVQSlotObjectBase@2@PAVQObject@@PAPAXPA_N@Z 00419050 f i maintab.obj
 0001:000180f0       ?impl@?$QSlotObject@P8CMainWindow@@AEXVQString@@H_N@ZU?$List@VQString@@H_N@QtPrivate@@X@QtPrivate@@CAXHPAVQSlotObjectBase@2@PAVQObject@@PAPAXPA_N@Z 004190f0 f i mainwindow.obj
 0001:000180f0       ?impl@?$QSlotObject@P8daqInfo@@AEXVQString@@H_N@ZU?$List@VQString@@H_N@QtPrivate@@X@QtPrivate@@CAXHPAVQSlotObjectBase@2@PAVQObject@@PAPAXPA_N@Z 004190f0 f i daqinfo.obj
 0001:000180f0       ?impl@?$QSlotObject@P8mainTab@@AEXVQString@@H_N@ZU?$List@VQString@@H_N@QtPrivate@@X@QtPrivate@@CAXHPAVQSlotObjectBase@2@PAVQObject@@PAPAXPA_N@Z 004190f0 f i maintab.obj
 0001:00018190       ?impl@?$QSlotObject@P8mainTab@@AEXVQString@@V?$QList@N@@@ZU?$List@VQString@@V?$QList@N@@@QtPrivate@@X@QtPrivate@@CAXHPAVQSlotObjectBase@2@PAVQObject@@PAPAXPA_N@Z 00419190 f i maintab.obj
 0001:00018190       ?impl@?$QSlotObject@P8CMainWindow@@AEXVQString@@V?$QList@N@@@ZU?$List@VQString@@V?$QList@N@@@QtPrivate@@X@QtPrivate@@CAXHPAVQSlotObjectBase@2@PAVQObject@@PAPAXPA_N@Z 00419190 f i mainwindow.obj
 0001:00018190       ?impl@?$QSlotObject@P8daqInfo@@AEXVQString@@V?$QList@N@@@ZU?$List@VQString@@V?$QList@N@@@QtPrivate@@X@QtPrivate@@CAXHPAVQSlotObjectBase@2@PAVQObject@@PAPAXPA_N@Z 00419190 f i daqinfo.obj
 0001:00018240       ?impl@?$QSlotObject@P8daqInfo@@AEXXZU?$List@$$V@QtPrivate@@X@QtPrivate@@CAXHPAVQSlotObjectBase@2@PAVQObject@@PAPAXPA_N@Z 00419240 f i daqinfo.obj
 0001:00018240       ?impl@?$QSlotObject@P8mainTab@@AEXXZU?$List@$$V@QtPrivate@@X@QtPrivate@@CAXHPAVQSlotObjectBase@2@PAVQObject@@PAPAXPA_N@Z 00419240 f i maintab.obj
 0001:00018240       ?impl@?$QSlotObject@P8CMainWindow@@AEXXZU?$List@$$V@QtPrivate@@X@QtPrivate@@CAXHPAVQSlotObjectBase@2@PAVQObject@@PAPAXPA_N@Z 00419240 f i mainwindow.obj
 0001:000182b0       ?impl@?$QSlotObject@P8tcpClient@@AEXVQString@@0V?$QList@M@@V?$QList@_N@@@ZU?$List@VQString@@V1@V?$QList@M@@V?$QList@_N@@@QtPrivate@@X@QtPrivate@@CAXHPAVQSlotObjectBase@2@PAVQObject@@PAPAXPA_N@Z 004192b0 f i daqinfo.obj
 0001:000183a0       ?impl@?$QSlotObject@P8tcpServer@@AEXVQString@@PAVWifiFsParas@@@ZU?$List@VQString@@PAVWifiFsParas@@@QtPrivate@@X@QtPrivate@@CAXHPAVQSlotObjectBase@2@PAVQObject@@PAPAXPA_N@Z 004193a0 f i main.obj
 0001:000183a0       ?impl@?$QSlotObject@P8tcpServer@@AEXVQString@@PAVWifiChParas@@@ZU?$List@VQString@@PAVWifiChParas@@@QtPrivate@@X@QtPrivate@@CAXHPAVQSlotObjectBase@2@PAVQObject@@PAPAXPA_N@Z 004193a0 f i main.obj
 0001:000183a0       ?impl@?$QSlotObject@P8tcpServer@@AEXVQString@@PAVWifiApParas@@@ZU?$List@VQString@@PAVWifiApParas@@@QtPrivate@@X@QtPrivate@@CAXHPAVQSlotObjectBase@2@PAVQObject@@PAPAXPA_N@Z 004193a0 f i main.obj
 0001:000183a0       ?impl@?$QSlotObject@P8tcpServer@@AEXVQString@@PAVWifiNetParas@@@ZU?$List@VQString@@PAVWifiNetParas@@@QtPrivate@@X@QtPrivate@@CAXHPAVQSlotObjectBase@2@PAVQObject@@PAPAXPA_N@Z 004193a0 f i main.obj
 0001:000183a0       ?impl@?$QSlotObject@P8tcpClient@@AEXVQString@@H@ZU?$List@VQString@@H@QtPrivate@@X@QtPrivate@@CAXHPAVQSlotObjectBase@2@PAVQObject@@PAPAXPA_N@Z 004193a0 f i daqinfo.obj
 0001:000183a0       ?impl@?$QSlotObject@P8tcpServer@@AEXVQString@@H@ZU?$List@VQString@@H@QtPrivate@@X@QtPrivate@@CAXHPAVQSlotObjectBase@2@PAVQObject@@PAPAXPA_N@Z 004193a0 f i main.obj
 0001:00018410       ?impl@?$QSlotObject@P8tcpClient@@AEXVQString@@VQByteArray@@HPAV?$QList@N@@@ZU?$List@VQString@@VQByteArray@@HPAV?$QList@N@@@QtPrivate@@X@QtPrivate@@CAXHPAVQSlotObjectBase@2@PAVQObject@@PAPAXPA_N@Z 00419410 f i daqinfo.obj
 0001:00018490       ?mouseReleaseEvent@daqInfo@@MAEXPAVQMouseEvent@@@Z 00419490 f   daqinfo.obj
 0001:000184a0       ?qt_metatype_id@?$QMetaTypeId2@V?$QList@M@@@@SAHXZ 004194a0 f i daqinfo.obj
 0001:00018680       ?qt_metatype_id@?$QMetaTypeId2@V?$QList@_N@@@@SAHXZ 00419680 f i daqinfo.obj
 0001:00018860       ?retranslateUi@Ui_daqInfo@@QAEXPAVQWidget@@@Z 00419860 f i daqinfo.obj
 0001:00018d40       ?setAddress@daqInfo@@QAEXVQString@@@Z 00419d40 f   daqinfo.obj
 0001:00018d60       ?setModel@daqInfo@@QAEXVQString@@@Z 00419d60 f   daqinfo.obj
 0001:00018e00       ?setSN@daqInfo@@QAEXVQString@@@Z 00419e00 f   daqinfo.obj
 0001:00018eb0       ?setVersion@daqInfo@@QAEXVQString@@@Z 00419eb0 f   daqinfo.obj
 0001:00018f20       ?setupUi@Ui_daqInfo@@QAEXPAVQWidget@@@Z 00419f20 f i daqinfo.obj
 0001:00019fd0       ?showSettings@daqInfo@@QAEXXZ 0041afd0 f   daqinfo.obj
 0001:00019ff0       ?startStop@daqInfo@@AAEXXZ 0041aff0 f   daqinfo.obj
 0001:0001a0f0       ?updateAPName@daqInfo@@QAEXVQString@@@Z 0041b0f0 f   daqinfo.obj
 0001:0001a150       ?updateAlertJunyue@daqInfo@@QAEXV?$QList@M@@@Z 0041b150 f   daqinfo.obj
 0001:0001a1e0       ?updateAlertTimeSpan@daqInfo@@QAEXHH@Z 0041b1e0 f   daqinfo.obj
 0001:0001a1f0       ?updateAutoSpanFromWs@daqInfo@@QAEXH@Z 0041b1f0 f   daqinfo.obj
 0001:0001a200       ?updateAutoWave@daqInfo@@QAEXHVQByteArray@@PAV?$QList@N@@@Z 0041b200 f   daqinfo.obj
 0001:0001a2a0       ?updateChParas@daqInfo@@QAEXVWifiChParas@@@Z 0041b2a0 f   daqinfo.obj
 0001:0001a300       ?updateChStatus@daqInfo@@QAEXG@Z 0041b300 f   daqinfo.obj
 0001:0001a310       ?updateChannelFSFromWs@daqInfo@@QAEXV?$QList@N@@@Z 0041b310 f   daqinfo.obj
 0001:0001a370       ?updateCharacters@daqInfo@@QAEXV?$QVector@N@@@Z 0041b370 f   daqinfo.obj
 0001:0001a3b0       ?updateCharactersJunyue@daqInfo@@QAEXVQString@@V?$QList@M@@V?$QList@_N@@@Z 0041b3b0 f   daqinfo.obj
 0001:0001a4e0       ?updateFsMode@daqInfo@@QAEXH@Z 0041b4e0 f   daqinfo.obj
 0001:0001a4f0       ?updateFsParas@daqInfo@@QAEXVWifiFsParas@@@Z 0041b4f0 f   daqinfo.obj
 0001:0001a510       ?updateInfo@daqInfo@@QAEXXZ 0041b510 f   daqinfo.obj
 0001:0001a550       ?updateNetParas@daqInfo@@QAEXVWifiNetParas@@@Z 0041b550 f   daqinfo.obj
 0001:0001a5c0       ?updatePowerMode2@daqInfo@@QAEXEEEE@Z 0041b5c0 f   daqinfo.obj
 0001:0001a5d0       ?updatePowerMode@daqInfo@@QAEXEEE@Z 0041b5d0 f   daqinfo.obj
 0001:0001a5e0       ?updateStatus@daqInfo@@QAEXH@Z 0041b5e0 f   daqinfo.obj
 0001:0001a650       ?updateTCPserver@daqInfo@@QAEXVQString@@H@Z 0041b650 f   daqinfo.obj
 0001:0001a6b0       ?updateTcpServerForCharacter@daqInfo@@QAEXVQString@@H@Z 0041b6b0 f   daqinfo.obj
 0001:0001a710       ?updateTemperature@daqInfo@@QAEXPANH@Z 0041b710 f   daqinfo.obj
 0001:0001a940       ?updateVib@daqInfo@@QAEXPAV?$QList@PAVvirbValue@@@@@Z 0041b940 f   daqinfo.obj
 0001:0001a950       ?updateWave@daqInfo@@QAEXPAV?$QVector@N@@@Z 0041b950 f   daqinfo.obj
 0001:0001a960       ?viewAutoWave@daqInfo@@QAEXXZ 0041b960 f   daqinfo.obj
 0001:0001a980       ?viewCharacter@daqInfo@@QAEXXZ 0041b980 f   daqinfo.obj
 0001:0001a9a0       ?viewWave@daqInfo@@QAEXXZ  0041b9a0 f   daqinfo.obj
 0001:0001ab60       _http_parser_execute       0041bb60 f   http_parser.obj
 0001:0001cf50       _http_parser_init          0041df50 f   http_parser.obj
 0001:0001cfa0       _http_parser_parse_url     0041dfa0 f   http_parser.obj
 0001:0001d240       _http_should_keep_alive    0041e240 f   http_parser.obj
 0001:0001d510       ??$?0VQWaitCondition@@P6AXPAV0@@Z@?$QSharedPointer@VQWaitCondition@@@@QAE@PAVQWaitCondition@@P6AX0@Z@Z 0041e510 f i qasynhttpsocket.obj
 0001:0001d570       ??0?$QSharedPointer@VQWaitCondition@@@@QAE@ABV0@@Z 0041e570 f i qasynhttpsocket.obj
 0001:0001d5a0       ??0QAsynHttpSocket@@QAE@HPAVQObject@@@Z 0041e5a0 f   qasynhttpsocket.obj
 0001:0001d7c0       ??1?$QHash@VQString@@V1@@@QAE@XZ 0041e7c0 f i qasynhttpsocket.obj
 0001:0001d820       ??1?$QSharedPointer@VQWaitCondition@@@@QAE@XZ 0041e820 f i qasynhttpsocket.obj
 0001:0001d890       ??1QAsynHttpSocket@@UAE@XZ 0041e890 f   qasynhttpsocket.obj
 0001:0001da20       ??4?$QSharedPointer@VQWaitCondition@@@@QAEAAV0@$$QAV0@@Z 0041ea20 f i qasynhttpsocket.obj
 0001:0001dab0       ??A?$QHash@VQString@@V1@@@QAEAAVQString@@ABV1@@Z 0041eab0 f i qasynhttpsocket.obj
 0001:0001dbc0       ??_GQAsynHttpSocket@@UAEPAXI@Z 0041ebc0 f i qasynhttpsocket.obj
 0001:0001dbc0       ??_EQAsynHttpSocket@@UAEPAXI@Z 0041ebc0 f i qasynhttpsocket.obj
 0001:0001dbe0       ?addSN@QAsynHttpSocket@@AAEXVQString@@@Z 0041ebe0 f   qasynhttpsocket.obj
 0001:0001dbe0       ?delSN@QAsynHttpSocket@@AAEXVQString@@@Z 0041ebe0 f   qasynhttpsocket.obj
 0001:0001dbf0       ?clear@?$QSharedPointer@VQWaitCondition@@@@QAEXXZ 0041ebf0 f i qasynhttpsocket.obj
 0001:0001dc70       ?contains@?$QList@VQString@@@@QBE_NABVQString@@@Z 0041ec70 f i qasynhttpsocket.obj
 0001:0001dcc0       ?createUrl@@YA?AVQUrl@@PBDABUhttp_parser_url@@@Z 0041ecc0 f   qasynhttpsocket.obj
 0001:0001e050       ?delCondition@@YAXPAVQWaitCondition@@@Z 0041f050 f   qasynhttpsocket.obj
 0001:0001e070       ?deleteNode2@?$QHash@VQString@@V1@@@CAXPAUNode@QHashData@@@Z 0041f070 f i qasynhttpsocket.obj
 0001:0001e090       ?deleter@?$ExternalRefCountWithCustomDeleter@VQWaitCondition@@P6AXPAV1@@Z@QtSharedPointer@@SAXPAUExternalRefCountData@2@@Z 0041f090 f i qasynhttpsocket.obj
 0001:0001e0a0       ?detach@?$QHash@VQString@@V1@@@QAEXXZ 0041f0a0 f i qasynhttpsocket.obj
 0001:0001e100       ?detach_helper@?$QHash@VQString@@V1@@@AAEXXZ 0041f100 f i qasynhttpsocket.obj
 0001:0001e150       ?doBody@QAsynHttpSocket@@CAHPAUhttp_parser@@PBDI@Z 0041f150 f   qasynhttpsocket.obj
 0001:0001e170       ?doChunkComplete@QAsynHttpSocket@@CAHPAUhttp_parser@@@Z 0041f170 f   qasynhttpsocket.obj
 0001:0001e170       ___scrt_initialize_winrt   0041f170 f   MSVCRT:utility_desktop.obj
 0001:0001e170       ___scrt_stub_for_initialize_mta 0041f170 f   MSVCRT:utility_desktop.obj
 0001:0001e170       __matherr                  0041f170 f   MSVCRT:matherr.obj
 0001:0001e170       __get_startup_commit_mode  0041f170 f   MSVCRT:commit_mode.obj
 0001:0001e170       ?doChunkHeader@QAsynHttpSocket@@CAHPAUhttp_parser@@@Z 0041f170 f   qasynhttpsocket.obj
 0001:0001e170       __get_startup_thread_locale_mode 0041f170 f   MSVCRT:thread_locale.obj
 0001:0001e170       __get_startup_new_mode     0041f170 f   MSVCRT:new_mode.obj
 0001:0001e170       ___scrt_exe_initialize_mta 0041f170 f   MSVCRT:utility_desktop.obj
 0001:0001e180       ?doDisconnected@QAsynHttpSocket@@AAEXXZ 0041f180 f   qasynhttpsocket.obj
 0001:0001e220       ?doHeaderField@QAsynHttpSocket@@CAHPAUhttp_parser@@PBDI@Z 0041f220 f   qasynhttpsocket.obj
 0001:0001e320       ?doHeaderValue@QAsynHttpSocket@@CAHPAUhttp_parser@@PBDI@Z 0041f320 f   qasynhttpsocket.obj
 0001:0001e390       ?doHeadersComplete@QAsynHttpSocket@@CAHPAUhttp_parser@@@Z 0041f390 f   qasynhttpsocket.obj
 0001:0001e400       ?doMessageBegin@QAsynHttpSocket@@CAHPAUhttp_parser@@@Z 0041f400 f   qasynhttpsocket.obj
 0001:0001e4d0       ?doMessageComplete@QAsynHttpSocket@@CAHPAUhttp_parser@@@Z 0041f4d0 f   qasynhttpsocket.obj
 0001:0001e7b0       ?doParseRequest@QAsynHttpSocket@@AAEXXZ 0041f7b0 f   qasynhttpsocket.obj
 0001:0001e850       ?doStatus@QAsynHttpSocket@@CAHPAUhttp_parser@@PBDI@Z 0041f850 f   qasynhttpsocket.obj
 0001:0001e870       ?doUpdateWriteCount@QAsynHttpSocket@@AAEX_J@Z 0041f870 f   qasynhttpsocket.obj
 0001:0001e8c0       ?doUrl@QAsynHttpSocket@@CAHPAUhttp_parser@@PBDI@Z 0041f8c0 f   qasynhttpsocket.obj
 0001:0001e8e0       ?duplicateNode@?$QHash@VQString@@V1@@@CAXPAUNode@QHashData@@PAX@Z 0041f8e0 f i qasynhttpsocket.obj
 0001:0001e920       ?findNode@?$QHash@VQString@@V1@@@ABEPAPAU?$QHashNode@VQString@@V1@@@ABVQString@@I@Z 0041f920 f i qasynhttpsocket.obj
 0001:0001e990       ?handleRequest@QAsynHttpSocket@@AAEXPAVQHttpRequest@@PAVQHttpResponse@@@Z 0041f990 f   qasynhttpsocket.obj
 0001:00021330       ?waitForBytesWritten@QAsynHttpSocket@@QAEXXZ 00422330 f   qasynhttpsocket.obj
 0001:00021340       ?write@QAsynHttpSocket@@QAEXABVQByteArray@@@Z 00422340 f   qasynhttpsocket.obj
 0001:00021360       ??0QAsynTcpServer@@QAE@PAVQObject@@H@Z 00422360 f   qasyntcpserver.obj
 0001:000213e0       ??1QAsynTcpServer@@UAE@XZ  004223e0 f   qasyntcpserver.obj
 0001:000214ff       ??_9QAbstractSocket@@$BHI@AE 004224ff f i qasyntcpserver.obj
 0001:00021510       ??_EQAsynTcpServer@@UAEPAXI@Z 00422510 f i qasyntcpserver.obj
 0001:00021510       ??_GQAsynTcpServer@@UAEPAXI@Z 00422510 f i qasyntcpserver.obj
 0001:00021640       ?detach@?$QHash@HPAVQTcpSocket@@@@QAEXXZ 00422640 f i qasyntcpserver.obj
 0001:00021640       ?detach@?$QHash@PAVQThread@@I@@QAEXXZ 00422640 f i threadhandle.obj
 0001:000216a0       ?duplicateNode@?$QHash@HPAVQTcpSocket@@@@CAXPAUNode@QHashData@@PAX@Z 004226a0 f i qasyntcpserver.obj
 0001:000216a0       ?duplicateNode@?$QHash@PAVQThread@@I@@CAXPAUNode@QHashData@@PAX@Z 004226a0 f i threadhandle.obj
 0001:000216d0       ?findNode@?$QHash@HPAVQTcpSocket@@@@ABEPAPAU?$QHashNode@HPAVQTcpSocket@@@@ABHI@Z 004226d0 f i qasyntcpserver.obj
 0001:000216d0       ?findNode@?$QHash@PAVQThread@@I@@ABEPAPAU?$QHashNode@PAVQThread@@I@@ABQAVQThread@@I@Z 004226d0 f i threadhandle.obj
 0001:000216d0       ?findNode@?$QHash@HVQString@@@@ABEPAPAU?$QHashNode@HVQString@@@@ABHI@Z 004226d0 f i qhttpresponse.obj
 0001:00021720       ?impl@?$QSlotObject@P8QAsynTcpServer@@AEXHABVQString@@GPAVQThread@@@ZU?$List@HABVQString@@GPAVQThread@@@QtPrivate@@X@QtPrivate@@CAXHPAVQSlotObjectBase@2@PAVQObject@@PAPAXPA_N@Z 00422720 f i qasyntcpserver.obj
 0001:00021790       ?incomingConnection@QAsynTcpServer@@MAEXH@Z 00422790 f   qasyntcpserver.obj
 0001:000219e0       ?sockDisConnectSlot@QHttpServer@@IAEXHABVQString@@GPAVQThread@@@Z 004229e0 f   qhttpserver.obj
 0001:000219e0       ?sockDisConnectSlot@QAsynTcpServer@@IAEXHABVQString@@GPAVQThread@@@Z 004229e0 f   qasyntcpserver.obj
 0001:00021a70       ??0QAsynTcpSocket@@QAE@HPAVQObject@@@Z 00422a70 f   qasyntcpsocket.obj
 0001:00021b50       ??_EQAsynTcpSocket@@UAEPAXI@Z 00422b50 f i qasyntcpsocket.obj
 0001:00021b50       ??_GQAsynTcpSocket@@UAEPAXI@Z 00422b50 f i qasyntcpsocket.obj
 0001:00021b80       ?doDisconnected@QAsynTcpSocket@@AAEXXZ 00422b80 f   qasyntcpsocket.obj
 0001:00021c20       ?doUpdateWriteCount@QAsynTcpSocket@@AAEX_J@Z 00422c20 f   qasyntcpsocket.obj
 0001:00021c70       ??0QHttpRequest@@AAE@PAVQAsynHttpSocket@@PAVQObject@@@Z 00422c70 f   qhttprequest.obj
 0001:00021d30       ??_EQHttpRequest@@UAEPAXI@Z 00422d30 f i qhttprequest.obj
 0001:00021d30       ??_GQHttpRequest@@UAEPAXI@Z 00422d30 f i qhttprequest.obj
 0001:00021df0       ?appendBody@QHttpRequest@@AAEXABVQByteArray@@@Z 00422df0 f   qhttprequest.obj
 0001:00021e00       ?headers@QHttpRequest@@QBEABV?$QHash@VQString@@V1@@@XZ 00422e00 f   qhttprequest.obj
 0001:00021e10       ?httpVersion@QHttpRequest@@QBEABVQString@@XZ 00422e10 f   qhttprequest.obj
 0001:00021e20       ?method@QHttpRequest@@QBE?AW4HttpMethod@1@XZ 00422e20 f   qhttprequest.obj
 0001:00021e30       ?path@QHttpRequest@@QBE?BVQString@@XZ 00422e30 f   qhttprequest.obj
 0001:00021e50       ?remoteAddress@QHttpRequest@@QBEABVQString@@XZ 00422e50 f   qhttprequest.obj
 0001:00021e60       ?remotePort@QHttpRequest@@QBEGXZ 00422e60 f   qhttprequest.obj
 0001:00021e70       ?url@QHttpRequest@@QBEABVQUrl@@XZ 00422e70 f   qhttprequest.obj
 0001:00021e80       ??0QHttpResponse@@AAE@PAVQAsynHttpSocket@@@Z 00422e80 f   qhttpresponse.obj
 0001:00022ba0       ??A?$QHash@HVQString@@@@QAEAAVQString@@ABH@Z 00423ba0 f i qhttpresponse.obj
 0001:00022ca0       ??_EQHttpResponse@@UAEPAXI@Z 00423ca0 f i qhttpresponse.obj
 0001:00022ca0       ??_GQHttpResponse@@UAEPAXI@Z 00423ca0 f i qhttpresponse.obj
 0001:00022d30       ?connectionClosed@QHttpResponse@@AAEXXZ 00423d30 f   qhttpresponse.obj
 0001:00022d50       ?deleteNode2@?$QHash@HVQString@@@@CAXPAUNode@QHashData@@@Z 00423d50 f i qhttpresponse.obj
 0001:00022d60       ?detach@?$QHash@HVQString@@@@QAEXXZ 00423d60 f i qhttpresponse.obj
 0001:00022dc0       ?duplicateNode@?$QHash@HVQString@@@@CAXPAUNode@QHashData@@PAX@Z 00423dc0 f i qhttpresponse.obj
 0001:00022df0       ?end@QHttpResponse@@QAEXABVQByteArray@@@Z 00423df0 f   qhttpresponse.obj
 0001:00022ee0       ?flush@QHttpResponse@@QAEXXZ 00423ee0 f   qhttpresponse.obj
 0001:00022ef0       ?insert@?$QHash@HVQString@@@@QAE?AViterator@1@ABHABVQString@@@Z 00423ef0 f i qhttpresponse.obj
 0001:00022fa0       ?setHeader@QHttpResponse@@QAEXABVQString@@0@Z 00423fa0 f   qhttpresponse.obj
 0001:00023040       ?waitForBytesWritten@QHttpResponse@@QAEXXZ 00424040 f   qhttpresponse.obj
 0001:00023050       ?write@QHttpResponse@@QAEXABVQByteArray@@@Z 00424050 f   qhttpresponse.obj
 0001:00023130       ?writeHead@QHttpResponse@@QAEXH@Z 00424130 f   qhttpresponse.obj
 0001:00023370       ?writeHead@QHttpResponse@@QAEXW4StatusCode@1@@Z 00424370 f   qhttpresponse.obj
 0001:00023380       ?writeHeader@QHttpResponse@@AAEXPBDABVQString@@@Z 00424380 f   qhttpresponse.obj
 0001:000235b0       ?writeHeaders@QHttpResponse@@AAEXXZ 004245b0 f   qhttpresponse.obj
 0001:00023b90       ??0QHttpServer@@QAE@PAVQObject@@H@Z 00424b90 f   qhttpserver.obj
 0001:00023bc0       ??1QHttpServer@@UAE@XZ     00424bc0 f   qhttpserver.obj
 0001:00023bd0       ??_EQHttpServer@@UAEPAXI@Z 00424bd0 f i qhttpserver.obj
 0001:00023bd0       ??_GQHttpServer@@UAEPAXI@Z 00424bd0 f i qhttpserver.obj
 0001:00023c00       ?addSN@QHttpServer@@QAEXVQString@@@Z 00424c00 f   qhttpserver.obj
 0001:00023c50       ?delSN@QHttpServer@@QAEXVQString@@@Z 00424c50 f   qhttpserver.obj
 0001:00023da0       ?handleRequest@QHttpServer@@AAEXPAVQHttpRequest@@PAVQHttpResponse@@@Z 00424da0 f   qhttpserver.obj
 0001:00023fd0       ?incomingConnection@QHttpServer@@MAEXH@Z 00424fd0 f   qhttpserver.obj
 0001:00024260       ?startListen@QHttpServer@@QAEXVQString@@G@Z 00425260 f   qhttpserver.obj
 0001:00024310       ?clear@ThreadHandle@@QAEXXZ 00425310 f   threadhandle.obj
 0001:00024370       ?getClass@ThreadHandle@@SAAAV1@XZ 00425370 f   threadhandle.obj
 0001:000243d0       ?getThread@ThreadHandle@@QAEPAVQThread@@XZ 004253d0 f   threadhandle.obj
 0001:00024590       ?initThreadType@ThreadHandle@@QAEXW4ThreadType@1@I@Z 00425590 f   threadhandle.obj
 0001:00024760       ?insert@?$QHash@PAVQThread@@I@@QAE?AViterator@1@ABQAVQThread@@ABI@Z 00425760 f i threadhandle.obj
 0001:00024800       ?removeThread@ThreadHandle@@QAEXPAVQThread@@@Z 00425800 f   threadhandle.obj
 0001:00024900       ??$atImpl@V?$QVector@N@@@QSequentialIterableImpl@QtMetaTypePrivate@@SAPBXPBXH@Z 00425900 f i main.obj
 0001:00024920       ??$connect@P8CMainWindow@@AEXVQString@@PAVWifiChParas@@@ZP8tcpServer@@AEX01@Z@QObject@@SA?AVConnection@QMetaObject@@PBVCMainWindow@@P83@AEXVQString@@PAVWifiChParas@@@ZPBVtcpServer@@P86@AEX12@ZW4ConnectionType@Qt@@@Z 00425920 f i main.obj
 0001:00024a20       ??$connect@P8CMainWindow@@AEXVQString@@PAVWifiFsParas@@@ZP8tcpServer@@AEX01@Z@QObject@@SA?AVConnection@QMetaObject@@PBVCMainWindow@@P83@AEXVQString@@PAVWifiFsParas@@@ZPBVtcpServer@@P86@AEX12@ZW4ConnectionType@Qt@@@Z 00425a20 f i main.obj
 0001:00024b20       ??$connect@P8CMainWindow@@AEXVQString@@V?$QList@N@@@ZP8tcpServer@@AEX01@Z@QObject@@SA?AVConnection@QMetaObject@@PBVCMainWindow@@P83@AEXVQString@@V?$QList@N@@@ZPBVtcpServer@@P86@AEX12@ZW4ConnectionType@Qt@@@Z 00425b20 f i main.obj
 0001:00024c20       ??$getImpl@V?$QVector@N@@@QSequentialIterableImpl@QtMetaTypePrivate@@SA?AUVariantData@1@PBQAXHI@Z 00425c20 f i main.obj
 0001:00024c40       ??$moveToBeginImpl@V?$QVector@N@@@QSequentialIterableImpl@QtMetaTypePrivate@@SAXPBXPAPAX@Z 00425c40 f i main.obj
 0001:00024c60       ??$moveToEndImpl@V?$QVector@N@@@QSequentialIterableImpl@QtMetaTypePrivate@@SAXPBXPAPAX@Z 00425c60 f i main.obj
 0001:00024c80       ??$sizeImpl@V?$QVector@N@@@QSequentialIterableImpl@QtMetaTypePrivate@@SAHPBX@Z 00425c80 f i main.obj
 0001:00024c90       ?ApplicationCrashHandler@@YGJPAU_EXCEPTION_POINTERS@@@Z 00425c90 f   main.obj
 0001:00024ee0       ?Construct@?$QMetaTypeFunctionHelper@V?$QVector@N@@$00@QtMetaTypePrivate@@SAPAXPAXPBX@Z 00425ee0 f i main.obj
 0001:00024fd0       ?Construct@?$QMetaTypeFunctionHelper@VWifiApParas@@$00@QtMetaTypePrivate@@SAPAXPAXPBX@Z 00425fd0 f i main.obj
 0001:00024ff0       ?Construct@?$QMetaTypeFunctionHelper@VWifiChParas@@$00@QtMetaTypePrivate@@SAPAXPAXPBX@Z 00425ff0 f i main.obj
 0001:00025010       ?Construct@?$QMetaTypeFunctionHelper@VWifiFsParas@@$00@QtMetaTypePrivate@@SAPAXPAXPBX@Z 00426010 f i main.obj
 0001:00025030       ?Destruct@?$QMetaTypeFunctionHelper@V?$QVector@N@@$00@QtMetaTypePrivate@@SAXPAX@Z 00426030 f i main.obj
 0001:00025060       ?Destruct@?$QMetaTypeFunctionHelper@VWifiApParas@@$00@QtMetaTypePrivate@@SAXPAX@Z 00426060 f i main.obj
 0001:00025070       ?Destruct@?$QMetaTypeFunctionHelper@VWifiChParas@@$00@QtMetaTypePrivate@@SAXPAX@Z 00426070 f i main.obj
 0001:00025080       ?MyDummySetUnhandledExceptionFilter@@YGP6GJPAU_EXCEPTION_POINTERS@@@ZP6GJ0@Z@Z 00426080 f   main.obj
 0001:00025090       ?advance@?$IteratorOwner@PBN@QtMetaTypePrivate@@SAXPAPAXH@Z 00426090 f i main.obj
 0001:000250b0       ?assign@?$IteratorOwner@PBN@QtMetaTypePrivate@@SAXPAPAXPBQAX@Z 004260b0 f i main.obj
 0001:000250c0       ?convert@?$ConverterFunctor@V?$QVector@N@@VQSequentialIterableImpl@QtMetaTypePrivate@@U?$QSequentialIterableConvertFunctor@V?$QVector@N@@@3@@QtPrivate@@SA_NPBUAbstractConverterFunction@2@PBXPAX@Z 004260c0 f i main.obj
 0001:00025130       ?equal@?$IteratorOwner@PBN@QtMetaTypePrivate@@SA_NPBQAX0@Z 00426130 f i main.obj
 0001:00025190       ?impl@?$QSlotObject@P8mainTab@@AEXHVQString@@0@ZU?$List@HVQString@@V1@@QtPrivate@@X@QtPrivate@@CAXHPAVQSlotObjectBase@2@PAVQObject@@PAPAXPA_N@Z 00426190 f i mainwindow.obj
 0001:00025190       ?impl@?$QSlotObject@P8CMainWindow@@AEXHVQString@@0@ZU?$List@HVQString@@V1@@QtPrivate@@X@QtPrivate@@CAXHPAVQSlotObjectBase@2@PAVQObject@@PAPAXPA_N@Z 00426190 f i main.obj
 0001:00025240       ?impl@?$QSlotObject@P8CMainWindow@@AEXHVQString@@@ZU?$List@HVQString@@@QtPrivate@@X@QtPrivate@@CAXHPAVQSlotObjectBase@2@PAVQObject@@PAPAXPA_N@Z 00426240 f i main.obj
 0001:00025240       ?impl@?$QSlotObject@P8mainTab@@AEXHVQString@@@ZU?$List@HVQString@@@QtPrivate@@X@QtPrivate@@CAXHPAVQSlotObjectBase@2@PAVQObject@@PAPAXPA_N@Z 00426240 f i mainwindow.obj
 0001:000252e0       ?impl@?$QSlotObject@P8mainTab@@AEXVQString@@0H@ZU?$List@VQString@@V1@H@QtPrivate@@X@QtPrivate@@CAXHPAVQSlotObjectBase@2@PAVQObject@@PAPAXPA_N@Z 004262e0 f i mainwindow.obj
 0001:000252e0       ?impl@?$QSlotObject@P8CMainWindow@@AEXVQString@@0H@ZU?$List@VQString@@V1@H@QtPrivate@@X@QtPrivate@@CAXHPAVQSlotObjectBase@2@PAVQObject@@PAPAXPA_N@Z 004262e0 f i main.obj
 0001:00025390       ?impl@?$QSlotObject@P8mainTab@@AEXVQString@@0V?$QList@M@@V?$QList@_N@@@ZU?$List@VQString@@V1@V?$QList@M@@V?$QList@_N@@@QtPrivate@@X@QtPrivate@@CAXHPAVQSlotObjectBase@2@PAVQObject@@PAPAXPA_N@Z 00426390 f i mainwindow.obj
 0001:00025390       ?impl@?$QSlotObject@P8CMainWindow@@AEXVQString@@0V?$QList@M@@V?$QList@_N@@@ZU?$List@VQString@@V1@V?$QList@M@@V?$QList@_N@@@QtPrivate@@X@QtPrivate@@CAXHPAVQSlotObjectBase@2@PAVQObject@@PAPAXPA_N@Z 00426390 f i main.obj
 0001:000254b0       ?impl@?$QSlotObject@P8mainTab@@AEXVQString@@EEE@ZU?$List@VQString@@EEE@QtPrivate@@X@QtPrivate@@CAXHPAVQSlotObjectBase@2@PAVQObject@@PAPAXPA_N@Z 004264b0 f i mainwindow.obj
 0001:000254b0       ?impl@?$QSlotObject@P8CMainWindow@@AEXVQString@@EEE@ZU?$List@VQString@@EEE@QtPrivate@@X@QtPrivate@@CAXHPAVQSlotObjectBase@2@PAVQObject@@PAPAXPA_N@Z 004264b0 f i main.obj
 0001:00025560       ?impl@?$QSlotObject@P8CMainWindow@@AEXVQString@@V?$QList@M@@@ZU?$List@VQString@@V?$QList@M@@@QtPrivate@@X@QtPrivate@@CAXHPAVQSlotObjectBase@2@PAVQObject@@PAPAXPA_N@Z 00426560 f i main.obj
 0001:00025560       ?impl@?$QSlotObject@P8mainTab@@AEXVQString@@V?$QList@M@@@ZU?$List@VQString@@V?$QList@M@@@QtPrivate@@X@QtPrivate@@CAXHPAVQSlotObjectBase@2@PAVQObject@@PAPAXPA_N@Z 00426560 f i mainwindow.obj
 0001:00025610       ?impl@?$QSlotObject@P8mainTab@@AEXVQString@@VQByteArray@@HPAV?$QList@N@@@ZU?$List@VQString@@VQByteArray@@HPAV?$QList@N@@@QtPrivate@@X@QtPrivate@@CAXHPAVQSlotObjectBase@2@PAVQObject@@PAPAXPA_N@Z 00426610 f i mainwindow.obj
 0001:00025610       ?impl@?$QSlotObject@P8CMainWindow@@AEXVQString@@VQByteArray@@HPAV?$QList@N@@@ZU?$List@VQString@@VQByteArray@@HPAV?$QList@N@@@QtPrivate@@X@QtPrivate@@CAXHPAVQSlotObjectBase@2@PAVQObject@@PAPAXPA_N@Z 00426610 f i main.obj
 0001:000256d0       ?impl@?$QSlotObject@P8CMainWindow@@AEXVQString@@VWifiApParas@@@ZU?$List@VQString@@VWifiApParas@@@QtPrivate@@X@QtPrivate@@CAXHPAVQSlotObjectBase@2@PAVQObject@@PAPAXPA_N@Z 004266d0 f i main.obj
 0001:000256d0       ?impl@?$QSlotObject@P8mainTab@@AEXVQString@@VWifiApParas@@@ZU?$List@VQString@@VWifiApParas@@@QtPrivate@@X@QtPrivate@@CAXHPAVQSlotObjectBase@2@PAVQObject@@PAPAXPA_N@Z 004266d0 f i mainwindow.obj
 0001:00025780       ?impl@?$QSlotObject@P8CMainWindow@@AEXVQString@@VWifiChParas@@@ZU?$List@VQString@@VWifiChParas@@@QtPrivate@@X@QtPrivate@@CAXHPAVQSlotObjectBase@2@PAVQObject@@PAPAXPA_N@Z 00426780 f i main.obj
 0001:00025780       ?impl@?$QSlotObject@P8mainTab@@AEXVQString@@VWifiChParas@@@ZU?$List@VQString@@VWifiChParas@@@QtPrivate@@X@QtPrivate@@CAXHPAVQSlotObjectBase@2@PAVQObject@@PAPAXPA_N@Z 00426780 f i mainwindow.obj
 0001:00025830       ?impl@?$QSlotObject@P8CMainWindow@@AEXVQString@@VWifiFsParas@@@ZU?$List@VQString@@VWifiFsParas@@@QtPrivate@@X@QtPrivate@@CAXHPAVQSlotObjectBase@2@PAVQObject@@PAPAXPA_N@Z 00426830 f i main.obj
 0001:00025830       ?impl@?$QSlotObject@P8mainTab@@AEXVQString@@VWifiFsParas@@@ZU?$List@VQString@@VWifiFsParas@@@QtPrivate@@X@QtPrivate@@CAXHPAVQSlotObjectBase@2@PAVQObject@@PAPAXPA_N@Z 00426830 f i mainwindow.obj
 0001:000258e0       ?impl@?$QSlotObject@P8mainTab@@AEXVQString@@VWifiNetParas@@@ZU?$List@VQString@@VWifiNetParas@@@QtPrivate@@X@QtPrivate@@CAXHPAVQSlotObjectBase@2@PAVQObject@@PAPAXPA_N@Z 004268e0 f i mainwindow.obj
 0001:000258e0       ?impl@?$QSlotObject@P8CMainWindow@@AEXVQString@@VWifiNetParas@@@ZU?$List@VQString@@VWifiNetParas@@@QtPrivate@@X@QtPrivate@@CAXHPAVQSlotObjectBase@2@PAVQObject@@PAPAXPA_N@Z 004268e0 f i main.obj
 0001:00025990       ?impl@?$QSlotObject@P8QHttpServer@@AEXVQString@@G@ZU?$List@VQString@@G@QtPrivate@@X@QtPrivate@@CAXHPAVQSlotObjectBase@2@PAVQObject@@PAPAXPA_N@Z 00426990 f i main.obj
 0001:00025990       ?impl@?$QSlotObject@P8tcpServer@@AEXVQString@@G@ZU?$List@VQString@@G@QtPrivate@@X@QtPrivate@@CAXHPAVQSlotObjectBase@2@PAVQObject@@PAPAXPA_N@Z 00426990 f i main.obj
 0001:00025a00       ?impl@?$QSlotObject@P8tcpServer@@AEXVQString@@0@ZU?$List@VQString@@V1@@QtPrivate@@X@QtPrivate@@CAXHPAVQSlotObjectBase@2@PAVQObject@@PAPAXPA_N@Z 00426a00 f i main.obj
 0001:00025a70       ?impl@?$QSlotObject@P8tcpServer@@AEXVQString@@0H0@ZU?$List@VQString@@V1@HV1@@QtPrivate@@X@QtPrivate@@CAXHPAVQSlotObjectBase@2@PAVQObject@@PAPAXPA_N@Z 00426a70 f i main.obj
 0001:00025b00       ?impl@?$QSlotObject@P8wsClient@@AEXVQString@@@ZU?$List@ABVQString@@@QtPrivate@@X@QtPrivate@@CAXHPAVQSlotObjectBase@2@PAVQObject@@PAPAXPA_N@Z 00426b00 f i wsclient.obj
 0001:00025b00       ?impl@?$QSlotObject@P8wsClient@@AEXVQString@@@ZU?$List@VQString@@@QtPrivate@@X@QtPrivate@@CAXHPAVQSlotObjectBase@2@PAVQObject@@PAPAXPA_N@Z 00426b00 f i mainwindow.obj
 0001:00025b00       ?impl@?$QSlotObject@P8tcpServer@@AEXVQString@@@ZU?$List@VQString@@@QtPrivate@@X@QtPrivate@@CAXHPAVQSlotObjectBase@2@PAVQObject@@PAPAXPA_N@Z 00426b00 f i main.obj
 0001:00025b60       ?impl@?$QSlotObject@P8tcpServer@@AEXVQString@@EEEE@ZU?$List@VQString@@EEEE@QtPrivate@@X@QtPrivate@@CAXHPAVQSlotObjectBase@2@PAVQObject@@PAPAXPA_N@Z 00426b60 f i main.obj
 0001:00025be0       ?impl@?$QSlotObject@P8tcpServer@@AEXVQString@@HH@ZU?$List@VQString@@HH@QtPrivate@@X@QtPrivate@@CAXHPAVQSlotObjectBase@2@PAVQObject@@PAPAXPA_N@Z 00426be0 f i main.obj
 0001:00025c50       ?impl@?$QSlotObject@P8tcpServer@@AEXVQString@@H_N@ZU?$List@VQString@@H_N@QtPrivate@@X@QtPrivate@@CAXHPAVQSlotObjectBase@2@PAVQObject@@PAPAXPA_N@Z 00426c50 f i main.obj
 0001:00025cc0       ?impl@?$QSlotObject@P8tcpServer@@AEXVQString@@_N@ZU?$List@VQString@@_N@QtPrivate@@X@QtPrivate@@CAXHPAVQSlotObjectBase@2@PAVQObject@@PAPAXPA_N@Z 00426cc0 f i main.obj
 0001:00025d30       ?qt_metatype_id@?$QMetaTypeId2@V?$QVector@N@@@@SAHXZ 00426d30 f i main.obj
 0001:00025f10       ?qt_metatype_id@?$QMetaTypeId2@VWifiApParas@@@@SAHXZ 00426f10 f i main.obj
 0001:00025ff0       ?qt_metatype_id@?$QMetaTypeId2@VWifiChParas@@@@SAHXZ 00426ff0 f i main.obj
 0001:000260d0       ?qt_metatype_id@?$QMetaTypeId2@VWifiFsParas@@@@SAHXZ 004270d0 f i main.obj
 0001:000261b0       _main                      004271b0 f   main.obj
 0001:00027560       ??$connect@P8daqInfo@@AEXVQString@@0@ZP8mainTab@@AEX00@Z@QObject@@SA?AVConnection@QMetaObject@@PBVdaqInfo@@P83@AEXVQString@@1@ZPBVmainTab@@P85@AEX11@ZW4ConnectionType@Qt@@@Z 00428560 f i maintab.obj
 0001:00027630       ??$connect@P8daqInfo@@AEXVQString@@0H0@ZP8mainTab@@AEX00H0@Z@QObject@@SA?AVConnection@QMetaObject@@PBVdaqInfo@@P83@AEXVQString@@1H1@ZPBVmainTab@@P85@AEX11H1@ZW4ConnectionType@Qt@@@Z 00428630 f i maintab.obj
 0001:00027700       ??$connect@P8daqInfo@@AEXVQString@@@ZP8mainTab@@AEX0@Z@QObject@@SA?AVConnection@QMetaObject@@PBVdaqInfo@@P83@AEXVQString@@@ZPBVmainTab@@P85@AEX1@ZW4ConnectionType@Qt@@@Z 00428700 f i maintab.obj
 0001:000277c0       ??$connect@P8daqInfo@@AEXVQString@@EEEE@ZP8mainTab@@AEX0EEEE@Z@QObject@@SA?AVConnection@QMetaObject@@PBVdaqInfo@@P83@AEXVQString@@EEEE@ZPBVmainTab@@P85@AEX1EEEE@ZW4ConnectionType@Qt@@@Z 004287c0 f i maintab.obj
 0001:00027890       ??$connect@P8daqInfo@@AEXVQString@@G@ZP8mainTab@@AEX0G@Z@QObject@@SA?AVConnection@QMetaObject@@PBVdaqInfo@@P83@AEXVQString@@G@ZPBVmainTab@@P85@AEX1G@ZW4ConnectionType@Qt@@@Z 00428890 f i maintab.obj
 0001:00027960       ??$connect@P8daqInfo@@AEXVQString@@HH@ZP8mainTab@@AEX0HH@Z@QObject@@SA?AVConnection@QMetaObject@@PBVdaqInfo@@P83@AEXVQString@@HH@ZPBVmainTab@@P85@AEX1HH@ZW4ConnectionType@Qt@@@Z 00428960 f i maintab.obj
 0001:00027a20       ??$connect@P8daqInfo@@AEXVQString@@H_N@ZP8mainTab@@AEX0H1@Z@QObject@@SA?AVConnection@QMetaObject@@PBVdaqInfo@@P83@AEXVQString@@H_N@ZPBVmainTab@@P85@AEX1H2@ZW4ConnectionType@Qt@@@Z 00428a20 f i maintab.obj
 0001:00027ae0       ??$connect@P8daqInfo@@AEXVQString@@PAVWifiChParas@@@ZP8mainTab@@AEX01@Z@QObject@@SA?AVConnection@QMetaObject@@PBVdaqInfo@@P83@AEXVQString@@PAVWifiChParas@@@ZPBVmainTab@@P86@AEX12@ZW4ConnectionType@Qt@@@Z 00428ae0 f i maintab.obj
 0001:00027bf0       ??$connect@P8daqInfo@@AEXVQString@@PAVWifiFsParas@@@ZP8mainTab@@AEX01@Z@QObject@@SA?AVConnection@QMetaObject@@PBVdaqInfo@@P83@AEXVQString@@PAVWifiFsParas@@@ZPBVmainTab@@P86@AEX12@ZW4ConnectionType@Qt@@@Z 00428bf0 f i maintab.obj
 0001:00027d00       ??$connect@P8daqInfo@@AEXVQString@@V?$QList@N@@@ZP8mainTab@@AEX01@Z@QObject@@SA?AVConnection@QMetaObject@@PBVdaqInfo@@P83@AEXVQString@@V?$QList@N@@@ZPBVmainTab@@P86@AEX12@ZW4ConnectionType@Qt@@@Z 00428d00 f i maintab.obj
 0001:00027e10       ??$connect@P8daqInfo@@AEXVQString@@_N@ZP8mainTab@@AEX01@Z@QObject@@SA?AVConnection@QMetaObject@@PBVdaqInfo@@P83@AEXVQString@@_N@ZPBVmainTab@@P85@AEX12@ZW4ConnectionType@Qt@@@Z 00428e10 f i maintab.obj
 0001:00027ee0       ??0mainTab@@QAE@PAVQWidget@@@Z 00428ee0 f   maintab.obj
 0001:00028350       ??1?$QMap@VQString@@H@@QAE@XZ 00429350 f i maintab.obj
 0001:000283f0       ??1mainTab@@UAE@XZ         004293f0 f   maintab.obj
 0001:000285a0       ??1uiElements@@QAE@XZ      004295a0 f i maintab.obj
 0001:000285f4       ??_EQFrame@@W7AEPAXI@Z     004295f4 f i maintab.obj
 0001:000285fc       ??_EQMdiArea@@W7AEPAXI@Z   004295fc f i maintab.obj
 0001:00028604       ??_EQScrollArea@@W7AEPAXI@Z 00429604 f i maintab.obj
 0001:0002860c       ??_EQSpinBox@@W7AEPAXI@Z   0042960c f i maintab.obj
 0001:00028614       ??_EQTabWidget@@W7AEPAXI@Z 00429614 f i maintab.obj
 0001:0002861c       ??_EmainTab@@W7AEPAXI@Z    0042961c f i maintab.obj
 0001:00028630       ??_EQButtonGroup@@UAEPAXI@Z 00429630 f i maintab.obj
 0001:00028630       ??_GQButtonGroup@@UAEPAXI@Z 00429630 f i maintab.obj
 0001:00028660       ??_GQFrame@@UAEPAXI@Z      00429660 f i maintab.obj
 0001:00028660       ??_EQFrame@@UAEPAXI@Z      00429660 f i maintab.obj
 0001:00028690       ??_GQMdiArea@@UAEPAXI@Z    00429690 f i maintab.obj
 0001:00028690       ??_EQMdiArea@@UAEPAXI@Z    00429690 f i maintab.obj
 0001:000286c0       ??_EQScrollArea@@UAEPAXI@Z 004296c0 f i maintab.obj
 0001:000286c0       ??_GQScrollArea@@UAEPAXI@Z 004296c0 f i maintab.obj
 0001:000286f0       ??_GQSpinBox@@UAEPAXI@Z    004296f0 f i maintab.obj
 0001:000286f0       ??_EQSpinBox@@UAEPAXI@Z    004296f0 f i maintab.obj
 0001:00028720       ??_GQTabWidget@@UAEPAXI@Z  00429720 f i maintab.obj
 0001:00028720       ??_EQTabWidget@@UAEPAXI@Z  00429720 f i maintab.obj
 0001:00028750       ??_EmainTab@@UAEPAXI@Z     00429750 f i maintab.obj
 0001:00028750       ??_GmainTab@@UAEPAXI@Z     00429750 f i maintab.obj
 0001:00028780       ?addDaq@mainTab@@QAEXVQString@@0@Z 00429780 f   maintab.obj
 0001:000287a0       ?addDaq@mainTab@@QAEXXZ    004297a0 f   maintab.obj
 0001:00028e80       ?changeExTab@mainTab@@QAEXH@Z 00429e80 f   maintab.obj
 0001:00028e90       ?changeSettingTab@mainTab@@AAEXH@Z 00429e90 f   maintab.obj
 0001:00028ea0       ?closeChild@mainTab@@AAEXHVQString@@@Z 00429ea0 f   maintab.obj
 0001:00029000       ?copy@?$QMapNode@VQString@@H@@QBEPAU1@PAU?$QMapData@VQString@@H@@@Z 0042a000 f i maintab.obj
 0001:00029090       ?createDaqFromBack@mainTab@@QAEXHVQString@@0@Z 0042a090 f   maintab.obj
 0001:00029990       ?createNode@?$QMapData@VQString@@H@@QAEPAU?$QMapNode@VQString@@H@@ABVQString@@ABHPAU2@_N@Z 0042a990 f i maintab.obj
 0001:000299d0       ?delDaq@mainTab@@QAEXXZ    0042a9d0 f   maintab.obj
 0001:00029dc0       ?destroySubTree@?$QMapNode@VQString@@H@@QAEXXZ 0042adc0 f i maintab.obj
 0001:00029df0       ?detach@?$QMap@VQString@@H@@QAEXXZ 0042adf0 f i maintab.obj
 0001:00029eb0       ?impl@?$QSlotObject@P8CMainWindow@@AEXVQString@@_N@ZU?$List@VQString@@_N@QtPrivate@@X@QtPrivate@@CAXHPAVQSlotObjectBase@2@PAVQObject@@PAPAXPA_N@Z 0042aeb0 f i mainwindow.obj
 0001:00029eb0       ?impl@?$QSlotObject@P8mainTab@@AEXVQString@@_N@ZU?$List@VQString@@_N@QtPrivate@@X@QtPrivate@@CAXHPAVQSlotObjectBase@2@PAVQObject@@PAPAXPA_N@Z 0042aeb0 f i maintab.obj
 0001:00029f50       ?initUI@mainTab@@QAEXUuiElements@@@Z 0042af50 f   maintab.obj
 0001:0002a380       ?on_btnApplyHttpServer_clicked@mainTab@@AAEXXZ 0042b380 f   maintab.obj
 0001:0002a3c0       ?on_btnApplyRemoteWebSocket_clicked@mainTab@@AAEXXZ 0042b3c0 f   maintab.obj
 0001:0002a4d0       ?on_btnApplyTcpClient_clicked@mainTab@@AAEXXZ 0042b4d0 f   maintab.obj
 0001:0002a500       ?on_btnApplyTcp_clicked@mainTab@@AAEXXZ 0042b500 f   maintab.obj
 0001:0002a530       ?on_btnChangeLocation_clicked@mainTab@@AAEXXZ 0042b530 f   maintab.obj
 0001:0002a5e0       ?on_pushButton_clicked@mainTab@@AAEXXZ 0042b5e0 f   maintab.obj
 0001:0002a980       ?remove@?$QMap@VQString@@H@@QAEHABVQString@@@Z 0042b980 f i maintab.obj
 0001:0002aa20       ?removeAt@?$QList@PAVbaseForm2@@@@QAEXH@Z 0042ba20 f i maintab.obj
 0001:0002aa70       ?retranslateUi@Ui_mainTab@@QAEXPAVQWidget@@@Z 0042ba70 f i maintab.obj
 0001:0002bb80       ?setAutoSpan@mainTab@@QAEXVQString@@H@Z 0042cb80 f   maintab.obj
 0001:0002bc60       ?setChannelFS@mainTab@@QAEXVQString@@V?$QList@N@@@Z 0042cc60 f   maintab.obj
 0001:0002bda0       ?settingGUID@mainTab@@QAEXVQString@@@Z 0042cda0 f   maintab.obj
 0001:0002bdf0       ?setupUi@Ui_mainTab@@QAEXPAVQWidget@@@Z 0042cdf0 f i maintab.obj
 0001:00031840       ?testAddDaq@mainTab@@QAEXXZ 00432840 f   maintab.obj
 0001:00031a90       ?updateAPdata@mainTab@@QAEXVQString@@VWifiApParas@@@Z 00432a90 f   maintab.obj
 0001:00031b80       ?updateAlertJunyue@mainTab@@QAEXVQString@@V?$QList@M@@@Z 00432b80 f   maintab.obj
 0001:00031ca0       ?updateAlertTimeSpan@mainTab@@QAEXVQString@@HH@Z 00432ca0 f   maintab.obj
 0001:00031d80       ?updateAutoWave2@mainTab@@QAEXVQString@@VQByteArray@@HPAV?$QList@N@@@Z 00432d80 f   maintab.obj
 0001:00031ef0       ?updateChParas@mainTab@@QAEXVQString@@VWifiChParas@@@Z 00432ef0 f   maintab.obj
 0001:00031fe0       ?updateChStatus@mainTab@@QAEXVQString@@G@Z 00432fe0 f   maintab.obj
 0001:000320c0       ?updateCharactersJunyue@mainTab@@QAEXVQString@@0V?$QList@M@@V?$QList@_N@@@Z 004330c0 f   maintab.obj
 0001:00032250       ?updateCurrentFirmwareVer@mainTab@@QAEXVQString@@0@Z 00433250 f   maintab.obj
 0001:00032310       ?updateCurrentTemperature@mainTab@@QAEXVQString@@PANH@Z 00433310 f   maintab.obj
 0001:00032400       ?updateCurrentVValue@mainTab@@QAEXVQString@@PAV?$QList@PAVvirbValue@@@@@Z 00433400 f   maintab.obj
 0001:000326a0       ?updateDeviceStatus@mainTab@@QAEXHVQString@@@Z 004336a0 f   maintab.obj
 0001:00032750       ?updateFsMode@mainTab@@QAEXVQString@@H@Z 00433750 f   maintab.obj
 0001:00032830       ?updateFsParas@mainTab@@QAEXVQString@@VWifiFsParas@@@Z 00433830 f   maintab.obj
 0001:00032920       ?updateNetParas@mainTab@@QAEXVQString@@VWifiNetParas@@@Z 00433920 f   maintab.obj
 0001:00032a20       ?updatePowerMode2@mainTab@@QAEXVQString@@EEEE@Z 00433a20 f   maintab.obj
 0001:00032b00       ?updatePowerMode@mainTab@@QAEXVQString@@EEE@Z 00433b00 f   maintab.obj
 0001:00032be0       ?updateTCPServer@mainTab@@QAEXVQString@@0H@Z 00433be0 f   maintab.obj
 0001:00032cd0       ?updateWave@mainTab@@QAEXVQString@@PAV?$QVector@N@@@Z 00433cd0 f   maintab.obj
 0001:00032df0       ??$connect@P8mainTab@@AEXVQString@@PAVWifiChParas@@@ZP8CMainWindow@@AEX01@Z@QObject@@SA?AVConnection@QMetaObject@@PBVmainTab@@P83@AEXVQString@@PAVWifiChParas@@@ZPBVCMainWindow@@P86@AEX12@ZW4ConnectionType@Qt@@@Z 00433df0 f i mainwindow.obj
 0001:00032f00       ??$connect@P8mainTab@@AEXVQString@@PAVWifiFsParas@@@ZP8CMainWindow@@AEX01@Z@QObject@@SA?AVConnection@QMetaObject@@PBVmainTab@@P83@AEXVQString@@PAVWifiFsParas@@@ZPBVCMainWindow@@P86@AEX12@ZW4ConnectionType@Qt@@@Z 00433f00 f i mainwindow.obj
 0001:00033010       ??0CMainWindow@@QAE@PAVQWidget@@@Z 00434010 f   mainwindow.obj
 0001:00035000       ??0uiElements@@QAE@ABU0@@Z 00436000 f i mainwindow.obj
 0001:00035150       ??1?$QForeachContainer@V?$QList@PAVQAction@@@@@QtPrivate@@QAE@XZ 00436150 f i mainwindow.obj
 0001:000351b0       ??1?$function@$$A6APAVQWidget@@XZ@std@@QAE@XZ 004361b0 f i mainwindow.obj
 0001:000351e0       ??1CMainWindow@@UAE@XZ     004361e0 f   mainwindow.obj
 0001:00035306       ??_ECMainWindow@@W7AEPAXI@Z 00436306 f i mainwindow.obj
 0001:0003530e       ??_EQDockWidget@@W7AEPAXI@Z 0043630e f i mainwindow.obj
 0001:00035316       ??_EQStatusBar@@W7AEPAXI@Z 00436316 f i mainwindow.obj
 0001:0003531e       ??_EQTextBrowser@@W7AEPAXI@Z 0043631e f i mainwindow.obj
 0001:00035326       ??_EQTextEdit@@W7AEPAXI@Z  00436326 f i mainwindow.obj
 0001:0003532e       ??_EQTreeView@@W7AEPAXI@Z  0043632e f i mainwindow.obj
 0001:00035340       ??_ECMainWindow@@UAEPAXI@Z 00436340 f i mainwindow.obj
 0001:00035340       ??_GCMainWindow@@UAEPAXI@Z 00436340 f i mainwindow.obj
 0001:00035480       ??_GQDockWidget@@UAEPAXI@Z 00436480 f i mainwindow.obj
 0001:00035480       ??_EQDockWidget@@UAEPAXI@Z 00436480 f i mainwindow.obj
 0001:000354b0       ??_GQSqlTableModel@@UAEPAXI@Z 004364b0 f i mainwindow.obj
 0001:000354b0       ??_EQSqlTableModel@@UAEPAXI@Z 004364b0 f i mainwindow.obj
 0001:000354e0       ??_GQStatusBar@@UAEPAXI@Z  004364e0 f i mainwindow.obj
 0001:000354e0       ??_EQStatusBar@@UAEPAXI@Z  004364e0 f i mainwindow.obj
 0001:00035510       ??_GQTextBrowser@@UAEPAXI@Z 00436510 f i mainwindow.obj
 0001:00035510       ??_EQTextBrowser@@UAEPAXI@Z 00436510 f i mainwindow.obj
 0001:00035540       ??_EQTextEdit@@UAEPAXI@Z   00436540 f i mainwindow.obj
 0001:00035540       ??_GQTextEdit@@UAEPAXI@Z   00436540 f i mainwindow.obj
 0001:00035570       ??_EQTreeView@@UAEPAXI@Z   00436570 f i mainwindow.obj
 0001:00035570       ??_GQTreeView@@UAEPAXI@Z   00436570 f i mainwindow.obj
 0001:000355a0       ?FileMenuClicked@CMainWindow@@AAEXVQRect@@@Z 004365a0 f   mainwindow.obj
 0001:000357e0       ?changeUIelements@CMainWindow@@AAEXUuiElements@@@Z 004367e0 f   mainwindow.obj
 0001:00036190       ?closeEvent@CMainWindow@@MAEXPAVQCloseEvent@@@Z 00437190 f   mainwindow.obj
 0001:000361a0       ?createDaq@CMainWindow@@QAEXHVQString@@0@Z 004371a0 f   mainwindow.obj
 0001:000363d0       ?impl@?$QSlotObject@P8CMainWindow@@AEXUuiElements@@@ZU?$List@UuiElements@@@QtPrivate@@X@QtPrivate@@CAXHPAVQSlotObjectBase@2@PAVQObject@@PAPAXPA_N@Z 004373d0 f i mainwindow.obj
 0001:000363d0       ?impl@?$QSlotObject@P8mainTab@@AEXUuiElements@@@ZU?$List@UuiElements@@@QtPrivate@@X@QtPrivate@@CAXHPAVQSlotObjectBase@2@PAVQObject@@PAPAXPA_N@Z 004373d0 f i mainwindow.obj
 0001:00036470       ?impl@?$QSlotObject@P8mainTab@@AEXH@ZU?$List@H@QtPrivate@@X@QtPrivate@@CAXHPAVQSlotObjectBase@2@PAVQObject@@PAPAXPA_N@Z 00437470 f i mainwindow.obj
 0001:000364e0       ?impl@?$QSlotObject@P8mainTab@@AEX_N@ZU?$List@_N@QtPrivate@@X@QtPrivate@@CAXHPAVQSlotObjectBase@2@PAVQObject@@PAPAXPA_N@Z 004374e0 f i mainwindow.obj
 0001:00036550       ?initSql@CMainWindow@@QAEXXZ 00437550 f   mainwindow.obj
 0001:00037580       ?on_actionOpen_triggered@CMainWindow@@AAEXXZ 00438580 f   mainwindow.obj
 0001:000375b0       ?retranslateUi@Ui_MainWindow@@QAEXPAVQMainWindow@@@Z 004385b0 f i mainwindow.obj
 0001:00037eb0       ?setupUi@Ui_MainWindow@@QAEXPAVQMainWindow@@@Z 00438eb0 f i mainwindow.obj
 0001:00039c60       ?tabActionTriggered@CMainWindow@@AAEXXZ 0043ac60 f   mainwindow.obj
 0001:00039d10       ?updateMessage@CMainWindow@@QAEXVQString@@@Z 0043ad10 f   mainwindow.obj
 0001:00039e80       ??0settingWifiJunyue@@QAE@PAVQWidget@@@Z 0043ae80 f   settingwifijunyue.obj
 0001:0003a180       ??1settingWifiJunyue@@UAE@XZ 0043b180 f   settingwifijunyue.obj
 0001:0003a360       ??Y?$QList@N@@QAEAAV0@ABV0@@Z 0043b360 f i settingwifijunyue.obj
 0001:0003a47d       ??_EQGroupBox@@W7AEPAXI@Z  0043b47d f i settingwifijunyue.obj
 0001:0003a485       ??_EsettingWifiJunyue@@W7AEPAXI@Z 0043b485 f i settingwifijunyue.obj
 0001:0003a490       ??_GQGroupBox@@UAEPAXI@Z   0043b490 f i settingwifijunyue.obj
 0001:0003a490       ??_EQGroupBox@@UAEPAXI@Z   0043b490 f i settingwifijunyue.obj
 0001:0003a4c0       ??_GQRegExpValidator@@UAEPAXI@Z 0043b4c0 f i settingwifijunyue.obj
 0001:0003a4c0       ??_EQRegExpValidator@@UAEPAXI@Z 0043b4c0 f i settingwifijunyue.obj
 0001:0003a4f0       ??_EsettingWifiJunyue@@UAEPAXI@Z 0043b4f0 f i settingwifijunyue.obj
 0001:0003a4f0       ??_GsettingWifiJunyue@@UAEPAXI@Z 0043b4f0 f i settingwifijunyue.obj
 0001:0003a520       ?changeAPinside@settingWifiJunyue@@AAEXPAVWifiApParas@@@Z 0043b520 f   settingwifijunyue.obj
 0001:0003a540       ?enabledFac@settingWifiJunyue@@AAEX_N@Z 0043b540 f   settingwifijunyue.obj
 0001:0003a570       ?flushDNS@settingWifiJunyue@@QAEXVQString@@@Z 0043b570 f   settingwifijunyue.obj
 0001:0003a5d0       ?keyPressEvent@settingWifiJunyue@@MAEXPAVQKeyEvent@@@Z 0043b5d0 f   settingwifijunyue.obj
 0001:0003a600       ?on_btnADch1_clicked@settingWifiJunyue@@AAEXXZ 0043b600 f   settingwifijunyue.obj
 0001:0003a620       ?on_btnADch2_clicked@settingWifiJunyue@@AAEXXZ 0043b620 f   settingwifijunyue.obj
 0001:0003a640       ?on_btnADch3_clicked@settingWifiJunyue@@AAEXXZ 0043b640 f   settingwifijunyue.obj
 0001:0003a660       ?on_btnADch4_clicked@settingWifiJunyue@@AAEXXZ 0043b660 f   settingwifijunyue.obj
 0001:0003a680       ?on_btnADch5_clicked@settingWifiJunyue@@AAEXXZ 0043b680 f   settingwifijunyue.obj
 0001:0003a6a0       ?on_btnADch6_clicked@settingWifiJunyue@@AAEXXZ 0043b6a0 f   settingwifijunyue.obj
 0001:0003a6c0       ?on_btnADch7_clicked@settingWifiJunyue@@AAEXXZ 0043b6c0 f   settingwifijunyue.obj
 0001:0003a6e0       ?on_btnADch8_clicked@settingWifiJunyue@@AAEXXZ 0043b6e0 f   settingwifijunyue.obj
 0001:0003a700       ?on_btnApplyAlert_clicked@settingWifiJunyue@@AAEXXZ 0043b700 f   settingwifijunyue.obj
 0001:0003a930       ?on_btnApplyCh_clicked@settingWifiJunyue@@AAEXXZ 0043b930 f   settingwifijunyue.obj
 0001:0003aa90       ?on_btnApplyDaq_clicked@settingWifiJunyue@@AAEXXZ 0043ba90 f   settingwifijunyue.obj
 0001:0003ac70       ?on_btnApplyNet_clicked@settingWifiJunyue@@AAEXXZ 0043bc70 f   settingwifijunyue.obj
 0001:0003adf0       ?on_btnChangeAP_clicked@settingWifiJunyue@@AAEXXZ 0043bdf0 f   settingwifijunyue.obj
 0001:0003ae00       ?on_btnChangeSN_clicked@settingWifiJunyue@@AAEXXZ 0043be00 f   settingwifijunyue.obj
 0001:0003ae30       ?on_btnChangeServer_clicked@settingWifiJunyue@@AAEXXZ 0043be30 f   settingwifijunyue.obj
 0001:0003aec0       ?on_btnPrepare_clicked@settingWifiJunyue@@AAEXXZ 0043bec0 f   settingwifijunyue.obj
 0001:0003aee0       ?on_btnTempZero_clicked@settingWifiJunyue@@AAEXXZ 0043bee0 f   settingwifijunyue.obj
 0001:0003af00       ?on_btnTemp_clicked@settingWifiJunyue@@AAEXXZ 0043bf00 f   settingwifijunyue.obj
 0001:0003af20       ?on_chkEnableAutoWave_clicked@settingWifiJunyue@@AAEX_N@Z 0043bf20 f   settingwifijunyue.obj
 0001:0003af30       ?on_chkEnableDHCP_stateChanged@settingWifiJunyue@@AAEXH@Z 0043bf30 f   settingwifijunyue.obj
 0001:0003af70       ?on_chkEnableWWW_clicked@settingWifiJunyue@@AAEX_N@Z 0043bf70 f   settingwifijunyue.obj
 0001:0003afc0       ?on_snEdit_editingFinished@settingWifiJunyue@@AAEXXZ 0043bfc0 f   settingwifijunyue.obj
 0001:0003b0a0       ?retranslateUi@Ui_settingWifiJunyue@@QAEXPAVQDialog@@@Z 0043c0a0 f i settingwifijunyue.obj
 0001:0003c880       ?setChs@settingWifiJunyue@@QAEXHH@Z 0043d880 f   settingwifijunyue.obj
 0001:0003cbd0       ?setSN@settingWifiJunyue@@QAEXVQString@@@Z 0043dbd0 f   settingwifijunyue.obj
 0001:0003cc80       ?setupUi@Ui_settingWifiJunyue@@QAEXPAVQDialog@@@Z 0043dc80 f i settingwifijunyue.obj
 0001:000437e0       ?updateAPName@settingWifiJunyue@@QAEXPAVWifiApParas@@@Z 004447e0 f   settingwifijunyue.obj
 0001:000437f0       ?updateAPName@settingWifiJunyue@@QAEXVQString@@@Z 004447f0 f   settingwifijunyue.obj
 0001:00043850       ?updateAlertTimeSpan@settingWifiJunyue@@QAEXHH@Z 00444850 f   settingwifijunyue.obj
 0001:000438a0       ?updateAlertValuesJunyue@settingWifiJunyue@@QAEXV?$QList@M@@@Z 004448a0 f   settingwifijunyue.obj
 0001:00043b50       ?updateAutoSpanFromWs@settingWifiJunyue@@QAEXH@Z 00444b50 f   settingwifijunyue.obj
 0001:00043b90       ?updateChParas@settingWifiJunyue@@QAEXVWifiChParas@@@Z 00444b90 f   settingwifijunyue.obj
 0001:00043cc0       ?updateChStatus@settingWifiJunyue@@QAEXG@Z 00444cc0 f   settingwifijunyue.obj
 0001:00043d60       ?updateChannelFSFromWs@settingWifiJunyue@@QAEXV?$QList@N@@@Z 00444d60 f   settingwifijunyue.obj
 0001:00043f20       ?updateFS@settingWifiJunyue@@QAEXVWifiFsParas@@@Z 00444f20 f   settingwifijunyue.obj
 0001:00044050       ?updateFsMode@settingWifiJunyue@@QAEXH@Z 00445050 f   settingwifijunyue.obj
 0001:00044070       ?updateHeartSpan@settingWifiJunyue@@QAEXH_N@Z 00445070 f   settingwifijunyue.obj
 0001:000440a0       ?updateNet@settingWifiJunyue@@QAEXVWifiNetParas@@@Z 004450a0 f   settingwifijunyue.obj
 0001:00044170       ?updatePowerMode2@settingWifiJunyue@@QAEXEEEE@Z 00445170 f   settingwifijunyue.obj
 0001:000441d0       ?updatePowerMode@settingWifiJunyue@@QAEXEEE@Z 004451d0 f   settingwifijunyue.obj
 0001:00044220       ?updateTCPserver@settingWifiJunyue@@QAEXVQString@@H0@Z 00445220 f   settingwifijunyue.obj
 0001:000442a0       ?updateTCPserver@settingWifiJunyue@@QAEXVQString@@H@Z 004452a0 f   settingwifijunyue.obj
 0001:00044310       ??0?$QList@N@@QAE@XZ       00445310 f i tcpclient.obj
 0001:00044320       ??0tcpClient@@QAE@PAVQObject@@@Z 00445320 f   tcpclient.obj
 0001:00044540       ??1tcpClient@@UAE@XZ       00445540 f   tcpclient.obj
 0001:00044740       ??_GtcpClient@@UAEPAXI@Z   00445740 f i tcpclient.obj
 0001:00044740       ??_EtcpClient@@UAEPAXI@Z   00445740 f i tcpclient.obj
 0001:00044770       ?characterForHttp@tcpClient@@QAEXVQString@@0HPANH@Z 00445770 f   tcpclient.obj
 0001:00044c50       ?characterForTCP@tcpClient@@QAEXVQString@@0V?$QList@E@@V?$QList@H@@1V?$QList@M@@_K@Z 00445c50 f   tcpclient.obj
 0001:00045670       ?characterForTCP@tcpClient@@QAEXVQString@@V?$QList@E@@V?$QList@H@@1V?$QList@M@@_K@Z 00446670 f   tcpclient.obj
 0001:00045f60       ?charactersJunyue@tcpClient@@QAEXVQString@@0V?$QList@M@@V?$QList@_N@@@Z 00446f60 f   tcpclient.obj
 0001:000463d0       ?setServer@tcpClient@@QAEXVQString@@HH@Z 004473d0 f   tcpclient.obj
 0001:00046410       ?setUpHttpServer@tcpClient@@QAEXVQString@@H@Z 00447410 f   tcpclient.obj
 0001:00046440       ?setUpTcpServer@tcpClient@@QAEXVQString@@H@Z 00447440 f   tcpclient.obj
 0001:00046470       ?statusStop@tcpClient@@QAEXXZ 00447470 f   tcpclient.obj
 0001:00046480       ?tempForHttp@tcpClient@@QAEXVQString@@NN@Z 00447480 f   tcpclient.obj
 0001:000464b0       ?updateCharacter@tcpClient@@QAEXVQString@@H_KV?$QList@N@@V?$QList@H@@@Z 004474b0 f   tcpclient.obj
 0001:00046c90       ?waveForHttp@tcpClient@@QAEXVQString@@0HPANH@Z 00447c90 f   tcpclient.obj
 0001:00047270       ?waveJunyue@tcpClient@@QAEXVQString@@VQByteArray@@HPAV?$QList@N@@@Z 00448270 f   tcpclient.obj
 0001:000478f0       ??0wsClient@@QAE@PAVQObject@@@Z 004488f0 f   wsclient.obj
 0001:00047920       ??_GQWebSocket@@UAEPAXI@Z  00448920 f i wsclient.obj
 0001:00047920       ??_EQWebSocket@@UAEPAXI@Z  00448920 f i wsclient.obj
 0001:00047950       ??_GwsClient@@UAEPAXI@Z    00448950 f i wsclient.obj
 0001:00047950       ??_EwsClient@@UAEPAXI@Z    00448950 f i wsclient.obj
 0001:000479f0       ?detach_helper@?$QList@N@@AAEXH@Z 004489f0 f i wsclient.obj
 0001:00047ab0       ?impl@?$QSlotObject@P8wsClient@@AEXW4SocketState@QAbstractSocket@@@ZU?$List@W4SocketState@QAbstractSocket@@@QtPrivate@@X@QtPrivate@@CAXHPAVQSlotObjectBase@2@PAVQObject@@PAPAXPA_N@Z 00448ab0 f i wsclient.obj
 0001:00047b10       ?readingData@wsClient@@QAEXVQString@@@Z 00448b10 f   wsclient.obj
 0001:00047e40       ?removeFirst@?$QList@N@@QAEXXZ 00448e40 f i wsclient.obj
 0001:00047ed0       ?sendingData@wsClient@@QAEXVQString@@@Z 00448ed0 f   wsclient.obj
 0001:00047f40       ?sockStateChange@wsClient@@QAEXW4SocketState@QAbstractSocket@@@Z 00448f40 f   wsclient.obj
 0001:00047f70       ?startWs@wsClient@@QAEXVQString@@@Z 00448f70 f   wsclient.obj
 0001:00048220       ?statusOff@wsClient@@QAEXXZ 00449220 f   wsclient.obj
 0001:00048230       ?statusOn@wsClient@@QAEXXZ 00449230 f   wsclient.obj
 0001:00048240       ?qt_static_metacall@mySave@@CAXPAVQObject@@W4Call@QMetaObject@@HPAPAX@Z 00449240 f   moc_mysave.obj
 0001:00048400       ?metaObject@MySocket@@UBEPBUQMetaObject@@XZ 00449400 f   moc_mysocket.obj
 0001:00048420       ?qt_metacall@MySocket@@UAEHW4Call@QMetaObject@@HPAPAX@Z 00449420 f   moc_mysocket.obj
 0001:00048480       ?qt_metacast@MySocket@@UAEPAXPBD@Z 00449480 f   moc_mysocket.obj
 0001:000484e0       ?qt_static_metacall@MySocket@@CAXPAVQObject@@W4Call@QMetaObject@@HPAPAX@Z 004494e0 f   moc_mysocket.obj
 0001:000485a0       ?revData@MySocket@@QAEXVQString@@VQByteArray@@@Z 004495a0 f   moc_mysocket.obj
 0001:00048630       ?qt_static_metacall@saveDataThread@@CAXPAVQObject@@W4Call@QMetaObject@@HPAPAX@Z 00449630 f   moc_savedatathread.obj
 0001:00048680       ?startOK@saveDataThread@@QAEXXZ 00449680 f   moc_savedatathread.obj
 0001:000486a0       ?characterForHttp@tcpDataAnalysis@@QAEXVQString@@0HPANH@Z 004496a0 f   moc_tcpdataanalysis.obj
 0001:00048740       ?createWidget@tcpDataAnalysis@@QAEXHVQString@@0@Z 00449740 f   moc_tcpdataanalysis.obj
 0001:000487d0       ?dataInfo@tcpDataAnalysis@@QAEXVQString@@@Z 004497d0 f   moc_tcpdataanalysis.obj
 0001:00048840       ?metaObject@tcpDataAnalysis@@UBEPBUQMetaObject@@XZ 00449840 f   moc_tcpdataanalysis.obj
 0001:00048860       ?noResponse@tcpDataAnalysis@@QAEXXZ 00449860 f   moc_tcpdataanalysis.obj
 0001:00048880       ?qt_metacall@tcpDataAnalysis@@UAEHW4Call@QMetaObject@@HPAPAX@Z 00449880 f   moc_tcpdataanalysis.obj
 0001:000488d0       ?qt_metacast@tcpDataAnalysis@@UAEPAXPBD@Z 004498d0 f   moc_tcpdataanalysis.obj
 0001:00048930       ?qt_static_metacall@tcpDataAnalysis@@CAXPAVQObject@@W4Call@QMetaObject@@HPAPAX@Z 00449930 f   moc_tcpdataanalysis.obj
 0001:00049970       ?readyForRead@tcpDataAnalysis@@QAEXH@Z 0044a970 f   moc_tcpdataanalysis.obj
 0001:000499a0       ?readyForsendFirmware@tcpDataAnalysis@@QAEXXZ 0044a9a0 f   moc_tcpdataanalysis.obj
 0001:000499c0       ?saveErrorData@tcpDataAnalysis@@QAEXVQString@@0EH@Z 0044a9c0 f   moc_tcpdataanalysis.obj
 0001:00049a50       ?sendOver2@tcpDataAnalysis@@QAEXXZ 0044aa50 f   moc_tcpdataanalysis.obj
 0001:00049a70       ?sendOver@tcpDataAnalysis@@QAEXVQString@@@Z 0044aa70 f   moc_tcpdataanalysis.obj
 0001:00049ae0       ?stopUpdate@tcpDataAnalysis@@QAEXXZ 0044aae0 f   moc_tcpdataanalysis.obj
 0001:00049b00       ?tempForHttp@tcpDataAnalysis@@QAEXVQString@@NN@Z 0044ab00 f   moc_tcpdataanalysis.obj
 0001:00049b90       ?updateAPdata@tcpDataAnalysis@@QAEXVQString@@VWifiApParas@@@Z 0044ab90 f   moc_tcpdataanalysis.obj
 0001:00049c20       ?updateAlertData@tcpDataAnalysis@@QAEXVQString@@PAMH@Z 0044ac20 f   moc_tcpdataanalysis.obj
 0001:00049cb0       ?updateAlertJunyue@tcpDataAnalysis@@QAEXVQString@@V?$QList@M@@@Z 0044acb0 f   moc_tcpdataanalysis.obj
 0001:00049d60       ?updateAlertRule@tcpDataAnalysis@@QAEXVQString@@HVQByteArray@@@Z 0044ad60 f   moc_tcpdataanalysis.obj
 0001:00049df0       ?updateAlertRuleFitness@tcpDataAnalysis@@QAEXVQString@@VQByteArray@@@Z 0044adf0 f   moc_tcpdataanalysis.obj
 0001:00049e80       ?updateAlertStatus@tcpDataAnalysis@@QAEXVQString@@H@Z 0044ae80 f   moc_tcpdataanalysis.obj
 0001:00049f00       ?updateAlertTimeSpan@tcpDataAnalysis@@QAEXVQString@@HH@Z 0044af00 f   moc_tcpdataanalysis.obj
 0001:00049fa0       ?updateAutoWave2@tcpDataAnalysis@@QAEXVQString@@VQByteArray@@HPAV?$QList@N@@@Z 0044afa0 f   moc_tcpdataanalysis.obj
 0001:0004a040       ?updateAutoWave@tcpDataAnalysis@@QAEXVQString@@HPAV?$QVector@N@@@Z 0044b040 f   moc_tcpdataanalysis.obj
 0001:0004a0d0       ?updateChParas@tcpDataAnalysis@@QAEXVQString@@VWifiChParas@@@Z 0044b0d0 f   moc_tcpdataanalysis.obj
 0001:0004a160       ?updateChStatus@tcpDataAnalysis@@QAEXVQString@@G@Z 0044b160 f   moc_tcpdataanalysis.obj
 0001:0004a1e0       ?updateCharactersJunyue@tcpDataAnalysis@@QAEXVQString@@0V?$QList@M@@V?$QList@_N@@@Z 0044b1e0 f   moc_tcpdataanalysis.obj
 0001:0004a2e0       ?updateComplete@tcpDataAnalysis@@QAEXVQString@@_N@Z 0044b2e0 f   moc_tcpdataanalysis.obj
 0001:0004a360       ?updateCurrentFirmwareVer@tcpDataAnalysis@@QAEXVQString@@0@Z 0044b360 f   moc_tcpdataanalysis.obj
 0001:0004a3f0       ?updateCurrentFreqValue@tcpDataAnalysis@@QAEXVQString@@PAV?$QList@PAVvirbValue@@@@@Z 0044b3f0 f   moc_tcpdataanalysis.obj
 0001:0004a480       ?updateCurrentTemperature@tcpDataAnalysis@@QAEXVQString@@PANH@Z 0044b480 f   moc_tcpdataanalysis.obj
 0001:0004a510       ?updateCurrentVValue@tcpDataAnalysis@@QAEXVQString@@PAV?$QList@PAVvirbValue@@@@@Z 0044b510 f   moc_tcpdataanalysis.obj
 0001:0004a5a0       ?updateErrorData@tcpDataAnalysis@@QAEXVQString@@@Z 0044b5a0 f   moc_tcpdataanalysis.obj
 0001:0004a610       ?updateFFT@tcpDataAnalysis@@QAEXVQString@@PAV?$QVector@N@@@Z 0044b610 f   moc_tcpdataanalysis.obj
 0001:0004a6a0       ?updateFsMode@tcpDataAnalysis@@QAEXVQString@@H@Z 0044b6a0 f   moc_tcpdataanalysis.obj
 0001:0004a720       ?updateFsParas@tcpDataAnalysis@@QAEXVQString@@VWifiFsParas@@@Z 0044b720 f   moc_tcpdataanalysis.obj
 0001:0004a7a0       ?updateModbusTemp@tcpDataAnalysis@@QAEXVQString@@N@Z 0044b7a0 f   moc_tcpdataanalysis.obj
 0001:0004a820       ?updateModbusValue@tcpDataAnalysis@@QAEXVQString@@N@Z 0044b820 f   moc_tcpdataanalysis.obj
 0001:0004a8a0       ?updateNetParas@tcpDataAnalysis@@QAEXVQString@@VWifiNetParas@@@Z 0044b8a0 f   moc_tcpdataanalysis.obj
 0001:0004a940       ?updatePowerMode@tcpDataAnalysis@@QAEXVQString@@EEE@Z 0044b940 f   moc_tcpdataanalysis.obj
 0001:0004a9d0       ?updatePowerMode@tcpDataAnalysis@@QAEXVQString@@EEEE@Z 0044b9d0 f   moc_tcpdataanalysis.obj
 0001:0004aa60       ?updateSingleWave@tcpDataAnalysis@@QAEXVQString@@HPAV?$QVector@N@@@Z 0044ba60 f   moc_tcpdataanalysis.obj
 0001:0004aaf0       ?updateSqlTemp@tcpDataAnalysis@@QAEXVQString@@N@Z 0044baf0 f   moc_tcpdataanalysis.obj
 0001:0004ab70       ?updateTCPServer@tcpDataAnalysis@@QAEXVQString@@0H@Z 0044bb70 f   moc_tcpdataanalysis.obj
 0001:0004ac00       ?updateWave@tcpDataAnalysis@@QAEXVQString@@PAV?$QVector@N@@@Z 0044bc00 f   moc_tcpdataanalysis.obj
 0001:0004ac90       ?updateWoliu@tcpDataAnalysis@@QAEXVQString@@PAV?$QVector@N@@0HD@Z 0044bc90 f   moc_tcpdataanalysis.obj
 0001:0004ad30       ?updatevirb@tcpDataAnalysis@@QAEXVQString@@0EHPAN@Z 0044bd30 f   moc_tcpdataanalysis.obj
 0001:0004add0       ?waveForHttp@tcpDataAnalysis@@QAEXVQString@@0HPANH@Z 0044bdd0 f   moc_tcpdataanalysis.obj
 0001:0004ae70       ?aboutToStart@tcpServer@@QAEXVQString@@_N@Z 0044be70 f   moc_tcpserver.obj
 0001:0004aef0       ?adcAdjust@tcpServer@@QAEXVQString@@H@Z 0044bef0 f   moc_tcpserver.obj
 0001:0004af70       ?applyNet@tcpServer@@QAEXVQString@@@Z 0044bf70 f   moc_tcpserver.obj
 0001:0004afe0       ?changeAP@tcpServer@@QAEXVQString@@PAVWifiApParas@@@Z 0044bfe0 f   moc_tcpserver.obj
 0001:0004b070       ?changeChParasDirect@tcpServer@@QAEXVQString@@PAVWifiChParas@@@Z 0044c070 f   moc_tcpserver.obj
 0001:0004b100       ?changeChStatus@tcpServer@@QAEXVQString@@G@Z 0044c100 f   moc_tcpserver.obj
 0001:0004b180       ?changeFsMode@tcpServer@@QAEXVQString@@H@Z 0044c180 f   moc_tcpserver.obj
 0001:0004b200       ?changeFsParasDirect@tcpServer@@QAEXVQString@@PAVWifiFsParas@@@Z 0044c200 f   moc_tcpserver.obj
 0001:0004b290       ?changeNetParas@tcpServer@@QAEXVQString@@PAVWifiNetParas@@@Z 0044c290 f   moc_tcpserver.obj
 0001:0004b320       ?changeSN@tcpServer@@QAEXVQString@@0@Z 0044c320 f   moc_tcpserver.obj
 0001:0004b3b0       ?changeTCPServer1@tcpServer@@QAEXVQString@@H@Z 0044c3b0 f   moc_tcpserver.obj
 0001:0004b430       ?changeTCPServer@tcpServer@@QAEXVQString@@0H0@Z 0044c430 f   moc_tcpserver.obj
 0001:0004b4d0       ?delDaq@tcpServer@@QAEXVQString@@@Z 0044c4d0 f   moc_tcpserver.obj
 0001:0004b540       ?delDevice@tcpServer@@QAEXVQString@@@Z 0044c540 f   moc_tcpserver.obj
 0001:0004b5b0       ?metaObject@tcpServer@@UBEPBUQMetaObject@@XZ 0044c5b0 f   moc_tcpserver.obj
 0001:0004b5d0       ?qt_metacall@tcpServer@@UAEHW4Call@QMetaObject@@HPAPAX@Z 0044c5d0 f   moc_tcpserver.obj
 0001:0004b620       ?qt_metacast@tcpServer@@UAEPAXPBD@Z 0044c620 f   moc_tcpserver.obj
 0001:0004b680       ?qt_static_metacall@tcpServer@@CAXPAVQObject@@W4Call@QMetaObject@@HPAPAX@Z 0044c680 f   moc_tcpserver.obj
 0001:0004cb60       ?saveErrorData@tcpServer@@QAEXVQString@@0EH@Z 0044db60 f   moc_tcpserver.obj
 0001:0004cbf0       ?sendCommands@tcpServer@@QAEXVQString@@VQStringList@@V?$QList@VQVariant@@@@@Z 0044dbf0 f   moc_tcpserver.obj
 0001:0004ccd0       ?setAlertSpanJunyueDirect@tcpServer@@QAEXVQString@@HH@Z 0044dcd0 f   moc_tcpserver.obj
 0001:0004cd60       ?setAlertsDirect@tcpServer@@QAEXVQString@@V?$QList@N@@@Z 0044dd60 f   moc_tcpserver.obj
 0001:0004cdf0       ?setHeartSpan@tcpServer@@QAEXVQString@@H_N@Z 0044ddf0 f   moc_tcpserver.obj
 0001:0004ce80       ?setPowerMode@tcpServer@@QAEXVQString@@EEEE@Z 0044de80 f   moc_tcpserver.obj
 0001:0004cf10       ?setSave@tcpServer@@QAEXVQString@@_N@Z 0044df10 f   moc_tcpserver.obj
 0001:0004cf90       ?startResult@tcpServer@@QAEX_N@Z 0044df90 f   moc_tcpserver.obj
 0001:0004cfc0       ?stopAll@tcpServer@@QAEXXZ 0044dfc0 f   moc_tcpserver.obj
 0001:0004cfe0       ?tempGainAdjust@tcpServer@@QAEXVQString@@@Z 0044dfe0 f   moc_tcpserver.obj
 0001:0004d050       ?tempZeroAdjust@tcpServer@@QAEXVQString@@@Z 0044e050 f   moc_tcpserver.obj
 0001:0004d0c0       ?updateAPdata@tcpServer@@QAEXVQString@@VWifiApParas@@@Z 0044e0c0 f   moc_tcpserver.obj
 0001:0004d150       ?updateAlertData@tcpServer@@QAEXVQString@@PAMH@Z 0044e150 f   moc_tcpserver.obj
 0001:0004d1e0       ?updateAlertJunyue@tcpServer@@QAEXVQString@@V?$QList@M@@@Z 0044e1e0 f   moc_tcpserver.obj
 0001:0004d290       ?updateAlertStatus@tcpServer@@QAEXVQString@@H@Z 0044e290 f   moc_tcpserver.obj
 0001:0004d310       ?updateAlertTimeSpan@tcpServer@@QAEXVQString@@HH@Z 0044e310 f   moc_tcpserver.obj
 0001:0004d3a0       ?updateAutoWave2@tcpServer@@QAEXVQString@@VQByteArray@@HPAV?$QList@N@@@Z 0044e3a0 f   moc_tcpserver.obj
 0001:0004d440       ?updateAutoWave@tcpServer@@QAEXVQString@@HPAV?$QVector@N@@@Z 0044e440 f   moc_tcpserver.obj
 0001:0004d4d0       ?updateChParas@tcpServer@@QAEXVQString@@VWifiChParas@@@Z 0044e4d0 f   moc_tcpserver.obj
 0001:0004d560       ?updateChStatus@tcpServer@@QAEXVQString@@G@Z 0044e560 f   moc_tcpserver.obj
 0001:0004d5e0       ?updateCharactersJunyue@tcpServer@@QAEXVQString@@0V?$QList@M@@V?$QList@_N@@@Z 0044e5e0 f   moc_tcpserver.obj
 0001:0004d6e0       ?updateCurrentFirmwareVer@tcpServer@@QAEXVQString@@0@Z 0044e6e0 f   moc_tcpserver.obj
 0001:0004d770       ?updateCurrentTemperature@tcpServer@@QAEXVQString@@PANH@Z 0044e770 f   moc_tcpserver.obj
 0001:0004d800       ?updateCurrentVValue@tcpServer@@QAEXVQString@@PAV?$QList@PAVvirbValue@@@@@Z 0044e800 f   moc_tcpserver.obj
 0001:0004d890       ?updateDeviceInfo@tcpServer@@QAEXHVQString@@0@Z 0044e890 f   moc_tcpserver.obj
 0001:0004d920       ?updateDeviceStatus@tcpServer@@QAEXHVQString@@@Z 0044e920 f   moc_tcpserver.obj
 0001:0004d9a0       ?updateFFT@tcpServer@@QAEXVQString@@PAV?$QVector@N@@@Z 0044e9a0 f   moc_tcpserver.obj
 0001:0004da30       ?updateFsMode@tcpServer@@QAEXVQString@@H@Z 0044ea30 f   moc_tcpserver.obj
 0001:0004dab0       ?updateFsParas@tcpServer@@QAEXVQString@@VWifiFsParas@@@Z 0044eab0 f   moc_tcpserver.obj
 0001:0004db30       ?updateMessage@tcpServer@@QAEXVQString@@@Z 0044eb30 f   moc_tcpserver.obj
 0001:0004dba0       ?updateModbusTemp@tcpServer@@QAEXVQString@@N@Z 0044eba0 f   moc_tcpserver.obj
 0001:0004dc20       ?updateModbusValue@tcpServer@@QAEXVQString@@N@Z 0044ec20 f   moc_tcpserver.obj
 0001:0004dca0       ?updateNetParas@tcpServer@@QAEXVQString@@VWifiNetParas@@@Z 0044eca0 f   moc_tcpserver.obj
 0001:0004dd40       ?updatePowerMode2@tcpServer@@QAEXVQString@@EEEE@Z 0044ed40 f   moc_tcpserver.obj
 0001:0004ddd0       ?updatePowerMode@tcpServer@@QAEXVQString@@EEE@Z 0044edd0 f   moc_tcpserver.obj
 0001:0004de60       ?updateSingleWave@tcpServer@@QAEXVQString@@HPAV?$QVector@N@@@Z 0044ee60 f   moc_tcpserver.obj
 0001:0004def0       ?updateTCPServer@tcpServer@@QAEXVQString@@0H@Z 0044eef0 f   moc_tcpserver.obj
 0001:0004df80       ?updateWave@tcpServer@@QAEXVQString@@PAV?$QVector@N@@@Z 0044ef80 f   moc_tcpserver.obj
 0001:0004e010       ?widgetReady@tcpServer@@QAEXVQString@@@Z 0044f010 f   moc_tcpserver.obj
 0001:0004e080       ?aboutTosendCommand@tcpServerThread@@QAEXVQString@@@Z 0044f080 f   moc_tcpserverthread.obj
 0001:0004e0f0       ?addressReady@tcpServerThread@@QAEXVQString@@@Z 0044f0f0 f   moc_tcpserverthread.obj
 0001:0004e160       ?commandSent@tcpServerThread@@QAEXVQStringList@@@Z 0044f160 f   moc_tcpserverthread.obj
 0001:0004e1d0       ?connInfo@tcpServerThread@@QAEXHVQString@@@Z 0044f1d0 f   moc_tcpserverthread.obj
 0001:0004e250       ?createWidget@tcpServerThread@@QAEXHVQString@@0@Z 0044f250 f   moc_tcpserverthread.obj
 0001:0004e2e0       ?disconnInfo@tcpServerThread@@QAEXHVQString@@@Z 0044f2e0 f   moc_tcpserverthread.obj
 0001:0004e360       ?disconnectTCP@tcpServerThread@@QAEXH@Z 0044f360 f   moc_tcpserverthread.obj
 0001:0004e390       ?errerInfo@tcpServerThread@@QAEXVQString@@@Z 0044f390 f   moc_tcpserverthread.obj
 0001:0004e400       ?metaObject@tcpServerThread@@UBEPBUQMetaObject@@XZ 0044f400 f   moc_tcpserverthread.obj
 0001:0004e420       ?qt_metacall@tcpServerThread@@UAEHW4Call@QMetaObject@@HPAPAX@Z 0044f420 f   moc_tcpserverthread.obj
 0001:0004e470       ?qt_metacast@tcpServerThread@@UAEPAXPBD@Z 0044f470 f   moc_tcpserverthread.obj
 0001:0004e4d0       ?qt_static_metacall@tcpServerThread@@CAXPAVQObject@@W4Call@QMetaObject@@HPAPAX@Z 0044f4d0 f   moc_tcpserverthread.obj
 0001:0004fc60       ?reset30@tcpServerThread@@QAEXH@Z 00450c60 f   moc_tcpserverthread.obj
 0001:0004fc90       ?revData@tcpServerThread@@QAEXVQString@@VQByteArray@@@Z 00450c90 f   moc_tcpserverthread.obj
 0001:0004fd20       ?saveErrorData@tcpServerThread@@QAEXVQString@@0EH@Z 00450d20 f   moc_tcpserverthread.obj
 0001:0004fdb0       ?sendDat@tcpServerThread@@QAEXVQByteArray@@H@Z 00450db0 f   moc_tcpserverthread.obj
 0001:0004fe30       ?setSave@tcpServerThread@@QAEXVQString@@_N@Z 00450e30 f   moc_tcpserverthread.obj
 0001:0004feb0       ?stopSocket@tcpServerThread@@QAEXXZ 00450eb0 f   moc_tcpserverthread.obj
 0001:0004fed0       ?updateAPdata@tcpServerThread@@QAEXVQString@@VWifiApParas@@@Z 00450ed0 f   moc_tcpserverthread.obj
 0001:0004ff60       ?updateAlertData@tcpServerThread@@QAEXVQString@@PAMH@Z 00450f60 f   moc_tcpserverthread.obj
 0001:0004fff0       ?updateAlertJunyue@tcpServerThread@@QAEXVQString@@V?$QList@M@@@Z 00450ff0 f   moc_tcpserverthread.obj
 0001:000500a0       ?updateAlertRule@tcpServerThread@@QAEXVQString@@HVQByteArray@@@Z 004510a0 f   moc_tcpserverthread.obj
 0001:00050130       ?updateAlertRuleFitness@tcpServerThread@@QAEXVQString@@VQByteArray@@@Z 00451130 f   moc_tcpserverthread.obj
 0001:000501c0       ?updateAlertStatus@tcpServerThread@@QAEXVQString@@H@Z 004511c0 f   moc_tcpserverthread.obj
 0001:00050240       ?updateAlertTimeSpan@tcpServerThread@@QAEXVQString@@HH@Z 00451240 f   moc_tcpserverthread.obj
 0001:000502d0       ?updateAutoWave2@tcpServerThread@@QAEXVQString@@VQByteArray@@HPAV?$QList@N@@@Z 004512d0 f   moc_tcpserverthread.obj
 0001:00050370       ?updateAutoWave@tcpServerThread@@QAEXVQString@@HPAV?$QVector@N@@@Z 00451370 f   moc_tcpserverthread.obj
 0001:00050400       ?updateChParas@tcpServerThread@@QAEXVQString@@VWifiChParas@@@Z 00451400 f   moc_tcpserverthread.obj
 0001:00050490       ?updateChStatus@tcpServerThread@@QAEXVQString@@G@Z 00451490 f   moc_tcpserverthread.obj
 0001:00050510       ?updateCharactersJunyue@tcpServerThread@@QAEXVQString@@0V?$QList@M@@V?$QList@_N@@@Z 00451510 f   moc_tcpserverthread.obj
 0001:00050610       ?updateCurrentFirmwareVer@tcpServerThread@@QAEXVQString@@0@Z 00451610 f   moc_tcpserverthread.obj
 0001:000506a0       ?updateCurrentFreqValue@tcpServerThread@@QAEXVQString@@PAV?$QList@PAVvirbValue@@@@@Z 004516a0 f   moc_tcpserverthread.obj
 0001:00050730       ?updateCurrentTemperature@tcpServerThread@@QAEXVQString@@PANH@Z 00451730 f   moc_tcpserverthread.obj
 0001:000507c0       ?updateCurrentVValue@tcpServerThread@@QAEXVQString@@PAV?$QList@PAVvirbValue@@@@@Z 004517c0 f   moc_tcpserverthread.obj
 0001:00050850       ?updateFFT@tcpServerThread@@QAEXVQString@@PAV?$QVector@N@@@Z 00451850 f   moc_tcpserverthread.obj
 0001:000508e0       ?updateFsMode@tcpServerThread@@QAEXVQString@@H@Z 004518e0 f   moc_tcpserverthread.obj
 0001:00050960       ?updateFsParas@tcpServerThread@@QAEXVQString@@VWifiFsParas@@@Z 00451960 f   moc_tcpserverthread.obj
 0001:000509e0       ?updateNetParas@tcpServerThread@@QAEXVQString@@VWifiNetParas@@@Z 004519e0 f   moc_tcpserverthread.obj
 0001:00050a80       ?updatePowerMode@tcpServerThread@@QAEXVQString@@EEE@Z 00451a80 f   moc_tcpserverthread.obj
 0001:00050b10       ?updatePowerMode@tcpServerThread@@QAEXVQString@@EEEE@Z 00451b10 f   moc_tcpserverthread.obj
 0001:00050ba0       ?updateSingleWave@tcpServerThread@@QAEXVQString@@HPAV?$QVector@N@@@Z 00451ba0 f   moc_tcpserverthread.obj
 0001:00050c30       ?updateStatus@tcpServerThread@@QAEXVQString@@HH@Z 00451c30 f   moc_tcpserverthread.obj
 0001:00050cc0       ?updateTCPServer@tcpServerThread@@QAEXVQString@@0H@Z 00451cc0 f   moc_tcpserverthread.obj
 0001:00050d50       ?updateUpdateResult@tcpServerThread@@QAEXVQString@@_N@Z 00451d50 f   moc_tcpserverthread.obj
 0001:00050dd0       ?updateWave@tcpServerThread@@QAEXVQString@@PAMH@Z 00451dd0 f   moc_tcpserverthread.obj
 0001:00050e60       ?updateWave@tcpServerThread@@QAEXVQString@@PAV?$QVector@N@@@Z 00451e60 f   moc_tcpserverthread.obj
 0001:00050ef0       ?updatevirb@tcpServerThread@@QAEXVQString@@0EHPAN@Z 00451ef0 f   moc_tcpserverthread.obj
 0001:00050f90       ?metaObject@virbValue@@UBEPBUQMetaObject@@XZ 00451f90 f   moc_virbvalue.obj
 0001:00050fb0       ?qt_metacall@WifiChParas@@UAEHW4Call@QMetaObject@@HPAPAX@Z 00451fb0 f   moc_wifichparas.obj
 0001:00050fb0       ?qt_metacall@netParas@@UAEHW4Call@QMetaObject@@HPAPAX@Z 00451fb0 f   moc_structs.obj
 0001:00050fb0       ?qt_metacall@virbValue@@UAEHW4Call@QMetaObject@@HPAPAX@Z 00451fb0 f   moc_virbvalue.obj
 0001:00050fc0       ?qt_metacast@virbValue@@UAEPAXPBD@Z 00451fc0 f   moc_virbvalue.obj
 0001:00051020       ?metaObject@WifiChParas@@UBEPBUQMetaObject@@XZ 00452020 f   moc_wifichparas.obj
 0001:00051040       ?qt_metacast@WifiChParas@@UAEPAXPBD@Z 00452040 f   moc_wifichparas.obj
 0001:000510a0       ?metaObject@alertChJunyue@@UBEPBUQMetaObject@@XZ 004520a0 f   moc_alertchjunyue.obj
 0001:000510c0       ?qt_metacall@alertChJunyue@@UAEHW4Call@QMetaObject@@HPAPAX@Z 004520c0 f   moc_alertchjunyue.obj
 0001:000510c0       ?qt_metacall@chControlAFD@@UAEHW4Call@QMetaObject@@HPAPAX@Z 004520c0 f   moc_chcontrolafd.obj
 0001:000510d0       ?qt_metacast@alertChJunyue@@UAEPAXPBD@Z 004520d0 f   moc_alertchjunyue.obj
 0001:00051130       ?changeAP@apDialog@@QAEXPAVWifiApParas@@@Z 00452130 f   moc_apdialog.obj
 0001:00051160       ?metaObject@apDialog@@UBEPBUQMetaObject@@XZ 00452160 f   moc_apdialog.obj
 0001:00051180       ?qt_metacall@apDialog@@UAEHW4Call@QMetaObject@@HPAPAX@Z 00452180 f   moc_apdialog.obj
 0001:000511e0       ?qt_metacast@apDialog@@UAEPAXPBD@Z 004521e0 f   moc_apdialog.obj
 0001:00051240       ?qt_static_metacall@apDialog@@CAXPAVQObject@@W4Call@QMetaObject@@HPAPAX@Z 00452240 f   moc_apdialog.obj
 0001:000512d0       ?closeChild@baseForm2@@QAEXHVQString@@@Z 004522d0 f   moc_baseform2.obj
 0001:00051350       ?metaObject@baseForm2@@UBEPBUQMetaObject@@XZ 00452350 f   moc_baseform2.obj
 0001:00051370       ?qt_metacall@baseForm2@@UAEHW4Call@QMetaObject@@HPAPAX@Z 00452370 f   moc_baseform2.obj
 0001:000513d0       ?qt_metacast@baseForm2@@UAEPAXPBD@Z 004523d0 f   moc_baseform2.obj
 0001:00051430       ?qt_static_metacall@baseForm2@@CAXPAVQObject@@W4Call@QMetaObject@@HPAPAX@Z 00452430 f   moc_baseform2.obj
 0001:00051520       ?changeLabelJunyue@characterForm@@QAEXVQString@@00@Z 00452520 f   moc_characterform.obj
 0001:000515c0       ?metaObject@characterForm@@UBEPBUQMetaObject@@XZ 004525c0 f   moc_characterform.obj
 0001:000515e0       ?qt_metacall@characterForm@@UAEHW4Call@QMetaObject@@HPAPAX@Z 004525e0 f   moc_characterform.obj
 0001:00051630       ?qt_metacast@characterForm@@UAEPAXPBD@Z 00452630 f   moc_characterform.obj
 0001:00051690       ?qt_static_metacall@characterForm@@CAXPAVQObject@@W4Call@QMetaObject@@HPAPAX@Z 00452690 f   moc_characterform.obj
 0001:000518c0       ?metaObject@chControlAFD@@UBEPBUQMetaObject@@XZ 004528c0 f   moc_chcontrolafd.obj
 0001:000518e0       ?qt_metacast@chControlAFD@@UAEPAXPBD@Z 004528e0 f   moc_chcontrolafd.obj
 0001:00051940       ?activated@customPlot@@QAEXXZ 00452940 f   moc_customplot.obj
 0001:00051960       ?disactivated@customPlot@@QAEXXZ 00452960 f   moc_customplot.obj
 0001:00051980       ?moved@customPlot@@QAEXXZ  00452980 f   moc_customplot.obj
 0001:000519a0       ?qt_metatype_id@?$QMetaTypeId2@PAVQAction@@@@SAHXZ 004529a0 f i moc_customplot.obj
 0001:00051ad0       ?qt_static_metacall@customPlot@@CAXPAVQObject@@W4Call@QMetaObject@@HPAPAX@Z 00452ad0 f   moc_customplot.obj
 0001:000521f0       ??1netParas@@UAE@XZ        004531f0 f i moc_daqinfo.obj
 0001:00052220       ??_EnetParas@@UAEPAXI@Z    00453220 f i moc_daqinfo.obj
 0001:00052220       ??_GnetParas@@UAEPAXI@Z    00453220 f i moc_daqinfo.obj
 0001:00052260       ?aboutToDelete@daqInfo@@QAEXXZ 00453260 f   moc_daqinfo.obj
 0001:00052280       ?aboutToStart@daqInfo@@QAEXVQString@@_N@Z 00453280 f   moc_daqinfo.obj
 0001:00052300       ?adcAdjust@daqInfo@@QAEXVQString@@H@Z 00453300 f   moc_daqinfo.obj
 0001:00052380       ?applyNet@daqInfo@@QAEXVQString@@@Z 00453380 f   moc_daqinfo.obj
 0001:000523f0       ?changeAP@daqInfo@@QAEXVQString@@PAVWifiApParas@@@Z 004533f0 f   moc_daqinfo.obj
 0001:00052480       ?changeChParas@daqInfo@@QAEXVQString@@PAVWifiChParas@@@Z 00453480 f   moc_daqinfo.obj
 0001:00052510       ?changeChParasDirect@daqInfo@@QAEXVQString@@PAVWifiChParas@@@Z 00453510 f   moc_daqinfo.obj
 0001:000525a0       ?changeChStatus@daqInfo@@QAEXVQString@@G@Z 004535a0 f   moc_daqinfo.obj
 0001:00052620       ?changeFsMode@daqInfo@@QAEXVQString@@H@Z 00453620 f   moc_daqinfo.obj
 0001:000526a0       ?changeFsParas@daqInfo@@QAEXVQString@@PAVWifiFsParas@@@Z 004536a0 f   moc_daqinfo.obj
 0001:00052730       ?changeFsParasDirect@daqInfo@@QAEXVQString@@PAVWifiFsParas@@@Z 00453730 f   moc_daqinfo.obj
 0001:000527c0       ?changeNetParas@daqInfo@@QAEXVQString@@PAVWifiNetParas@@@Z 004537c0 f   moc_daqinfo.obj
 0001:00052850       ?changeSN@daqInfo@@QAEXVQString@@0@Z 00453850 f   moc_daqinfo.obj
 0001:000528e0       ?changeTCPServer1@daqInfo@@QAEXVQString@@H@Z 004538e0 f   moc_daqinfo.obj
 0001:00052960       ?changeTCPServer@daqInfo@@QAEXVQString@@0H0@Z 00453960 f   moc_daqinfo.obj
 0001:00052a00       ?characterForTcp@daqInfo@@QAEXVQString@@0V?$QList@M@@V?$QList@_N@@@Z 00453a00 f   moc_daqinfo.obj
 0001:00052b00       ?clicked@daqInfo@@QAEXXZ   00453b00 f   moc_daqinfo.obj
 0001:00052b20       ?flushDNS@daqInfo@@QAEXVQString@@@Z 00453b20 f   moc_daqinfo.obj
 0001:00052b90       ?metaObject@daqInfo@@UBEPBUQMetaObject@@XZ 00453b90 f   moc_daqinfo.obj
 0001:00052bb0       ?qt_metacall@daqInfo@@UAEHW4Call@QMetaObject@@HPAPAX@Z 00453bb0 f   moc_daqinfo.obj
 0001:00052c70       ?qt_metacast@daqInfo@@UAEPAXPBD@Z 00453c70 f   moc_daqinfo.obj
 0001:00052cd0       ?qt_static_metacall@daqInfo@@CAXPAVQObject@@W4Call@QMetaObject@@HPAPAX@Z 00453cd0 f   moc_daqinfo.obj
 0001:000546c0       ?sendRule@daqInfo@@QAEXVQByteArray@@@Z 004556c0 f   moc_daqinfo.obj
 0001:00054730       ?setAP@daqInfo@@QAEXPAVWifiApParas@@@Z 00455730 f   moc_daqinfo.obj
 0001:00054760       ?setAlertSpanJunyue@daqInfo@@QAEXVQString@@HH@Z 00455760 f   moc_daqinfo.obj
 0001:000547f0       ?setAlerts@daqInfo@@QAEXVQString@@V?$QList@N@@@Z 004557f0 f   moc_daqinfo.obj
 0001:00054880       ?setChs@daqInfo@@QAEXHH@Z  00455880 f   moc_daqinfo.obj
 0001:000548d0       ?setDNS@daqInfo@@QAEXVQString@@@Z 004558d0 f   moc_daqinfo.obj
 0001:00054940       ?setHeartSpan@daqInfo@@QAEXVQString@@H_N@Z 00455940 f   moc_daqinfo.obj
 0001:000549d0       ?setNet@daqInfo@@QAEXVnetParas@@@Z 004559d0 f   moc_daqinfo.obj
 0001:00054a60       ?setPowerMode@daqInfo@@QAEXVQString@@EEEE@Z 00455a60 f   moc_daqinfo.obj
 0001:00054af0       ?setSN2Dev@daqInfo@@QAEXVQString@@@Z 00455af0 f   moc_daqinfo.obj
 0001:00054b60       ?setUpTcpAddress@daqInfo@@QAEXVQString@@H@Z 00455b60 f   moc_daqinfo.obj
 0001:00054be0       ?tempGainAdjust@daqInfo@@QAEXVQString@@@Z 00455be0 f   moc_daqinfo.obj
 0001:00054c50       ?tempZeroAdjust@daqInfo@@QAEXVQString@@@Z 00455c50 f   moc_daqinfo.obj
 0001:00054cc0       ?updateAP@daqInfo@@QAEXPAVWifiApParas@@@Z 00455cc0 f   moc_daqinfo.obj
 0001:00054cf0       ?updateAPName@daqInfo@@QAEXPAVWifiApParas@@@Z 00455cf0 f   moc_daqinfo.obj
 0001:00054d20       ?updateAlertRule@daqInfo@@QAEXHVQByteArray@@@Z 00455d20 f   moc_daqinfo.obj
 0001:00054da0       ?updateAlertRuleFitness@daqInfo@@QAEXVQByteArray@@@Z 00455da0 f   moc_daqinfo.obj
 0001:00054e10       ?updateFS@daqInfo@@QAEXPAVWifiFsParas@@@Z 00455e10 f   moc_daqinfo.obj
 0001:00054e40       ?updateFirmware@daqInfo@@QAEXVQString@@0@Z 00455e40 f   moc_daqinfo.obj
 0001:00054ed0       ?updateHeartSpan@daqInfo@@QAEXH_N@Z 00455ed0 f   moc_daqinfo.obj
 0001:00054f20       ?updateNet@daqInfo@@QAEXPAVWifiNetParas@@@Z 00455f20 f   moc_daqinfo.obj
 0001:00054f50       ?updateSqlTemp@daqInfo@@QAEXVQString@@000@Z 00455f50 f   moc_daqinfo.obj
 0001:00055000       ?updateTCPserver@daqInfo@@QAEXVQString@@H0@Z 00456000 f   moc_daqinfo.obj
 0001:00055090       ?waveForTcp@daqInfo@@QAEXVQString@@VQByteArray@@HPAV?$QList@N@@@Z 00456090 f   moc_daqinfo.obj
 0001:00055130       ?allBytesWritten@QAsynHttpSocket@@QAEXXZ 00456130 f   moc_qasynhttpsocket.obj
 0001:00055150       ?getAlertData@QAsynHttpSocket@@QAEXVQString@@E_KV?$QSharedPointer@VQWaitCondition@@@@PAVQMutex@@PAMPAH@Z 00456150 f   moc_qasynhttpsocket.obj
 0001:00055240       ?getData@QAsynHttpSocket@@QAEXVQString@@EHHV?$QSharedPointer@VQWaitCondition@@@@PAVQMutex@@PAMPAH@Z 00456240 f   moc_qasynhttpsocket.obj
 0001:00055330       ?message@QAsynHttpSocket@@QAEXVQString@@@Z 00456330 f   moc_qasynhttpsocket.obj
 0001:000553a0       ?metaObject@QAsynHttpSocket@@UBEPBUQMetaObject@@XZ 004563a0 f   moc_qasynhttpsocket.obj
 0001:000553c0       ?newRequest@QAsynHttpSocket@@QAEXPAVQHttpRequest@@PAVQHttpResponse@@@Z 004563c0 f   moc_qasynhttpsocket.obj
 0001:00055420       ?qt_metacall@QAsynHttpSocket@@UAEHW4Call@QMetaObject@@HPAPAX@Z 00456420 f   moc_qasynhttpsocket.obj
 0001:00055480       ?qt_metacast@QAsynHttpSocket@@UAEPAXPBD@Z 00456480 f   moc_qasynhttpsocket.obj
 0001:000554e0       ?qt_static_metacall@QAsynHttpSocket@@CAXPAVQObject@@W4Call@QMetaObject@@HPAPAX@Z 004564e0 f   moc_qasynhttpsocket.obj
 0001:00055800       ?setAlert@QAsynHttpSocket@@QAEXVQString@@E_K@Z 00456800 f   moc_qasynhttpsocket.obj
 0001:00055890       ?setChParas@QAsynHttpSocket@@QAEXVQString@@EMMMIH@Z 00456890 f   moc_qasynhttpsocket.obj
 0001:00055930       ?sockDisConnect@QAsynHttpSocket@@QAEXHABVQString@@GPAVQThread@@@Z 00456930 f   moc_qasynhttpsocket.obj
 0001:000559a0       ?timeOut@QAsynHttpSocket@@QAEXV?$QSharedPointer@VQWaitCondition@@@@@Z 004569a0 f   moc_qasynhttpsocket.obj
 0001:00055a40       ?closeTCP@QAsynTcpServer@@QAEXXZ 00456a40 f   moc_qasyntcpserver.obj
 0001:00055a60       ?metaObject@QAsynTcpServer@@UBEPBUQMetaObject@@XZ 00456a60 f   moc_qasyntcpserver.obj
 0001:00055a80       ?qt_metacall@QAsynTcpServer@@UAEHW4Call@QMetaObject@@HPAPAX@Z 00456a80 f   moc_qasyntcpserver.obj
 0001:00055ae0       ?qt_metacast@QAsynTcpServer@@UAEPAXPBD@Z 00456ae0 f   moc_qasyntcpserver.obj
 0001:00055b40       ?qt_static_metacall@QAsynTcpServer@@CAXPAVQObject@@W4Call@QMetaObject@@HPAPAX@Z 00456b40 f   moc_qasyntcpserver.obj
 0001:00055bc0       ?allBytesWritten@QAsynTcpSocket@@QAEXXZ 00456bc0 f   moc_qasyntcpsocket.obj
 0001:00055be0       ?metaObject@QAsynTcpSocket@@UBEPBUQMetaObject@@XZ 00456be0 f   moc_qasyntcpsocket.obj
 0001:00055c00       ?qt_metacall@QAsynTcpSocket@@UAEHW4Call@QMetaObject@@HPAPAX@Z 00456c00 f   moc_qasyntcpsocket.obj
 0001:00055c60       ?qt_metacast@QAsynTcpSocket@@UAEPAXPBD@Z 00456c60 f   moc_qasyntcpsocket.obj
 0001:00055cc0       ?qt_static_metacall@QAsynTcpSocket@@CAXPAVQObject@@W4Call@QMetaObject@@HPAPAX@Z 00456cc0 f   moc_qasyntcpsocket.obj
 0001:00055d80       ?sockDisConnect@QAsynTcpSocket@@QAEXHABVQString@@GPAVQThread@@@Z 00456d80 f   moc_qasyntcpsocket.obj
 0001:00055df0       ?data@QHttpRequest@@QAEXABVQByteArray@@@Z 00456df0 f   moc_qhttprequest.obj
 0001:00055e20       ?end@QHttpRequest@@QAEXXZ  00456e20 f   moc_qhttprequest.obj
 0001:00055e40       ?metaObject@QHttpRequest@@UBEPBUQMetaObject@@XZ 00456e40 f   moc_qhttprequest.obj
 0001:00055e60       ?qt_metacall@QHttpRequest@@UAEHW4Call@QMetaObject@@HPAPAX@Z 00456e60 f   moc_qhttprequest.obj
 0001:00055f20       ?qt_metacast@QHttpRequest@@UAEPAXPBD@Z 00456f20 f   moc_qhttprequest.obj
 0001:00055f80       ?qt_static_metacall@QHttpRequest@@CAXPAVQObject@@W4Call@QMetaObject@@HPAPAX@Z 00456f80 f   moc_qhttprequest.obj
 0001:000561c0       ?allBytesWritten@QHttpResponse@@QAEXXZ 004571c0 f   moc_qhttpresponse.obj
 0001:000561e0       ?done@QHttpResponse@@QAEXXZ 004571e0 f   moc_qhttpresponse.obj
 0001:00056200       ?metaObject@QHttpResponse@@UBEPBUQMetaObject@@XZ 00457200 f   moc_qhttpresponse.obj
 0001:00056220       ?qt_metacall@QHttpResponse@@UAEHW4Call@QMetaObject@@HPAPAX@Z 00457220 f   moc_qhttpresponse.obj
 0001:00056280       ?qt_metacast@QHttpResponse@@UAEPAXPBD@Z 00457280 f   moc_qhttpresponse.obj
 0001:000562e0       ?qt_static_metacall@QHttpResponse@@CAXPAVQObject@@W4Call@QMetaObject@@HPAPAX@Z 004572e0 f   moc_qhttpresponse.obj
 0001:000564e0       ?qt_static_metacall@QHttpServer@@CAXPAVQObject@@W4Call@QMetaObject@@HPAPAX@Z 004574e0 f   moc_qhttpserver.obj
 0001:000567e0       ?getAlertData@QHttpServer@@QAEXVQString@@E_KV?$QSharedPointer@VQWaitCondition@@@@PAVQMutex@@PAMPAH@Z 004577e0 f   moc_qhttpserver.obj
 0001:000568d0       ?getData@QHttpServer@@QAEXVQString@@EHHV?$QSharedPointer@VQWaitCondition@@@@PAVQMutex@@PAMPAH@Z 004578d0 f   moc_qhttpserver.obj
 0001:000569c0       ?metaObject@QHttpServer@@UBEPBUQMetaObject@@XZ 004579c0 f   moc_qhttpserver.obj
 0001:000569e0       ?qt_metacall@QHttpServer@@UAEHW4Call@QMetaObject@@HPAPAX@Z 004579e0 f   moc_qhttpserver.obj
 0001:00056a30       ?qt_metacast@QHttpServer@@UAEPAXPBD@Z 00457a30 f   moc_qhttpserver.obj
 0001:00056a90       ?qt_metatype_id@?$QMetaTypeId2@PAVQThread@@@@SAHXZ 00457a90 f i moc_qhttpserver.obj
 0001:00056bc0       ?setAlert@QHttpServer@@QAEXVQString@@E_K@Z 00457bc0 f   moc_qhttpserver.obj
 0001:00056c50       ?setChParas@QHttpServer@@QAEXVQString@@EMMMIH@Z 00457c50 f   moc_qhttpserver.obj
 0001:00056cf0       ?startResult@QHttpServer@@QAEX_N@Z 00457cf0 f   moc_qhttpserver.obj
 0001:00056d20       ?timeOut@QHttpServer@@QAEXV?$QSharedPointer@VQWaitCondition@@@@@Z 00457d20 f   moc_qhttpserver.obj
 0001:00056dc0       ?updateMessage@QHttpServer@@QAEXVQString@@@Z 00457dc0 f   moc_qhttpserver.obj
 0001:00056e30       ?aboutToStart@mainTab@@QAEXVQString@@_N@Z 00457e30 f   moc_maintab.obj
 0001:00056eb0       ?adcAdjust@mainTab@@QAEXVQString@@H@Z 00457eb0 f   moc_maintab.obj
 0001:00056f30       ?applyNet@mainTab@@QAEXVQString@@@Z 00457f30 f   moc_maintab.obj
 0001:00056fa0       ?autoScaleChanged@mainTab@@QAEX_N@Z 00457fa0 f   moc_maintab.obj
 0001:00056fd0       ?changeAP@mainTab@@QAEXVQString@@PAVWifiApParas@@@Z 00457fd0 f   moc_maintab.obj
 0001:00057060       ?changeChParas@mainTab@@QAEXVQString@@PAVWifiChParas@@@Z 00458060 f   moc_maintab.obj
 0001:000570f0       ?changeChParasDirect@mainTab@@QAEXVQString@@PAVWifiChParas@@@Z 004580f0 f   moc_maintab.obj
 0001:00057180       ?changeChStatus@mainTab@@QAEXVQString@@G@Z 00458180 f   moc_maintab.obj
 0001:00057200       ?changeFsMode@mainTab@@QAEXVQString@@H@Z 00458200 f   moc_maintab.obj
 0001:00057280       ?changeFsParas@mainTab@@QAEXVQString@@PAVWifiFsParas@@@Z 00458280 f   moc_maintab.obj
 0001:00057310       ?changeFsParasDirect@mainTab@@QAEXVQString@@PAVWifiFsParas@@@Z 00458310 f   moc_maintab.obj
 0001:000573a0       ?changeNetParas@mainTab@@QAEXVQString@@PAVWifiNetParas@@@Z 004583a0 f   moc_maintab.obj
 0001:00057430       ?changeSN@mainTab@@QAEXVQString@@0@Z 00458430 f   moc_maintab.obj
 0001:000574c0       ?changeTCPServer1@mainTab@@QAEXVQString@@H@Z 004584c0 f   moc_maintab.obj
 0001:00057540       ?changeTCPServer@mainTab@@QAEXVQString@@0H0@Z 00458540 f   moc_maintab.obj
 0001:000575e0       ?changeUIsettings@mainTab@@QAEXUuiElements@@@Z 004585e0 f   moc_maintab.obj
 0001:00057690       ?delDaqFromUI@mainTab@@QAEXVQString@@@Z 00458690 f   moc_maintab.obj
 0001:00057700       ?metaObject@mainTab@@UBEPBUQMetaObject@@XZ 00458700 f   moc_maintab.obj
 0001:00057720       ?qt_metacall@mainTab@@UAEHW4Call@QMetaObject@@HPAPAX@Z 00458720 f   moc_maintab.obj
 0001:00057770       ?qt_metacast@mainTab@@UAEPAXPBD@Z 00458770 f   moc_maintab.obj
 0001:000577d0       ?qt_static_metacall@mainTab@@CAXPAVQObject@@W4Call@QMetaObject@@HPAPAX@Z 004587d0 f   moc_maintab.obj
 0001:00058b30       ?sendingDataWs@mainTab@@QAEXVQString@@@Z 00459b30 f   moc_maintab.obj
 0001:00058ba0       ?setAlertSpanJunyue@mainTab@@QAEXVQString@@HH@Z 00459ba0 f   moc_maintab.obj
 0001:00058c30       ?setAlerts@mainTab@@QAEXVQString@@V?$QList@N@@@Z 00459c30 f   moc_maintab.obj
 0001:00058cc0       ?setHeartSpan@mainTab@@QAEXVQString@@H_N@Z 00459cc0 f   moc_maintab.obj
 0001:00058d50       ?setPowerMode@mainTab@@QAEXVQString@@EEEE@Z 00459d50 f   moc_maintab.obj
 0001:00058de0       ?setRemoteTcpServer@mainTab@@QAEXVQString@@H@Z 00459de0 f   moc_maintab.obj
 0001:00058e60       ?startHttpServer@mainTab@@QAEXVQString@@G@Z 00459e60 f   moc_maintab.obj
 0001:00058ee0       ?startTcpServer@mainTab@@QAEXVQString@@G@Z 00459ee0 f   moc_maintab.obj
 0001:00058f60       ?startWs@mainTab@@QAEXVQString@@@Z 00459f60 f   moc_maintab.obj
 0001:00058fd0       ?tempGainAdjust@mainTab@@QAEXVQString@@@Z 00459fd0 f   moc_maintab.obj
 0001:00059040       ?tempZeroAdjust@mainTab@@QAEXVQString@@@Z 0045a040 f   moc_maintab.obj
 0001:000590b0       ?updateStatusMessage@mainTab@@QAEXVQString@@@Z 0045a0b0 f   moc_maintab.obj
 0001:00059120       ?uploadSN@mainTab@@QAEXVQString@@@Z 0045a120 f   moc_maintab.obj
 0001:00059190       ?aboutToClose@CMainWindow@@QAEXXZ 0045a190 f   moc_mainwindow.obj
 0001:000591b0       ?aboutToStart@CMainWindow@@QAEXVQString@@_N@Z 0045a1b0 f   moc_mainwindow.obj
 0001:00059230       ?adcAdjust@CMainWindow@@QAEXVQString@@H@Z 0045a230 f   moc_mainwindow.obj
 0001:000592b0       ?applyNet@CMainWindow@@QAEXVQString@@@Z 0045a2b0 f   moc_mainwindow.obj
 0001:00059320       ?changeAP@CMainWindow@@QAEXVQString@@PAVWifiApParas@@@Z 0045a320 f   moc_mainwindow.obj
 0001:000593b0       ?changeChParas@CMainWindow@@QAEXVQString@@PAVWifiChParas@@@Z 0045a3b0 f   moc_mainwindow.obj
 0001:00059440       ?changeChParasDirect@CMainWindow@@QAEXVQString@@PAVWifiChParas@@@Z 0045a440 f   moc_mainwindow.obj
 0001:000594d0       ?changeChStatus@CMainWindow@@QAEXVQString@@G@Z 0045a4d0 f   moc_mainwindow.obj
 0001:00059550       ?changeFsMode@CMainWindow@@QAEXVQString@@H@Z 0045a550 f   moc_mainwindow.obj
 0001:000595d0       ?changeFsParas@CMainWindow@@QAEXVQString@@PAVWifiFsParas@@@Z 0045a5d0 f   moc_mainwindow.obj
 0001:00059660       ?changeFsParasDirect@CMainWindow@@QAEXVQString@@PAVWifiFsParas@@@Z 0045a660 f   moc_mainwindow.obj
 0001:000596f0       ?changeMainTabIndex@CMainWindow@@QAEXH@Z 0045a6f0 f   moc_mainwindow.obj
 0001:00059720       ?changeNetParas@CMainWindow@@QAEXVQString@@PAVWifiNetParas@@@Z 0045a720 f   moc_mainwindow.obj
 0001:000597b0       ?changeSN@CMainWindow@@QAEXVQString@@0@Z 0045a7b0 f   moc_mainwindow.obj
 0001:00059840       ?changeTCPServer1@CMainWindow@@QAEXVQString@@H@Z 0045a840 f   moc_mainwindow.obj
 0001:000598c0       ?changeTCPServer@CMainWindow@@QAEXVQString@@0H0@Z 0045a8c0 f   moc_mainwindow.obj
 0001:00059960       ?createDaqFromBack@CMainWindow@@QAEXHVQString@@0@Z 0045a960 f   moc_mainwindow.obj
 0001:000599f0       ?delDaqFromUI@CMainWindow@@QAEXVQString@@@Z 0045a9f0 f   moc_mainwindow.obj
 0001:00059a60       ?initTabElements@CMainWindow@@QAEXUuiElements@@@Z 0045aa60 f   moc_mainwindow.obj
 0001:00059b10       ?metaObject@CMainWindow@@UBEPBUQMetaObject@@XZ 0045ab10 f   moc_mainwindow.obj
 0001:00059b30       ?qt_metacall@CMainWindow@@UAEHW4Call@QMetaObject@@HPAPAX@Z 0045ab30 f   moc_mainwindow.obj
 0001:00059b80       ?qt_metacast@CMainWindow@@UAEPAXPBD@Z 0045ab80 f   moc_mainwindow.obj
 0001:00059be0       ?qt_static_metacall@CMainWindow@@CAXPAVQObject@@W4Call@QMetaObject@@HPAPAX@Z 0045abe0 f   moc_mainwindow.obj
 0001:0005b0f0       ?setAlertSpanJunyue@CMainWindow@@QAEXVQString@@HH@Z 0045c0f0 f   moc_mainwindow.obj
 0001:0005b180       ?setAlertSpanJunyueDirect@CMainWindow@@QAEXVQString@@HH@Z 0045c180 f   moc_mainwindow.obj
 0001:0005b210       ?setAlerts@CMainWindow@@QAEXVQString@@V?$QList@N@@@Z 0045c210 f   moc_mainwindow.obj
 0001:0005b2a0       ?setAlertsDirect@CMainWindow@@QAEXVQString@@V?$QList@N@@@Z 0045c2a0 f   moc_mainwindow.obj
 0001:0005b330       ?setHeartSpan@CMainWindow@@QAEXVQString@@H_N@Z 0045c330 f   moc_mainwindow.obj
 0001:0005b3c0       ?setPowerMode@CMainWindow@@QAEXVQString@@EEEE@Z 0045c3c0 f   moc_mainwindow.obj
 0001:0005b450       ?settingGUID@CMainWindow@@QAEXVQString@@@Z 0045c450 f   moc_mainwindow.obj
 0001:0005b4c0       ?startHttpServer@CMainWindow@@QAEXVQString@@G@Z 0045c4c0 f   moc_mainwindow.obj
 0001:0005b540       ?startTcpServer@CMainWindow@@QAEXVQString@@G@Z 0045c540 f   moc_mainwindow.obj
 0001:0005b5c0       ?startWs@CMainWindow@@QAEXVQString@@@Z 0045c5c0 f   moc_mainwindow.obj
 0001:0005b630       ?tempGainAdjust@CMainWindow@@QAEXVQString@@@Z 0045c630 f   moc_mainwindow.obj
 0001:0005b6a0       ?tempZeroAdjust@CMainWindow@@QAEXVQString@@@Z 0045c6a0 f   moc_mainwindow.obj
 0001:0005b710       ?updateAPdata@CMainWindow@@QAEXVQString@@VWifiApParas@@@Z 0045c710 f   moc_mainwindow.obj
 0001:0005b7a0       ?updateAlertJunyue@CMainWindow@@QAEXVQString@@V?$QList@M@@@Z 0045c7a0 f   moc_mainwindow.obj
 0001:0005b850       ?updateAlertTimeSpan@CMainWindow@@QAEXVQString@@HH@Z 0045c850 f   moc_mainwindow.obj
 0001:0005b8e0       ?updateAutoWave2@CMainWindow@@QAEXVQString@@VQByteArray@@HPAV?$QList@N@@@Z 0045c8e0 f   moc_mainwindow.obj
 0001:0005b980       ?updateChParas@CMainWindow@@QAEXVQString@@VWifiChParas@@@Z 0045c980 f   moc_mainwindow.obj
 0001:0005ba10       ?updateChStatus@CMainWindow@@QAEXVQString@@G@Z 0045ca10 f   moc_mainwindow.obj
 0001:0005ba90       ?updateCharactersJunyue@CMainWindow@@QAEXVQString@@0V?$QList@M@@V?$QList@_N@@@Z 0045ca90 f   moc_mainwindow.obj
 0001:0005bb90       ?updateCurrentFirmwareVer@CMainWindow@@QAEXVQString@@0@Z 0045cb90 f   moc_mainwindow.obj
 0001:0005bc20       ?updateCurrentTemperature@CMainWindow@@QAEXVQString@@PANH@Z 0045cc20 f   moc_mainwindow.obj
 0001:0005bcb0       ?updateCurrentVValue@CMainWindow@@QAEXVQString@@PAV?$QList@PAVvirbValue@@@@@Z 0045ccb0 f   moc_mainwindow.obj
 0001:0005bd40       ?updateDeviceStatus@CMainWindow@@QAEXHVQString@@@Z 0045cd40 f   moc_mainwindow.obj
 0001:0005bdc0       ?updateFsMode@CMainWindow@@QAEXVQString@@H@Z 0045cdc0 f   moc_mainwindow.obj
 0001:0005be40       ?updateFsParas@CMainWindow@@QAEXVQString@@VWifiFsParas@@@Z 0045ce40 f   moc_mainwindow.obj
 0001:0005bec0       ?updateNetParas@CMainWindow@@QAEXVQString@@VWifiNetParas@@@Z 0045cec0 f   moc_mainwindow.obj
 0001:0005bf60       ?updatePowerMode2@CMainWindow@@QAEXVQString@@EEEE@Z 0045cf60 f   moc_mainwindow.obj
 0001:0005bff0       ?updatePowerMode@CMainWindow@@QAEXVQString@@EEE@Z 0045cff0 f   moc_mainwindow.obj
 0001:0005c080       ?updateTCPServer@CMainWindow@@QAEXVQString@@0H@Z 0045d080 f   moc_mainwindow.obj
 0001:0005c110       ?updateWave@CMainWindow@@QAEXVQString@@PAV?$QVector@N@@@Z 0045d110 f   moc_mainwindow.obj
 0001:0005c1a0       ?widgetReady@CMainWindow@@QAEXVQString@@@Z 0045d1a0 f   moc_mainwindow.obj
 0001:0005c210       ?adcAdjust@settingWifiJunyue@@QAEXVQString@@H@Z 0045d210 f   moc_settingwifijunyue.obj
 0001:0005c290       ?applyNet@settingWifiJunyue@@QAEXVQString@@@Z 0045d290 f   moc_settingwifijunyue.obj
 0001:0005c300       ?changeAP@settingWifiJunyue@@QAEXVQString@@PAVWifiApParas@@@Z 0045d300 f   moc_settingwifijunyue.obj
 0001:0005c390       ?changeChParas@settingWifiJunyue@@QAEXVQString@@PAVWifiChParas@@@Z 0045d390 f   moc_settingwifijunyue.obj
 0001:0005c420       ?changeChParasDirect@settingWifiJunyue@@QAEXVQString@@PAVWifiChParas@@@Z 0045d420 f   moc_settingwifijunyue.obj
 0001:0005c4b0       ?changeChStatus@settingWifiJunyue@@QAEXVQString@@G@Z 0045d4b0 f   moc_settingwifijunyue.obj
 0001:0005c530       ?changeFsMode@settingWifiJunyue@@QAEXVQString@@H@Z 0045d530 f   moc_settingwifijunyue.obj
 0001:0005c5b0       ?changeFsParas@settingWifiJunyue@@QAEXVQString@@PAVWifiFsParas@@@Z 0045d5b0 f   moc_settingwifijunyue.obj
 0001:0005c640       ?changeFsParasDirect@settingWifiJunyue@@QAEXVQString@@PAVWifiFsParas@@@Z 0045d640 f   moc_settingwifijunyue.obj
 0001:0005c6d0       ?changeNetParas@settingWifiJunyue@@QAEXVQString@@PAVWifiNetParas@@@Z 0045d6d0 f   moc_settingwifijunyue.obj
 0001:0005c760       ?changeSN@settingWifiJunyue@@QAEXVQString@@0@Z 0045d760 f   moc_settingwifijunyue.obj
 0001:0005c7f0       ?changeTCPServer1@settingWifiJunyue@@QAEXVQString@@0H@Z 0045d7f0 f   moc_settingwifijunyue.obj
 0001:0005c880       ?changeTCPServer@settingWifiJunyue@@QAEXVQString@@0H0@Z 0045d880 f   moc_settingwifijunyue.obj
 0001:0005c920       ?metaObject@settingWifiJunyue@@UBEPBUQMetaObject@@XZ 0045d920 f   moc_settingwifijunyue.obj
 0001:0005c940       ?qt_metacall@settingWifiJunyue@@UAEHW4Call@QMetaObject@@HPAPAX@Z 0045d940 f   moc_settingwifijunyue.obj
 0001:0005c990       ?qt_metacast@settingWifiJunyue@@UAEPAXPBD@Z 0045d990 f   moc_settingwifijunyue.obj
 0001:0005c9f0       ?qt_static_metacall@settingWifiJunyue@@CAXPAVQObject@@W4Call@QMetaObject@@HPAPAX@Z 0045d9f0 f   moc_settingwifijunyue.obj
 0001:0005d500       ?sendRule@settingWifiJunyue@@QAEXVQByteArray@@@Z 0045e500 f   moc_settingwifijunyue.obj
 0001:0005d570       ?sendTest@settingWifiJunyue@@QAEXXZ 0045e570 f   moc_settingwifijunyue.obj
 0001:0005d590       ?setAlert@settingWifiJunyue@@QAEXVQString@@V?$QList@N@@@Z 0045e590 f   moc_settingwifijunyue.obj
 0001:0005d620       ?setAlertSpanJunyue@settingWifiJunyue@@QAEXVQString@@HH@Z 0045e620 f   moc_settingwifijunyue.obj
 0001:0005d6b0       ?setDNS@settingWifiJunyue@@QAEXVQString@@0@Z 0045e6b0 f   moc_settingwifijunyue.obj
 0001:0005d740       ?setHeartSpan@settingWifiJunyue@@QAEXVQString@@H_N@Z 0045e740 f   moc_settingwifijunyue.obj
 0001:0005d7d0       ?setPowerMode@settingWifiJunyue@@QAEXVQString@@EEEE@Z 0045e7d0 f   moc_settingwifijunyue.obj
 0001:0005d860       ?tempGainAdjust@settingWifiJunyue@@QAEXVQString@@@Z 0045e860 f   moc_settingwifijunyue.obj
 0001:0005d8d0       ?tempZeroAdjust@settingWifiJunyue@@QAEXVQString@@@Z 0045e8d0 f   moc_settingwifijunyue.obj
 0001:0005d940       ?updateAP@settingWifiJunyue@@QAEXVQString@@PAVWifiApParas@@@Z 0045e940 f   moc_settingwifijunyue.obj
 0001:0005d9d0       ?metaObject@netParas@@UBEPBUQMetaObject@@XZ 0045e9d0 f   moc_structs.obj
 0001:0005d9f0       ?qt_metacast@netParas@@UAEPAXPBD@Z 0045e9f0 f   moc_structs.obj
 0001:0005da50       ?convert@?$ConverterFunctor@V?$QList@E@@VQSequentialIterableImpl@QtMetaTypePrivate@@U?$QSequentialIterableConvertFunctor@V?$QList@E@@@3@@QtPrivate@@SA_NPBUAbstractConverterFunction@2@PBXPAX@Z 0045ea50 f i moc_tcpclient.obj
 0001:0005dac0       ?getSN@tcpClient@@QAEXVQString@@G0@Z 0045eac0 f   moc_tcpclient.obj
 0001:0005db50       ?metaObject@tcpClient@@UBEPBUQMetaObject@@XZ 0045eb50 f   moc_tcpclient.obj
 0001:0005db70       ?qt_metacall@tcpClient@@UAEHW4Call@QMetaObject@@HPAPAX@Z 0045eb70 f   moc_tcpclient.obj
 0001:0005dbc0       ?qt_metacast@tcpClient@@UAEPAXPBD@Z 0045ebc0 f   moc_tcpclient.obj
 0001:0005dc20       ?qt_metatype_id@?$QMetaTypeId2@V?$QList@E@@@@SAHXZ 0045ec20 f i moc_tcpclient.obj
 0001:0005de00       ?qt_static_metacall@tcpClient@@CAXPAVQObject@@W4Call@QMetaObject@@HPAPAX@Z 0045ee00 f   moc_tcpclient.obj
 0001:0005e430       ?updateMessage@tcpClient@@QAEXVQString@@@Z 0045f430 f   moc_tcpclient.obj
 0001:0005e4a0       ?updateVirb@tcpClient@@QAEXPAV?$QList@PAVvirbValue@@@@@Z 0045f4a0 f   moc_tcpclient.obj
 0001:0005e4d0       ?metaObject@wsClient@@UBEPBUQMetaObject@@XZ 0045f4d0 f   moc_wsclient.obj
 0001:0005e4f0       ?qt_metacall@wsClient@@UAEHW4Call@QMetaObject@@HPAPAX@Z 0045f4f0 f   moc_wsclient.obj
 0001:0005e540       ?qt_metacast@wsClient@@UAEPAXPBD@Z 0045f540 f   moc_wsclient.obj
 0001:0005e5a0       ?qt_metatype_id@?$QMetaTypeId2@W4SocketState@QAbstractSocket@@@@SAHXZ 0045f5a0 f i moc_wsclient.obj
 0001:0005e690       ?qt_static_metacall@wsClient@@CAXPAVQObject@@W4Call@QMetaObject@@HPAPAX@Z 0045f690 f   moc_wsclient.obj
 0001:0005e8c0       ?setAlertSpanJunyue@wsClient@@QAEXVQString@@HH@Z 0045f8c0 f   moc_wsclient.obj
 0001:0005e950       ?setAlerts@wsClient@@QAEXVQString@@V?$QList@N@@@Z 0045f950 f   moc_wsclient.obj
 0001:0005e9e0       ?setAutoSpan@wsClient@@QAEXVQString@@H@Z 0045f9e0 f   moc_wsclient.obj
 0001:0005ea60       ?setChannelFS@wsClient@@QAEXVQString@@V?$QList@N@@@Z 0045fa60 f   moc_wsclient.obj
 0001:0005eaf0       ?setParas@wsClient@@QAEXXZ 0045faf0 f   moc_wsclient.obj
 0001:0005eb04       ?setBorderColor@PanelItem@@QAEXABVQColor@@@Z 0045fb04 f   quc:quc.dll
 0001:0005eb0a       ??0PanelItem@@QAE@PAVQWidget@@@Z 0045fb0a f   quc:quc.dll
 0001:0005eb10       ?getBorderColor@PanelItem@@QBE?AVQColor@@XZ 0045fb10 f   quc:quc.dll
 0001:0005eb16       ?setTitleText@PanelItem@@QAEXABVQString@@@Z 0045fb16 f   quc:quc.dll
 0001:0005eb1c       ??0IPAddress@@QAE@PAVQWidget@@@Z 0045fb1c f   quc:quc.dll
 0001:0005eb22       ?getIP@IPAddress@@QBE?AVQString@@XZ 0045fb22 f   quc:quc.dll
 0001:0005eb28       ?setIP@IPAddress@@QAEXABVQString@@@Z 0045fb28 f   quc:quc.dll
 0001:0005eb2e       ??0customPlot@@QAE@PAVQWidget@@@Z 0045fb2e f   yecplot:yecplot.dll
 0001:0005eb34       ?addLine@customPlot@@QAEXVQString@@@Z 0045fb34 f   yecplot:yecplot.dll
 0001:0005eb3a       ?clearAllLines@customPlot@@QAEXXZ 0045fb3a f   yecplot:yecplot.dll
 0001:0005eb40       ?setData@customPlot@@QAEXV?$QVector@N@@0H@Z 0045fb40 f   yecplot:yecplot.dll
 0001:0005eb46       ?setChartName@customPlot@@QAEXVQString@@@Z 0045fb46 f   yecplot:yecplot.dll
 0001:0005eb4c       ?getLineCount@customPlot@@QAEHXZ 0045fb4c f   yecplot:yecplot.dll
 0001:0005eb52       ?setMouseType@customPlot@@QAEXW4mouseType@1@@Z 0045fb52 f   yecplot:yecplot.dll
 0001:0005eb58       ?showTracer@customPlot@@QAEX_N@Z 0045fb58 f   yecplot:yecplot.dll
 0001:0005eb5e       ?setXLabel@customPlot@@QAEXVQString@@@Z 0045fb5e f   yecplot:yecplot.dll
 0001:0005eb64       ?setYLabel@customPlot@@QAEXVQString@@@Z 0045fb64 f   yecplot:yecplot.dll
 0001:0005eb6a       ?setXLogMode@customPlot@@QAEX_N@Z 0045fb6a f   yecplot:yecplot.dll
 0001:0005eb70       ?setYLogMode@customPlot@@QAEX_N@Z 0045fb70 f   yecplot:yecplot.dll
 0001:0005eb76       ?plotContextMenuEvent@customPlot@@QAEXVQPoint@@@Z 0045fb76 f   yecplot:yecplot.dll
 0001:0005eb7c       ?setLineVisible@customPlot@@QAEXH_N@Z 0045fb7c f   yecplot:yecplot.dll
 0001:0005eb82       ?isShowTracer@customPlot@@QAE_NXZ 0045fb82 f   yecplot:yecplot.dll
 0001:0005eb88       ?mousePressSignal@customPlot@@AAEXPAVQMouseEvent@@@Z 0045fb88 f   yecplot:yecplot.dll
 0001:0005eb8e       ?mouseReleaseSignal@customPlot@@AAEXPAVQMouseEvent@@@Z 0045fb8e f   yecplot:yecplot.dll
 0001:0005eb94       ?onMouseMoveZoom@customPlot@@AAEXPAVQMouseEvent@@@Z 0045fb94 f   yecplot:yecplot.dll
 0001:0005eb9a       ?stoppedZoom@customPlot@@AAEXXZ 0045fb9a f   yecplot:yecplot.dll
 0001:0005eba0       ?mouseWheel@customPlot@@AAEXXZ 0045fba0 f   yecplot:yecplot.dll
 0001:0005eba6       ?pressDrag@customPlot@@AAEXPAVQMouseEvent@@@Z 0045fba6 f   yecplot:yecplot.dll
 0001:0005ebac       ?onMouseMoveDrag@customPlot@@AAEXPAVQMouseEvent@@@Z 0045fbac f   yecplot:yecplot.dll
 0001:0005ebb2       ?stoppedDrag@customPlot@@AAEXPAVQMouseEvent@@@Z 0045fbb2 f   yecplot:yecplot.dll
 0001:0005ebb8       ?onMouseMovePoint@customPlot@@AAEXPAVQMouseEvent@@@Z 0045fbb8 f   yecplot:yecplot.dll
 0001:0005ebbe       ?onMouseMoveBand@customPlot@@AAEXPAVQMouseEvent@@@Z 0045fbbe f   yecplot:yecplot.dll
 0001:0005ebc4       ?onMouseMoveBand2@customPlot@@AAEXPAVQMouseEvent@@@Z 0045fbc4 f   yecplot:yecplot.dll
 0001:0005ebca       ?stoppedBand@customPlot@@AAEXXZ 0045fbca f   yecplot:yecplot.dll
 0001:0005ebd0       ?setMinMaxType@customPlot@@AAEXH@Z 0045fbd0 f   yecplot:yecplot.dll
 0001:0005ebd6       ?hideShow@customPlot@@AAEXXZ 0045fbd6 f   yecplot:yecplot.dll
 0001:0005ebdc       ?legendDoubleClick@customPlot@@AAEXPAVQCPLegend@@PAVQCPAbstractLegendItem@@@Z 0045fbdc f   yecplot:yecplot.dll
 0001:0005ebe2       ?titleDoubleClick@customPlot@@AAEXPAVQMouseEvent@@@Z 0045fbe2 f   yecplot:yecplot.dll
 0001:0005ebe8       ?graphPause@customPlot@@AAEXXZ 0045fbe8 f   yecplot:yecplot.dll
 0001:0005ebee       ?copyGraphData@customPlot@@AAEXXZ 0045fbee f   yecplot:yecplot.dll
 0001:0005ebf4       ?xLogModeChange@customPlot@@AAEXXZ 0045fbf4 f   yecplot:yecplot.dll
 0001:0005ebfa       ?yLogModeChange@customPlot@@AAEXXZ 0045fbfa f   yecplot:yecplot.dll
 0001:0005ec00       ?graphToExel@customPlot@@AAEXXZ 0045fc00 f   yecplot:yecplot.dll
 0001:0005ec06       ?graphToPNG@customPlot@@AAEXXZ 0045fc06 f   yecplot:yecplot.dll
 0001:0005ec0c       ?zoomGroupTriggered@customPlot@@AAEXH@Z 0045fc0c f   yecplot:yecplot.dll
 0001:0005ec12       ?minMaxGroupTriggered@customPlot@@AAEXH@Z 0045fc12 f   yecplot:yecplot.dll
 0001:0005ec18       ?contextActTriggered@customPlot@@AAEXPAVQAction@@@Z 0045fc18 f   yecplot:yecplot.dll
 0001:0005ec1e       ?actionEvent@QWidget@@MAEXPAVQActionEvent@@@Z 0045fc1e f   Qt5Widgets:Qt5Widgets.dll
 0001:0005ec24       ?addItem@QBoxLayout@@UAEXPAVQLayoutItem@@@Z 0045fc24 f   Qt5Widgets:Qt5Widgets.dll
 0001:0005ec2a       ?changeEvent@QAbstractSpinBox@@MAEXPAVQEvent@@@Z 0045fc2a f   Qt5Widgets:Qt5Widgets.dll
 0001:0005ec30       ?changeEvent@QLabel@@MAEXPAVQEvent@@@Z 0045fc30 f   Qt5Widgets:Qt5Widgets.dll
 0001:0005ec36       ?changeEvent@QWidget@@MAEXPAVQEvent@@@Z 0045fc36 f   Qt5Widgets:Qt5Widgets.dll
 0001:0005ec3c       ?childEvent@QLayout@@MAEXPAVQChildEvent@@@Z 0045fc3c f   Qt5Widgets:Qt5Widgets.dll
 0001:0005ec42       ?clear@QAbstractSpinBox@@UAEXXZ 0045fc42 f   Qt5Widgets:Qt5Widgets.dll
 0001:0005ec48       ?closeEvent@QAbstractSpinBox@@MAEXPAVQCloseEvent@@@Z 0045fc48 f   Qt5Widgets:Qt5Widgets.dll
 0001:0005ec4e       ?closeEvent@QWidget@@MAEXPAVQCloseEvent@@@Z 0045fc4e f   Qt5Widgets:Qt5Widgets.dll
 0001:0005ec54       ?contextMenuEvent@QAbstractSpinBox@@MAEXPAVQContextMenuEvent@@@Z 0045fc54 f   Qt5Widgets:Qt5Widgets.dll
 0001:0005ec5a       ?contextMenuEvent@QLabel@@MAEXPAVQContextMenuEvent@@@Z 0045fc5a f   Qt5Widgets:Qt5Widgets.dll
 0001:0005ec60       ?contextMenuEvent@QWidget@@MAEXPAVQContextMenuEvent@@@Z 0045fc60 f   Qt5Widgets:Qt5Widgets.dll
 0001:0005ec66       ?controlTypes@QLayout@@UBE?AV?$QFlags@W4ControlType@QSizePolicy@@@@XZ 0045fc66 f   Qt5Widgets:Qt5Widgets.dll
 0001:0005ec6c       ?count@QBoxLayout@@UBEHXZ  0045fc6c f   Qt5Widgets:Qt5Widgets.dll
 0001:0005ec72       ?devType@QWidget@@UBEHXZ   0045fc72 f   Qt5Widgets:Qt5Widgets.dll
 0001:0005ec78       ?dragEnterEvent@QWidget@@MAEXPAVQDragEnterEvent@@@Z 0045fc78 f   Qt5Widgets:Qt5Widgets.dll
 0001:0005ec7e       ?dragLeaveEvent@QWidget@@MAEXPAVQDragLeaveEvent@@@Z 0045fc7e f   Qt5Widgets:Qt5Widgets.dll
 0001:0005ec84       ?dragMoveEvent@QWidget@@MAEXPAVQDragMoveEvent@@@Z 0045fc84 f   Qt5Widgets:Qt5Widgets.dll
 0001:0005ec8a       ?dropEvent@QWidget@@MAEXPAVQDropEvent@@@Z 0045fc8a f   Qt5Widgets:Qt5Widgets.dll
 0001:0005ec90       ?enterEvent@QWidget@@MAEXPAVQEvent@@@Z 0045fc90 f   Qt5Widgets:Qt5Widgets.dll
 0001:0005ec96       ?event@QAbstractSpinBox@@UAE_NPAVQEvent@@@Z 0045fc96 f   Qt5Widgets:Qt5Widgets.dll
 0001:0005ec9c       ?event@QLabel@@MAE_NPAVQEvent@@@Z 0045fc9c f   Qt5Widgets:Qt5Widgets.dll
 0001:0005eca2       ?event@QWidget@@MAE_NPAVQEvent@@@Z 0045fca2 f   Qt5Widgets:Qt5Widgets.dll
 0001:0005eca8       ?expandingDirections@QBoxLayout@@UBE?AV?$QFlags@W4Orientation@Qt@@@@XZ 0045fca8 f   Qt5Widgets:Qt5Widgets.dll
 0001:0005ecae       ?fixup@QDoubleSpinBox@@UBEXAAVQString@@@Z 0045fcae f   Qt5Widgets:Qt5Widgets.dll
 0001:0005ecb4       ?focusInEvent@QAbstractSpinBox@@MAEXPAVQFocusEvent@@@Z 0045fcb4 f   Qt5Widgets:Qt5Widgets.dll
 0001:0005ecba       ?focusInEvent@QLabel@@MAEXPAVQFocusEvent@@@Z 0045fcba f   Qt5Widgets:Qt5Widgets.dll
 0001:0005ecc0       ?focusInEvent@QWidget@@MAEXPAVQFocusEvent@@@Z 0045fcc0 f   Qt5Widgets:Qt5Widgets.dll
 0001:0005ecc6       ?focusNextPrevChild@QLabel@@MAE_N_N@Z 0045fcc6 f   Qt5Widgets:Qt5Widgets.dll
 0001:0005eccc       ?focusNextPrevChild@QWidget@@MAE_N_N@Z 0045fccc f   Qt5Widgets:Qt5Widgets.dll
 0001:0005ecd2       ?focusOutEvent@QAbstractSpinBox@@MAEXPAVQFocusEvent@@@Z 0045fcd2 f   Qt5Widgets:Qt5Widgets.dll
 0001:0005ecd8       ?focusOutEvent@QLabel@@MAEXPAVQFocusEvent@@@Z 0045fcd8 f   Qt5Widgets:Qt5Widgets.dll
 0001:0005ecde       ?focusOutEvent@QWidget@@MAEXPAVQFocusEvent@@@Z 0045fcde f   Qt5Widgets:Qt5Widgets.dll
 0001:0005ece4       ?geometry@QLayout@@UBE?AVQRect@@XZ 0045fce4 f   Qt5Widgets:Qt5Widgets.dll
 0001:0005ecea       ?hasHeightForWidth@QBoxLayout@@UBE_NXZ 0045fcea f   Qt5Widgets:Qt5Widgets.dll
 0001:0005ecf0       ?hasHeightForWidth@QWidget@@UBE_NXZ 0045fcf0 f   Qt5Widgets:Qt5Widgets.dll
 0001:0005ecf6       ?heightForWidth@QBoxLayout@@UBEHH@Z 0045fcf6 f   Qt5Widgets:Qt5Widgets.dll
 0001:0005ecfc       ?heightForWidth@QLabel@@UBEHH@Z 0045fcfc f   Qt5Widgets:Qt5Widgets.dll
 0001:0005ed02       ?heightForWidth@QWidget@@UBEHH@Z 0045fd02 f   Qt5Widgets:Qt5Widgets.dll
 0001:0005ed08       ?hideEvent@QAbstractSpinBox@@MAEXPAVQHideEvent@@@Z 0045fd08 f   Qt5Widgets:Qt5Widgets.dll
 0001:0005ed0e       ?hideEvent@QWidget@@MAEXPAVQHideEvent@@@Z 0045fd0e f   Qt5Widgets:Qt5Widgets.dll
 0001:0005ed14       ?indexOf@QLayout@@UBEHPAVQWidget@@@Z 0045fd14 f   Qt5Widgets:Qt5Widgets.dll
 0001:0005ed1a       ?initPainter@QWidget@@MBEXPAVQPainter@@@Z 0045fd1a f   Qt5Widgets:Qt5Widgets.dll
 0001:0005ed20       ?inputMethodEvent@QWidget@@MAEXPAVQInputMethodEvent@@@Z 0045fd20 f   Qt5Widgets:Qt5Widgets.dll
 0001:0005ed26       ?inputMethodQuery@QAbstractSpinBox@@UBE?AVQVariant@@W4InputMethodQuery@Qt@@@Z 0045fd26 f   Qt5Widgets:Qt5Widgets.dll
 0001:0005ed2c       ?inputMethodQuery@QWidget@@UBE?AVQVariant@@W4InputMethodQuery@Qt@@@Z 0045fd2c f   Qt5Widgets:Qt5Widgets.dll
 0001:0005ed32       ?invalidate@QBoxLayout@@UAEXXZ 0045fd32 f   Qt5Widgets:Qt5Widgets.dll
 0001:0005ed38       ?isEmpty@QLayout@@UBE_NXZ  0045fd38 f   Qt5Widgets:Qt5Widgets.dll
 0001:0005ed3e       ?itemAt@QBoxLayout@@UBEPAVQLayoutItem@@H@Z 0045fd3e f   Qt5Widgets:Qt5Widgets.dll
 0001:0005ed44       ?keyPressEvent@QAbstractSpinBox@@MAEXPAVQKeyEvent@@@Z 0045fd44 f   Qt5Widgets:Qt5Widgets.dll
 0001:0005ed4a       ?keyPressEvent@QLabel@@MAEXPAVQKeyEvent@@@Z 0045fd4a f   Qt5Widgets:Qt5Widgets.dll
 0001:0005ed50       ?keyPressEvent@QWidget@@MAEXPAVQKeyEvent@@@Z 0045fd50 f   Qt5Widgets:Qt5Widgets.dll
 0001:0005ed56       ?keyReleaseEvent@QAbstractSpinBox@@MAEXPAVQKeyEvent@@@Z 0045fd56 f   Qt5Widgets:Qt5Widgets.dll
 0001:0005ed5c       ?keyReleaseEvent@QWidget@@MAEXPAVQKeyEvent@@@Z 0045fd5c f   Qt5Widgets:Qt5Widgets.dll
 0001:0005ed62       ?layout@QLayout@@UAEPAV1@XZ 0045fd62 f   Qt5Widgets:Qt5Widgets.dll
 0001:0005ed68       ?leaveEvent@QWidget@@MAEXPAVQEvent@@@Z 0045fd68 f   Qt5Widgets:Qt5Widgets.dll
 0001:0005ed6e       ?maximumSize@QBoxLayout@@UBE?AVQSize@@XZ 0045fd6e f   Qt5Widgets:Qt5Widgets.dll
 0001:0005ed74       ?metaObject@QDoubleSpinBox@@UBEPBUQMetaObject@@XZ 0045fd74 f   Qt5Widgets:Qt5Widgets.dll
 0001:0005ed7a       ?metaObject@QHBoxLayout@@UBEPBUQMetaObject@@XZ 0045fd7a f   Qt5Widgets:Qt5Widgets.dll
 0001:0005ed80       ?metaObject@QLabel@@UBEPBUQMetaObject@@XZ 0045fd80 f   Qt5Widgets:Qt5Widgets.dll
 0001:0005ed86       ?metric@QWidget@@MBEHW4PaintDeviceMetric@QPaintDevice@@@Z 0045fd86 f   Qt5Widgets:Qt5Widgets.dll
 0001:0005ed8c       ?minimumHeightForWidth@QBoxLayout@@UBEHH@Z 0045fd8c f   Qt5Widgets:Qt5Widgets.dll
 0001:0005ed92       ?minimumSize@QBoxLayout@@UBE?AVQSize@@XZ 0045fd92 f   Qt5Widgets:Qt5Widgets.dll
 0001:0005ed98       ?minimumSizeHint@QAbstractSpinBox@@UBE?AVQSize@@XZ 0045fd98 f   Qt5Widgets:Qt5Widgets.dll
 0001:0005ed9e       ?minimumSizeHint@QLabel@@UBE?AVQSize@@XZ 0045fd9e f   Qt5Widgets:Qt5Widgets.dll
 0001:0005eda4       ?minimumSizeHint@QWidget@@UBE?AVQSize@@XZ 0045fda4 f   Qt5Widgets:Qt5Widgets.dll
 0001:0005edaa       ?mouseDoubleClickEvent@QWidget@@MAEXPAVQMouseEvent@@@Z 0045fdaa f   Qt5Widgets:Qt5Widgets.dll
 0001:0005edb0       ?mouseMoveEvent@QAbstractSpinBox@@MAEXPAVQMouseEvent@@@Z 0045fdb0 f   Qt5Widgets:Qt5Widgets.dll
 0001:0005edb6       ?mouseMoveEvent@QLabel@@MAEXPAVQMouseEvent@@@Z 0045fdb6 f   Qt5Widgets:Qt5Widgets.dll
 0001:0005edbc       ?mouseMoveEvent@QWidget@@MAEXPAVQMouseEvent@@@Z 0045fdbc f   Qt5Widgets:Qt5Widgets.dll
 0001:0005edc2       ?mousePressEvent@QAbstractSpinBox@@MAEXPAVQMouseEvent@@@Z 0045fdc2 f   Qt5Widgets:Qt5Widgets.dll
 0001:0005edc8       ?mousePressEvent@QLabel@@MAEXPAVQMouseEvent@@@Z 0045fdc8 f   Qt5Widgets:Qt5Widgets.dll
 0001:0005edce       ?mousePressEvent@QWidget@@MAEXPAVQMouseEvent@@@Z 0045fdce f   Qt5Widgets:Qt5Widgets.dll
 0001:0005edd4       ?mouseReleaseEvent@QAbstractSpinBox@@MAEXPAVQMouseEvent@@@Z 0045fdd4 f   Qt5Widgets:Qt5Widgets.dll
 0001:0005edda       ?mouseReleaseEvent@QLabel@@MAEXPAVQMouseEvent@@@Z 0045fdda f   Qt5Widgets:Qt5Widgets.dll
 0001:0005ede0       ?mouseReleaseEvent@QWidget@@MAEXPAVQMouseEvent@@@Z 0045fde0 f   Qt5Widgets:Qt5Widgets.dll
 0001:0005ede6       ?moveEvent@QWidget@@MAEXPAVQMoveEvent@@@Z 0045fde6 f   Qt5Widgets:Qt5Widgets.dll
 0001:0005edec       ?nativeEvent@QWidget@@MAE_NABVQByteArray@@PAXPAJ@Z 0045fdec f   Qt5Widgets:Qt5Widgets.dll
 0001:0005edf2       ?paintEngine@QWidget@@UBEPAVQPaintEngine@@XZ 0045fdf2 f   Qt5Widgets:Qt5Widgets.dll
 0001:0005edf8       ?paintEvent@QAbstractSpinBox@@MAEXPAVQPaintEvent@@@Z 0045fdf8 f   Qt5Widgets:Qt5Widgets.dll
 0001:0005edfe       ?paintEvent@QLabel@@MAEXPAVQPaintEvent@@@Z 0045fdfe f   Qt5Widgets:Qt5Widgets.dll
 0001:0005ee04       ?paintEvent@QWidget@@MAEXPAVQPaintEvent@@@Z 0045fe04 f   Qt5Widgets:Qt5Widgets.dll
 0001:0005ee0a       ?qt_metacall@QDoubleSpinBox@@UAEHW4Call@QMetaObject@@HPAPAX@Z 0045fe0a f   Qt5Widgets:Qt5Widgets.dll
 0001:0005ee10       ?qt_metacall@QHBoxLayout@@UAEHW4Call@QMetaObject@@HPAPAX@Z 0045fe10 f   Qt5Widgets:Qt5Widgets.dll
 0001:0005ee16       ?qt_metacall@QLabel@@UAEHW4Call@QMetaObject@@HPAPAX@Z 0045fe16 f   Qt5Widgets:Qt5Widgets.dll
 0001:0005ee1c       ?qt_metacast@QDoubleSpinBox@@UAEPAXPBD@Z 0045fe1c f   Qt5Widgets:Qt5Widgets.dll
 0001:0005ee22       ?qt_metacast@QHBoxLayout@@UAEPAXPBD@Z 0045fe22 f   Qt5Widgets:Qt5Widgets.dll
 0001:0005ee28       ?qt_metacast@QLabel@@UAEPAXPBD@Z 0045fe28 f   Qt5Widgets:Qt5Widgets.dll
 0001:0005ee2e       ?redirected@QWidget@@MBEPAVQPaintDevice@@PAVQPoint@@@Z 0045fe2e f   Qt5Widgets:Qt5Widgets.dll
 0001:0005ee34       ?resizeEvent@QAbstractSpinBox@@MAEXPAVQResizeEvent@@@Z 0045fe34 f   Qt5Widgets:Qt5Widgets.dll
 0001:0005ee3a       ?resizeEvent@QWidget@@MAEXPAVQResizeEvent@@@Z 0045fe3a f   Qt5Widgets:Qt5Widgets.dll
 0001:0005ee40       ?setGeometry@QBoxLayout@@UAEXABVQRect@@@Z 0045fe40 f   Qt5Widgets:Qt5Widgets.dll
 0001:0005ee46       ?setVisible@QWidget@@UAEX_N@Z 0045fe46 f   Qt5Widgets:Qt5Widgets.dll
 0001:0005ee4c       ?sharedPainter@QWidget@@MBEPAVQPainter@@XZ 0045fe4c f   Qt5Widgets:Qt5Widgets.dll
 0001:0005ee52       ?showEvent@QAbstractSpinBox@@MAEXPAVQShowEvent@@@Z 0045fe52 f   Qt5Widgets:Qt5Widgets.dll
 0001:0005ee58       ?showEvent@QWidget@@MAEXPAVQShowEvent@@@Z 0045fe58 f   Qt5Widgets:Qt5Widgets.dll
 0001:0005ee5e       ?sizeHint@QAbstractSpinBox@@UBE?AVQSize@@XZ 0045fe5e f   Qt5Widgets:Qt5Widgets.dll
 0001:0005ee64       ?sizeHint@QBoxLayout@@UBE?AVQSize@@XZ 0045fe64 f   Qt5Widgets:Qt5Widgets.dll
 0001:0005ee6a       ?sizeHint@QLabel@@UBE?AVQSize@@XZ 0045fe6a f   Qt5Widgets:Qt5Widgets.dll
 0001:0005ee70       ?sizeHint@QWidget@@UBE?AVQSize@@XZ 0045fe70 f   Qt5Widgets:Qt5Widgets.dll
 0001:0005ee76       ?spacerItem@QLayoutItem@@UAEPAVQSpacerItem@@XZ 0045fe76 f   Qt5Widgets:Qt5Widgets.dll
 0001:0005ee7c       ?stepBy@QAbstractSpinBox@@UAEXH@Z 0045fe7c f   Qt5Widgets:Qt5Widgets.dll
 0001:0005ee82       ?stepEnabled@QAbstractSpinBox@@MBE?AV?$QFlags@W4StepEnabledFlag@QAbstractSpinBox@@@@XZ 0045fe82 f   Qt5Widgets:Qt5Widgets.dll
 0001:0005ee88       ?tabletEvent@QWidget@@MAEXPAVQTabletEvent@@@Z 0045fe88 f   Qt5Widgets:Qt5Widgets.dll
 0001:0005ee8e       ?takeAt@QBoxLayout@@UAEPAVQLayoutItem@@H@Z 0045fe8e f   Qt5Widgets:Qt5Widgets.dll
 0001:0005ee94       ?textFromValue@QDoubleSpinBox@@UBE?AVQString@@N@Z 0045fe94 f   Qt5Widgets:Qt5Widgets.dll
 0001:0005ee9a       ?timerEvent@QAbstractSpinBox@@MAEXPAVQTimerEvent@@@Z 0045fe9a f   Qt5Widgets:Qt5Widgets.dll
 0001:0005eea0       ?validate@QDoubleSpinBox@@UBE?AW4State@QValidator@@AAVQString@@AAH@Z 0045fea0 f   Qt5Widgets:Qt5Widgets.dll
 0001:0005eea6       ?valueFromText@QDoubleSpinBox@@UBENABVQString@@@Z 0045fea6 f   Qt5Widgets:Qt5Widgets.dll
 0001:0005eeac       ?wheelEvent@QAbstractSpinBox@@MAEXPAVQWheelEvent@@@Z 0045feac f   Qt5Widgets:Qt5Widgets.dll
 0001:0005eeb2       ?wheelEvent@QWidget@@MAEXPAVQWheelEvent@@@Z 0045feb2 f   Qt5Widgets:Qt5Widgets.dll
 0001:0005eeb8       ?widget@QLayoutItem@@UAEPAVQWidget@@XZ 0045feb8 f   Qt5Widgets:Qt5Widgets.dll
 0001:0005eebe       ?accept@QDialog@@UAEXXZ    0045febe f   Qt5Widgets:Qt5Widgets.dll
 0001:0005eec4       ?addItem@QGridLayout@@MAEXPAVQLayoutItem@@@Z 0045fec4 f   Qt5Widgets:Qt5Widgets.dll
 0001:0005eeca       ?changeEvent@QAbstractButton@@MAEXPAVQEvent@@@Z 0045feca f   Qt5Widgets:Qt5Widgets.dll
 0001:0005eed0       ?changeEvent@QLineEdit@@MAEXPAVQEvent@@@Z 0045fed0 f   Qt5Widgets:Qt5Widgets.dll
 0001:0005eed6       ?checkStateSet@QAbstractButton@@MAEXXZ 0045fed6 f   Qt5Widgets:Qt5Widgets.dll
 0001:0005eedc       ?closeEvent@QDialog@@MAEXPAVQCloseEvent@@@Z 0045fedc f   Qt5Widgets:Qt5Widgets.dll
 0001:0005eee2       ?contextMenuEvent@QDialog@@MAEXPAVQContextMenuEvent@@@Z 0045fee2 f   Qt5Widgets:Qt5Widgets.dll
 0001:0005eee8       ?contextMenuEvent@QLineEdit@@MAEXPAVQContextMenuEvent@@@Z 0045fee8 f   Qt5Widgets:Qt5Widgets.dll
 0001:0005eeee       ?controlTypes@QLayoutItem@@UBE?AV?$QFlags@W4ControlType@QSizePolicy@@@@XZ 0045feee f   Qt5Widgets:Qt5Widgets.dll
 0001:0005eef4       ?count@QGridLayout@@UBEHXZ 0045fef4 f   Qt5Widgets:Qt5Widgets.dll
 0001:0005eefa       ?done@QDialog@@UAEXH@Z     0045fefa f   Qt5Widgets:Qt5Widgets.dll
 0001:0005ef00       ?dragEnterEvent@QLineEdit@@MAEXPAVQDragEnterEvent@@@Z 0045ff00 f   Qt5Widgets:Qt5Widgets.dll
 0001:0005ef06       ?dragLeaveEvent@QLineEdit@@MAEXPAVQDragLeaveEvent@@@Z 0045ff06 f   Qt5Widgets:Qt5Widgets.dll
 0001:0005ef0c       ?dragMoveEvent@QLineEdit@@MAEXPAVQDragMoveEvent@@@Z 0045ff0c f   Qt5Widgets:Qt5Widgets.dll
 0001:0005ef12       ?dropEvent@QLineEdit@@MAEXPAVQDropEvent@@@Z 0045ff12 f   Qt5Widgets:Qt5Widgets.dll
 0001:0005ef18       ?event@QLineEdit@@UAE_NPAVQEvent@@@Z 0045ff18 f   Qt5Widgets:Qt5Widgets.dll
 0001:0005ef1e       ?event@QPushButton@@MAE_NPAVQEvent@@@Z 0045ff1e f   Qt5Widgets:Qt5Widgets.dll
 0001:0005ef24       ?eventFilter@QDialog@@MAE_NPAVQObject@@PAVQEvent@@@Z 0045ff24 f   Qt5Widgets:Qt5Widgets.dll
 0001:0005ef2a       ?exec@QDialog@@UAEHXZ      0045ff2a f   Qt5Widgets:Qt5Widgets.dll
 0001:0005ef30       ?expandingDirections@QGridLayout@@UBE?AV?$QFlags@W4Orientation@Qt@@@@XZ 0045ff30 f   Qt5Widgets:Qt5Widgets.dll
 0001:0005ef36       ?expandingDirections@QSpacerItem@@UBE?AV?$QFlags@W4Orientation@Qt@@@@XZ 0045ff36 f   Qt5Widgets:Qt5Widgets.dll
 0001:0005ef3c       ?focusInEvent@QLineEdit@@MAEXPAVQFocusEvent@@@Z 0045ff3c f   Qt5Widgets:Qt5Widgets.dll
 0001:0005ef42       ?focusInEvent@QPushButton@@MAEXPAVQFocusEvent@@@Z 0045ff42 f   Qt5Widgets:Qt5Widgets.dll
 0001:0005ef48       ?focusOutEvent@QLineEdit@@MAEXPAVQFocusEvent@@@Z 0045ff48 f   Qt5Widgets:Qt5Widgets.dll
 0001:0005ef4e       ?focusOutEvent@QPushButton@@MAEXPAVQFocusEvent@@@Z 0045ff4e f   Qt5Widgets:Qt5Widgets.dll
 0001:0005ef54       ?geometry@QSpacerItem@@UBE?AVQRect@@XZ 0045ff54 f   Qt5Widgets:Qt5Widgets.dll
 0001:0005ef5a       ?hasHeightForWidth@QGridLayout@@UBE_NXZ 0045ff5a f   Qt5Widgets:Qt5Widgets.dll
 0001:0005ef60       ?hasHeightForWidth@QLayoutItem@@UBE_NXZ 0045ff60 f   Qt5Widgets:Qt5Widgets.dll
 0001:0005ef66       ?heightForWidth@QGridLayout@@UBEHH@Z 0045ff66 f   Qt5Widgets:Qt5Widgets.dll
 0001:0005ef6c       ?heightForWidth@QLayoutItem@@UBEHH@Z 0045ff6c f   Qt5Widgets:Qt5Widgets.dll
 0001:0005ef72       ?hitButton@QAbstractButton@@MBE_NABVQPoint@@@Z 0045ff72 f   Qt5Widgets:Qt5Widgets.dll
 0001:0005ef78       ?inputMethodEvent@QLineEdit@@MAEXPAVQInputMethodEvent@@@Z 0045ff78 f   Qt5Widgets:Qt5Widgets.dll
 0001:0005ef7e       ?inputMethodQuery@QLineEdit@@UBE?AVQVariant@@W4InputMethodQuery@Qt@@@Z 0045ff7e f   Qt5Widgets:Qt5Widgets.dll
 0001:0005ef84       ?invalidate@QGridLayout@@UAEXXZ 0045ff84 f   Qt5Widgets:Qt5Widgets.dll
 0001:0005ef8a       ?invalidate@QLayoutItem@@UAEXXZ 0045ff8a f   Qt5Widgets:Qt5Widgets.dll
 0001:0005ef90       ?isEmpty@QSpacerItem@@UBE_NXZ 0045ff90 f   Qt5Widgets:Qt5Widgets.dll
 0001:0005ef96       ?itemAt@QGridLayout@@UBEPAVQLayoutItem@@H@Z 0045ff96 f   Qt5Widgets:Qt5Widgets.dll
 0001:0005ef9c       ?keyPressEvent@QDialog@@MAEXPAVQKeyEvent@@@Z 0045ff9c f   Qt5Widgets:Qt5Widgets.dll
 0001:0005efa2       ?keyPressEvent@QLineEdit@@MAEXPAVQKeyEvent@@@Z 0045ffa2 f   Qt5Widgets:Qt5Widgets.dll
 0001:0005efa8       ?keyPressEvent@QPushButton@@MAEXPAVQKeyEvent@@@Z 0045ffa8 f   Qt5Widgets:Qt5Widgets.dll
 0001:0005efae       ?keyReleaseEvent@QAbstractButton@@MAEXPAVQKeyEvent@@@Z 0045ffae f   Qt5Widgets:Qt5Widgets.dll
 0001:0005efb4       ?layout@QLayoutItem@@UAEPAVQLayout@@XZ 0045ffb4 f   Qt5Widgets:Qt5Widgets.dll
 0001:0005efba       ?maximumSize@QGridLayout@@UBE?AVQSize@@XZ 0045ffba f   Qt5Widgets:Qt5Widgets.dll
 0001:0005efc0       ?maximumSize@QSpacerItem@@UBE?AVQSize@@XZ 0045ffc0 f   Qt5Widgets:Qt5Widgets.dll
 0001:0005efc6       ?metaObject@QGridLayout@@UBEPBUQMetaObject@@XZ 0045ffc6 f   Qt5Widgets:Qt5Widgets.dll
 0001:0005efcc       ?metaObject@QLineEdit@@UBEPBUQMetaObject@@XZ 0045ffcc f   Qt5Widgets:Qt5Widgets.dll
 0001:0005efd2       ?metaObject@QPushButton@@UBEPBUQMetaObject@@XZ 0045ffd2 f   Qt5Widgets:Qt5Widgets.dll
 0001:0005efd8       ?metaObject@QVBoxLayout@@UBEPBUQMetaObject@@XZ 0045ffd8 f   Qt5Widgets:Qt5Widgets.dll
 0001:0005efde       ?metaObject@QWidget@@UBEPBUQMetaObject@@XZ 0045ffde f   Qt5Widgets:Qt5Widgets.dll
 0001:0005efe4       ?minimumHeightForWidth@QGridLayout@@UBEHH@Z 0045ffe4 f   Qt5Widgets:Qt5Widgets.dll
 0001:0005efea       ?minimumHeightForWidth@QLayoutItem@@UBEHH@Z 0045ffea f   Qt5Widgets:Qt5Widgets.dll
 0001:0005eff0       ?minimumSize@QGridLayout@@UBE?AVQSize@@XZ 0045fff0 f   Qt5Widgets:Qt5Widgets.dll
 0001:0005eff6       ?minimumSize@QSpacerItem@@UBE?AVQSize@@XZ 0045fff6 f   Qt5Widgets:Qt5Widgets.dll
 0001:0005effe       ?minimumSizeHint@QDialog@@UBE?AVQSize@@XZ 0045fffe f   Qt5Widgets:Qt5Widgets.dll
 0001:0005f004       ?minimumSizeHint@QLineEdit@@UBE?AVQSize@@XZ 00460004 f   Qt5Widgets:Qt5Widgets.dll
 0001:0005f00a       ?minimumSizeHint@QPushButton@@UBE?AVQSize@@XZ 0046000a f   Qt5Widgets:Qt5Widgets.dll
 0001:0005f010       ?mouseDoubleClickEvent@QLineEdit@@MAEXPAVQMouseEvent@@@Z 00460010 f   Qt5Widgets:Qt5Widgets.dll
 0001:0005f016       ?mouseMoveEvent@QAbstractButton@@MAEXPAVQMouseEvent@@@Z 00460016 f   Qt5Widgets:Qt5Widgets.dll
 0001:0005f01c       ?mouseMoveEvent@QLineEdit@@MAEXPAVQMouseEvent@@@Z 0046001c f   Qt5Widgets:Qt5Widgets.dll
 0001:0005f022       ?mousePressEvent@QAbstractButton@@MAEXPAVQMouseEvent@@@Z 00460022 f   Qt5Widgets:Qt5Widgets.dll
 0001:0005f028       ?mousePressEvent@QLineEdit@@MAEXPAVQMouseEvent@@@Z 00460028 f   Qt5Widgets:Qt5Widgets.dll
 0001:0005f02e       ?mouseReleaseEvent@QAbstractButton@@MAEXPAVQMouseEvent@@@Z 0046002e f   Qt5Widgets:Qt5Widgets.dll
 0001:0005f034       ?mouseReleaseEvent@QLineEdit@@MAEXPAVQMouseEvent@@@Z 00460034 f   Qt5Widgets:Qt5Widgets.dll
 0001:0005f03a       ?nextCheckState@QAbstractButton@@MAEXXZ 0046003a f   Qt5Widgets:Qt5Widgets.dll
 0001:0005f040       ?open@QDialog@@UAEXXZ      00460040 f   Qt5Widgets:Qt5Widgets.dll
 0001:0005f046       ?paintEvent@QLineEdit@@MAEXPAVQPaintEvent@@@Z 00460046 f   Qt5Widgets:Qt5Widgets.dll
 0001:0005f04c       ?paintEvent@QPushButton@@MAEXPAVQPaintEvent@@@Z 0046004c f   Qt5Widgets:Qt5Widgets.dll
 0001:0005f052       ?qt_metacall@QGridLayout@@UAEHW4Call@QMetaObject@@HPAPAX@Z 00460052 f   Qt5Widgets:Qt5Widgets.dll
 0001:0005f058       ?qt_metacall@QLineEdit@@UAEHW4Call@QMetaObject@@HPAPAX@Z 00460058 f   Qt5Widgets:Qt5Widgets.dll
 0001:0005f05e       ?qt_metacall@QPushButton@@UAEHW4Call@QMetaObject@@HPAPAX@Z 0046005e f   Qt5Widgets:Qt5Widgets.dll
 0001:0005f064       ?qt_metacall@QVBoxLayout@@UAEHW4Call@QMetaObject@@HPAPAX@Z 00460064 f   Qt5Widgets:Qt5Widgets.dll
 0001:0005f06a       ?qt_metacall@QWidget@@UAEHW4Call@QMetaObject@@HPAPAX@Z 0046006a f   Qt5Widgets:Qt5Widgets.dll
 0001:0005f070       ?qt_metacast@QGridLayout@@UAEPAXPBD@Z 00460070 f   Qt5Widgets:Qt5Widgets.dll
 0001:0005f076       ?qt_metacast@QLineEdit@@UAEPAXPBD@Z 00460076 f   Qt5Widgets:Qt5Widgets.dll
 0001:0005f07c       ?qt_metacast@QPushButton@@UAEPAXPBD@Z 0046007c f   Qt5Widgets:Qt5Widgets.dll
 0001:0005f082       ?qt_metacast@QVBoxLayout@@UAEPAXPBD@Z 00460082 f   Qt5Widgets:Qt5Widgets.dll
 0001:0005f088       ?qt_metacast@QWidget@@UAEPAXPBD@Z 00460088 f   Qt5Widgets:Qt5Widgets.dll
 0001:0005f08e       ?reject@QDialog@@UAEXXZ    0046008e f   Qt5Widgets:Qt5Widgets.dll
 0001:0005f094       ?resizeEvent@QDialog@@MAEXPAVQResizeEvent@@@Z 00460094 f   Qt5Widgets:Qt5Widgets.dll
 0001:0005f09a       ?setGeometry@QGridLayout@@UAEXABVQRect@@@Z 0046009a f   Qt5Widgets:Qt5Widgets.dll
 0001:0005f0a0       ?setGeometry@QSpacerItem@@UAEXABVQRect@@@Z 004600a0 f   Qt5Widgets:Qt5Widgets.dll
 0001:0005f0a6       ?setVisible@QDialog@@UAEX_N@Z 004600a6 f   Qt5Widgets:Qt5Widgets.dll
 0001:0005f0ac       ?showEvent@QDialog@@MAEXPAVQShowEvent@@@Z 004600ac f   Qt5Widgets:Qt5Widgets.dll
 0001:0005f0b2       ?sizeHint@QDialog@@UBE?AVQSize@@XZ 004600b2 f   Qt5Widgets:Qt5Widgets.dll
 0001:0005f0b8       ?sizeHint@QGridLayout@@UBE?AVQSize@@XZ 004600b8 f   Qt5Widgets:Qt5Widgets.dll
 0001:0005f0be       ?sizeHint@QLineEdit@@UBE?AVQSize@@XZ 004600be f   Qt5Widgets:Qt5Widgets.dll
 0001:0005f0c4       ?sizeHint@QPushButton@@UBE?AVQSize@@XZ 004600c4 f   Qt5Widgets:Qt5Widgets.dll
 0001:0005f0ca       ?sizeHint@QSpacerItem@@UBE?AVQSize@@XZ 004600ca f   Qt5Widgets:Qt5Widgets.dll
 0001:0005f0d0       ?spacerItem@QSpacerItem@@UAEPAV1@XZ 004600d0 f   Qt5Widgets:Qt5Widgets.dll
 0001:0005f0d6       ?takeAt@QGridLayout@@UAEPAVQLayoutItem@@H@Z 004600d6 f   Qt5Widgets:Qt5Widgets.dll
 0001:0005f0dc       ?timerEvent@QAbstractButton@@MAEXPAVQTimerEvent@@@Z 004600dc f   Qt5Widgets:Qt5Widgets.dll
 0001:0005f0e2       ??MQTableWidgetItem@@UBE_NABV0@@Z 004600e2 f   Qt5Widgets:Qt5Widgets.dll
 0001:0005f0e8       ?changeEvent@QFrame@@MAEXPAVQEvent@@@Z 004600e8 f   Qt5Widgets:Qt5Widgets.dll
 0001:0005f0ee       ?clone@QTableWidgetItem@@UBEPAV1@XZ 004600ee f   Qt5Widgets:Qt5Widgets.dll
 0001:0005f0f4       ?closeEditor@QAbstractItemView@@MAEXPAVQWidget@@W4EndEditHint@QAbstractItemDelegate@@@Z 004600f4 f   Qt5Widgets:Qt5Widgets.dll
 0001:0005f0fa       ?commitData@QAbstractItemView@@MAEXPAVQWidget@@@Z 004600fa f   Qt5Widgets:Qt5Widgets.dll
 0001:0005f100       ?contextMenuEvent@QAbstractScrollArea@@MAEXPAVQContextMenuEvent@@@Z 00460100 f   Qt5Widgets:Qt5Widgets.dll
 0001:0005f106       ?currentChanged@QTableView@@MAEXABVQModelIndex@@0@Z 00460106 f   Qt5Widgets:Qt5Widgets.dll
 0001:0005f10c       ?data@QTableWidgetItem@@UBE?AVQVariant@@H@Z 0046010c f   Qt5Widgets:Qt5Widgets.dll
 0001:0005f112       ?dataChanged@QAbstractItemView@@MAEXABVQModelIndex@@0ABV?$QVector@H@@@Z 00460112 f   Qt5Widgets:Qt5Widgets.dll
 0001:0005f118       ?doItemsLayout@QTableView@@UAEXXZ 00460118 f   Qt5Widgets:Qt5Widgets.dll
 0001:0005f11e       ?dragEnterEvent@QAbstractItemView@@MAEXPAVQDragEnterEvent@@@Z 0046011e f   Qt5Widgets:Qt5Widgets.dll
 0001:0005f124       ?dragLeaveEvent@QAbstractItemView@@MAEXPAVQDragLeaveEvent@@@Z 00460124 f   Qt5Widgets:Qt5Widgets.dll
 0001:0005f12a       ?dragMoveEvent@QAbstractItemView@@MAEXPAVQDragMoveEvent@@@Z 0046012a f   Qt5Widgets:Qt5Widgets.dll
 0001:0005f130       ?dropEvent@QTableWidget@@MAEXPAVQDropEvent@@@Z 00460130 f   Qt5Widgets:Qt5Widgets.dll
 0001:0005f136       ?dropMimeData@QTableWidget@@MAE_NHHPBVQMimeData@@W4DropAction@Qt@@@Z 00460136 f   Qt5Widgets:Qt5Widgets.dll
 0001:0005f13c       ?edit@QAbstractItemView@@MAE_NABVQModelIndex@@W4EditTrigger@1@PAVQEvent@@@Z 0046013c f   Qt5Widgets:Qt5Widgets.dll
 0001:0005f142       ?editorDestroyed@QAbstractItemView@@MAEXPAVQObject@@@Z 00460142 f   Qt5Widgets:Qt5Widgets.dll
 0001:0005f148       ?event@QTableWidget@@MAE_NPAVQEvent@@@Z 00460148 f   Qt5Widgets:Qt5Widgets.dll
 0001:0005f14e       ?eventFilter@QAbstractItemView@@MAE_NPAVQObject@@PAVQEvent@@@Z 0046014e f   Qt5Widgets:Qt5Widgets.dll
 0001:0005f154       ?focusInEvent@QAbstractItemView@@MAEXPAVQFocusEvent@@@Z 00460154 f   Qt5Widgets:Qt5Widgets.dll
 0001:0005f15a       ?focusNextPrevChild@QAbstractItemView@@MAE_N_N@Z 0046015a f   Qt5Widgets:Qt5Widgets.dll
 0001:0005f160       ?focusOutEvent@QAbstractItemView@@MAEXPAVQFocusEvent@@@Z 00460160 f   Qt5Widgets:Qt5Widgets.dll
 0001:0005f166       ?horizontalOffset@QTableView@@MBEHXZ 00460166 f   Qt5Widgets:Qt5Widgets.dll
 0001:0005f16c       ?horizontalScrollbarAction@QTableView@@MAEXH@Z 0046016c f   Qt5Widgets:Qt5Widgets.dll
 0001:0005f172       ?horizontalScrollbarValueChanged@QAbstractItemView@@MAEXH@Z 00460172 f   Qt5Widgets:Qt5Widgets.dll
 0001:0005f178       ?indexAt@QTableView@@UBE?AVQModelIndex@@ABVQPoint@@@Z 00460178 f   Qt5Widgets:Qt5Widgets.dll
 0001:0005f17e       ?inputMethodEvent@QAbstractItemView@@MAEXPAVQInputMethodEvent@@@Z 0046017e f   Qt5Widgets:Qt5Widgets.dll
 0001:0005f184       ?inputMethodQuery@QAbstractItemView@@UBE?AVQVariant@@W4InputMethodQuery@Qt@@@Z 00460184 f   Qt5Widgets:Qt5Widgets.dll
 0001:0005f18a       ?isIndexHidden@QTableView@@MBE_NABVQModelIndex@@@Z 0046018a f   Qt5Widgets:Qt5Widgets.dll
 0001:0005f190       ?keyPressEvent@QAbstractItemView@@MAEXPAVQKeyEvent@@@Z 00460190 f   Qt5Widgets:Qt5Widgets.dll
 0001:0005f196       ?keyboardSearch@QAbstractItemView@@UAEXABVQString@@@Z 00460196 f   Qt5Widgets:Qt5Widgets.dll
 0001:0005f19c       ?metaObject@QTableWidget@@UBEPBUQMetaObject@@XZ 0046019c f   Qt5Widgets:Qt5Widgets.dll
 0001:0005f1a2       ?mimeData@QTableWidget@@MBEPAVQMimeData@@V?$QList@PAVQTableWidgetItem@@@@@Z 004601a2 f   Qt5Widgets:Qt5Widgets.dll
 0001:0005f1a8       ?mimeTypes@QTableWidget@@MBE?AVQStringList@@XZ 004601a8 f   Qt5Widgets:Qt5Widgets.dll
 0001:0005f1ae       ?minimumSizeHint@QAbstractScrollArea@@UBE?AVQSize@@XZ 004601ae f   Qt5Widgets:Qt5Widgets.dll
 0001:0005f1b4       ?mouseDoubleClickEvent@QAbstractItemView@@MAEXPAVQMouseEvent@@@Z 004601b4 f   Qt5Widgets:Qt5Widgets.dll
 0001:0005f1ba       ?mouseMoveEvent@QAbstractItemView@@MAEXPAVQMouseEvent@@@Z 004601ba f   Qt5Widgets:Qt5Widgets.dll
 0001:0005f1c0       ?mousePressEvent@QAbstractItemView@@MAEXPAVQMouseEvent@@@Z 004601c0 f   Qt5Widgets:Qt5Widgets.dll
 0001:0005f1c6       ?mouseReleaseEvent@QAbstractItemView@@MAEXPAVQMouseEvent@@@Z 004601c6 f   Qt5Widgets:Qt5Widgets.dll
 0001:0005f1cc       ?moveCursor@QTableView@@MAE?AVQModelIndex@@W4CursorAction@QAbstractItemView@@V?$QFlags@W4KeyboardModifier@Qt@@@@@Z 004601cc f   Qt5Widgets:Qt5Widgets.dll
 0001:0005f1d2       ?paintEvent@QTableView@@MAEXPAVQPaintEvent@@@Z 004601d2 f   Qt5Widgets:Qt5Widgets.dll
 0001:0005f1d8       ?qt_metacall@QTableWidget@@UAEHW4Call@QMetaObject@@HPAPAX@Z 004601d8 f   Qt5Widgets:Qt5Widgets.dll
 0001:0005f1de       ?qt_metacast@QTableWidget@@UAEPAXPBD@Z 004601de f   Qt5Widgets:Qt5Widgets.dll
 0001:0005f1e4       ?read@QTableWidgetItem@@UAEXAAVQDataStream@@@Z 004601e4 f   Qt5Widgets:Qt5Widgets.dll
 0001:0005f1ea       ?reset@QAbstractItemView@@UAEXXZ 004601ea f   Qt5Widgets:Qt5Widgets.dll
 0001:0005f1f0       ?resizeEvent@QAbstractItemView@@MAEXPAVQResizeEvent@@@Z 004601f0 f   Qt5Widgets:Qt5Widgets.dll
 0001:0005f1f6       ?rowsAboutToBeRemoved@QAbstractItemView@@MAEXABVQModelIndex@@HH@Z 004601f6 f   Qt5Widgets:Qt5Widgets.dll
 0001:0005f1fc       ?rowsInserted@QAbstractItemView@@MAEXABVQModelIndex@@HH@Z 004601fc f   Qt5Widgets:Qt5Widgets.dll
 0001:0005f202       ?scrollContentsBy@QTableView@@MAEXHH@Z 00460202 f   Qt5Widgets:Qt5Widgets.dll
 0001:0005f208       ?scrollTo@QTableView@@UAEXABVQModelIndex@@W4ScrollHint@QAbstractItemView@@@Z 00460208 f   Qt5Widgets:Qt5Widgets.dll
 0001:0005f20e       ?selectAll@QAbstractItemView@@UAEXXZ 0046020e f   Qt5Widgets:Qt5Widgets.dll
 0001:0005f214       ?selectedIndexes@QTableView@@MBE?AV?$QList@VQModelIndex@@@@XZ 00460214 f   Qt5Widgets:Qt5Widgets.dll
 0001:0005f21a       ?selectionChanged@QTableView@@MAEXABVQItemSelection@@0@Z 0046021a f   Qt5Widgets:Qt5Widgets.dll
 0001:0005f220       ?selectionCommand@QAbstractItemView@@MBE?AV?$QFlags@W4SelectionFlag@QItemSelectionModel@@@@ABVQModelIndex@@PBVQEvent@@@Z 00460220 f   Qt5Widgets:Qt5Widgets.dll
 0001:0005f226       ?setData@QTableWidgetItem@@UAEXHABVQVariant@@@Z 00460226 f   Qt5Widgets:Qt5Widgets.dll
 0001:0005f22c       ?setModel@QTableWidget@@EAEXPAVQAbstractItemModel@@@Z 0046022c f   Qt5Widgets:Qt5Widgets.dll
 0001:0005f232       ?setRootIndex@QTableView@@UAEXABVQModelIndex@@@Z 00460232 f   Qt5Widgets:Qt5Widgets.dll
 0001:0005f238       ?setSelection@QTableView@@MAEXABVQRect@@V?$QFlags@W4SelectionFlag@QItemSelectionModel@@@@@Z 00460238 f   Qt5Widgets:Qt5Widgets.dll
 0001:0005f23e       ?setSelectionModel@QTableView@@UAEXPAVQItemSelectionModel@@@Z 0046023e f   Qt5Widgets:Qt5Widgets.dll
 0001:0005f244       ?setupViewport@QAbstractScrollArea@@UAEXPAVQWidget@@@Z 00460244 f   Qt5Widgets:Qt5Widgets.dll
 0001:0005f24a       ?sizeHint@QAbstractScrollArea@@UBE?AVQSize@@XZ 0046024a f   Qt5Widgets:Qt5Widgets.dll
 0001:0005f250       ?sizeHintForColumn@QTableView@@MBEHH@Z 00460250 f   Qt5Widgets:Qt5Widgets.dll
 0001:0005f256       ?sizeHintForRow@QTableView@@MBEHH@Z 00460256 f   Qt5Widgets:Qt5Widgets.dll
 0001:0005f25c       ?startDrag@QAbstractItemView@@MAEXV?$QFlags@W4DropAction@Qt@@@@@Z 0046025c f   Qt5Widgets:Qt5Widgets.dll
 0001:0005f262       ?supportedDropActions@QTableWidget@@MBE?AV?$QFlags@W4DropAction@Qt@@@@XZ 00460262 f   Qt5Widgets:Qt5Widgets.dll
 0001:0005f268       ?timerEvent@QTableView@@MAEXPAVQTimerEvent@@@Z 00460268 f   Qt5Widgets:Qt5Widgets.dll
 0001:0005f26e       ?updateEditorData@QAbstractItemView@@MAEXXZ 0046026e f   Qt5Widgets:Qt5Widgets.dll
 0001:0005f274       ?updateEditorGeometries@QAbstractItemView@@MAEXXZ 00460274 f   Qt5Widgets:Qt5Widgets.dll
 0001:0005f27a       ?updateGeometries@QTableView@@MAEXXZ 0046027a f   Qt5Widgets:Qt5Widgets.dll
 0001:0005f280       ?verticalOffset@QTableView@@MBEHXZ 00460280 f   Qt5Widgets:Qt5Widgets.dll
 0001:0005f286       ?verticalScrollbarAction@QTableView@@MAEXH@Z 00460286 f   Qt5Widgets:Qt5Widgets.dll
 0001:0005f28c       ?verticalScrollbarValueChanged@QAbstractItemView@@MAEXH@Z 0046028c f   Qt5Widgets:Qt5Widgets.dll
 0001:0005f292       ?viewOptions@QTableView@@MBE?AVQStyleOptionViewItem@@XZ 00460292 f   Qt5Widgets:Qt5Widgets.dll
 0001:0005f298       ?viewportEvent@QAbstractItemView@@MAE_NPAVQEvent@@@Z 00460298 f   Qt5Widgets:Qt5Widgets.dll
 0001:0005f29e       ?viewportSizeHint@QTableView@@MBE?AVQSize@@XZ 0046029e f   Qt5Widgets:Qt5Widgets.dll
 0001:0005f2a4       ?visualRect@QTableView@@UBE?AVQRect@@ABVQModelIndex@@@Z 004602a4 f   Qt5Widgets:Qt5Widgets.dll
 0001:0005f2aa       ?visualRegionForSelection@QTableView@@MBE?AVQRegion@@ABVQItemSelection@@@Z 004602aa f   Qt5Widgets:Qt5Widgets.dll
 0001:0005f2b0       ?wheelEvent@QAbstractScrollArea@@MAEXPAVQWheelEvent@@@Z 004602b0 f   Qt5Widgets:Qt5Widgets.dll
 0001:0005f2b6       ?write@QTableWidgetItem@@UBEXAAVQDataStream@@@Z 004602b6 f   Qt5Widgets:Qt5Widgets.dll
 0001:0005f2bc       ?changeEvent@QComboBox@@MAEXPAVQEvent@@@Z 004602bc f   Qt5Widgets:Qt5Widgets.dll
 0001:0005f2c2       ?checkStateSet@QCheckBox@@MAEXXZ 004602c2 f   Qt5Widgets:Qt5Widgets.dll
 0001:0005f2c8       ?contextMenuEvent@QComboBox@@MAEXPAVQContextMenuEvent@@@Z 004602c8 f   Qt5Widgets:Qt5Widgets.dll
 0001:0005f2ce       ?event@QCheckBox@@MAE_NPAVQEvent@@@Z 004602ce f   Qt5Widgets:Qt5Widgets.dll
 0001:0005f2d4       ?event@QComboBox@@UAE_NPAVQEvent@@@Z 004602d4 f   Qt5Widgets:Qt5Widgets.dll
 0001:0005f2da       ?focusInEvent@QAbstractButton@@MAEXPAVQFocusEvent@@@Z 004602da f   Qt5Widgets:Qt5Widgets.dll
 0001:0005f2e0       ?focusInEvent@QComboBox@@MAEXPAVQFocusEvent@@@Z 004602e0 f   Qt5Widgets:Qt5Widgets.dll
 0001:0005f2e6       ?focusOutEvent@QAbstractButton@@MAEXPAVQFocusEvent@@@Z 004602e6 f   Qt5Widgets:Qt5Widgets.dll
 0001:0005f2ec       ?focusOutEvent@QComboBox@@MAEXPAVQFocusEvent@@@Z 004602ec f   Qt5Widgets:Qt5Widgets.dll
 0001:0005f2f2       ?hideEvent@QComboBox@@MAEXPAVQHideEvent@@@Z 004602f2 f   Qt5Widgets:Qt5Widgets.dll
 0001:0005f2f8       ?hidePopup@QComboBox@@UAEXXZ 004602f8 f   Qt5Widgets:Qt5Widgets.dll
 0001:0005f2fe       ?hitButton@QCheckBox@@MBE_NABVQPoint@@@Z 004602fe f   Qt5Widgets:Qt5Widgets.dll
 0001:0005f304       ?inputMethodEvent@QComboBox@@MAEXPAVQInputMethodEvent@@@Z 00460304 f   Qt5Widgets:Qt5Widgets.dll
 0001:0005f30a       ?inputMethodQuery@QComboBox@@UBE?AVQVariant@@W4InputMethodQuery@Qt@@@Z 0046030a f   Qt5Widgets:Qt5Widgets.dll
 0001:0005f310       ?keyPressEvent@QAbstractButton@@MAEXPAVQKeyEvent@@@Z 00460310 f   Qt5Widgets:Qt5Widgets.dll
 0001:0005f316       ?keyPressEvent@QComboBox@@MAEXPAVQKeyEvent@@@Z 00460316 f   Qt5Widgets:Qt5Widgets.dll
 0001:0005f31c       ?keyReleaseEvent@QComboBox@@MAEXPAVQKeyEvent@@@Z 0046031c f   Qt5Widgets:Qt5Widgets.dll
 0001:0005f322       ?metaObject@QCheckBox@@UBEPBUQMetaObject@@XZ 00460322 f   Qt5Widgets:Qt5Widgets.dll
 0001:0005f328       ?metaObject@QComboBox@@UBEPBUQMetaObject@@XZ 00460328 f   Qt5Widgets:Qt5Widgets.dll
 0001:0005f32e       ?minimumSizeHint@QCheckBox@@UBE?AVQSize@@XZ 0046032e f   Qt5Widgets:Qt5Widgets.dll
 0001:0005f334       ?minimumSizeHint@QComboBox@@UBE?AVQSize@@XZ 00460334 f   Qt5Widgets:Qt5Widgets.dll
 0001:0005f33a       ?mouseMoveEvent@QCheckBox@@MAEXPAVQMouseEvent@@@Z 0046033a f   Qt5Widgets:Qt5Widgets.dll
 0001:0005f340       ?mousePressEvent@QComboBox@@MAEXPAVQMouseEvent@@@Z 00460340 f   Qt5Widgets:Qt5Widgets.dll
 0001:0005f346       ?mouseReleaseEvent@QComboBox@@MAEXPAVQMouseEvent@@@Z 00460346 f   Qt5Widgets:Qt5Widgets.dll
 0001:0005f34c       ?nextCheckState@QCheckBox@@MAEXXZ 0046034c f   Qt5Widgets:Qt5Widgets.dll
 0001:0005f352       ?paintEvent@QCheckBox@@MAEXPAVQPaintEvent@@@Z 00460352 f   Qt5Widgets:Qt5Widgets.dll
 0001:0005f358       ?paintEvent@QComboBox@@MAEXPAVQPaintEvent@@@Z 00460358 f   Qt5Widgets:Qt5Widgets.dll
 0001:0005f35e       ?qt_metacall@QCheckBox@@UAEHW4Call@QMetaObject@@HPAPAX@Z 0046035e f   Qt5Widgets:Qt5Widgets.dll
 0001:0005f364       ?qt_metacall@QComboBox@@UAEHW4Call@QMetaObject@@HPAPAX@Z 00460364 f   Qt5Widgets:Qt5Widgets.dll
 0001:0005f36a       ?qt_metacast@QCheckBox@@UAEPAXPBD@Z 0046036a f   Qt5Widgets:Qt5Widgets.dll
 0001:0005f370       ?qt_metacast@QComboBox@@UAEPAXPBD@Z 00460370 f   Qt5Widgets:Qt5Widgets.dll
 0001:0005f376       ?resizeEvent@QComboBox@@MAEXPAVQResizeEvent@@@Z 00460376 f   Qt5Widgets:Qt5Widgets.dll
 0001:0005f37c       ?showEvent@QComboBox@@MAEXPAVQShowEvent@@@Z 0046037c f   Qt5Widgets:Qt5Widgets.dll
 0001:0005f382       ?showPopup@QComboBox@@UAEXXZ 00460382 f   Qt5Widgets:Qt5Widgets.dll
 0001:0005f388       ?sizeHint@QCheckBox@@UBE?AVQSize@@XZ 00460388 f   Qt5Widgets:Qt5Widgets.dll
 0001:0005f38e       ?sizeHint@QComboBox@@UBE?AVQSize@@XZ 0046038e f   Qt5Widgets:Qt5Widgets.dll
 0001:0005f394       ?wheelEvent@QComboBox@@MAEXPAVQWheelEvent@@@Z 00460394 f   Qt5Widgets:Qt5Widgets.dll
 0001:0005f39a       ?actionEvent@QMenu@@MAEXPAVQActionEvent@@@Z 0046039a f   Qt5Widgets:Qt5Widgets.dll
 0001:0005f3a0       ?changeEvent@QMenu@@MAEXPAVQEvent@@@Z 004603a0 f   Qt5Widgets:Qt5Widgets.dll
 0001:0005f3a6       ?enterEvent@QMenu@@MAEXPAVQEvent@@@Z 004603a6 f   Qt5Widgets:Qt5Widgets.dll
 0001:0005f3ac       ?event@QAction@@MAE_NPAVQEvent@@@Z 004603ac f   Qt5Widgets:Qt5Widgets.dll
 0001:0005f3b2       ?event@QMenu@@MAE_NPAVQEvent@@@Z 004603b2 f   Qt5Widgets:Qt5Widgets.dll
 0001:0005f3b8       ?focusNextPrevChild@QMenu@@MAE_N_N@Z 004603b8 f   Qt5Widgets:Qt5Widgets.dll
 0001:0005f3be       ?hideEvent@QMenu@@MAEXPAVQHideEvent@@@Z 004603be f   Qt5Widgets:Qt5Widgets.dll
 0001:0005f3c4       ?keyPressEvent@QMenu@@MAEXPAVQKeyEvent@@@Z 004603c4 f   Qt5Widgets:Qt5Widgets.dll
 0001:0005f3ca       ?leaveEvent@QMenu@@MAEXPAVQEvent@@@Z 004603ca f   Qt5Widgets:Qt5Widgets.dll
 0001:0005f3d0       ?metaObject@QAction@@UBEPBUQMetaObject@@XZ 004603d0 f   Qt5Widgets:Qt5Widgets.dll
 0001:0005f3d6       ?metaObject@QMenu@@UBEPBUQMetaObject@@XZ 004603d6 f   Qt5Widgets:Qt5Widgets.dll
 0001:0005f3dc       ?mouseMoveEvent@QMenu@@MAEXPAVQMouseEvent@@@Z 004603dc f   Qt5Widgets:Qt5Widgets.dll
 0001:0005f3e2       ?mousePressEvent@QMenu@@MAEXPAVQMouseEvent@@@Z 004603e2 f   Qt5Widgets:Qt5Widgets.dll
 0001:0005f3e8       ?mouseReleaseEvent@QMenu@@MAEXPAVQMouseEvent@@@Z 004603e8 f   Qt5Widgets:Qt5Widgets.dll
 0001:0005f3ee       ?paintEvent@QMenu@@MAEXPAVQPaintEvent@@@Z 004603ee f   Qt5Widgets:Qt5Widgets.dll
 0001:0005f3f4       ?qt_metacall@QAction@@UAEHW4Call@QMetaObject@@HPAPAX@Z 004603f4 f   Qt5Widgets:Qt5Widgets.dll
 0001:0005f3fa       ?qt_metacall@QMenu@@UAEHW4Call@QMetaObject@@HPAPAX@Z 004603fa f   Qt5Widgets:Qt5Widgets.dll
 0001:0005f400       ?qt_metacast@QAction@@UAEPAXPBD@Z 00460400 f   Qt5Widgets:Qt5Widgets.dll
 0001:0005f406       ?qt_metacast@QMenu@@UAEPAXPBD@Z 00460406 f   Qt5Widgets:Qt5Widgets.dll
 0001:0005f40c       ?sizeHint@QMenu@@UBE?AVQSize@@XZ 0046040c f   Qt5Widgets:Qt5Widgets.dll
 0001:0005f412       ?timerEvent@QMenu@@MAEXPAVQTimerEvent@@@Z 00460412 f   Qt5Widgets:Qt5Widgets.dll
 0001:0005f418       ?wheelEvent@QMenu@@MAEXPAVQWheelEvent@@@Z 00460418 f   Qt5Widgets:Qt5Widgets.dll
 0001:0005f41e       ?changeEvent@QTabWidget@@MAEXPAVQEvent@@@Z 0046041e f   Qt5Widgets:Qt5Widgets.dll
 0001:0005f424       ?childEvent@QMdiArea@@MAEXPAVQChildEvent@@@Z 00460424 f   Qt5Widgets:Qt5Widgets.dll
 0001:0005f42a       ?dragEnterEvent@QAbstractScrollArea@@MAEXPAVQDragEnterEvent@@@Z 0046042a f   Qt5Widgets:Qt5Widgets.dll
 0001:0005f430       ?dragLeaveEvent@QAbstractScrollArea@@MAEXPAVQDragLeaveEvent@@@Z 00460430 f   Qt5Widgets:Qt5Widgets.dll
 0001:0005f436       ?dragMoveEvent@QAbstractScrollArea@@MAEXPAVQDragMoveEvent@@@Z 00460436 f   Qt5Widgets:Qt5Widgets.dll
 0001:0005f43c       ?dropEvent@QAbstractScrollArea@@MAEXPAVQDropEvent@@@Z 0046043c f   Qt5Widgets:Qt5Widgets.dll
 0001:0005f442       ?event@QFrame@@MAE_NPAVQEvent@@@Z 00460442 f   Qt5Widgets:Qt5Widgets.dll
 0001:0005f448       ?event@QMdiArea@@MAE_NPAVQEvent@@@Z 00460448 f   Qt5Widgets:Qt5Widgets.dll
 0001:0005f44e       ?event@QScrollArea@@MAE_NPAVQEvent@@@Z 0046044e f   Qt5Widgets:Qt5Widgets.dll
 0001:0005f454       ?event@QSpinBox@@MAE_NPAVQEvent@@@Z 00460454 f   Qt5Widgets:Qt5Widgets.dll
 0001:0005f45a       ?event@QTabWidget@@MAE_NPAVQEvent@@@Z 0046045a f   Qt5Widgets:Qt5Widgets.dll
 0001:0005f460       ?eventFilter@QMdiArea@@MAE_NPAVQObject@@PAVQEvent@@@Z 00460460 f   Qt5Widgets:Qt5Widgets.dll
 0001:0005f466       ?eventFilter@QScrollArea@@MAE_NPAVQObject@@PAVQEvent@@@Z 00460466 f   Qt5Widgets:Qt5Widgets.dll
 0001:0005f46c       ?fixup@QSpinBox@@MBEXAAVQString@@@Z 0046046c f   Qt5Widgets:Qt5Widgets.dll
 0001:0005f472       ?focusNextPrevChild@QScrollArea@@UAE_N_N@Z 00460472 f   Qt5Widgets:Qt5Widgets.dll
 0001:0005f478       ?hasHeightForWidth@QTabWidget@@UBE_NXZ 00460478 f   Qt5Widgets:Qt5Widgets.dll
 0001:0005f47e       ?heightForWidth@QTabWidget@@UBEHH@Z 0046047e f   Qt5Widgets:Qt5Widgets.dll
 0001:0005f484       ?keyPressEvent@QAbstractScrollArea@@MAEXPAVQKeyEvent@@@Z 00460484 f   Qt5Widgets:Qt5Widgets.dll
 0001:0005f48a       ?keyPressEvent@QTabWidget@@MAEXPAVQKeyEvent@@@Z 0046048a f   Qt5Widgets:Qt5Widgets.dll
 0001:0005f490       ?metaObject@QButtonGroup@@UBEPBUQMetaObject@@XZ 00460490 f   Qt5Widgets:Qt5Widgets.dll
 0001:0005f496       ?metaObject@QFrame@@UBEPBUQMetaObject@@XZ 00460496 f   Qt5Widgets:Qt5Widgets.dll
 0001:0005f49c       ?metaObject@QMdiArea@@UBEPBUQMetaObject@@XZ 0046049c f   Qt5Widgets:Qt5Widgets.dll
 0001:0005f4a2       ?metaObject@QScrollArea@@UBEPBUQMetaObject@@XZ 004604a2 f   Qt5Widgets:Qt5Widgets.dll
 0001:0005f4a8       ?metaObject@QSpinBox@@UBEPBUQMetaObject@@XZ 004604a8 f   Qt5Widgets:Qt5Widgets.dll
 0001:0005f4ae       ?metaObject@QTabWidget@@UBEPBUQMetaObject@@XZ 004604ae f   Qt5Widgets:Qt5Widgets.dll
 0001:0005f4b4       ?minimumSizeHint@QMdiArea@@UBE?AVQSize@@XZ 004604b4 f   Qt5Widgets:Qt5Widgets.dll
 0001:0005f4ba       ?minimumSizeHint@QTabWidget@@UBE?AVQSize@@XZ 004604ba f   Qt5Widgets:Qt5Widgets.dll
 0001:0005f4c0       ?mouseDoubleClickEvent@QAbstractScrollArea@@MAEXPAVQMouseEvent@@@Z 004604c0 f   Qt5Widgets:Qt5Widgets.dll
 0001:0005f4c6       ?mouseMoveEvent@QAbstractScrollArea@@MAEXPAVQMouseEvent@@@Z 004604c6 f   Qt5Widgets:Qt5Widgets.dll
 0001:0005f4cc       ?mousePressEvent@QAbstractScrollArea@@MAEXPAVQMouseEvent@@@Z 004604cc f   Qt5Widgets:Qt5Widgets.dll
 0001:0005f4d2       ?mouseReleaseEvent@QAbstractScrollArea@@MAEXPAVQMouseEvent@@@Z 004604d2 f   Qt5Widgets:Qt5Widgets.dll
 0001:0005f4d8       ?paintEvent@QAbstractScrollArea@@MAEXPAVQPaintEvent@@@Z 004604d8 f   Qt5Widgets:Qt5Widgets.dll
 0001:0005f4de       ?paintEvent@QFrame@@MAEXPAVQPaintEvent@@@Z 004604de f   Qt5Widgets:Qt5Widgets.dll
 0001:0005f4e4       ?paintEvent@QMdiArea@@MAEXPAVQPaintEvent@@@Z 004604e4 f   Qt5Widgets:Qt5Widgets.dll
 0001:0005f4ea       ?paintEvent@QTabWidget@@MAEXPAVQPaintEvent@@@Z 004604ea f   Qt5Widgets:Qt5Widgets.dll
 0001:0005f4f0       ?qt_metacall@QButtonGroup@@UAEHW4Call@QMetaObject@@HPAPAX@Z 004604f0 f   Qt5Widgets:Qt5Widgets.dll
 0001:0005f4f6       ?qt_metacall@QFrame@@UAEHW4Call@QMetaObject@@HPAPAX@Z 004604f6 f   Qt5Widgets:Qt5Widgets.dll
 0001:0005f4fc       ?qt_metacall@QMdiArea@@UAEHW4Call@QMetaObject@@HPAPAX@Z 004604fc f   Qt5Widgets:Qt5Widgets.dll
 0001:0005f502       ?qt_metacall@QScrollArea@@UAEHW4Call@QMetaObject@@HPAPAX@Z 00460502 f   Qt5Widgets:Qt5Widgets.dll
 0001:0005f508       ?qt_metacall@QSpinBox@@UAEHW4Call@QMetaObject@@HPAPAX@Z 00460508 f   Qt5Widgets:Qt5Widgets.dll
 0001:0005f50e       ?qt_metacall@QTabWidget@@UAEHW4Call@QMetaObject@@HPAPAX@Z 0046050e f   Qt5Widgets:Qt5Widgets.dll
 0001:0005f514       ?qt_metacast@QButtonGroup@@UAEPAXPBD@Z 00460514 f   Qt5Widgets:Qt5Widgets.dll
 0001:0005f51a       ?qt_metacast@QFrame@@UAEPAXPBD@Z 0046051a f   Qt5Widgets:Qt5Widgets.dll
 0001:0005f520       ?qt_metacast@QMdiArea@@UAEPAXPBD@Z 00460520 f   Qt5Widgets:Qt5Widgets.dll
 0001:0005f526       ?qt_metacast@QScrollArea@@UAEPAXPBD@Z 00460526 f   Qt5Widgets:Qt5Widgets.dll
 0001:0005f52c       ?qt_metacast@QSpinBox@@UAEPAXPBD@Z 0046052c f   Qt5Widgets:Qt5Widgets.dll
 0001:0005f532       ?qt_metacast@QTabWidget@@UAEPAXPBD@Z 00460532 f   Qt5Widgets:Qt5Widgets.dll
 0001:0005f538       ?resizeEvent@QMdiArea@@MAEXPAVQResizeEvent@@@Z 00460538 f   Qt5Widgets:Qt5Widgets.dll
 0001:0005f53e       ?resizeEvent@QScrollArea@@MAEXPAVQResizeEvent@@@Z 0046053e f   Qt5Widgets:Qt5Widgets.dll
 0001:0005f544       ?resizeEvent@QTabWidget@@MAEXPAVQResizeEvent@@@Z 00460544 f   Qt5Widgets:Qt5Widgets.dll
 0001:0005f54a       ?scrollContentsBy@QMdiArea@@MAEXHH@Z 0046054a f   Qt5Widgets:Qt5Widgets.dll
 0001:0005f550       ?scrollContentsBy@QScrollArea@@MAEXHH@Z 00460550 f   Qt5Widgets:Qt5Widgets.dll
 0001:0005f556       ?setupViewport@QMdiArea@@MAEXPAVQWidget@@@Z 00460556 f   Qt5Widgets:Qt5Widgets.dll
 0001:0005f55c       ?showEvent@QMdiArea@@MAEXPAVQShowEvent@@@Z 0046055c f   Qt5Widgets:Qt5Widgets.dll
 0001:0005f562       ?showEvent@QTabWidget@@MAEXPAVQShowEvent@@@Z 00460562 f   Qt5Widgets:Qt5Widgets.dll
 0001:0005f568       ?sizeHint@QFrame@@UBE?AVQSize@@XZ 00460568 f   Qt5Widgets:Qt5Widgets.dll
 0001:0005f56e       ?sizeHint@QMdiArea@@UBE?AVQSize@@XZ 0046056e f   Qt5Widgets:Qt5Widgets.dll
 0001:0005f574       ?sizeHint@QScrollArea@@UBE?AVQSize@@XZ 00460574 f   Qt5Widgets:Qt5Widgets.dll
 0001:0005f57a       ?sizeHint@QTabWidget@@UBE?AVQSize@@XZ 0046057a f   Qt5Widgets:Qt5Widgets.dll
 0001:0005f580       ?tabInserted@QTabWidget@@MAEXH@Z 00460580 f   Qt5Widgets:Qt5Widgets.dll
 0001:0005f586       ?tabRemoved@QTabWidget@@MAEXH@Z 00460586 f   Qt5Widgets:Qt5Widgets.dll
 0001:0005f58c       ?textFromValue@QSpinBox@@MBE?AVQString@@H@Z 0046058c f   Qt5Widgets:Qt5Widgets.dll
 0001:0005f592       ?timerEvent@QMdiArea@@MAEXPAVQTimerEvent@@@Z 00460592 f   Qt5Widgets:Qt5Widgets.dll
 0001:0005f598       ?validate@QSpinBox@@MBE?AW4State@QValidator@@AAVQString@@AAH@Z 00460598 f   Qt5Widgets:Qt5Widgets.dll
 0001:0005f59e       ?valueFromText@QSpinBox@@MBEHABVQString@@@Z 0046059e f   Qt5Widgets:Qt5Widgets.dll
 0001:0005f5a4       ?viewportEvent@QAbstractScrollArea@@MAE_NPAVQEvent@@@Z 004605a4 f   Qt5Widgets:Qt5Widgets.dll
 0001:0005f5aa       ?viewportEvent@QMdiArea@@MAE_NPAVQEvent@@@Z 004605aa f   Qt5Widgets:Qt5Widgets.dll
 0001:0005f5b0       ?viewportSizeHint@QAbstractScrollArea@@MBE?AVQSize@@XZ 004605b0 f   Qt5Widgets:Qt5Widgets.dll
 0001:0005f5b6       ?viewportSizeHint@QScrollArea@@MBE?AVQSize@@XZ 004605b6 f   Qt5Widgets:Qt5Widgets.dll
 0001:0005f5bc       ?backward@QTextBrowser@@UAEXXZ 004605bc f   Qt5Widgets:Qt5Widgets.dll
 0001:0005f5c2       ?canInsertFromMimeData@QTextEdit@@MBE_NPBVQMimeData@@@Z 004605c2 f   Qt5Widgets:Qt5Widgets.dll
 0001:0005f5c8       ?changeEvent@QDockWidget@@MAEXPAVQEvent@@@Z 004605c8 f   Qt5Widgets:Qt5Widgets.dll
 0001:0005f5ce       ?changeEvent@QTextEdit@@MAEXPAVQEvent@@@Z 004605ce f   Qt5Widgets:Qt5Widgets.dll
 0001:0005f5d4       ?closeEvent@QDockWidget@@MAEXPAVQCloseEvent@@@Z 004605d4 f   Qt5Widgets:Qt5Widgets.dll
 0001:0005f5da       ?contextMenuEvent@QMainWindow@@MAEXPAVQContextMenuEvent@@@Z 004605da f   Qt5Widgets:Qt5Widgets.dll
 0001:0005f5e0       ?contextMenuEvent@QTextEdit@@MAEXPAVQContextMenuEvent@@@Z 004605e0 f   Qt5Widgets:Qt5Widgets.dll
 0001:0005f5e6       ?createMimeDataFromSelection@QTextEdit@@MBEPAVQMimeData@@XZ 004605e6 f   Qt5Widgets:Qt5Widgets.dll
 0001:0005f5ec       ?createPopupMenu@QMainWindow@@UAEPAVQMenu@@XZ 004605ec f   Qt5Widgets:Qt5Widgets.dll
 0001:0005f5f2       ?currentChanged@QTreeView@@MAEXABVQModelIndex@@0@Z 004605f2 f   Qt5Widgets:Qt5Widgets.dll
 0001:0005f5f8       ?dataChanged@QTreeView@@UAEXABVQModelIndex@@0ABV?$QVector@H@@@Z 004605f8 f   Qt5Widgets:Qt5Widgets.dll
 0001:0005f5fe       ?doItemsLayout@QTreeView@@UAEXXZ 004605fe f   Qt5Widgets:Qt5Widgets.dll
 0001:0005f604       ?doSetTextCursor@QTextEdit@@MAEXABVQTextCursor@@@Z 00460604 f   Qt5Widgets:Qt5Widgets.dll
 0001:0005f60a       ?dragEnterEvent@QTextEdit@@MAEXPAVQDragEnterEvent@@@Z 0046060a f   Qt5Widgets:Qt5Widgets.dll
 0001:0005f610       ?dragLeaveEvent@QTextEdit@@MAEXPAVQDragLeaveEvent@@@Z 00460610 f   Qt5Widgets:Qt5Widgets.dll
 0001:0005f616       ?dragMoveEvent@QTextEdit@@MAEXPAVQDragMoveEvent@@@Z 00460616 f   Qt5Widgets:Qt5Widgets.dll
 0001:0005f61c       ?dragMoveEvent@QTreeView@@MAEXPAVQDragMoveEvent@@@Z 0046061c f   Qt5Widgets:Qt5Widgets.dll
 0001:0005f622       ?drawBranches@QTreeView@@MBEXPAVQPainter@@ABVQRect@@ABVQModelIndex@@@Z 00460622 f   Qt5Widgets:Qt5Widgets.dll
 0001:0005f628       ?drawRow@QTreeView@@MBEXPAVQPainter@@ABVQStyleOptionViewItem@@ABVQModelIndex@@@Z 00460628 f   Qt5Widgets:Qt5Widgets.dll
 0001:0005f62e       ?dropEvent@QAbstractItemView@@MAEXPAVQDropEvent@@@Z 0046062e f   Qt5Widgets:Qt5Widgets.dll
 0001:0005f634       ?dropEvent@QTextEdit@@MAEXPAVQDropEvent@@@Z 00460634 f   Qt5Widgets:Qt5Widgets.dll
 0001:0005f63a       ?event@QAbstractItemView@@MAE_NPAVQEvent@@@Z 0046063a f   Qt5Widgets:Qt5Widgets.dll
 0001:0005f640       ?event@QDockWidget@@MAE_NPAVQEvent@@@Z 00460640 f   Qt5Widgets:Qt5Widgets.dll
 0001:0005f646       ?event@QMainWindow@@MAE_NPAVQEvent@@@Z 00460646 f   Qt5Widgets:Qt5Widgets.dll
 0001:0005f64c       ?event@QStatusBar@@MAE_NPAVQEvent@@@Z 0046064c f   Qt5Widgets:Qt5Widgets.dll
 0001:0005f652       ?event@QTextBrowser@@MAE_NPAVQEvent@@@Z 00460652 f   Qt5Widgets:Qt5Widgets.dll
 0001:0005f658       ?event@QTextEdit@@MAE_NPAVQEvent@@@Z 00460658 f   Qt5Widgets:Qt5Widgets.dll
 0001:0005f65e       ?eventFilter@QAbstractScrollArea@@MAE_NPAVQObject@@PAVQEvent@@@Z 0046065e f   Qt5Widgets:Qt5Widgets.dll
 0001:0005f664       ?focusInEvent@QTextEdit@@MAEXPAVQFocusEvent@@@Z 00460664 f   Qt5Widgets:Qt5Widgets.dll
 0001:0005f66a       ?focusNextPrevChild@QTextBrowser@@MAE_N_N@Z 0046066a f   Qt5Widgets:Qt5Widgets.dll
 0001:0005f670       ?focusNextPrevChild@QTextEdit@@MAE_N_N@Z 00460670 f   Qt5Widgets:Qt5Widgets.dll
 0001:0005f676       ?focusOutEvent@QTextBrowser@@MAEXPAVQFocusEvent@@@Z 00460676 f   Qt5Widgets:Qt5Widgets.dll
 0001:0005f67c       ?focusOutEvent@QTextEdit@@MAEXPAVQFocusEvent@@@Z 0046067c f   Qt5Widgets:Qt5Widgets.dll
 0001:0005f682       ?forward@QTextBrowser@@UAEXXZ 00460682 f   Qt5Widgets:Qt5Widgets.dll
 0001:0005f688       ?home@QTextBrowser@@UAEXXZ 00460688 f   Qt5Widgets:Qt5Widgets.dll
 0001:0005f68e       ?horizontalOffset@QTreeView@@MBEHXZ 0046068e f   Qt5Widgets:Qt5Widgets.dll
 0001:0005f694       ?horizontalScrollbarAction@QTreeView@@MAEXH@Z 00460694 f   Qt5Widgets:Qt5Widgets.dll
 0001:0005f69a       ?indexAt@QTreeView@@UBE?AVQModelIndex@@ABVQPoint@@@Z 0046069a f   Qt5Widgets:Qt5Widgets.dll
 0001:0005f6a0       ?inputMethodEvent@QTextEdit@@MAEXPAVQInputMethodEvent@@@Z 004606a0 f   Qt5Widgets:Qt5Widgets.dll
 0001:0005f6a6       ?inputMethodQuery@QTextEdit@@UBE?AVQVariant@@W4InputMethodQuery@Qt@@@Z 004606a6 f   Qt5Widgets:Qt5Widgets.dll
 0001:0005f6ac       ?insertFromMimeData@QTextEdit@@MAEXPBVQMimeData@@@Z 004606ac f   Qt5Widgets:Qt5Widgets.dll
 0001:0005f6b2       ?isIndexHidden@QTreeView@@MBE_NABVQModelIndex@@@Z 004606b2 f   Qt5Widgets:Qt5Widgets.dll
 0001:0005f6b8       ?keyPressEvent@QTextBrowser@@MAEXPAVQKeyEvent@@@Z 004606b8 f   Qt5Widgets:Qt5Widgets.dll
 0001:0005f6be       ?keyPressEvent@QTextEdit@@MAEXPAVQKeyEvent@@@Z 004606be f   Qt5Widgets:Qt5Widgets.dll
 0001:0005f6c4       ?keyPressEvent@QTreeView@@MAEXPAVQKeyEvent@@@Z 004606c4 f   Qt5Widgets:Qt5Widgets.dll
 0001:0005f6ca       ?keyReleaseEvent@QTextEdit@@MAEXPAVQKeyEvent@@@Z 004606ca f   Qt5Widgets:Qt5Widgets.dll
 0001:0005f6d0       ?keyboardSearch@QTreeView@@UAEXABVQString@@@Z 004606d0 f   Qt5Widgets:Qt5Widgets.dll
 0001:0005f6d6       ?loadResource@QTextBrowser@@UAE?AVQVariant@@HABVQUrl@@@Z 004606d6 f   Qt5Widgets:Qt5Widgets.dll
 0001:0005f6dc       ?loadResource@QTextEdit@@UAE?AVQVariant@@HABVQUrl@@@Z 004606dc f   Qt5Widgets:Qt5Widgets.dll
 0001:0005f6e2       ?metaObject@QDockWidget@@UBEPBUQMetaObject@@XZ 004606e2 f   Qt5Widgets:Qt5Widgets.dll
 0001:0005f6e8       ?metaObject@QStatusBar@@UBEPBUQMetaObject@@XZ 004606e8 f   Qt5Widgets:Qt5Widgets.dll
 0001:0005f6ee       ?metaObject@QTextBrowser@@UBEPBUQMetaObject@@XZ 004606ee f   Qt5Widgets:Qt5Widgets.dll
 0001:0005f6f4       ?metaObject@QTextEdit@@UBEPBUQMetaObject@@XZ 004606f4 f   Qt5Widgets:Qt5Widgets.dll
 0001:0005f6fa       ?metaObject@QTreeView@@UBEPBUQMetaObject@@XZ 004606fa f   Qt5Widgets:Qt5Widgets.dll
 0001:0005f700       ?mouseDoubleClickEvent@QTextEdit@@MAEXPAVQMouseEvent@@@Z 00460700 f   Qt5Widgets:Qt5Widgets.dll
 0001:0005f706       ?mouseDoubleClickEvent@QTreeView@@MAEXPAVQMouseEvent@@@Z 00460706 f   Qt5Widgets:Qt5Widgets.dll
 0001:0005f70c       ?mouseMoveEvent@QTextBrowser@@MAEXPAVQMouseEvent@@@Z 0046070c f   Qt5Widgets:Qt5Widgets.dll
 0001:0005f712       ?mouseMoveEvent@QTextEdit@@MAEXPAVQMouseEvent@@@Z 00460712 f   Qt5Widgets:Qt5Widgets.dll
 0001:0005f718       ?mouseMoveEvent@QTreeView@@MAEXPAVQMouseEvent@@@Z 00460718 f   Qt5Widgets:Qt5Widgets.dll
 0001:0005f71e       ?mousePressEvent@QTextBrowser@@MAEXPAVQMouseEvent@@@Z 0046071e f   Qt5Widgets:Qt5Widgets.dll
 0001:0005f724       ?mousePressEvent@QTextEdit@@MAEXPAVQMouseEvent@@@Z 00460724 f   Qt5Widgets:Qt5Widgets.dll
 0001:0005f72a       ?mousePressEvent@QTreeView@@MAEXPAVQMouseEvent@@@Z 0046072a f   Qt5Widgets:Qt5Widgets.dll
 0001:0005f730       ?mouseReleaseEvent@QTextBrowser@@MAEXPAVQMouseEvent@@@Z 00460730 f   Qt5Widgets:Qt5Widgets.dll
 0001:0005f736       ?mouseReleaseEvent@QTextEdit@@MAEXPAVQMouseEvent@@@Z 00460736 f   Qt5Widgets:Qt5Widgets.dll
 0001:0005f73c       ?mouseReleaseEvent@QTreeView@@MAEXPAVQMouseEvent@@@Z 0046073c f   Qt5Widgets:Qt5Widgets.dll
 0001:0005f742       ?moveCursor@QTreeView@@MAE?AVQModelIndex@@W4CursorAction@QAbstractItemView@@V?$QFlags@W4KeyboardModifier@Qt@@@@@Z 00460742 f   Qt5Widgets:Qt5Widgets.dll
 0001:0005f748       ?paintEvent@QDockWidget@@MAEXPAVQPaintEvent@@@Z 00460748 f   Qt5Widgets:Qt5Widgets.dll
 0001:0005f74e       ?paintEvent@QStatusBar@@MAEXPAVQPaintEvent@@@Z 0046074e f   Qt5Widgets:Qt5Widgets.dll
 0001:0005f754       ?paintEvent@QTextBrowser@@MAEXPAVQPaintEvent@@@Z 00460754 f   Qt5Widgets:Qt5Widgets.dll
 0001:0005f75a       ?paintEvent@QTextEdit@@MAEXPAVQPaintEvent@@@Z 0046075a f   Qt5Widgets:Qt5Widgets.dll
 0001:0005f760       ?paintEvent@QTreeView@@MAEXPAVQPaintEvent@@@Z 00460760 f   Qt5Widgets:Qt5Widgets.dll
 0001:0005f766       ?qt_metacall@QDockWidget@@UAEHW4Call@QMetaObject@@HPAPAX@Z 00460766 f   Qt5Widgets:Qt5Widgets.dll
 0001:0005f76c       ?qt_metacall@QStatusBar@@UAEHW4Call@QMetaObject@@HPAPAX@Z 0046076c f   Qt5Widgets:Qt5Widgets.dll
 0001:0005f772       ?qt_metacall@QTextBrowser@@UAEHW4Call@QMetaObject@@HPAPAX@Z 00460772 f   Qt5Widgets:Qt5Widgets.dll
 0001:0005f778       ?qt_metacall@QTextEdit@@UAEHW4Call@QMetaObject@@HPAPAX@Z 00460778 f   Qt5Widgets:Qt5Widgets.dll
 0001:0005f77e       ?qt_metacall@QTreeView@@UAEHW4Call@QMetaObject@@HPAPAX@Z 0046077e f   Qt5Widgets:Qt5Widgets.dll
 0001:0005f784       ?qt_metacast@QDockWidget@@UAEPAXPBD@Z 00460784 f   Qt5Widgets:Qt5Widgets.dll
 0001:0005f78a       ?qt_metacast@QStatusBar@@UAEPAXPBD@Z 0046078a f   Qt5Widgets:Qt5Widgets.dll
 0001:0005f790       ?qt_metacast@QTextBrowser@@UAEPAXPBD@Z 00460790 f   Qt5Widgets:Qt5Widgets.dll
 0001:0005f796       ?qt_metacast@QTextEdit@@UAEPAXPBD@Z 00460796 f   Qt5Widgets:Qt5Widgets.dll
 0001:0005f79c       ?qt_metacast@QTreeView@@UAEPAXPBD@Z 0046079c f   Qt5Widgets:Qt5Widgets.dll
 0001:0005f7a2       ?reload@QTextBrowser@@UAEXXZ 004607a2 f   Qt5Widgets:Qt5Widgets.dll
 0001:0005f7a8       ?reset@QTreeView@@UAEXXZ   004607a8 f   Qt5Widgets:Qt5Widgets.dll
 0001:0005f7ae       ?resizeEvent@QStatusBar@@MAEXPAVQResizeEvent@@@Z 004607ae f   Qt5Widgets:Qt5Widgets.dll
 0001:0005f7b4       ?resizeEvent@QTextEdit@@MAEXPAVQResizeEvent@@@Z 004607b4 f   Qt5Widgets:Qt5Widgets.dll
 0001:0005f7ba       ?rowsAboutToBeRemoved@QTreeView@@MAEXABVQModelIndex@@HH@Z 004607ba f   Qt5Widgets:Qt5Widgets.dll
 0001:0005f7c0       ?rowsInserted@QTreeView@@MAEXABVQModelIndex@@HH@Z 004607c0 f   Qt5Widgets:Qt5Widgets.dll
 0001:0005f7c6       ?scrollContentsBy@QTextEdit@@MAEXHH@Z 004607c6 f   Qt5Widgets:Qt5Widgets.dll
 0001:0005f7cc       ?scrollContentsBy@QTreeView@@MAEXHH@Z 004607cc f   Qt5Widgets:Qt5Widgets.dll
 0001:0005f7d2       ?scrollTo@QTreeView@@UAEXABVQModelIndex@@W4ScrollHint@QAbstractItemView@@@Z 004607d2 f   Qt5Widgets:Qt5Widgets.dll
 0001:0005f7d8       ?selectAll@QTreeView@@UAEXXZ 004607d8 f   Qt5Widgets:Qt5Widgets.dll
 0001:0005f7de       ?selectedIndexes@QTreeView@@MBE?AV?$QList@VQModelIndex@@@@XZ 004607de f   Qt5Widgets:Qt5Widgets.dll
 0001:0005f7e4       ?selectionChanged@QTreeView@@MAEXABVQItemSelection@@0@Z 004607e4 f   Qt5Widgets:Qt5Widgets.dll
 0001:0005f7ea       ?setModel@QTreeView@@UAEXPAVQAbstractItemModel@@@Z 004607ea f   Qt5Widgets:Qt5Widgets.dll
 0001:0005f7f0       ?setRootIndex@QTreeView@@UAEXABVQModelIndex@@@Z 004607f0 f   Qt5Widgets:Qt5Widgets.dll
 0001:0005f7f6       ?setSelection@QTreeView@@MAEXABVQRect@@V?$QFlags@W4SelectionFlag@QItemSelectionModel@@@@@Z 004607f6 f   Qt5Widgets:Qt5Widgets.dll
 0001:0005f7fc       ?setSelectionModel@QTreeView@@UAEXPAVQItemSelectionModel@@@Z 004607fc f   Qt5Widgets:Qt5Widgets.dll
 0001:0005f802       ?setSource@QTextBrowser@@UAEXABVQUrl@@@Z 00460802 f   Qt5Widgets:Qt5Widgets.dll
 0001:0005f808       ?showEvent@QStatusBar@@MAEXPAVQShowEvent@@@Z 00460808 f   Qt5Widgets:Qt5Widgets.dll
 0001:0005f80e       ?showEvent@QTextEdit@@MAEXPAVQShowEvent@@@Z 0046080e f   Qt5Widgets:Qt5Widgets.dll
 0001:0005f814       ?sizeHintForColumn@QTreeView@@MBEHH@Z 00460814 f   Qt5Widgets:Qt5Widgets.dll
 0001:0005f81a       ?sizeHintForRow@QAbstractItemView@@UBEHH@Z 0046081a f   Qt5Widgets:Qt5Widgets.dll
 0001:0005f820       ?timerEvent@QTextEdit@@MAEXPAVQTimerEvent@@@Z 00460820 f   Qt5Widgets:Qt5Widgets.dll
 0001:0005f826       ?timerEvent@QTreeView@@MAEXPAVQTimerEvent@@@Z 00460826 f   Qt5Widgets:Qt5Widgets.dll
 0001:0005f82c       ?updateGeometries@QTreeView@@MAEXXZ 0046082c f   Qt5Widgets:Qt5Widgets.dll
 0001:0005f832       ?verticalOffset@QTreeView@@MBEHXZ 00460832 f   Qt5Widgets:Qt5Widgets.dll
 0001:0005f838       ?verticalScrollbarAction@QAbstractItemView@@MAEXH@Z 00460838 f   Qt5Widgets:Qt5Widgets.dll
 0001:0005f83e       ?verticalScrollbarValueChanged@QTreeView@@MAEXH@Z 0046083e f   Qt5Widgets:Qt5Widgets.dll
 0001:0005f844       ?viewOptions@QAbstractItemView@@MBE?AVQStyleOptionViewItem@@XZ 00460844 f   Qt5Widgets:Qt5Widgets.dll
 0001:0005f84a       ?viewportEvent@QTreeView@@MAE_NPAVQEvent@@@Z 0046084a f   Qt5Widgets:Qt5Widgets.dll
 0001:0005f850       ?viewportSizeHint@QTreeView@@MBE?AVQSize@@XZ 00460850 f   Qt5Widgets:Qt5Widgets.dll
 0001:0005f856       ?visualRect@QTreeView@@UBE?AVQRect@@ABVQModelIndex@@@Z 00460856 f   Qt5Widgets:Qt5Widgets.dll
 0001:0005f85c       ?visualRegionForSelection@QTreeView@@MBE?AVQRegion@@ABVQItemSelection@@@Z 0046085c f   Qt5Widgets:Qt5Widgets.dll
 0001:0005f862       ?wheelEvent@QTextEdit@@MAEXPAVQWheelEvent@@@Z 00460862 f   Qt5Widgets:Qt5Widgets.dll
 0001:0005f868       ?changeEvent@QGroupBox@@MAEXPAVQEvent@@@Z 00460868 f   Qt5Widgets:Qt5Widgets.dll
 0001:0005f86e       ?childEvent@QGroupBox@@MAEXPAVQChildEvent@@@Z 0046086e f   Qt5Widgets:Qt5Widgets.dll
 0001:0005f874       ?event@QGroupBox@@MAE_NPAVQEvent@@@Z 00460874 f   Qt5Widgets:Qt5Widgets.dll
 0001:0005f87a       ?focusInEvent@QGroupBox@@MAEXPAVQFocusEvent@@@Z 0046087a f   Qt5Widgets:Qt5Widgets.dll
 0001:0005f880       ?metaObject@QGroupBox@@UBEPBUQMetaObject@@XZ 00460880 f   Qt5Widgets:Qt5Widgets.dll
 0001:0005f886       ?minimumSizeHint@QGroupBox@@UBE?AVQSize@@XZ 00460886 f   Qt5Widgets:Qt5Widgets.dll
 0001:0005f88c       ?mouseMoveEvent@QGroupBox@@MAEXPAVQMouseEvent@@@Z 0046088c f   Qt5Widgets:Qt5Widgets.dll
 0001:0005f892       ?mousePressEvent@QGroupBox@@MAEXPAVQMouseEvent@@@Z 00460892 f   Qt5Widgets:Qt5Widgets.dll
 0001:0005f898       ?mouseReleaseEvent@QGroupBox@@MAEXPAVQMouseEvent@@@Z 00460898 f   Qt5Widgets:Qt5Widgets.dll
 0001:0005f89e       ?paintEvent@QGroupBox@@MAEXPAVQPaintEvent@@@Z 0046089e f   Qt5Widgets:Qt5Widgets.dll
 0001:0005f8a4       ?qt_metacall@QGroupBox@@UAEHW4Call@QMetaObject@@HPAPAX@Z 004608a4 f   Qt5Widgets:Qt5Widgets.dll
 0001:0005f8aa       ?qt_metacast@QGroupBox@@UAEPAXPBD@Z 004608aa f   Qt5Widgets:Qt5Widgets.dll
 0001:0005f8b0       ?resizeEvent@QGroupBox@@MAEXPAVQResizeEvent@@@Z 004608b0 f   Qt5Widgets:Qt5Widgets.dll
 0001:0005f8b6       ?fixup@QValidator@@UBEXAAVQString@@@Z 004608b6 f   Qt5Gui:Qt5Gui.dll
 0001:0005f8bc       ?metaObject@QRegExpValidator@@UBEPBUQMetaObject@@XZ 004608bc f   Qt5Gui:Qt5Gui.dll
 0001:0005f8c2       ?qt_metacall@QRegExpValidator@@UAEHW4Call@QMetaObject@@HPAPAX@Z 004608c2 f   Qt5Gui:Qt5Gui.dll
 0001:0005f8c8       ?qt_metacast@QRegExpValidator@@UAEPAXPBD@Z 004608c8 f   Qt5Gui:Qt5Gui.dll
 0001:0005f8ce       ?validate@QRegExpValidator@@UBE?AW4State@QValidator@@AAVQString@@AAH@Z 004608ce f   Qt5Gui:Qt5Gui.dll
 0001:0005f8d4       ?metaObject@QWebSocket@@UBEPBUQMetaObject@@XZ 004608d4 f   Qt5WebSockets:Qt5WebSockets.dll
 0001:0005f8da       ?qt_metacall@QWebSocket@@UAEHW4Call@QMetaObject@@HPAPAX@Z 004608da f   Qt5WebSockets:Qt5WebSockets.dll
 0001:0005f8e0       ?qt_metacast@QWebSocket@@UAEPAXPBD@Z 004608e0 f   Qt5WebSockets:Qt5WebSockets.dll
 0001:0005f8e6       ?setReadBufferSize@QAbstractSocket@@UAEX_J@Z 004608e6 f   Qt5Network:Qt5Network.dll
 0001:0005f8ec       ?setSocketOption@QAbstractSocket@@UAEXW4SocketOption@1@ABVQVariant@@@Z 004608ec f   Qt5Network:Qt5Network.dll
 0001:0005f8f2       ?atEnd@QAbstractSocket@@UBE_NXZ 004608f2 f   Qt5Network:Qt5Network.dll
 0001:0005f8f8       ?bytesAvailable@QAbstractSocket@@UBE_JXZ 004608f8 f   Qt5Network:Qt5Network.dll
 0001:0005f8fe       ?bytesToWrite@QAbstractSocket@@UBE_JXZ 004608fe f   Qt5Network:Qt5Network.dll
 0001:0005f904       ?canReadLine@QAbstractSocket@@UBE_NXZ 00460904 f   Qt5Network:Qt5Network.dll
 0001:0005f90a       ?close@QAbstractSocket@@UAEXXZ 0046090a f   Qt5Network:Qt5Network.dll
 0001:0005f910       ?connectToHost@QAbstractSocket@@UAEXABVQHostAddress@@GV?$QFlags@W4OpenModeFlag@QIODevice@@@@@Z 00460910 f   Qt5Network:Qt5Network.dll
 0001:0005f916       ?connectToHost@QAbstractSocket@@UAEXABVQString@@GV?$QFlags@W4OpenModeFlag@QIODevice@@@@W4NetworkLayerProtocol@1@@Z 00460916 f   Qt5Network:Qt5Network.dll
 0001:0005f91c       ?disconnectFromHost@QAbstractSocket@@UAEXXZ 0046091c f   Qt5Network:Qt5Network.dll
 0001:0005f922       ?isSequential@QAbstractSocket@@UBE_NXZ 00460922 f   Qt5Network:Qt5Network.dll
 0001:0005f928       ?readData@QAbstractSocket@@MAE_JPAD_J@Z 00460928 f   Qt5Network:Qt5Network.dll
 0001:0005f92e       ?readLineData@QAbstractSocket@@MAE_JPAD_J@Z 0046092e f   Qt5Network:Qt5Network.dll
 0001:0005f934       ?resume@QAbstractSocket@@UAEXXZ 00460934 f   Qt5Network:Qt5Network.dll
 0001:0005f93a       ?setSocketDescriptor@QAbstractSocket@@UAE_NHW4SocketState@1@V?$QFlags@W4OpenModeFlag@QIODevice@@@@@Z 0046093a f   Qt5Network:Qt5Network.dll
 0001:0005f940       ?socketDescriptor@QAbstractSocket@@UBEHXZ 00460940 f   Qt5Network:Qt5Network.dll
 0001:0005f946       ?socketOption@QAbstractSocket@@UAE?AVQVariant@@W4SocketOption@1@@Z 00460946 f   Qt5Network:Qt5Network.dll
 0001:0005f94c       ?waitForBytesWritten@QAbstractSocket@@UAE_NH@Z 0046094c f   Qt5Network:Qt5Network.dll
 0001:0005f952       ?waitForConnected@QAbstractSocket@@UAE_NH@Z 00460952 f   Qt5Network:Qt5Network.dll
 0001:0005f958       ?waitForDisconnected@QAbstractSocket@@UAE_NH@Z 00460958 f   Qt5Network:Qt5Network.dll
 0001:0005f95e       ?waitForReadyRead@QAbstractSocket@@UAE_NH@Z 0046095e f   Qt5Network:Qt5Network.dll
 0001:0005f964       ?writeData@QAbstractSocket@@MAE_JPBD_J@Z 00460964 f   Qt5Network:Qt5Network.dll
 0001:0005f96a       ?hasPendingConnections@QTcpServer@@UBE_NXZ 0046096a f   Qt5Network:Qt5Network.dll
 0001:0005f970       ?nextPendingConnection@QTcpServer@@UAEPAVQTcpSocket@@XZ 00460970 f   Qt5Network:Qt5Network.dll
 0001:0005f976       ?canFetchMore@QSqlQueryModel@@UBE_NABVQModelIndex@@@Z 00460976 f   Qt5Sql:Qt5Sql.dll
 0001:0005f97c       ?clear@QSqlTableModel@@UAEXXZ 0046097c f   Qt5Sql:Qt5Sql.dll
 0001:0005f982       ?columnCount@QSqlQueryModel@@UBEHABVQModelIndex@@@Z 00460982 f   Qt5Sql:Qt5Sql.dll
 0001:0005f988       ?data@QSqlTableModel@@UBE?AVQVariant@@ABVQModelIndex@@H@Z 00460988 f   Qt5Sql:Qt5Sql.dll
 0001:0005f98e       ?deleteRowFromTable@QSqlTableModel@@MAE_NH@Z 0046098e f   Qt5Sql:Qt5Sql.dll
 0001:0005f994       ?fetchMore@QSqlQueryModel@@UAEXABVQModelIndex@@@Z 00460994 f   Qt5Sql:Qt5Sql.dll
 0001:0005f99a       ?flags@QSqlTableModel@@UBE?AV?$QFlags@W4ItemFlag@Qt@@@@ABVQModelIndex@@@Z 0046099a f   Qt5Sql:Qt5Sql.dll
 0001:0005f9a0       ?headerData@QSqlTableModel@@UBE?AVQVariant@@HW4Orientation@Qt@@H@Z 004609a0 f   Qt5Sql:Qt5Sql.dll
 0001:0005f9a6       ?indexInQuery@QSqlTableModel@@MBE?AVQModelIndex@@ABV2@@Z 004609a6 f   Qt5Sql:Qt5Sql.dll
 0001:0005f9ac       ?insertColumns@QSqlQueryModel@@UAE_NHHABVQModelIndex@@@Z 004609ac f   Qt5Sql:Qt5Sql.dll
 0001:0005f9b2       ?insertRowIntoTable@QSqlTableModel@@MAE_NABVQSqlRecord@@@Z 004609b2 f   Qt5Sql:Qt5Sql.dll
 0001:0005f9b8       ?insertRows@QSqlTableModel@@UAE_NHHABVQModelIndex@@@Z 004609b8 f   Qt5Sql:Qt5Sql.dll
 0001:0005f9be       ?metaObject@QSqlTableModel@@UBEPBUQMetaObject@@XZ 004609be f   Qt5Sql:Qt5Sql.dll
 0001:0005f9c4       ?orderByClause@QSqlTableModel@@MBE?AVQString@@XZ 004609c4 f   Qt5Sql:Qt5Sql.dll
 0001:0005f9ca       ?qt_metacall@QSqlTableModel@@UAEHW4Call@QMetaObject@@HPAPAX@Z 004609ca f   Qt5Sql:Qt5Sql.dll
 0001:0005f9d0       ?qt_metacast@QSqlTableModel@@UAEPAXPBD@Z 004609d0 f   Qt5Sql:Qt5Sql.dll
 0001:0005f9d6       ?queryChange@QSqlQueryModel@@MAEXXZ 004609d6 f   Qt5Sql:Qt5Sql.dll
 0001:0005f9dc       ?removeColumns@QSqlTableModel@@UAE_NHHABVQModelIndex@@@Z 004609dc f   Qt5Sql:Qt5Sql.dll
 0001:0005f9e2       ?removeRows@QSqlTableModel@@UAE_NHHABVQModelIndex@@@Z 004609e2 f   Qt5Sql:Qt5Sql.dll
 0001:0005f9e8       ?revert@QSqlTableModel@@UAEXXZ 004609e8 f   Qt5Sql:Qt5Sql.dll
 0001:0005f9ee       ?revertRow@QSqlTableModel@@UAEXH@Z 004609ee f   Qt5Sql:Qt5Sql.dll
 0001:0005f9f4       ?roleNames@QSqlQueryModel@@UBE?AV?$QHash@HVQByteArray@@@@XZ 004609f4 f   Qt5Sql:Qt5Sql.dll
 0001:0005f9fa       ?rowCount@QSqlTableModel@@UBEHABVQModelIndex@@@Z 004609fa f   Qt5Sql:Qt5Sql.dll
 0001:0005fa00       ?select@QSqlTableModel@@UAE_NXZ 00460a00 f   Qt5Sql:Qt5Sql.dll
 0001:0005fa06       ?selectRow@QSqlTableModel@@UAE_NH@Z 00460a06 f   Qt5Sql:Qt5Sql.dll
 0001:0005fa0c       ?selectStatement@QSqlTableModel@@MBE?AVQString@@XZ 00460a0c f   Qt5Sql:Qt5Sql.dll
 0001:0005fa12       ?setData@QSqlTableModel@@UAE_NABVQModelIndex@@ABVQVariant@@H@Z 00460a12 f   Qt5Sql:Qt5Sql.dll
 0001:0005fa18       ?setEditStrategy@QSqlTableModel@@UAEXW4EditStrategy@1@@Z 00460a18 f   Qt5Sql:Qt5Sql.dll
 0001:0005fa1e       ?setFilter@QSqlTableModel@@UAEXABVQString@@@Z 00460a1e f   Qt5Sql:Qt5Sql.dll
 0001:0005fa24       ?setHeaderData@QSqlQueryModel@@UAE_NHW4Orientation@Qt@@ABVQVariant@@H@Z 00460a24 f   Qt5Sql:Qt5Sql.dll
 0001:0005fa2a       ?setSort@QSqlTableModel@@UAEXHW4SortOrder@Qt@@@Z 00460a2a f   Qt5Sql:Qt5Sql.dll
 0001:0005fa30       ?setTable@QSqlTableModel@@UAEXABVQString@@@Z 00460a30 f   Qt5Sql:Qt5Sql.dll
 0001:0005fa36       ?sort@QSqlTableModel@@UAEXHW4SortOrder@Qt@@@Z 00460a36 f   Qt5Sql:Qt5Sql.dll
 0001:0005fa3c       ?submit@QSqlTableModel@@UAE_NXZ 00460a3c f   Qt5Sql:Qt5Sql.dll
 0001:0005fa42       ?updateRowInTable@QSqlTableModel@@MAE_NHABVQSqlRecord@@@Z 00460a42 f   Qt5Sql:Qt5Sql.dll
 0001:0005fa48       ?close@QFileDevice@@UAEXXZ 00460a48 f   Qt5Core:Qt5Core.dll
 0001:0005fa4e       ?open@QFile@@UAE_NV?$QFlags@W4OpenModeFlag@QIODevice@@@@@Z 00460a4e f   Qt5Core:Qt5Core.dll
 0001:0005fa54       ?atEnd@QFileDevice@@UBE_NXZ 00460a54 f   Qt5Core:Qt5Core.dll
 0001:0005fa5a       ?bytesAvailable@QIODevice@@UBE_JXZ 00460a5a f   Qt5Core:Qt5Core.dll
 0001:0005fa60       ?bytesToWrite@QIODevice@@UBE_JXZ 00460a60 f   Qt5Core:Qt5Core.dll
 0001:0005fa66       ?canReadLine@QIODevice@@UBE_NXZ 00460a66 f   Qt5Core:Qt5Core.dll
 0001:0005fa6c       ?childEvent@QObject@@MAEXPAVQChildEvent@@@Z 00460a6c f   Qt5Core:Qt5Core.dll
 0001:0005fa72       ?connectNotify@QObject@@MAEXABVQMetaMethod@@@Z 00460a72 f   Qt5Core:Qt5Core.dll
 0001:0005fa78       ?customEvent@QObject@@MAEXPAVQEvent@@@Z 00460a78 f   Qt5Core:Qt5Core.dll
 0001:0005fa7e       ?disconnectNotify@QObject@@MAEXABVQMetaMethod@@@Z 00460a7e f   Qt5Core:Qt5Core.dll
 0001:0005fa84       ?event@QObject@@UAE_NPAVQEvent@@@Z 00460a84 f   Qt5Core:Qt5Core.dll
 0001:0005fa8a       ?eventFilter@QObject@@UAE_NPAV1@PAVQEvent@@@Z 00460a8a f   Qt5Core:Qt5Core.dll
 0001:0005fa90       ?fileName@QFile@@UBE?AVQString@@XZ 00460a90 f   Qt5Core:Qt5Core.dll
 0001:0005fa96       ?isSequential@QFileDevice@@UBE_NXZ 00460a96 f   Qt5Core:Qt5Core.dll
 0001:0005fa9c       ?metaObject@QFile@@UBEPBUQMetaObject@@XZ 00460a9c f   Qt5Core:Qt5Core.dll
 0001:0005faa2       ?permissions@QFile@@UBE?AV?$QFlags@W4Permission@QFileDevice@@@@XZ 00460aa2 f   Qt5Core:Qt5Core.dll
 0001:0005faa8       ?pos@QFileDevice@@UBE_JXZ  00460aa8 f   Qt5Core:Qt5Core.dll
 0001:0005faae       ?qt_metacall@QFile@@UAEHW4Call@QMetaObject@@HPAPAX@Z 00460aae f   Qt5Core:Qt5Core.dll
 0001:0005fab4       ?qt_metacast@QFile@@UAEPAXPBD@Z 00460ab4 f   Qt5Core:Qt5Core.dll
 0001:0005faba       ?readData@QFileDevice@@MAE_JPAD_J@Z 00460aba f   Qt5Core:Qt5Core.dll
 0001:0005fac0       ?readLineData@QFileDevice@@MAE_JPAD_J@Z 00460ac0 f   Qt5Core:Qt5Core.dll
 0001:0005fac6       ?reset@QIODevice@@UAE_NXZ  00460ac6 f   Qt5Core:Qt5Core.dll
 0001:0005facc       ?resize@QFile@@UAE_N_J@Z   00460acc f   Qt5Core:Qt5Core.dll
 0001:0005fad2       ?seek@QFileDevice@@UAE_N_J@Z 00460ad2 f   Qt5Core:Qt5Core.dll
 0001:0005fad8       ?setPermissions@QFile@@UAE_NV?$QFlags@W4Permission@QFileDevice@@@@@Z 00460ad8 f   Qt5Core:Qt5Core.dll
 0001:0005fade       ?size@QFile@@UBE_JXZ       00460ade f   Qt5Core:Qt5Core.dll
 0001:0005fae4       ?timerEvent@QObject@@MAEXPAVQTimerEvent@@@Z 00460ae4 f   Qt5Core:Qt5Core.dll
 0001:0005faea       ?waitForBytesWritten@QIODevice@@UAE_NH@Z 00460aea f   Qt5Core:Qt5Core.dll
 0001:0005faf0       ?waitForReadyRead@QIODevice@@UAE_NH@Z 00460af0 f   Qt5Core:Qt5Core.dll
 0001:0005faf6       ?writeData@QFileDevice@@MAE_JPBD_J@Z 00460af6 f   Qt5Core:Qt5Core.dll
 0001:0005fafc       ?open@QIODevice@@UAE_NV?$QFlags@W4OpenModeFlag@QIODevice@@@@@Z 00460afc f   Qt5Core:Qt5Core.dll
 0001:0005fb02       ?pos@QIODevice@@UBE_JXZ    00460b02 f   Qt5Core:Qt5Core.dll
 0001:0005fb08       ?seek@QIODevice@@UAE_N_J@Z 00460b08 f   Qt5Core:Qt5Core.dll
 0001:0005fb0e       ?size@QIODevice@@UBE_JXZ   00460b0e f   Qt5Core:Qt5Core.dll
 0001:0005fb14       ?event@QThread@@UAE_NPAVQEvent@@@Z 00460b14 f   Qt5Core:Qt5Core.dll
 0001:0005fb1a       ?metaObject@QThread@@UBEPBUQMetaObject@@XZ 00460b1a f   Qt5Core:Qt5Core.dll
 0001:0005fb20       ?qt_metacall@QThread@@UAEHW4Call@QMetaObject@@HPAPAX@Z 00460b20 f   Qt5Core:Qt5Core.dll
 0001:0005fb26       ?qt_metacast@QThread@@UAEPAXPBD@Z 00460b26 f   Qt5Core:Qt5Core.dll
 0001:0005fb2c       ?run@QThread@@MAEXXZ       00460b2c f   Qt5Core:Qt5Core.dll
 0001:0005fb32       ?buddy@QAbstractItemModel@@UBE?AVQModelIndex@@ABV2@@Z 00460b32 f   Qt5Core:Qt5Core.dll
 0001:0005fb38       ?canDropMimeData@QAbstractItemModel@@UBE_NPBVQMimeData@@W4DropAction@Qt@@HHABVQModelIndex@@@Z 00460b38 f   Qt5Core:Qt5Core.dll
 0001:0005fb3e       ?dropMimeData@QAbstractTableModel@@UAE_NPBVQMimeData@@W4DropAction@Qt@@HHABVQModelIndex@@@Z 00460b3e f   Qt5Core:Qt5Core.dll
 0001:0005fb44       ?hasChildren@QAbstractTableModel@@EBE_NABVQModelIndex@@@Z 00460b44 f   Qt5Core:Qt5Core.dll
 0001:0005fb4a       ?index@QAbstractTableModel@@UBE?AVQModelIndex@@HHABV2@@Z 00460b4a f   Qt5Core:Qt5Core.dll
 0001:0005fb50       ?itemData@QAbstractItemModel@@UBE?AV?$QMap@HVQVariant@@@@ABVQModelIndex@@@Z 00460b50 f   Qt5Core:Qt5Core.dll
 0001:0005fb56       ?match@QAbstractItemModel@@UBE?AV?$QList@VQModelIndex@@@@ABVQModelIndex@@HABVQVariant@@HV?$QFlags@W4MatchFlag@Qt@@@@@Z 00460b56 f   Qt5Core:Qt5Core.dll
 0001:0005fb5c       ?mimeData@QAbstractItemModel@@UBEPAVQMimeData@@ABV?$QList@VQModelIndex@@@@@Z 00460b5c f   Qt5Core:Qt5Core.dll
 0001:0005fb62       ?mimeTypes@QAbstractItemModel@@UBE?AVQStringList@@XZ 00460b62 f   Qt5Core:Qt5Core.dll
 0001:0005fb68       ?moveColumns@QAbstractItemModel@@UAE_NABVQModelIndex@@HH0H@Z 00460b68 f   Qt5Core:Qt5Core.dll
 0001:0005fb6e       ?moveRows@QAbstractItemModel@@UAE_NABVQModelIndex@@HH0H@Z 00460b6e f   Qt5Core:Qt5Core.dll
 0001:0005fb74       ?parent@QAbstractTableModel@@EBE?AVQModelIndex@@ABV2@@Z 00460b74 f   Qt5Core:Qt5Core.dll
 0001:0005fb7a       ?setItemData@QAbstractItemModel@@UAE_NABVQModelIndex@@ABV?$QMap@HVQVariant@@@@@Z 00460b7a f   Qt5Core:Qt5Core.dll
 0001:0005fb80       ?sibling@QAbstractTableModel@@UBE?AVQModelIndex@@HHABV2@@Z 00460b80 f   Qt5Core:Qt5Core.dll
 0001:0005fb86       ?span@QAbstractItemModel@@UBE?AVQSize@@ABVQModelIndex@@@Z 00460b86 f   Qt5Core:Qt5Core.dll
 0001:0005fb8c       ?supportedDragActions@QAbstractItemModel@@UBE?AV?$QFlags@W4DropAction@Qt@@@@XZ 00460b8c f   Qt5Core:Qt5Core.dll
 0001:0005fb92       ?supportedDropActions@QAbstractItemModel@@UBE?AV?$QFlags@W4DropAction@Qt@@@@XZ 00460b92 f   Qt5Core:Qt5Core.dll
 0001:0005fb98       ?qRegisterResourceData@@YA_NHPBE00@Z 00460b98 f   Qt5Core:Qt5Core.dll
 0001:0005fb9e       ?qUnregisterResourceData@@YA_NHPBE00@Z 00460b9e f   Qt5Core:Qt5Core.dll
 0001:0005fba4       ??_L@YGXPAXIIP6EX0@Z1@Z    00460ba4 f   MSVCRT:ehvecctr.obj
 0001:0005fc18       ??_M@YGXPAXIIP6EX0@Z@Z     00460c18 f   MSVCRT:ehvecdtr.obj
 0001:0005fc9d       ?__ArrayUnwind@@YGXPAXIIP6EX0@Z@Z 00460c9d f   MSVCRT:ehvecdtr.obj
 0001:0005fd2d       ??2@YAPAXI@Z               00460d2d f   MSVCRT:new_scalar.obj
 0001:0005fd5d       ??3@YAXPAXI@Z              00460d5d f   MSVCRT:delete_scalar_size.obj
 0001:0005fd6b       ??_U@YAPAXI@Z              00460d6b f   MSVCRT:new_array.obj
 0001:0005fd74       ??_V@YAXPAX@Z              00460d74 f   MSVCRT:delete_array.obj
 0001:0005fd79       ??_V@YAXPAXI@Z             00460d79 f   MSVCRT:delete_array_size.obj
 0001:0005fdcb       ___scrt_acquire_startup_lock 00460dcb f   MSVCRT:utility.obj
 0001:0005fdfd       ___scrt_initialize_crt     00460dfd f   MSVCRT:utility.obj
 0001:0005fe36       ___scrt_initialize_onexit_tables 00460e36 f   MSVCRT:utility.obj
 0001:0005febd       ___scrt_is_nonwritable_in_current_image 00460ebd f   MSVCRT:utility.obj
 0001:0005ff51       ___scrt_release_startup_lock 00460f51 f   MSVCRT:utility.obj
 0001:0005ff6e       ___scrt_uninitialize_crt   00460f6e f   MSVCRT:utility.obj
 0001:0005ff96       __onexit                   00460f96 f   MSVCRT:utility.obj
 0001:0005ffc3       _atexit                    00460fc3 f   MSVCRT:utility.obj
 0001:0005ffd8       @__security_check_cookie@4 00460fd8 f   MSVCRT:secchk.obj
 0001:0005ffe9       ??_Etype_info@@UAEPAXI@Z   00460fe9 f i MSVCRT:std_type_info_static.obj
 0001:0005ffe9       ??_Gtype_info@@UAEPAXI@Z   00460fe9 f i MSVCRT:std_type_info_static.obj
 0001:000600d1       __Init_thread_abort        004610d1 f   MSVCRT:thread_safe_statics.obj
 0001:000600f5       __Init_thread_footer       004610f5 f   MSVCRT:thread_safe_statics.obj
 0001:0006013f       __Init_thread_header       0046113f f   MSVCRT:thread_safe_statics.obj
 0001:00060191       __Init_thread_notify       00461191 f   MSVCRT:thread_safe_statics.obj
 0001:000601c7       __Init_thread_wait         004611c7 f   MSVCRT:thread_safe_statics.obj
 0001:00060215       ??3@YAXPAX@Z               00461215 f   MSVCRT:delete_scalar.obj
 0001:00060220       __ftoui3                   00461220 f   MSVCRT:ftol3.obj
 0001:00060266       __ftoul3                   00461266 f   MSVCRT:ftol3.obj
 0001:000602d8       __ftol3                    004612d8 f   MSVCRT:ftol3.obj
 0001:00060345       __dtoui3                   00461345 f   MSVCRT:ftol3.obj
 0001:000603b9       __dtoul3                   004613b9 f   MSVCRT:ftol3.obj
 0001:0006045b       __dtol3                    0046145b f   MSVCRT:ftol3.obj
 0001:00060510       __ultod3                   00461510 f   MSVCRT:ftol3.obj
 0001:00060570       __ltod3                    00461570 f   MSVCRT:ftol3.obj
 0001:000607f2       _WinMainCRTStartup         004617f2 f   MSVCRT:exe_winmain.obj
 0001:00060800       __SEH_prolog4              00461800 f   MSVCRT:sehprolg4.obj
 0001:00060846       __SEH_epilog4              00461846 f   MSVCRT:sehprolg4.obj
 0001:0006085b       __except_handler4          0046185b f   MSVCRT:chandler4gs.obj
 0001:0006088a       ??0bad_alloc@std@@QAE@ABV01@@Z 0046188a f i MSVCRT:throw_bad_alloc.obj
 0001:000608a5       ??0bad_alloc@std@@QAE@XZ   004618a5 f i MSVCRT:throw_bad_alloc.obj
 0001:000608bd       ??0bad_array_new_length@std@@QAE@ABV01@@Z 004618bd f i MSVCRT:throw_bad_alloc.obj
 0001:000608d8       ??0bad_array_new_length@std@@QAE@XZ 004618d8 f i MSVCRT:throw_bad_alloc.obj
 0001:000608f0       ??0exception@std@@QAE@ABV01@@Z 004618f0 f i MSVCRT:throw_bad_alloc.obj
 0001:0006091c       ??1bad_array_new_length@std@@UAE@XZ 0046191c f i MSVCRT:throw_bad_alloc.obj
 0001:0006091c       ??1bad_alloc@std@@UAE@XZ   0046191c f i MSVCRT:throw_bad_alloc.obj
 0001:0006092d       ??_Ebad_alloc@std@@UAEPAXI@Z 0046192d f i MSVCRT:throw_bad_alloc.obj
 0001:0006092d       ??_Eexception@std@@UAEPAXI@Z 0046192d f i MSVCRT:throw_bad_alloc.obj
 0001:0006092d       ??_Gbad_array_new_length@std@@UAEPAXI@Z 0046192d f i MSVCRT:throw_bad_alloc.obj
 0001:0006092d       ??_Gbad_alloc@std@@UAEPAXI@Z 0046192d f i MSVCRT:throw_bad_alloc.obj
 0001:0006092d       ??_Ebad_array_new_length@std@@UAEPAXI@Z 0046192d f i MSVCRT:throw_bad_alloc.obj
 0001:0006092d       ??_Gexception@std@@UAEPAXI@Z 0046192d f i MSVCRT:throw_bad_alloc.obj
 0001:0006095a       ?__scrt_throw_std_bad_alloc@@YAXXZ 0046195a f   MSVCRT:throw_bad_alloc.obj
 0001:00060977       ?__scrt_throw_std_bad_array_new_length@@YAXXZ 00461977 f   MSVCRT:throw_bad_alloc.obj
 0001:00060994       ?what@exception@std@@UBEPBDXZ 00461994 f i MSVCRT:throw_bad_alloc.obj
 0001:000609a1       ___isa_available_init      004619a1 f   MSVCRT:cpu_disp.obj
 0001:00060b61       __get_startup_argv_mode    00461b61 f   MSVCRT:argv_mode.obj
 0001:00060b65       ___scrt_is_ucrt_dll_in_use 00461b65 f   MSVCRT:ucrt_detection.obj
 0001:00060b71       ___scrt_fastfail           00461b71 f   MSVCRT:utility_desktop.obj
 0001:00060c8b       ___scrt_get_show_window_mode 00461c8b f   MSVCRT:utility_desktop.obj
 0001:00060cbc       ___scrt_initialize_mta     00461cbc f   MSVCRT:utility_desktop.obj
 0001:00060cc1       ___scrt_is_managed_app     00461cc1 f   MSVCRT:utility_desktop.obj
 0001:00060d04       ___scrt_set_unhandled_exception_filter 00461d04 f   MSVCRT:utility_desktop.obj
 0001:00060d10       ___scrt_unhandled_exception_filter@4 00461d10 f   MSVCRT:utility_desktop.obj
 0001:00060d66       __crt_debugger_hook        00461d66 f   MSVCRT:utility_desktop.obj
 0001:00060d6e       ___raise_securityfailure   00461d6e f   MSVCRT:gs_report.obj
 0001:00060d96       ___report_gsfailure        00461d96 f   MSVCRT:gs_report.obj
 0001:00060edc       ___security_init_cookie    00461edc f   MSVCRT:gs_support.obj
 0001:00060f27       __get_startup_file_mode    00461f27 f   MSVCRT:file_mode.obj
 0001:00060f2d       ?__scrt_initialize_type_info@@YAXXZ 00461f2d f   MSVCRT:tncleanup.obj
 0001:00060f39       ___vcrt_uninitialize       00461f39 f   MSVCRT:ucrt_stubs.obj
 0001:00060f39       ___scrt_stub_for_acrt_initialize 00461f39 f   MSVCRT:ucrt_stubs.obj
 0001:00060f39       __should_initialize_environment 00461f39 f   MSVCRT:env_mode.obj
 0001:00060f39       ___acrt_uninitialize       00461f39 f   MSVCRT:ucrt_stubs.obj
 0001:00060f39       ___scrt_stub_for_acrt_uninitialize 00461f39 f   MSVCRT:ucrt_stubs.obj
 0001:00060f39       ___acrt_initialize         00461f39 f   MSVCRT:ucrt_stubs.obj
 0001:00060f39       ___vcrt_initialize         00461f39 f   MSVCRT:ucrt_stubs.obj
 0001:00060f3c       __initialize_default_precision 00461f3c f   MSVCRT:default_precision.obj
 0001:00060f5d       ___local_stdio_printf_options 00461f5d f i MSVCRT:default_local_stdio_options.obj
 0001:00060f63       ___local_stdio_scanf_options 00461f63 f i MSVCRT:default_local_stdio_options.obj
 0001:00060f69       ___scrt_initialize_default_local_stdio_options 00461f69 f   MSVCRT:default_local_stdio_options.obj
 0001:00060f86       ___scrt_is_user_matherr_present 00461f86 f   MSVCRT:matherr_detection.obj
 0001:00060f92       ___scrt_get_dyn_tls_init_callback 00461f92 f   MSVCRT:dyn_tls_init.obj
 0001:00060f98       ___scrt_get_dyn_tls_dtor_callback 00461f98 f   MSVCRT:dyn_tls_dtor.obj
 0001:00060f9e       __RTC_Initialize           00461f9e f   MSVCRT:initsect.obj
 0001:00060fca       __RTC_Terminate            00461fca f   MSVCRT:initsect.obj
 0001:00060ff6       _MiniDumpWriteDump@28      00461ff6 f   Dbghelp:dbghelp.dll
 0001:00060ffe       _IsProcessorFeaturePresent@4 00461ffe f   kernel32:KERNEL32.dll
 0001:00061004       ___std_terminate           00462004 f   vcruntime:VCRUNTIME140.dll
 0001:0006100a       __CxxThrowException@8      0046200a f   vcruntime:VCRUNTIME140.dll
 0001:00061010       ___CxxFrameHandler3        00462010 f   vcruntime:VCRUNTIME140.dll
 0001:00061016       _memcpy                    00462016 f   vcruntime:VCRUNTIME140.dll
 0001:0006101c       _memset                    0046201c f   vcruntime:VCRUNTIME140.dll
 0001:00061022       _memchr                    00462022 f   vcruntime:VCRUNTIME140.dll
 0001:00061028       ___current_exception       00462028 f   vcruntime:VCRUNTIME140.dll
 0001:0006102e       ___current_exception_context 0046202e f   vcruntime:VCRUNTIME140.dll
 0001:00061034       __except_handler4_common   00462034 f   vcruntime:VCRUNTIME140.dll
 0001:0006103a       ___std_exception_copy      0046203a f   vcruntime:VCRUNTIME140.dll
 0001:00061040       ___std_exception_destroy   00462040 f   vcruntime:VCRUNTIME140.dll
 0001:00061046       _free                      00462046 f   ucrt:api-ms-win-crt-heap-l1-1-0.dll
 0001:0006104c       _malloc                    0046204c f   ucrt:api-ms-win-crt-heap-l1-1-0.dll
 0001:00061052       _terminate                 00462052 f   ucrt:api-ms-win-crt-runtime-l1-1-0.dll
 0001:00061058       __callnewh                 00462058 f   ucrt:api-ms-win-crt-heap-l1-1-0.dll
 0001:0006105e       __configure_narrow_argv    0046205e f   ucrt:api-ms-win-crt-runtime-l1-1-0.dll
 0001:00061064       __initialize_narrow_environment 00462064 f   ucrt:api-ms-win-crt-runtime-l1-1-0.dll
 0001:0006106a       __initialize_onexit_table  0046206a f   ucrt:api-ms-win-crt-runtime-l1-1-0.dll
 0001:00061070       __register_onexit_function 00462070 f   ucrt:api-ms-win-crt-runtime-l1-1-0.dll
 0001:00061076       __crt_atexit               00462076 f   ucrt:api-ms-win-crt-runtime-l1-1-0.dll
 0001:0006107c       __cexit                    0046207c f   ucrt:api-ms-win-crt-runtime-l1-1-0.dll
 0001:00061082       __seh_filter_exe           00462082 f   ucrt:api-ms-win-crt-runtime-l1-1-0.dll
 0001:00061088       __set_app_type             00462088 f   ucrt:api-ms-win-crt-runtime-l1-1-0.dll
 0001:0006108e       ___setusermatherr          0046208e f   ucrt:api-ms-win-crt-math-l1-1-0.dll
 0001:00061094       __get_narrow_winmain_command_line 00462094 f   ucrt:api-ms-win-crt-runtime-l1-1-0.dll
 0001:0006109a       __initterm                 0046209a f   ucrt:api-ms-win-crt-runtime-l1-1-0.dll
 0001:000610a0       __initterm_e               004620a0 f   ucrt:api-ms-win-crt-runtime-l1-1-0.dll
 0001:000610a6       _exit                      004620a6 f   ucrt:api-ms-win-crt-runtime-l1-1-0.dll
 0001:000610ac       __exit                     004620ac f   ucrt:api-ms-win-crt-runtime-l1-1-0.dll
 0001:000610b2       __set_fmode                004620b2 f   ucrt:api-ms-win-crt-stdio-l1-1-0.dll
 0001:000610b8       __c_exit                   004620b8 f   ucrt:api-ms-win-crt-runtime-l1-1-0.dll
 0001:000610be       __register_thread_local_exe_atexit_callback 004620be f   ucrt:api-ms-win-crt-runtime-l1-1-0.dll
 0001:000610c4       __configthreadlocale       004620c4 f   ucrt:api-ms-win-crt-locale-l1-1-0.dll
 0001:000610ca       __set_new_mode             004620ca f   ucrt:api-ms-win-crt-heap-l1-1-0.dll
 0001:000610d0       ___p__commode              004620d0 f   ucrt:api-ms-win-crt-stdio-l1-1-0.dll
 0001:000610d6       __controlfp_s              004620d6 f   ucrt:api-ms-win-crt-runtime-l1-1-0.dll
 0001:000610e0       _WinMain@16                004620e0 f   qtmain:qtmain_win.obj
 0001:000611ff       __filter_x86_sse2_floating_point_exception_default 004621ff f   MSVCRT:x86_exception_filter.obj
 0001:000611ff       __filter_x86_sse2_floating_point_exception 004621ff f   MSVCRT:x86_exception_filter.obj
 0001:0006bdb0       ??__Ff@?4??registerConverter@?$ValueTypeIsMetaType@V?$QList@H@@$00@QtPrivate@@SA_NH@Z@YAXXZ 0046cdb0 f i tcpserver.obj
 0001:0006be00       ??__Ff@?4??registerConverter@?$ValueTypeIsMetaType@V?$QList@N@@$00@QtPrivate@@SA_NH@Z@YAXXZ 0046ce00 f i tcpserver.obj
 0001:0006bf40       ??__Ff@?4??registerConverter@?$ValueTypeIsMetaType@V?$QList@M@@$00@QtPrivate@@SA_NH@Z@YAXXZ 0046cf40 f i daqinfo.obj
 0001:0006bf90       ??__Ff@?4??registerConverter@?$ValueTypeIsMetaType@V?$QList@_N@@$00@QtPrivate@@SA_NH@Z@YAXXZ 0046cf90 f i daqinfo.obj
 0001:0006c160       ??__Ff@?4??registerConverter@?$ValueTypeIsMetaType@V?$QVector@N@@$00@QtPrivate@@SA_NH@Z@YAXXZ 0046d160 f i main.obj
 0001:0006c220       ??__Ff@?4??registerConverter@?$ValueTypeIsMetaType@V?$QList@E@@$00@QtPrivate@@SA_NH@Z@YAXXZ 0046d220 f i moc_tcpclient.obj
 0002:00000000       __imp__WideCharToMultiByte@32 0046e000     kernel32:KERNEL32.dll
 0002:00000004       __imp__LocalFree@4         0046e004     kernel32:KERNEL32.dll
 0002:00000008       __imp__GetCommandLineW@0   0046e008     kernel32:KERNEL32.dll
 0002:0000000c       __imp__CreateFileW@28      0046e00c     kernel32:KERNEL32.dll
 0002:00000010       __imp__InitializeSListHead@4 0046e010     kernel32:KERNEL32.dll
 0002:00000014       __imp__GetSystemTimeAsFileTime@4 0046e014     kernel32:KERNEL32.dll
 0002:00000018       __imp__QueryPerformanceCounter@4 0046e018     kernel32:KERNEL32.dll
 0002:0000001c       __imp__TerminateProcess@8  0046e01c     kernel32:KERNEL32.dll
 0002:00000020       __imp__GetStartupInfoW@4   0046e020     kernel32:KERNEL32.dll
 0002:00000024       __imp__UnhandledExceptionFilter@4 0046e024     kernel32:KERNEL32.dll
 0002:00000028       __imp__IsDebuggerPresent@0 0046e028     kernel32:KERNEL32.dll
 0002:0000002c       __imp__IsProcessorFeaturePresent@4 0046e02c     kernel32:KERNEL32.dll
 0002:00000030       __imp__GetModuleHandleW@4  0046e030     kernel32:KERNEL32.dll
 0002:00000034       __imp__CreateEventW@16     0046e034     kernel32:KERNEL32.dll
 0002:00000038       __imp__WaitForSingleObjectEx@12 0046e038     kernel32:KERNEL32.dll
 0002:0000003c       __imp__ResetEvent@4        0046e03c     kernel32:KERNEL32.dll
 0002:00000040       __imp__SetEvent@4          0046e040     kernel32:KERNEL32.dll
 0002:00000044       __imp__DeleteCriticalSection@4 0046e044     kernel32:KERNEL32.dll
 0002:00000048       __imp__InitializeCriticalSectionAndSpinCount@8 0046e048     kernel32:KERNEL32.dll
 0002:0000004c       __imp__LeaveCriticalSection@4 0046e04c     kernel32:KERNEL32.dll
 0002:00000050       __imp__EnterCriticalSection@4 0046e050     kernel32:KERNEL32.dll
 0002:00000054       __imp__SetThreadExecutionState@4 0046e054     kernel32:KERNEL32.dll
 0002:00000058       __imp__LoadLibraryW@4      0046e058     kernel32:KERNEL32.dll
 0002:0000005c       __imp__GetProcAddress@8    0046e05c     kernel32:KERNEL32.dll
 0002:00000060       __imp__WriteProcessMemory@20 0046e060     kernel32:KERNEL32.dll
 0002:00000064       __imp__GetCurrentThreadId@0 0046e064     kernel32:KERNEL32.dll
 0002:00000068       __imp__GetCurrentProcessId@0 0046e068     kernel32:KERNEL32.dll
 0002:0000006c       __imp__GetCurrentProcess@0 0046e06c     kernel32:KERNEL32.dll
 0002:00000070       __imp__SetUnhandledExceptionFilter@4 0046e070     kernel32:KERNEL32.dll
 0002:00000074       __imp__CloseHandle@4       0046e074     kernel32:KERNEL32.dll
 0002:00000078       __imp__Sleep@4             0046e078     kernel32:KERNEL32.dll
 0002:0000007c       \177KERNEL32_NULL_THUNK_DATA 0046e07c     kernel32:KERNEL32.dll
 0002:00000080       __imp_?span@QAbstractItemModel@@UBE?AVQSize@@ABVQModelIndex@@@Z 0046e080     Qt5Core:Qt5Core.dll
 0002:00000084       __imp_??4QString@@QAEAAV0@D@Z 0046e084     Qt5Core:Qt5Core.dll
 0002:00000088       __imp_?activate@QMetaObject@@SAXPAVQObject@@PBU1@HPAPAX@Z 0046e088     Qt5Core:Qt5Core.dll
 0002:0000008c       __imp_?qt_metacall@QObject@@UAEHW4Call@QMetaObject@@HPAPAX@Z 0046e08c     Qt5Core:Qt5Core.dll
 0002:00000090       __imp_?qt_metacast@QObject@@UAEPAXPBD@Z 0046e090     Qt5Core:Qt5Core.dll
 0002:00000094       __imp_?dynamicMetaObject@QObjectData@@QBEPAUQMetaObject@@XZ 0046e094     Qt5Core:Qt5Core.dll
 0002:00000098       __imp_?staticMetaObject@QObject@@2UQMetaObject@@B 0046e098     Qt5Core:Qt5Core.dll
 0002:0000009c       __imp_?qUnregisterResourceData@@YA_NHPBE00@Z 0046e09c     Qt5Core:Qt5Core.dll
 0002:000000a0       __imp_?qRegisterResourceData@@YA_NHPBE00@Z 0046e0a0     Qt5Core:Qt5Core.dll
 0002:000000a4       __imp_?toDouble@QString@@QBENPA_N@Z 0046e0a4     Qt5Core:Qt5Core.dll
 0002:000000a8       __imp_?write@QIODevice@@QAE_JPBD_J@Z 0046e0a8     Qt5Core:Qt5Core.dll
 0002:000000ac       __imp_?setObject@QJsonDocument@@QAEXABVQJsonObject@@@Z 0046e0ac     Qt5Core:Qt5Core.dll
 0002:000000b0       __imp_?prepend@QString@@QAEAAV1@PBD@Z 0046e0b0     Qt5Core:Qt5Core.dll
 0002:000000b4       __imp_??4QString@@QAEAAV0@ABVQByteArray@@@Z 0046e0b4     Qt5Core:Qt5Core.dll
 0002:000000b8       __imp_??1QRegExp@@QAE@XZ   0046e0b8     Qt5Core:Qt5Core.dll
 0002:000000bc       __imp_??0QRegExp@@QAE@ABVQString@@W4CaseSensitivity@Qt@@W4PatternSyntax@0@@Z 0046e0bc     Qt5Core:Qt5Core.dll
 0002:000000c0       __imp_?append@QListData@@QAEPAPAXABU1@@Z 0046e0c0     Qt5Core:Qt5Core.dll
 0002:000000c4       __imp_?sibling@QAbstractTableModel@@UBE?AVQModelIndex@@HHABV2@@Z 0046e0c4     Qt5Core:Qt5Core.dll
 0002:000000c8       __imp_?setItemData@QAbstractItemModel@@UAE_NABVQModelIndex@@ABV?$QMap@HVQVariant@@@@@Z 0046e0c8     Qt5Core:Qt5Core.dll
 0002:000000cc       __imp_?parent@QAbstractTableModel@@EBE?AVQModelIndex@@ABV2@@Z 0046e0cc     Qt5Core:Qt5Core.dll
 0002:000000d0       __imp_?moveRows@QAbstractItemModel@@UAE_NABVQModelIndex@@HH0H@Z 0046e0d0     Qt5Core:Qt5Core.dll
 0002:000000d4       __imp_?moveColumns@QAbstractItemModel@@UAE_NABVQModelIndex@@HH0H@Z 0046e0d4     Qt5Core:Qt5Core.dll
 0002:000000d8       __imp_?mimeTypes@QAbstractItemModel@@UBE?AVQStringList@@XZ 0046e0d8     Qt5Core:Qt5Core.dll
 0002:000000dc       __imp_?mimeData@QAbstractItemModel@@UBEPAVQMimeData@@ABV?$QList@VQModelIndex@@@@@Z 0046e0dc     Qt5Core:Qt5Core.dll
 0002:000000e0       __imp_?match@QAbstractItemModel@@UBE?AV?$QList@VQModelIndex@@@@ABVQModelIndex@@HABVQVariant@@HV?$QFlags@W4MatchFlag@Qt@@@@@Z 0046e0e0     Qt5Core:Qt5Core.dll
 0002:000000e4       __imp_?itemData@QAbstractItemModel@@UBE?AV?$QMap@HVQVariant@@@@ABVQModelIndex@@@Z 0046e0e4     Qt5Core:Qt5Core.dll
 0002:000000e8       __imp_?index@QAbstractTableModel@@UBE?AVQModelIndex@@HHABV2@@Z 0046e0e8     Qt5Core:Qt5Core.dll
 0002:000000ec       __imp_?hasChildren@QAbstractTableModel@@EBE_NABVQModelIndex@@@Z 0046e0ec     Qt5Core:Qt5Core.dll
 0002:000000f0       __imp_?dropMimeData@QAbstractTableModel@@UAE_NPBVQMimeData@@W4DropAction@Qt@@HHABVQModelIndex@@@Z 0046e0f0     Qt5Core:Qt5Core.dll
 0002:000000f4       __imp_?canDropMimeData@QAbstractItemModel@@UBE_NPBVQMimeData@@W4DropAction@Qt@@HHABVQModelIndex@@@Z 0046e0f4     Qt5Core:Qt5Core.dll
 0002:000000f8       __imp_?buddy@QAbstractItemModel@@UBE?AVQModelIndex@@ABV2@@Z 0046e0f8     Qt5Core:Qt5Core.dll
 0002:000000fc       __imp_?createUuid@QUuid@@SA?AV1@XZ 0046e0fc     Qt5Core:Qt5Core.dll
 0002:00000100       __imp_?toString@QUuid@@QBE?AVQString@@XZ 0046e100     Qt5Core:Qt5Core.dll
 0002:00000104       __imp_?instance@QCoreApplication@@SAPAV1@XZ 0046e104     Qt5Core:Qt5Core.dll
 0002:00000108       __imp_?exists@QFileInfo@@QBE_NXZ 0046e108     Qt5Core:Qt5Core.dll
 0002:0000010c       __imp_?setPermissions@QFile@@SA_NABVQString@@V?$QFlags@W4Permission@QFileDevice@@@@@Z 0046e10c     Qt5Core:Qt5Core.dll
 0002:00000110       __imp_?copy@QFile@@SA_NABVQString@@0@Z 0046e110     Qt5Core:Qt5Core.dll
 0002:00000114       __imp_?remove@QFile@@SA_NABVQString@@@Z 0046e114     Qt5Core:Qt5Core.dll
 0002:00000118       __imp_?data@QModelIndex@@QBE?AVQVariant@@H@Z 0046e118     Qt5Core:Qt5Core.dll
 0002:0000011c       __imp_??0QModelIndex@@QAE@XZ 0046e11c     Qt5Core:Qt5Core.dll
 0002:00000120       __imp_?bottom@QRect@@QBEHXZ 0046e120     Qt5Core:Qt5Core.dll
 0002:00000124       __imp_?top@QRect@@QBEHXZ   0046e124     Qt5Core:Qt5Core.dll
 0002:00000128       __imp_?left@QRect@@QBEHXZ  0046e128     Qt5Core:Qt5Core.dll
 0002:0000012c       __imp_??0QSize@@QAE@HH@Z   0046e12c     Qt5Core:Qt5Core.dll
 0002:00000130       __imp_??0QSize@@QAE@XZ     0046e130     Qt5Core:Qt5Core.dll
 0002:00000134       __imp_?isEmpty@QListData@@QBE_NXZ 0046e134     Qt5Core:Qt5Core.dll
 0002:00000138       __imp_??0QRect@@QAE@HHHH@Z 0046e138     Qt5Core:Qt5Core.dll
 0002:0000013c       __imp_?sender@QObject@@IBEPAV1@XZ 0046e13c     Qt5Core:Qt5Core.dll
 0002:00000140       __imp_?tr@QMetaObject@@QBE?AVQString@@PBD0H@Z 0046e140     Qt5Core:Qt5Core.dll
 0002:00000144       __imp_?setCodecForLocale@QTextCodec@@SAXPAV1@@Z 0046e144     Qt5Core:Qt5Core.dll
 0002:00000148       __imp_?codecForName@QTextCodec@@SAPAV1@PBD@Z 0046e148     Qt5Core:Qt5Core.dll
 0002:0000014c       __imp_?setAttribute@QCoreApplication@@SAXW4ApplicationAttribute@Qt@@_N@Z 0046e14c     Qt5Core:Qt5Core.dll
 0002:00000150       __imp_?number@QString@@SA?AV1@KH@Z 0046e150     Qt5Core:Qt5Core.dll
 0002:00000154       __imp_?number@QString@@SA?AV1@IH@Z 0046e154     Qt5Core:Qt5Core.dll
 0002:00000158       __imp_?exit@QThread@@QAEXH@Z 0046e158     Qt5Core:Qt5Core.dll
 0002:0000015c       __imp_??1QFileInfo@@QAE@XZ 0046e15c     Qt5Core:Qt5Core.dll
 0002:00000160       __imp_??0QFileInfo@@QAE@ABVQString@@@Z 0046e160     Qt5Core:Qt5Core.dll
 0002:00000164       __imp_?toString@QVariant@@QBE?AVQString@@XZ 0046e164     Qt5Core:Qt5Core.dll
 0002:00000168       __imp_?toInt@QVariant@@QBEHPA_N@Z 0046e168     Qt5Core:Qt5Core.dll
 0002:0000016c       __imp_?fromBinaryData@QJsonDocument@@SA?AV1@ABVQByteArray@@W4DataValidation@1@@Z 0046e16c     Qt5Core:Qt5Core.dll
 0002:00000170       __imp_?remove@QListData@@QAEXH@Z 0046e170     Qt5Core:Qt5Core.dll
 0002:00000174       __imp_?currentDateTimeUtc@QDateTime@@SA?AV1@XZ 0046e174     Qt5Core:Qt5Core.dll
 0002:00000178       __imp_?toString@QLocale@@QBE?AVQString@@ABVQDateTime@@ABV2@@Z 0046e178     Qt5Core:Qt5Core.dll
 0002:0000017c       __imp_??1QLocale@@QAE@XZ   0046e17c     Qt5Core:Qt5Core.dll
 0002:00000180       __imp_??0QLocale@@QAE@W4Language@0@W4Country@0@@Z 0046e180     Qt5Core:Qt5Core.dll
 0002:00000184       __imp_?nextNode@QHashData@@SAPAUNode@1@PAU21@@Z 0046e184     Qt5Core:Qt5Core.dll
 0002:00000188       __imp_?compare@QString@@QBEHABV1@W4CaseSensitivity@Qt@@@Z 0046e188     Qt5Core:Qt5Core.dll
 0002:0000018c       __imp_?toUtf8@QString@@QGBE?AVQByteArray@@XZ 0046e18c     Qt5Core:Qt5Core.dll
 0002:00000190       __imp_?toLatin1@QString@@QHAE?AVQByteArray@@XZ 0046e190     Qt5Core:Qt5Core.dll
 0002:00000194       __imp_?toLatin1@QString@@QGBE?AVQByteArray@@XZ 0046e194     Qt5Core:Qt5Core.dll
 0002:00000198       __imp_?arg@QString@@QBE?AV1@ABV1@HVQChar@@@Z 0046e198     Qt5Core:Qt5Core.dll
 0002:0000019c       __imp_??BQByteArray@@QBEPBDXZ 0046e19c     Qt5Core:Qt5Core.dll
 0002:000001a0       __imp_?warning@QMessageLogger@@QBE?AVQDebug@@XZ 0046e1a0     Qt5Core:Qt5Core.dll
 0002:000001a4       __imp_?path@QUrl@@QBE?AVQString@@V?$QFlags@W4ComponentFormattingOption@QUrl@@@@@Z 0046e1a4     Qt5Core:Qt5Core.dll
 0002:000001a8       __imp_??0QUrl@@QAE@ABVQString@@W4ParsingMode@0@@Z 0046e1a8     Qt5Core:Qt5Core.dll
 0002:000001ac       __imp_?hasShrunk@QHashData@@QAEXXZ 0046e1ac     Qt5Core:Qt5Core.dll
 0002:000001b0       __imp_?freeNode@QHashData@@QAEXPAX@Z 0046e1b0     Qt5Core:Qt5Core.dll
 0002:000001b4       __imp_?shared_null@QHashData@@2U1@B 0046e1b4     Qt5Core:Qt5Core.dll
 0002:000001b8       __imp_?currentThread@QThread@@SAPAV1@XZ 0046e1b8     Qt5Core:Qt5Core.dll
 0002:000001bc       __imp_?insert@QJsonObject@@QAE?AViterator@1@ABVQString@@ABVQJsonValue@@@Z 0046e1bc     Qt5Core:Qt5Core.dll
 0002:000001c0       __imp_?value@QJsonObject@@QBE?AVQJsonValue@@ABVQString@@@Z 0046e1c0     Qt5Core:Qt5Core.dll
 0002:000001c4       __imp_??1QJsonObject@@QAE@XZ 0046e1c4     Qt5Core:Qt5Core.dll
 0002:000001c8       __imp_??0QJsonObject@@QAE@XZ 0046e1c8     Qt5Core:Qt5Core.dll
 0002:000001cc       __imp_?isNull@QJsonDocument@@QBE_NXZ 0046e1cc     Qt5Core:Qt5Core.dll
 0002:000001d0       __imp_?setArray@QJsonDocument@@QAEXABVQJsonArray@@@Z 0046e1d0     Qt5Core:Qt5Core.dll
 0002:000001d4       __imp_?array@QJsonDocument@@QBE?AVQJsonArray@@XZ 0046e1d4     Qt5Core:Qt5Core.dll
 0002:000001d8       __imp_?object@QJsonDocument@@QBE?AVQJsonObject@@XZ 0046e1d8     Qt5Core:Qt5Core.dll
 0002:000001dc       __imp_?isObject@QJsonDocument@@QBE_NXZ 0046e1dc     Qt5Core:Qt5Core.dll
 0002:000001e0       __imp_?isArray@QJsonDocument@@QBE_NXZ 0046e1e0     Qt5Core:Qt5Core.dll
 0002:000001e4       __imp_?toJson@QJsonDocument@@QBE?AVQByteArray@@W4JsonFormat@1@@Z 0046e1e4     Qt5Core:Qt5Core.dll
 0002:000001e8       __imp_?fromJson@QJsonDocument@@SA?AV1@ABVQByteArray@@PAUQJsonParseError@@@Z 0046e1e8     Qt5Core:Qt5Core.dll
 0002:000001ec       __imp_??1QJsonDocument@@QAE@XZ 0046e1ec     Qt5Core:Qt5Core.dll
 0002:000001f0       __imp_??0QJsonDocument@@QAE@ABVQJsonObject@@@Z 0046e1f0     Qt5Core:Qt5Core.dll
 0002:000001f4       __imp_??0QJsonDocument@@QAE@XZ 0046e1f4     Qt5Core:Qt5Core.dll
 0002:000001f8       __imp_?insert@QJsonArray@@QAEXHABVQJsonValue@@@Z 0046e1f8     Qt5Core:Qt5Core.dll
 0002:000001fc       __imp_?append@QJsonArray@@QAEXABVQJsonValue@@@Z 0046e1fc     Qt5Core:Qt5Core.dll
 0002:00000200       __imp_?at@QJsonArray@@QBE?AVQJsonValue@@H@Z 0046e200     Qt5Core:Qt5Core.dll
 0002:00000204       __imp_?isEmpty@QJsonArray@@QBE_NXZ 0046e204     Qt5Core:Qt5Core.dll
 0002:00000208       __imp_?size@QJsonArray@@QBEHXZ 0046e208     Qt5Core:Qt5Core.dll
 0002:0000020c       __imp_??1QJsonArray@@QAE@XZ 0046e20c     Qt5Core:Qt5Core.dll
 0002:00000210       __imp_??0QJsonArray@@QAE@XZ 0046e210     Qt5Core:Qt5Core.dll
 0002:00000214       __imp_?toObject@QJsonValue@@QBE?AVQJsonObject@@XZ 0046e214     Qt5Core:Qt5Core.dll
 0002:00000218       __imp_?toArray@QJsonValue@@QBE?AVQJsonArray@@XZ 0046e218     Qt5Core:Qt5Core.dll
 0002:0000021c       __imp_?toString@QJsonValue@@QBE?AVQString@@ABV2@@Z 0046e21c     Qt5Core:Qt5Core.dll
 0002:00000220       __imp_?toString@QJsonValue@@QBE?AVQString@@XZ 0046e220     Qt5Core:Qt5Core.dll
 0002:00000224       __imp_?toDouble@QJsonValue@@QBENN@Z 0046e224     Qt5Core:Qt5Core.dll
 0002:00000228       __imp_?toInt@QJsonValue@@QBEHH@Z 0046e228     Qt5Core:Qt5Core.dll
 0002:0000022c       __imp_?type@QJsonValue@@QBE?AW4Type@1@XZ 0046e22c     Qt5Core:Qt5Core.dll
 0002:00000230       __imp_??1QJsonValue@@QAE@XZ 0046e230     Qt5Core:Qt5Core.dll
 0002:00000234       __imp_??0QJsonValue@@QAE@ABVQJsonObject@@@Z 0046e234     Qt5Core:Qt5Core.dll
 0002:00000238       __imp_??0QJsonValue@@QAE@ABVQJsonArray@@@Z 0046e238     Qt5Core:Qt5Core.dll
 0002:0000023c       __imp_??0QJsonValue@@QAE@PBD@Z 0046e23c     Qt5Core:Qt5Core.dll
 0002:00000240       __imp_??0QJsonValue@@QAE@ABVQString@@@Z 0046e240     Qt5Core:Qt5Core.dll
 0002:00000244       __imp_??0QJsonValue@@QAE@H@Z 0046e244     Qt5Core:Qt5Core.dll
 0002:00000248       __imp_??0QJsonValue@@QAE@N@Z 0046e248     Qt5Core:Qt5Core.dll
 0002:0000024c       __imp_?setFragment@QUrl@@QAEXABVQString@@W4ParsingMode@1@@Z 0046e24c     Qt5Core:Qt5Core.dll
 0002:00000250       __imp_?setQuery@QUrl@@QAEXABVQString@@W4ParsingMode@1@@Z 0046e250     Qt5Core:Qt5Core.dll
 0002:00000254       __imp_?setPath@QUrl@@QAEXABVQString@@W4ParsingMode@1@@Z 0046e254     Qt5Core:Qt5Core.dll
 0002:00000258       __imp_?setPort@QUrl@@QAEXH@Z 0046e258     Qt5Core:Qt5Core.dll
 0002:0000025c       __imp_?setHost@QUrl@@QAEXABVQString@@W4ParsingMode@1@@Z 0046e25c     Qt5Core:Qt5Core.dll
 0002:00000260       __imp_?setUserInfo@QUrl@@QAEXABVQString@@W4ParsingMode@1@@Z 0046e260     Qt5Core:Qt5Core.dll
 0002:00000264       __imp_?setScheme@QUrl@@QAEXABVQString@@@Z 0046e264     Qt5Core:Qt5Core.dll
 0002:00000268       __imp_??1QUrl@@QAE@XZ      0046e268     Qt5Core:Qt5Core.dll
 0002:0000026c       __imp_??4QUrl@@QAEAAV0@ABV0@@Z 0046e26c     Qt5Core:Qt5Core.dll
 0002:00000270       __imp_??0QUrl@@QAE@XZ      0046e270     Qt5Core:Qt5Core.dll
 0002:00000274       __imp_?wait@QWaitCondition@@QAE_NPAVQMutex@@K@Z 0046e274     Qt5Core:Qt5Core.dll
 0002:00000278       __imp_??1QWaitCondition@@QAE@XZ 0046e278     Qt5Core:Qt5Core.dll
 0002:0000027c       __imp_??0QWaitCondition@@QAE@XZ 0046e27c     Qt5Core:Qt5Core.dll
 0002:00000280       __imp_?unlock@QMutex@@QAEXXZ 0046e280     Qt5Core:Qt5Core.dll
 0002:00000284       __imp_?lock@QMutex@@QAEXXZ 0046e284     Qt5Core:Qt5Core.dll
 0002:00000288       __imp_??1QMutex@@QAE@XZ    0046e288     Qt5Core:Qt5Core.dll
 0002:0000028c       __imp_??0QMutex@@QAE@W4RecursionMode@0@@Z 0046e28c     Qt5Core:Qt5Core.dll
 0002:00000290       __imp_??6QDebug@@QAEAAV0@ABVQString@@@Z 0046e290     Qt5Core:Qt5Core.dll
 0002:00000294       __imp_?free_helper@QHashData@@QAEXP6AXPAUNode@1@@Z@Z 0046e294     Qt5Core:Qt5Core.dll
 0002:00000298       __imp_?rehash@QHashData@@QAEXH@Z 0046e298     Qt5Core:Qt5Core.dll
 0002:0000029c       __imp_?detach_helper@QHashData@@QAEPAU1@P6AXPAUNode@1@PAX@ZP6AX0@ZHH@Z 0046e29c     Qt5Core:Qt5Core.dll
 0002:000002a0       __imp_?allocateNode@QHashData@@QAEPAXH@Z 0046e2a0     Qt5Core:Qt5Core.dll
 0002:000002a4       __imp_?qHash@@YAIABVQString@@I@Z 0046e2a4     Qt5Core:Qt5Core.dll
 0002:000002a8       __imp_?fromLatin1@QString@@SA?AV1@PBDH@Z 0046e2a8     Qt5Core:Qt5Core.dll
 0002:000002ac       __imp_?toLower@QString@@QGBE?AV1@XZ 0046e2ac     Qt5Core:Qt5Core.dll
 0002:000002b0       __imp_??0QByteArray@@QAE@PBDH@Z 0046e2b0     Qt5Core:Qt5Core.dll
 0002:000002b4       __imp_?staticMetaObject@QThread@@2UQMetaObject@@B 0046e2b4     Qt5Core:Qt5Core.dll
 0002:000002b8       __imp_?run@QThread@@MAEXXZ 0046e2b8     Qt5Core:Qt5Core.dll
 0002:000002bc       __imp_?qt_metacast@QThread@@UAEPAXPBD@Z 0046e2bc     Qt5Core:Qt5Core.dll
 0002:000002c0       __imp_?qt_metacall@QThread@@UAEHW4Call@QMetaObject@@HPAPAX@Z 0046e2c0     Qt5Core:Qt5Core.dll
 0002:000002c4       __imp_?metaObject@QThread@@UBEPBUQMetaObject@@XZ 0046e2c4     Qt5Core:Qt5Core.dll
 0002:000002c8       __imp_?finished@QThread@@QAEXUQPrivateSignal@1@@Z 0046e2c8     Qt5Core:Qt5Core.dll
 0002:000002cc       __imp_?isRunning@QThread@@QBE_NXZ 0046e2cc     Qt5Core:Qt5Core.dll
 0002:000002d0       __imp_?parent@QObject@@QBEPAV1@XZ 0046e2d0     Qt5Core:Qt5Core.dll
 0002:000002d4       __imp_?moveToThread@QObject@@QAEXPAVQThread@@@Z 0046e2d4     Qt5Core:Qt5Core.dll
 0002:000002d8       __imp_??0QVariant@@QAE@ABVQString@@@Z 0046e2d8     Qt5Core:Qt5Core.dll
 0002:000002dc       __imp_??0QVariant@@QAE@M@Z 0046e2dc     Qt5Core:Qt5Core.dll
 0002:000002e0       __imp_??0QVariant@@QAE@N@Z 0046e2e0     Qt5Core:Qt5Core.dll
 0002:000002e4       __imp_?erase@QListData@@QAEPAPAXPAPAX@Z 0046e2e4     Qt5Core:Qt5Core.dll
 0002:000002e8       __imp_?number@QString@@SA?AV1@NDH@Z 0046e2e8     Qt5Core:Qt5Core.dll
 0002:000002ec       __imp_??0QRect@@QAE@XZ     0046e2ec     Qt5Core:Qt5Core.dll
 0002:000002f0       __imp_?translate@QCoreApplication@@SA?AVQString@@PBD00H@Z 0046e2f0     Qt5Core:Qt5Core.dll
 0002:000002f4       __imp_?setObjectName@QObject@@QAEXABVQString@@@Z 0046e2f4     Qt5Core:Qt5Core.dll
 0002:000002f8       __imp_?objectName@QObject@@QBE?AVQString@@XZ 0046e2f8     Qt5Core:Qt5Core.dll
 0002:000002fc       __imp_?connectSlotsByName@QMetaObject@@SAXPAVQObject@@@Z 0046e2fc     Qt5Core:Qt5Core.dll
 0002:00000300       __imp_?convert@QVariant@@QBE_NHPAX@Z 0046e300     Qt5Core:Qt5Core.dll
 0002:00000304       __imp_?constData@QVariant@@QBEPBXXZ 0046e304     Qt5Core:Qt5Core.dll
 0002:00000308       __imp_?userType@QVariant@@QBEHXZ 0046e308     Qt5Core:Qt5Core.dll
 0002:0000030c       __imp_?exists@QFile@@QBE_NXZ 0046e30c     Qt5Core:Qt5Core.dll
 0002:00000310       __imp_??0QFile@@QAE@ABVQString@@@Z 0046e310     Qt5Core:Qt5Core.dll
 0002:00000314       __imp_?wait@QThread@@QAE_NK@Z 0046e314     Qt5Core:Qt5Core.dll
 0002:00000318       __imp_?quit@QThread@@QAEXXZ 0046e318     Qt5Core:Qt5Core.dll
 0002:0000031c       __imp_?readRawData@QDataStream@@QAEHPADH@Z 0046e31c     Qt5Core:Qt5Core.dll
 0002:00000320       __imp_??6QDataStream@@QAEAAV0@M@Z 0046e320     Qt5Core:Qt5Core.dll
 0002:00000324       __imp_??6QDataStream@@QAEAAV0@H@Z 0046e324     Qt5Core:Qt5Core.dll
 0002:00000328       __imp_?atEnd@QDataStream@@QBE_NXZ 0046e328     Qt5Core:Qt5Core.dll
 0002:0000032c       __imp_??0QDataStream@@QAE@PAVQByteArray@@V?$QFlags@W4OpenModeFlag@QIODevice@@@@@Z 0046e32c     Qt5Core:Qt5Core.dll
 0002:00000330       __imp_??0QDataStream@@QAE@PAVQIODevice@@@Z 0046e330     Qt5Core:Qt5Core.dll
 0002:00000334       __imp_?isOpen@QIODevice@@QBE_NXZ 0046e334     Qt5Core:Qt5Core.dll
 0002:00000338       __imp_?typeFlags@QMetaType@@SA?AV?$QFlags@W4TypeFlag@QMetaType@@@@H@Z 0046e338     Qt5Core:Qt5Core.dll
 0002:0000033c       __imp_?toInt@QString@@QBEHPA_NH@Z 0046e33c     Qt5Core:Qt5Core.dll
 0002:00000340       __imp_?split@QString@@QBE?AVQStringList@@VQChar@@W4SplitBehavior@1@W4CaseSensitivity@Qt@@@Z 0046e340     Qt5Core:Qt5Core.dll
 0002:00000344       __imp_?remove@QString@@QAEAAV1@HH@Z 0046e344     Qt5Core:Qt5Core.dll
 0002:00000348       __imp_?left@QString@@QBE?AV1@H@Z 0046e348     Qt5Core:Qt5Core.dll
 0002:0000034c       __imp_??4QString@@QAEAAV0@$$QAV0@@Z 0046e34c     Qt5Core:Qt5Core.dll
 0002:00000350       __imp_?end@QByteArray@@QBEPBDXZ 0046e350     Qt5Core:Qt5Core.dll
 0002:00000354       __imp_?begin@QByteArray@@QBEPBDXZ 0046e354     Qt5Core:Qt5Core.dll
 0002:00000358       __imp_?append@QByteArray@@QAEAAV1@ABVQString@@@Z 0046e358     Qt5Core:Qt5Core.dll
 0002:0000035c       __imp_?prepend@QByteArray@@QAEAAV1@D@Z 0046e35c     Qt5Core:Qt5Core.dll
 0002:00000360       __imp_?data@QByteArray@@QAEPADXZ 0046e360     Qt5Core:Qt5Core.dll
 0002:00000364       __imp_?resize@QByteArray@@QAEXH@Z 0046e364     Qt5Core:Qt5Core.dll
 0002:00000368       __imp_?qstrcmp@@YAHABVQByteArray@@PBD@Z 0046e368     Qt5Core:Qt5Core.dll
 0002:0000036c       __imp_??0QChar@@QAE@H@Z    0046e36c     Qt5Core:Qt5Core.dll
 0002:00000370       __imp_?cast@QMetaObject@@QBEPAVQObject@@PAV2@@Z 0046e370     Qt5Core:Qt5Core.dll
 0002:00000374       __imp_?shared_null@QMapDataBase@@2U1@B 0046e374     Qt5Core:Qt5Core.dll
 0002:00000378       __imp_?start@QThread@@QAEXW4Priority@1@@Z 0046e378     Qt5Core:Qt5Core.dll
 0002:0000037c       __imp_?isDetached@QVariant@@QBE_NXZ 0046e37c     Qt5Core:Qt5Core.dll
 0002:00000380       __imp_??4QVariant@@QAEAAV0@$$QAV0@@Z 0046e380     Qt5Core:Qt5Core.dll
 0002:00000384       __imp_??4QVariant@@QAEAAV0@ABV0@@Z 0046e384     Qt5Core:Qt5Core.dll
 0002:00000388       __imp_??0QVariant@@QAE@ABV0@@Z 0046e388     Qt5Core:Qt5Core.dll
 0002:0000038c       __imp_??0QVariant@@QAE@HPBXI@Z 0046e38c     Qt5Core:Qt5Core.dll
 0002:00000390       __imp_??0QVariant@@QAE@XZ  0046e390     Qt5Core:Qt5Core.dll
 0002:00000394       __imp_?freeData@QMapDataBase@@SAXPAU1@@Z 0046e394     Qt5Core:Qt5Core.dll
 0002:00000398       __imp_?createData@QMapDataBase@@SAPAU1@XZ 0046e398     Qt5Core:Qt5Core.dll
 0002:0000039c       __imp_?freeTree@QMapDataBase@@QAEXPAUQMapNodeBase@@H@Z 0046e39c     Qt5Core:Qt5Core.dll
 0002:000003a0       __imp_?createNode@QMapDataBase@@QAEPAUQMapNodeBase@@HHPAU2@_N@Z 0046e3a0     Qt5Core:Qt5Core.dll
 0002:000003a4       __imp_?recalcMostLeftNode@QMapDataBase@@QAEXXZ 0046e3a4     Qt5Core:Qt5Core.dll
 0002:000003a8       __imp_?freeNodeAndRebalance@QMapDataBase@@QAEXPAUQMapNodeBase@@@Z 0046e3a8     Qt5Core:Qt5Core.dll
 0002:000003ac       __imp_?connectImpl@QObject@@CA?AVConnection@QMetaObject@@PBV1@PAPAX01PAVQSlotObjectBase@QtPrivate@@W4ConnectionType@Qt@@PBHPBU3@@Z 0046e3ac     Qt5Core:Qt5Core.dll
 0002:000003b0       __imp_?unregisterConverterFunction@QMetaType@@SAXHH@Z 0046e3b0     Qt5Core:Qt5Core.dll
 0002:000003b4       __imp_?registerConverterFunction@QMetaType@@SA_NPBUAbstractConverterFunction@QtPrivate@@HH@Z 0046e3b4     Qt5Core:Qt5Core.dll
 0002:000003b8       __imp_?hasRegisteredConverterFunction@QMetaType@@SA_NHH@Z 0046e3b8     Qt5Core:Qt5Core.dll
 0002:000003bc       __imp_?typeName@QMetaType@@SAPBDH@Z 0046e3bc     Qt5Core:Qt5Core.dll
 0002:000003c0       __imp_?registerNormalizedType@QMetaType@@SAHABVQByteArray@@P6AXPAX@ZP6APAX1PBX@ZHV?$QFlags@W4TypeFlag@QMetaType@@@@PBUQMetaObject@@@Z 0046e3c0     Qt5Core:Qt5Core.dll
 0002:000003c4       __imp_??M@YA_NABVQString@@0@Z 0046e3c4     Qt5Core:Qt5Core.dll
 0002:000003c8       __imp_?append@QByteArray@@QAEAAV1@PBD@Z 0046e3c8     Qt5Core:Qt5Core.dll
 0002:000003cc       __imp_?endsWith@QByteArray@@QBE_ND@Z 0046e3cc     Qt5Core:Qt5Core.dll
 0002:000003d0       __imp_?reserve@QByteArray@@QAEXH@Z 0046e3d0     Qt5Core:Qt5Core.dll
 0002:000003d4       __imp_?normalizedType@QMetaObject@@SA?AVQByteArray@@PBD@Z 0046e3d4     Qt5Core:Qt5Core.dll
 0002:000003d8       __imp_?className@QMetaObject@@QBEPBDXZ 0046e3d8     Qt5Core:Qt5Core.dll
 0002:000003dc       __imp_??5QDataStream@@QAEAAV0@AAM@Z 0046e3dc     Qt5Core:Qt5Core.dll
 0002:000003e0       __imp_??5QDataStream@@QAEAAV0@AAH@Z 0046e3e0     Qt5Core:Qt5Core.dll
 0002:000003e4       __imp_??5QDataStream@@QAEAAV0@AAF@Z 0046e3e4     Qt5Core:Qt5Core.dll
 0002:000003e8       __imp_??5QDataStream@@QAEAAV0@AAC@Z 0046e3e8     Qt5Core:Qt5Core.dll
 0002:000003ec       __imp_?setByteOrder@QDataStream@@QAEXW4ByteOrder@1@@Z 0046e3ec     Qt5Core:Qt5Core.dll
 0002:000003f0       __imp_?setFloatingPointPrecision@QDataStream@@QAEXW4FloatingPointPrecision@1@@Z 0046e3f0     Qt5Core:Qt5Core.dll
 0002:000003f4       __imp_??1QDataStream@@QAE@XZ 0046e3f4     Qt5Core:Qt5Core.dll
 0002:000003f8       __imp_??0QDataStream@@QAE@ABVQByteArray@@@Z 0046e3f8     Qt5Core:Qt5Core.dll
 0002:000003fc       __imp_??6QDebug@@QAEAAV0@ABVQByteArray@@@Z 0046e3fc     Qt5Core:Qt5Core.dll
 0002:00000400       __imp_??6QDebug@@QAEAAV0@PBD@Z 0046e400     Qt5Core:Qt5Core.dll
 0002:00000404       __imp_??1QDebug@@QAE@XZ    0046e404     Qt5Core:Qt5Core.dll
 0002:00000408       __imp_??9QString@@QBE_NPBD@Z 0046e408     Qt5Core:Qt5Core.dll
 0002:0000040c       __imp_??8QString@@QBE_NPBD@Z 0046e40c     Qt5Core:Qt5Core.dll
 0002:00000410       __imp_?append@QString@@QAEAAV1@ABVQByteArray@@@Z 0046e410     Qt5Core:Qt5Core.dll
 0002:00000414       __imp_?append@QString@@QAEAAV1@PBD@Z 0046e414     Qt5Core:Qt5Core.dll
 0002:00000418       __imp_??4QString@@QAEAAV0@PBD@Z 0046e418     Qt5Core:Qt5Core.dll
 0002:0000041c       __imp_??0QString@@QAE@ABVQByteArray@@@Z 0046e41c     Qt5Core:Qt5Core.dll
 0002:00000420       __imp_??8@YA_NABVQString@@0@Z 0046e420     Qt5Core:Qt5Core.dll
 0002:00000424       __imp_?toHex@QByteArray@@QBE?AV1@XZ 0046e424     Qt5Core:Qt5Core.dll
 0002:00000428       __imp_?toInt@QByteArray@@QBEHPA_NH@Z 0046e428     Qt5Core:Qt5Core.dll
 0002:0000042c       __imp_?remove@QByteArray@@QAEAAV1@HH@Z 0046e42c     Qt5Core:Qt5Core.dll
 0002:00000430       __imp_?append@QByteArray@@QAEAAV1@ABV1@@Z 0046e430     Qt5Core:Qt5Core.dll
 0002:00000434       __imp_?append@QByteArray@@QAEAAV1@PBDH@Z 0046e434     Qt5Core:Qt5Core.dll
 0002:00000438       __imp_?left@QByteArray@@QBE?AV1@H@Z 0046e438     Qt5Core:Qt5Core.dll
 0002:0000043c       __imp_?clear@QByteArray@@QAEXXZ 0046e43c     Qt5Core:Qt5Core.dll
 0002:00000440       __imp_?constData@QByteArray@@QBEPBDXZ 0046e440     Qt5Core:Qt5Core.dll
 0002:00000444       __imp_??4QByteArray@@QAEAAV0@ABV0@@Z 0046e444     Qt5Core:Qt5Core.dll
 0002:00000448       __imp_?sharedNull@QArrayData@@SAPAU1@XZ 0046e448     Qt5Core:Qt5Core.dll
 0002:0000044c       __imp_?allocate@QArrayData@@SAPAU1@IIIV?$QFlags@W4AllocationOption@QArrayData@@@@@Z 0046e44c     Qt5Core:Qt5Core.dll
 0002:00000450       __imp_?debug@QMessageLogger@@QBE?AVQDebug@@XZ 0046e450     Qt5Core:Qt5Core.dll
 0002:00000454       __imp_??0QMessageLogger@@QAE@PBDH0@Z 0046e454     Qt5Core:Qt5Core.dll
 0002:00000458       __imp_?qBadAlloc@@YAXXZ    0046e458     Qt5Core:Qt5Core.dll
 0002:0000045c       __imp_?event@QThread@@UAE_NPAVQEvent@@@Z 0046e45c     Qt5Core:Qt5Core.dll
 0002:00000460       __imp_?exec@QThread@@IAEHXZ 0046e460     Qt5Core:Qt5Core.dll
 0002:00000464       __imp_??1QThread@@UAE@XZ   0046e464     Qt5Core:Qt5Core.dll
 0002:00000468       __imp_??0QThread@@QAE@PAVQObject@@@Z 0046e468     Qt5Core:Qt5Core.dll
 0002:0000046c       __imp_?deleteLater@QObject@@QAEXXZ 0046e46c     Qt5Core:Qt5Core.dll
 0002:00000470       __imp_?size@QIODevice@@UBE_JXZ 0046e470     Qt5Core:Qt5Core.dll
 0002:00000474       __imp_?seek@QIODevice@@UAE_N_J@Z 0046e474     Qt5Core:Qt5Core.dll
 0002:00000478       __imp_?pos@QIODevice@@UBE_JXZ 0046e478     Qt5Core:Qt5Core.dll
 0002:0000047c       __imp_?open@QIODevice@@UAE_NV?$QFlags@W4OpenModeFlag@QIODevice@@@@@Z 0046e47c     Qt5Core:Qt5Core.dll
 0002:00000480       __imp_?stop@QTimer@@QAEXXZ 0046e480     Qt5Core:Qt5Core.dll
 0002:00000484       __imp_?start@QTimer@@QAEXXZ 0046e484     Qt5Core:Qt5Core.dll
 0002:00000488       __imp_?setInterval@QTimer@@QAEXH@Z 0046e488     Qt5Core:Qt5Core.dll
 0002:0000048c       __imp_??1QTimer@@UAE@XZ    0046e48c     Qt5Core:Qt5Core.dll
 0002:00000490       __imp_??0QTimer@@QAE@PAVQObject@@@Z 0046e490     Qt5Core:Qt5Core.dll
 0002:00000494       __imp_??0QVariant@@QAE@H@Z 0046e494     Qt5Core:Qt5Core.dll
 0002:00000498       __imp_??1QVariant@@QAE@XZ  0046e498     Qt5Core:Qt5Core.dll
 0002:0000049c       __imp_?write@QIODevice@@QAE_JABVQByteArray@@@Z 0046e49c     Qt5Core:Qt5Core.dll
 0002:000004a0       __imp_?readAll@QIODevice@@QAE?AVQByteArray@@XZ 0046e4a0     Qt5Core:Qt5Core.dll
 0002:000004a4       __imp_?connect@QObject@@SA?AVConnection@QMetaObject@@PBV1@PBD01W4ConnectionType@Qt@@@Z 0046e4a4     Qt5Core:Qt5Core.dll
 0002:000004a8       __imp_?append@QByteArray@@QAEAAV1@D@Z 0046e4a8     Qt5Core:Qt5Core.dll
 0002:000004ac       __imp_??4QByteArray@@QAEAAV0@$$QAV0@@Z 0046e4ac     Qt5Core:Qt5Core.dll
 0002:000004b0       __imp_??0QByteArray@@QAE@ABV0@@Z 0046e4b0     Qt5Core:Qt5Core.dll
 0002:000004b4       __imp_??0QByteArray@@QAE@XZ 0046e4b4     Qt5Core:Qt5Core.dll
 0002:000004b8       __imp_??1Connection@QMetaObject@@QAE@XZ 0046e4b8     Qt5Core:Qt5Core.dll
 0002:000004bc       __imp_?writeData@QFileDevice@@MAE_JPBD_J@Z 0046e4bc     Qt5Core:Qt5Core.dll
 0002:000004c0       __imp_?waitForReadyRead@QIODevice@@UAE_NH@Z 0046e4c0     Qt5Core:Qt5Core.dll
 0002:000004c4       __imp_?waitForBytesWritten@QIODevice@@UAE_NH@Z 0046e4c4     Qt5Core:Qt5Core.dll
 0002:000004c8       __imp_?timerEvent@QObject@@MAEXPAVQTimerEvent@@@Z 0046e4c8     Qt5Core:Qt5Core.dll
 0002:000004cc       __imp_?size@QFile@@UBE_JXZ 0046e4cc     Qt5Core:Qt5Core.dll
 0002:000004d0       __imp_?setPermissions@QFile@@UAE_NV?$QFlags@W4Permission@QFileDevice@@@@@Z 0046e4d0     Qt5Core:Qt5Core.dll
 0002:000004d4       __imp_?seek@QFileDevice@@UAE_N_J@Z 0046e4d4     Qt5Core:Qt5Core.dll
 0002:000004d8       __imp_?resize@QFile@@UAE_N_J@Z 0046e4d8     Qt5Core:Qt5Core.dll
 0002:000004dc       __imp_?reset@QIODevice@@UAE_NXZ 0046e4dc     Qt5Core:Qt5Core.dll
 0002:000004e0       __imp_?readLineData@QFileDevice@@MAE_JPAD_J@Z 0046e4e0     Qt5Core:Qt5Core.dll
 0002:000004e4       __imp_?readData@QFileDevice@@MAE_JPAD_J@Z 0046e4e4     Qt5Core:Qt5Core.dll
 0002:000004e8       __imp_?qt_metacast@QFile@@UAEPAXPBD@Z 0046e4e8     Qt5Core:Qt5Core.dll
 0002:000004ec       __imp_?qt_metacall@QFile@@UAEHW4Call@QMetaObject@@HPAPAX@Z 0046e4ec     Qt5Core:Qt5Core.dll
 0002:000004f0       __imp_?pos@QFileDevice@@UBE_JXZ 0046e4f0     Qt5Core:Qt5Core.dll
 0002:000004f4       __imp_?permissions@QFile@@UBE?AV?$QFlags@W4Permission@QFileDevice@@@@XZ 0046e4f4     Qt5Core:Qt5Core.dll
 0002:000004f8       __imp_?metaObject@QFile@@UBEPBUQMetaObject@@XZ 0046e4f8     Qt5Core:Qt5Core.dll
 0002:000004fc       __imp_?isSequential@QFileDevice@@UBE_NXZ 0046e4fc     Qt5Core:Qt5Core.dll
 0002:00000500       __imp_?fileName@QFile@@UBE?AVQString@@XZ 0046e500     Qt5Core:Qt5Core.dll
 0002:00000504       __imp_?eventFilter@QObject@@UAE_NPAV1@PAVQEvent@@@Z 0046e504     Qt5Core:Qt5Core.dll
 0002:00000508       __imp_?event@QObject@@UAE_NPAVQEvent@@@Z 0046e508     Qt5Core:Qt5Core.dll
 0002:0000050c       __imp_?disconnectNotify@QObject@@MAEXABVQMetaMethod@@@Z 0046e50c     Qt5Core:Qt5Core.dll
 0002:00000510       __imp_?customEvent@QObject@@MAEXPAVQEvent@@@Z 0046e510     Qt5Core:Qt5Core.dll
 0002:00000514       __imp_?connectNotify@QObject@@MAEXABVQMetaMethod@@@Z 0046e514     Qt5Core:Qt5Core.dll
 0002:00000518       __imp_?childEvent@QObject@@MAEXPAVQChildEvent@@@Z 0046e518     Qt5Core:Qt5Core.dll
 0002:0000051c       __imp_?canReadLine@QIODevice@@UBE_NXZ 0046e51c     Qt5Core:Qt5Core.dll
 0002:00000520       __imp_?bytesToWrite@QIODevice@@UBE_JXZ 0046e520     Qt5Core:Qt5Core.dll
 0002:00000524       __imp_?bytesAvailable@QIODevice@@UBE_JXZ 0046e524     Qt5Core:Qt5Core.dll
 0002:00000528       __imp_?atEnd@QFileDevice@@UBE_NXZ 0046e528     Qt5Core:Qt5Core.dll
 0002:0000052c       __imp_?applicationDirPath@QCoreApplication@@SA?AVQString@@XZ 0046e52c     Qt5Core:Qt5Core.dll
 0002:00000530       __imp_?currentDateTime@QDateTime@@SA?AV1@XZ 0046e530     Qt5Core:Qt5Core.dll
 0002:00000534       __imp_?toString@QDateTime@@QBE?AVQString@@ABV2@@Z 0046e534     Qt5Core:Qt5Core.dll
 0002:00000538       __imp_??1QDateTime@@QAE@XZ 0046e538     Qt5Core:Qt5Core.dll
 0002:0000053c       __imp_?endl@@YAAAVQTextStream@@AAV1@@Z 0046e53c     Qt5Core:Qt5Core.dll
 0002:00000540       __imp_??6QTextStream@@QAEAAV0@N@Z 0046e540     Qt5Core:Qt5Core.dll
 0002:00000544       __imp_??1QTextStream@@UAE@XZ 0046e544     Qt5Core:Qt5Core.dll
 0002:00000548       __imp_??0QTextStream@@QAE@PAVQIODevice@@@Z 0046e548     Qt5Core:Qt5Core.dll
 0002:0000054c       __imp_?open@QFile@@UAE_NV?$QFlags@W4OpenModeFlag@QIODevice@@@@@Z 0046e54c     Qt5Core:Qt5Core.dll
 0002:00000550       __imp_?setFileName@QFile@@QAEXABVQString@@@Z 0046e550     Qt5Core:Qt5Core.dll
 0002:00000554       __imp_??1QFile@@UAE@XZ     0046e554     Qt5Core:Qt5Core.dll
 0002:00000558       __imp_??0QFile@@QAE@XZ     0046e558     Qt5Core:Qt5Core.dll
 0002:0000055c       __imp_?flush@QFileDevice@@QAE_NXZ 0046e55c     Qt5Core:Qt5Core.dll
 0002:00000560       __imp_?close@QFileDevice@@UAEXXZ 0046e560     Qt5Core:Qt5Core.dll
 0002:00000564       __imp_??1QObject@@UAE@XZ   0046e564     Qt5Core:Qt5Core.dll
 0002:00000568       __imp_??0QObject@@QAE@PAV0@@Z 0046e568     Qt5Core:Qt5Core.dll
 0002:0000056c       __imp_?end@QListData@@QBEPAPAXXZ 0046e56c     Qt5Core:Qt5Core.dll
 0002:00000570       __imp_?begin@QListData@@QBEPAPAXXZ 0046e570     Qt5Core:Qt5Core.dll
 0002:00000574       __imp_?at@QListData@@QBEPAPAXH@Z 0046e574     Qt5Core:Qt5Core.dll
 0002:00000578       __imp_?size@QListData@@QBEHXZ 0046e578     Qt5Core:Qt5Core.dll
 0002:0000057c       __imp_?append@QListData@@QAEPAPAXXZ 0046e57c     Qt5Core:Qt5Core.dll
 0002:00000580       __imp_?dispose@QListData@@SAXPAUData@1@@Z 0046e580     Qt5Core:Qt5Core.dll
 0002:00000584       __imp_?dispose@QListData@@QAEXXZ 0046e584     Qt5Core:Qt5Core.dll
 0002:00000588       __imp_?realloc@QListData@@QAEXH@Z 0046e588     Qt5Core:Qt5Core.dll
 0002:0000058c       __imp_?detach_grow@QListData@@QAEPAUData@1@PAHH@Z 0046e58c     Qt5Core:Qt5Core.dll
 0002:00000590       __imp_?detach@QListData@@QAEPAUData@1@H@Z 0046e590     Qt5Core:Qt5Core.dll
 0002:00000594       __imp_?fromAscii_helper@QString@@CAPAU?$QTypedArrayData@G@@PBDH@Z 0046e594     Qt5Core:Qt5Core.dll
 0002:00000598       __imp_?number@QString@@SA?AV1@HH@Z 0046e598     Qt5Core:Qt5Core.dll
 0002:0000059c       __imp_?fromUtf8@QString@@SA?AV1@PBDH@Z 0046e59c     Qt5Core:Qt5Core.dll
 0002:000005a0       __imp_?append@QString@@QAEAAV1@ABV1@@Z 0046e5a0     Qt5Core:Qt5Core.dll
 0002:000005a4       __imp_?arg@QString@@QBE?AV1@GHHVQChar@@@Z 0046e5a4     Qt5Core:Qt5Core.dll
 0002:000005a8       __imp_?arg@QString@@QBE?AV1@HHHVQChar@@@Z 0046e5a8     Qt5Core:Qt5Core.dll
 0002:000005ac       __imp_??4QString@@QAEAAV0@ABV0@@Z 0046e5ac     Qt5Core:Qt5Core.dll
 0002:000005b0       __imp_??1QString@@QAE@XZ   0046e5b0     Qt5Core:Qt5Core.dll
 0002:000005b4       __imp_??0QString@@QAE@ABV0@@Z 0046e5b4     Qt5Core:Qt5Core.dll
 0002:000005b8       __imp_??0QString@@QAE@XZ   0046e5b8     Qt5Core:Qt5Core.dll
 0002:000005bc       __imp_?at@QByteArray@@QBEDH@Z 0046e5bc     Qt5Core:Qt5Core.dll
 0002:000005c0       __imp_??1QByteArray@@QAE@XZ 0046e5c0     Qt5Core:Qt5Core.dll
 0002:000005c4       __imp_?deallocate@QArrayData@@SAXPAU1@II@Z 0046e5c4     Qt5Core:Qt5Core.dll
 0002:000005c8       __imp_??0QChar@@QAE@UQLatin1Char@@@Z 0046e5c8     Qt5Core:Qt5Core.dll
 0002:000005cc       __imp_?shared_null@QListData@@2UData@1@B 0046e5cc     Qt5Core:Qt5Core.dll
 0002:000005d0       __imp_?supportedDropActions@QAbstractItemModel@@UBE?AV?$QFlags@W4DropAction@Qt@@@@XZ 0046e5d0     Qt5Core:Qt5Core.dll
 0002:000005d4       __imp_?supportedDragActions@QAbstractItemModel@@UBE?AV?$QFlags@W4DropAction@Qt@@@@XZ 0046e5d4     Qt5Core:Qt5Core.dll
 0002:000005d8       \177Qt5Core_NULL_THUNK_DATA 0046e5d8     Qt5Core:Qt5Core.dll
 0002:000005dc       __imp_??0QIcon@@QAE@XZ     0046e5dc     Qt5Gui:Qt5Gui.dll
 0002:000005e0       __imp_??1QIcon@@QAE@XZ     0046e5e0     Qt5Gui:Qt5Gui.dll
 0002:000005e4       __imp_??0QColor@@QAE@XZ    0046e5e4     Qt5Gui:Qt5Gui.dll
 0002:000005e8       __imp_??0QColor@@QAE@ABV0@@Z 0046e5e8     Qt5Gui:Qt5Gui.dll
 0002:000005ec       __imp_?pos@QCursor@@SA?AVQPoint@@XZ 0046e5ec     Qt5Gui:Qt5Gui.dll
 0002:000005f0       __imp_??0QFont@@QAE@ABVQString@@HH_N@Z 0046e5f0     Qt5Gui:Qt5Gui.dll
 0002:000005f4       __imp_??1QFont@@QAE@XZ     0046e5f4     Qt5Gui:Qt5Gui.dll
 0002:000005f8       __imp_??4QColor@@QAEAAV0@$$QAV0@@Z 0046e5f8     Qt5Gui:Qt5Gui.dll
 0002:000005fc       __imp_?setRgb@QColor@@QAEXHHHH@Z 0046e5fc     Qt5Gui:Qt5Gui.dll
 0002:00000600       __imp_??0QBrush@@QAE@ABVQColor@@W4BrushStyle@Qt@@@Z 0046e600     Qt5Gui:Qt5Gui.dll
 0002:00000604       __imp_??1QBrush@@QAE@XZ    0046e604     Qt5Gui:Qt5Gui.dll
 0002:00000608       __imp_?setStyle@QBrush@@QAEXW4BrushStyle@Qt@@@Z 0046e608     Qt5Gui:Qt5Gui.dll
 0002:0000060c       __imp_??0QFont@@QAE@XZ     0046e60c     Qt5Gui:Qt5Gui.dll
 0002:00000610       __imp_?setWeight@QFont@@QAEXH@Z 0046e610     Qt5Gui:Qt5Gui.dll
 0002:00000614       __imp_?addFile@QIcon@@QAEXABVQString@@ABVQSize@@W4Mode@1@W4State@1@@Z 0046e614     Qt5Gui:Qt5Gui.dll
 0002:00000618       __imp_?blockCount@QTextDocument@@QBEHXZ 0046e618     Qt5Gui:Qt5Gui.dll
 0002:0000061c       __imp_??0QKeySequence@@QAE@W4StandardKey@0@@Z 0046e61c     Qt5Gui:Qt5Gui.dll
 0002:00000620       __imp_??1QKeySequence@@QAE@XZ 0046e620     Qt5Gui:Qt5Gui.dll
 0002:00000624       __imp_?matches@QKeyEvent@@QBE_NW4StandardKey@QKeySequence@@@Z 0046e624     Qt5Gui:Qt5Gui.dll
 0002:00000628       __imp_??0QRegExpValidator@@QAE@ABVQRegExp@@PAVQObject@@@Z 0046e628     Qt5Gui:Qt5Gui.dll
 0002:0000062c       __imp_??1QRegExpValidator@@UAE@XZ 0046e62c     Qt5Gui:Qt5Gui.dll
 0002:00000630       __imp_?fixup@QValidator@@UBEXAAVQString@@@Z 0046e630     Qt5Gui:Qt5Gui.dll
 0002:00000634       __imp_?metaObject@QRegExpValidator@@UBEPBUQMetaObject@@XZ 0046e634     Qt5Gui:Qt5Gui.dll
 0002:00000638       __imp_?qt_metacall@QRegExpValidator@@UAEHW4Call@QMetaObject@@HPAPAX@Z 0046e638     Qt5Gui:Qt5Gui.dll
 0002:0000063c       __imp_?qt_metacast@QRegExpValidator@@UAEPAXPBD@Z 0046e63c     Qt5Gui:Qt5Gui.dll
 0002:00000640       __imp_?validate@QRegExpValidator@@UBE?AW4State@QValidator@@AAVQString@@AAH@Z 0046e640     Qt5Gui:Qt5Gui.dll
 0002:00000644       __imp_?staticMetaObject@QStandardItemModel@@2UQMetaObject@@B 0046e644     Qt5Gui:Qt5Gui.dll
 0002:00000648       __imp_??0QColor@@QAE@W4GlobalColor@Qt@@@Z 0046e648     Qt5Gui:Qt5Gui.dll
 0002:0000064c       \177Qt5Gui_NULL_THUNK_DATA 0046e64c     Qt5Gui:Qt5Gui.dll
 0002:00000650       __imp_?qt_metacall@QTcpServer@@UAEHW4Call@QMetaObject@@HPAPAX@Z 0046e650     Qt5Network:Qt5Network.dll
 0002:00000654       __imp_?qt_metacast@QTcpServer@@UAEPAXPBD@Z 0046e654     Qt5Network:Qt5Network.dll
 0002:00000658       __imp_?staticMetaObject@QTcpServer@@2UQMetaObject@@B 0046e658     Qt5Network:Qt5Network.dll
 0002:0000065c       __imp_?qt_metacall@QTcpSocket@@UAEHW4Call@QMetaObject@@HPAPAX@Z 0046e65c     Qt5Network:Qt5Network.dll
 0002:00000660       __imp_?qt_metacast@QTcpSocket@@UAEPAXPBD@Z 0046e660     Qt5Network:Qt5Network.dll
 0002:00000664       __imp_?staticMetaObject@QTcpSocket@@2UQMetaObject@@B 0046e664     Qt5Network:Qt5Network.dll
 0002:00000668       __imp_??6@YA?AVQDebug@@V0@W4SocketState@QAbstractSocket@@@Z 0046e668     Qt5Network:Qt5Network.dll
 0002:0000066c       __imp_?flush@QAbstractSocket@@QAE_NXZ 0046e66c     Qt5Network:Qt5Network.dll
 0002:00000670       __imp_?maxPendingConnections@QTcpServer@@QBEHXZ 0046e670     Qt5Network:Qt5Network.dll
 0002:00000674       __imp_?setMaxPendingConnections@QTcpServer@@QAEXH@Z 0046e674     Qt5Network:Qt5Network.dll
 0002:00000678       __imp_?peerPort@QAbstractSocket@@QBEGXZ 0046e678     Qt5Network:Qt5Network.dll
 0002:0000067c       __imp_?staticMetaObject@QAbstractSocket@@2UQMetaObject@@B 0046e67c     Qt5Network:Qt5Network.dll
 0002:00000680       __imp_?disconnected@QAbstractSocket@@QAEXXZ 0046e680     Qt5Network:Qt5Network.dll
 0002:00000684       __imp_?nextPendingConnection@QTcpServer@@UAEPAVQTcpSocket@@XZ 0046e684     Qt5Network:Qt5Network.dll
 0002:00000688       __imp_?hasPendingConnections@QTcpServer@@UBE_NXZ 0046e688     Qt5Network:Qt5Network.dll
 0002:0000068c       __imp_?isListening@QTcpServer@@QBE_NXZ 0046e68c     Qt5Network:Qt5Network.dll
 0002:00000690       __imp_?close@QTcpServer@@QAEXXZ 0046e690     Qt5Network:Qt5Network.dll
 0002:00000694       __imp_?listen@QTcpServer@@QAE_NABVQHostAddress@@G@Z 0046e694     Qt5Network:Qt5Network.dll
 0002:00000698       __imp_??1QTcpServer@@UAE@XZ 0046e698     Qt5Network:Qt5Network.dll
 0002:0000069c       __imp_??0QTcpServer@@QAE@PAVQObject@@@Z 0046e69c     Qt5Network:Qt5Network.dll
 0002:000006a0       __imp_??0QHostAddress@@QAE@ABVQString@@@Z 0046e6a0     Qt5Network:Qt5Network.dll
 0002:000006a4       __imp_?writeData@QAbstractSocket@@MAE_JPBD_J@Z 0046e6a4     Qt5Network:Qt5Network.dll
 0002:000006a8       __imp_?waitForReadyRead@QAbstractSocket@@UAE_NH@Z 0046e6a8     Qt5Network:Qt5Network.dll
 0002:000006ac       __imp_?waitForDisconnected@QAbstractSocket@@UAE_NH@Z 0046e6ac     Qt5Network:Qt5Network.dll
 0002:000006b0       __imp_?waitForConnected@QAbstractSocket@@UAE_NH@Z 0046e6b0     Qt5Network:Qt5Network.dll
 0002:000006b4       __imp_?waitForBytesWritten@QAbstractSocket@@UAE_NH@Z 0046e6b4     Qt5Network:Qt5Network.dll
 0002:000006b8       __imp_?socketOption@QAbstractSocket@@UAE?AVQVariant@@W4SocketOption@1@@Z 0046e6b8     Qt5Network:Qt5Network.dll
 0002:000006bc       __imp_?socketDescriptor@QAbstractSocket@@UBEHXZ 0046e6bc     Qt5Network:Qt5Network.dll
 0002:000006c0       __imp_?setSocketDescriptor@QAbstractSocket@@UAE_NHW4SocketState@1@V?$QFlags@W4OpenModeFlag@QIODevice@@@@@Z 0046e6c0     Qt5Network:Qt5Network.dll
 0002:000006c4       __imp_?resume@QAbstractSocket@@UAEXXZ 0046e6c4     Qt5Network:Qt5Network.dll
 0002:000006c8       __imp_?readLineData@QAbstractSocket@@MAE_JPAD_J@Z 0046e6c8     Qt5Network:Qt5Network.dll
 0002:000006cc       __imp_?readData@QAbstractSocket@@MAE_JPAD_J@Z 0046e6cc     Qt5Network:Qt5Network.dll
 0002:000006d0       __imp_?isSequential@QAbstractSocket@@UBE_NXZ 0046e6d0     Qt5Network:Qt5Network.dll
 0002:000006d4       __imp_?disconnectFromHost@QAbstractSocket@@UAEXXZ 0046e6d4     Qt5Network:Qt5Network.dll
 0002:000006d8       __imp_?connectToHost@QAbstractSocket@@UAEXABVQString@@GV?$QFlags@W4OpenModeFlag@QIODevice@@@@W4NetworkLayerProtocol@1@@Z 0046e6d8     Qt5Network:Qt5Network.dll
 0002:000006dc       __imp_?connectToHost@QAbstractSocket@@UAEXABVQHostAddress@@GV?$QFlags@W4OpenModeFlag@QIODevice@@@@@Z 0046e6dc     Qt5Network:Qt5Network.dll
 0002:000006e0       __imp_?close@QAbstractSocket@@UAEXXZ 0046e6e0     Qt5Network:Qt5Network.dll
 0002:000006e4       __imp_?canReadLine@QAbstractSocket@@UBE_NXZ 0046e6e4     Qt5Network:Qt5Network.dll
 0002:000006e8       __imp_?bytesToWrite@QAbstractSocket@@UBE_JXZ 0046e6e8     Qt5Network:Qt5Network.dll
 0002:000006ec       __imp_?bytesAvailable@QAbstractSocket@@UBE_JXZ 0046e6ec     Qt5Network:Qt5Network.dll
 0002:000006f0       __imp_?atEnd@QAbstractSocket@@UBE_NXZ 0046e6f0     Qt5Network:Qt5Network.dll
 0002:000006f4       __imp_?toString@QHostAddress@@QBE?AVQString@@XZ 0046e6f4     Qt5Network:Qt5Network.dll
 0002:000006f8       __imp_??1QHostAddress@@QAE@XZ 0046e6f8     Qt5Network:Qt5Network.dll
 0002:000006fc       __imp_??1QTcpSocket@@UAE@XZ 0046e6fc     Qt5Network:Qt5Network.dll
 0002:00000700       __imp_??0QTcpSocket@@QAE@PAVQObject@@@Z 0046e700     Qt5Network:Qt5Network.dll
 0002:00000704       __imp_?setSocketOption@QAbstractSocket@@UAEXW4SocketOption@1@ABVQVariant@@@Z 0046e704     Qt5Network:Qt5Network.dll
 0002:00000708       __imp_?setReadBufferSize@QAbstractSocket@@UAEX_J@Z 0046e708     Qt5Network:Qt5Network.dll
 0002:0000070c       __imp_?peerAddress@QAbstractSocket@@QBE?AVQHostAddress@@XZ 0046e70c     Qt5Network:Qt5Network.dll
 0002:00000710       \177Qt5Network_NULL_THUNK_DATA 0046e710     Qt5Network:Qt5Network.dll
 0002:00000714       __imp_?data@QSqlTableModel@@UBE?AVQVariant@@ABVQModelIndex@@H@Z 0046e714     Qt5Sql:Qt5Sql.dll
 0002:00000718       __imp_?updateRowInTable@QSqlTableModel@@MAE_NHABVQSqlRecord@@@Z 0046e718     Qt5Sql:Qt5Sql.dll
 0002:0000071c       __imp_?submit@QSqlTableModel@@UAE_NXZ 0046e71c     Qt5Sql:Qt5Sql.dll
 0002:00000720       __imp_?sort@QSqlTableModel@@UAEXHW4SortOrder@Qt@@@Z 0046e720     Qt5Sql:Qt5Sql.dll
 0002:00000724       __imp_?setTable@QSqlTableModel@@UAEXABVQString@@@Z 0046e724     Qt5Sql:Qt5Sql.dll
 0002:00000728       __imp_?setSort@QSqlTableModel@@UAEXHW4SortOrder@Qt@@@Z 0046e728     Qt5Sql:Qt5Sql.dll
 0002:0000072c       __imp_?setHeaderData@QSqlQueryModel@@UAE_NHW4Orientation@Qt@@ABVQVariant@@H@Z 0046e72c     Qt5Sql:Qt5Sql.dll
 0002:00000730       __imp_?setFilter@QSqlTableModel@@UAEXABVQString@@@Z 0046e730     Qt5Sql:Qt5Sql.dll
 0002:00000734       __imp_?setEditStrategy@QSqlTableModel@@UAEXW4EditStrategy@1@@Z 0046e734     Qt5Sql:Qt5Sql.dll
 0002:00000738       __imp_?setData@QSqlTableModel@@UAE_NABVQModelIndex@@ABVQVariant@@H@Z 0046e738     Qt5Sql:Qt5Sql.dll
 0002:0000073c       __imp_?selectStatement@QSqlTableModel@@MBE?AVQString@@XZ 0046e73c     Qt5Sql:Qt5Sql.dll
 0002:00000740       __imp_?selectRow@QSqlTableModel@@UAE_NH@Z 0046e740     Qt5Sql:Qt5Sql.dll
 0002:00000744       __imp_?select@QSqlTableModel@@UAE_NXZ 0046e744     Qt5Sql:Qt5Sql.dll
 0002:00000748       __imp_??1QSqlRecord@@QAE@XZ 0046e748     Qt5Sql:Qt5Sql.dll
 0002:0000074c       __imp_?value@QSqlRecord@@QBE?AVQVariant@@ABVQString@@@Z 0046e74c     Qt5Sql:Qt5Sql.dll
 0002:00000750       __imp_?setValue@QSqlRecord@@QAEXABVQString@@ABVQVariant@@@Z 0046e750     Qt5Sql:Qt5Sql.dll
 0002:00000754       __imp_??0QSqlDatabase@@QAE@ABV0@@Z 0046e754     Qt5Sql:Qt5Sql.dll
 0002:00000758       __imp_??1QSqlDatabase@@QAE@XZ 0046e758     Qt5Sql:Qt5Sql.dll
 0002:0000075c       __imp_?open@QSqlDatabase@@QAE_NXZ 0046e75c     Qt5Sql:Qt5Sql.dll
 0002:00000760       __imp_?close@QSqlDatabase@@QAEXXZ 0046e760     Qt5Sql:Qt5Sql.dll
 0002:00000764       __imp_?transaction@QSqlDatabase@@QAE_NXZ 0046e764     Qt5Sql:Qt5Sql.dll
 0002:00000768       __imp_?commit@QSqlDatabase@@QAE_NXZ 0046e768     Qt5Sql:Qt5Sql.dll
 0002:0000076c       __imp_?rollback@QSqlDatabase@@QAE_NXZ 0046e76c     Qt5Sql:Qt5Sql.dll
 0002:00000770       __imp_?setDatabaseName@QSqlDatabase@@QAEXABVQString@@@Z 0046e770     Qt5Sql:Qt5Sql.dll
 0002:00000774       __imp_?addDatabase@QSqlDatabase@@SA?AV1@ABVQString@@0@Z 0046e774     Qt5Sql:Qt5Sql.dll
 0002:00000778       __imp_??0QSqlTableModel@@QAE@PAVQObject@@VQSqlDatabase@@@Z 0046e778     Qt5Sql:Qt5Sql.dll
 0002:0000077c       __imp_??1QSqlTableModel@@UAE@XZ 0046e77c     Qt5Sql:Qt5Sql.dll
 0002:00000780       __imp_?record@QSqlTableModel@@QBE?AVQSqlRecord@@H@Z 0046e780     Qt5Sql:Qt5Sql.dll
 0002:00000784       __imp_?database@QSqlTableModel@@QBE?AVQSqlDatabase@@XZ 0046e784     Qt5Sql:Qt5Sql.dll
 0002:00000788       __imp_?setRecord@QSqlTableModel@@QAE_NHABVQSqlRecord@@@Z 0046e788     Qt5Sql:Qt5Sql.dll
 0002:0000078c       __imp_?submitAll@QSqlTableModel@@QAE_NXZ 0046e78c     Qt5Sql:Qt5Sql.dll
 0002:00000790       __imp_?canFetchMore@QSqlQueryModel@@UBE_NABVQModelIndex@@@Z 0046e790     Qt5Sql:Qt5Sql.dll
 0002:00000794       __imp_?clear@QSqlTableModel@@UAEXXZ 0046e794     Qt5Sql:Qt5Sql.dll
 0002:00000798       __imp_?columnCount@QSqlQueryModel@@UBEHABVQModelIndex@@@Z 0046e798     Qt5Sql:Qt5Sql.dll
 0002:0000079c       __imp_?rowCount@QSqlTableModel@@UBEHABVQModelIndex@@@Z 0046e79c     Qt5Sql:Qt5Sql.dll
 0002:000007a0       __imp_?deleteRowFromTable@QSqlTableModel@@MAE_NH@Z 0046e7a0     Qt5Sql:Qt5Sql.dll
 0002:000007a4       __imp_?fetchMore@QSqlQueryModel@@UAEXABVQModelIndex@@@Z 0046e7a4     Qt5Sql:Qt5Sql.dll
 0002:000007a8       __imp_?flags@QSqlTableModel@@UBE?AV?$QFlags@W4ItemFlag@Qt@@@@ABVQModelIndex@@@Z 0046e7a8     Qt5Sql:Qt5Sql.dll
 0002:000007ac       __imp_?headerData@QSqlTableModel@@UBE?AVQVariant@@HW4Orientation@Qt@@H@Z 0046e7ac     Qt5Sql:Qt5Sql.dll
 0002:000007b0       __imp_?indexInQuery@QSqlTableModel@@MBE?AVQModelIndex@@ABV2@@Z 0046e7b0     Qt5Sql:Qt5Sql.dll
 0002:000007b4       __imp_?insertColumns@QSqlQueryModel@@UAE_NHHABVQModelIndex@@@Z 0046e7b4     Qt5Sql:Qt5Sql.dll
 0002:000007b8       __imp_?insertRowIntoTable@QSqlTableModel@@MAE_NABVQSqlRecord@@@Z 0046e7b8     Qt5Sql:Qt5Sql.dll
 0002:000007bc       __imp_?insertRows@QSqlTableModel@@UAE_NHHABVQModelIndex@@@Z 0046e7bc     Qt5Sql:Qt5Sql.dll
 0002:000007c0       __imp_?metaObject@QSqlTableModel@@UBEPBUQMetaObject@@XZ 0046e7c0     Qt5Sql:Qt5Sql.dll
 0002:000007c4       __imp_?orderByClause@QSqlTableModel@@MBE?AVQString@@XZ 0046e7c4     Qt5Sql:Qt5Sql.dll
 0002:000007c8       __imp_?qt_metacall@QSqlTableModel@@UAEHW4Call@QMetaObject@@HPAPAX@Z 0046e7c8     Qt5Sql:Qt5Sql.dll
 0002:000007cc       __imp_?qt_metacast@QSqlTableModel@@UAEPAXPBD@Z 0046e7cc     Qt5Sql:Qt5Sql.dll
 0002:000007d0       __imp_?queryChange@QSqlQueryModel@@MAEXXZ 0046e7d0     Qt5Sql:Qt5Sql.dll
 0002:000007d4       __imp_?removeColumns@QSqlTableModel@@UAE_NHHABVQModelIndex@@@Z 0046e7d4     Qt5Sql:Qt5Sql.dll
 0002:000007d8       __imp_?removeRows@QSqlTableModel@@UAE_NHHABVQModelIndex@@@Z 0046e7d8     Qt5Sql:Qt5Sql.dll
 0002:000007dc       __imp_?revert@QSqlTableModel@@UAEXXZ 0046e7dc     Qt5Sql:Qt5Sql.dll
 0002:000007e0       __imp_?revertRow@QSqlTableModel@@UAEXH@Z 0046e7e0     Qt5Sql:Qt5Sql.dll
 0002:000007e4       __imp_?roleNames@QSqlQueryModel@@UBE?AV?$QHash@HVQByteArray@@@@XZ 0046e7e4     Qt5Sql:Qt5Sql.dll
 0002:000007e8       \177Qt5Sql_NULL_THUNK_DATA 0046e7e8     Qt5Sql:Qt5Sql.dll
 0002:000007ec       __imp_??0QWebSocket@@QAE@ABVQString@@W4Version@QWebSocketProtocol@@PAVQObject@@@Z 0046e7ec     Qt5WebSockets:Qt5WebSockets.dll
 0002:000007f0       __imp_??1QWebSocket@@UAE@XZ 0046e7f0     Qt5WebSockets:Qt5WebSockets.dll
 0002:000007f4       __imp_?state@QWebSocket@@QBE?AW4SocketState@QAbstractSocket@@XZ 0046e7f4     Qt5WebSockets:Qt5WebSockets.dll
 0002:000007f8       __imp_?staticMetaObject@QWebSocket@@2UQMetaObject@@B 0046e7f8     Qt5WebSockets:Qt5WebSockets.dll
 0002:000007fc       __imp_?close@QWebSocket@@QAEXW4CloseCode@QWebSocketProtocol@@ABVQString@@@Z 0046e7fc     Qt5WebSockets:Qt5WebSockets.dll
 0002:00000800       __imp_?open@QWebSocket@@QAEXABVQUrl@@@Z 0046e800     Qt5WebSockets:Qt5WebSockets.dll
 0002:00000804       __imp_?connected@QWebSocket@@QAEXXZ 0046e804     Qt5WebSockets:Qt5WebSockets.dll
 0002:00000808       __imp_?disconnected@QWebSocket@@QAEXXZ 0046e808     Qt5WebSockets:Qt5WebSockets.dll
 0002:0000080c       __imp_?stateChanged@QWebSocket@@QAEXW4SocketState@QAbstractSocket@@@Z 0046e80c     Qt5WebSockets:Qt5WebSockets.dll
 0002:00000810       __imp_?textMessageReceived@QWebSocket@@QAEXABVQString@@@Z 0046e810     Qt5WebSockets:Qt5WebSockets.dll
 0002:00000814       __imp_?metaObject@QWebSocket@@UBEPBUQMetaObject@@XZ 0046e814     Qt5WebSockets:Qt5WebSockets.dll
 0002:00000818       __imp_?qt_metacall@QWebSocket@@UAEHW4Call@QMetaObject@@HPAPAX@Z 0046e818     Qt5WebSockets:Qt5WebSockets.dll
 0002:0000081c       __imp_?qt_metacast@QWebSocket@@UAEPAXPBD@Z 0046e81c     Qt5WebSockets:Qt5WebSockets.dll
 0002:00000820       __imp_?sendTextMessage@QWebSocket@@QAE_JABVQString@@@Z 0046e820     Qt5WebSockets:Qt5WebSockets.dll
 0002:00000824       \177Qt5WebSockets_NULL_THUNK_DATA 0046e824     Qt5WebSockets:Qt5WebSockets.dll
 0002:00000828       __imp_?qt_metacall@QButtonGroup@@UAEHW4Call@QMetaObject@@HPAPAX@Z 0046e828     Qt5Widgets:Qt5Widgets.dll
 0002:0000082c       __imp_?qt_metacall@QFrame@@UAEHW4Call@QMetaObject@@HPAPAX@Z 0046e82c     Qt5Widgets:Qt5Widgets.dll
 0002:00000830       __imp_?qt_metacall@QMdiArea@@UAEHW4Call@QMetaObject@@HPAPAX@Z 0046e830     Qt5Widgets:Qt5Widgets.dll
 0002:00000834       __imp_?qt_metacall@QScrollArea@@UAEHW4Call@QMetaObject@@HPAPAX@Z 0046e834     Qt5Widgets:Qt5Widgets.dll
 0002:00000838       __imp_?qt_metacall@QSpinBox@@UAEHW4Call@QMetaObject@@HPAPAX@Z 0046e838     Qt5Widgets:Qt5Widgets.dll
 0002:0000083c       __imp_?qt_metacall@QTabWidget@@UAEHW4Call@QMetaObject@@HPAPAX@Z 0046e83c     Qt5Widgets:Qt5Widgets.dll
 0002:00000840       __imp_?qt_metacast@QButtonGroup@@UAEPAXPBD@Z 0046e840     Qt5Widgets:Qt5Widgets.dll
 0002:00000844       __imp_?qt_metacast@QFrame@@UAEPAXPBD@Z 0046e844     Qt5Widgets:Qt5Widgets.dll
 0002:00000848       __imp_?qt_metacast@QMdiArea@@UAEPAXPBD@Z 0046e848     Qt5Widgets:Qt5Widgets.dll
 0002:0000084c       __imp_?qt_metacast@QScrollArea@@UAEPAXPBD@Z 0046e84c     Qt5Widgets:Qt5Widgets.dll
 0002:00000850       __imp_?qt_metacast@QSpinBox@@UAEPAXPBD@Z 0046e850     Qt5Widgets:Qt5Widgets.dll
 0002:00000854       __imp_?qt_metacast@QTabWidget@@UAEPAXPBD@Z 0046e854     Qt5Widgets:Qt5Widgets.dll
 0002:00000858       __imp_?resizeEvent@QMdiArea@@MAEXPAVQResizeEvent@@@Z 0046e858     Qt5Widgets:Qt5Widgets.dll
 0002:0000085c       __imp_?resizeEvent@QScrollArea@@MAEXPAVQResizeEvent@@@Z 0046e85c     Qt5Widgets:Qt5Widgets.dll
 0002:00000860       __imp_?resizeEvent@QTabWidget@@MAEXPAVQResizeEvent@@@Z 0046e860     Qt5Widgets:Qt5Widgets.dll
 0002:00000864       __imp_?scrollContentsBy@QMdiArea@@MAEXHH@Z 0046e864     Qt5Widgets:Qt5Widgets.dll
 0002:00000868       __imp_?scrollContentsBy@QScrollArea@@MAEXHH@Z 0046e868     Qt5Widgets:Qt5Widgets.dll
 0002:0000086c       __imp_?setupViewport@QMdiArea@@MAEXPAVQWidget@@@Z 0046e86c     Qt5Widgets:Qt5Widgets.dll
 0002:00000870       __imp_?showEvent@QMdiArea@@MAEXPAVQShowEvent@@@Z 0046e870     Qt5Widgets:Qt5Widgets.dll
 0002:00000874       __imp_?showEvent@QTabWidget@@MAEXPAVQShowEvent@@@Z 0046e874     Qt5Widgets:Qt5Widgets.dll
 0002:00000878       __imp_?sizeHint@QFrame@@UBE?AVQSize@@XZ 0046e878     Qt5Widgets:Qt5Widgets.dll
 0002:0000087c       __imp_?sizeHint@QMdiArea@@UBE?AVQSize@@XZ 0046e87c     Qt5Widgets:Qt5Widgets.dll
 0002:00000880       __imp_?sizeHint@QScrollArea@@UBE?AVQSize@@XZ 0046e880     Qt5Widgets:Qt5Widgets.dll
 0002:00000884       __imp_?sizeHint@QTabWidget@@UBE?AVQSize@@XZ 0046e884     Qt5Widgets:Qt5Widgets.dll
 0002:00000888       __imp_?tabInserted@QTabWidget@@MAEXH@Z 0046e888     Qt5Widgets:Qt5Widgets.dll
 0002:0000088c       __imp_?tabRemoved@QTabWidget@@MAEXH@Z 0046e88c     Qt5Widgets:Qt5Widgets.dll
 0002:00000890       __imp_?textFromValue@QSpinBox@@MBE?AVQString@@H@Z 0046e890     Qt5Widgets:Qt5Widgets.dll
 0002:00000894       __imp_?timerEvent@QMdiArea@@MAEXPAVQTimerEvent@@@Z 0046e894     Qt5Widgets:Qt5Widgets.dll
 0002:00000898       __imp_?validate@QSpinBox@@MBE?AW4State@QValidator@@AAVQString@@AAH@Z 0046e898     Qt5Widgets:Qt5Widgets.dll
 0002:0000089c       __imp_?valueFromText@QSpinBox@@MBEHABVQString@@@Z 0046e89c     Qt5Widgets:Qt5Widgets.dll
 0002:000008a0       __imp_?viewportEvent@QAbstractScrollArea@@MAE_NPAVQEvent@@@Z 0046e8a0     Qt5Widgets:Qt5Widgets.dll
 0002:000008a4       __imp_?viewportEvent@QMdiArea@@MAE_NPAVQEvent@@@Z 0046e8a4     Qt5Widgets:Qt5Widgets.dll
 0002:000008a8       __imp_?viewportSizeHint@QAbstractScrollArea@@MBE?AVQSize@@XZ 0046e8a8     Qt5Widgets:Qt5Widgets.dll
 0002:000008ac       __imp_?viewportSizeHint@QScrollArea@@MBE?AVQSize@@XZ 0046e8ac     Qt5Widgets:Qt5Widgets.dll
 0002:000008b0       __imp_?setMinimumSize@QWidget@@QAEXABVQSize@@@Z 0046e8b0     Qt5Widgets:Qt5Widgets.dll
 0002:000008b4       __imp_?setMaximumSize@QWidget@@QAEXABVQSize@@@Z 0046e8b4     Qt5Widgets:Qt5Widgets.dll
 0002:000008b8       __imp_?setStyleSheet@QWidget@@QAEXABVQString@@@Z 0046e8b8     Qt5Widgets:Qt5Widgets.dll
 0002:000008bc       __imp_?setWindowIcon@QWidget@@QAEXABVQIcon@@@Z 0046e8bc     Qt5Widgets:Qt5Widgets.dll
 0002:000008c0       __imp_?setStatusTip@QWidget@@QAEXABVQString@@@Z 0046e8c0     Qt5Widgets:Qt5Widgets.dll
 0002:000008c4       __imp_?setWindowFlags@QWidget@@QAEXV?$QFlags@W4WindowType@Qt@@@@@Z 0046e8c4     Qt5Widgets:Qt5Widgets.dll
 0002:000008c8       __imp_?setIcon@QAction@@QAEXABVQIcon@@@Z 0046e8c8     Qt5Widgets:Qt5Widgets.dll
 0002:000008cc       __imp_?setToolTip@QAction@@QAEXABVQString@@@Z 0046e8cc     Qt5Widgets:Qt5Widgets.dll
 0002:000008d0       __imp_?setCheckable@QAction@@QAEX_N@Z 0046e8d0     Qt5Widgets:Qt5Widgets.dll
 0002:000008d4       __imp_??0QTextEdit@@QAE@PAVQWidget@@@Z 0046e8d4     Qt5Widgets:Qt5Widgets.dll
 0002:000008d8       __imp_??1QTextEdit@@UAE@XZ 0046e8d8     Qt5Widgets:Qt5Widgets.dll
 0002:000008dc       __imp_?document@QTextEdit@@QBEPAVQTextDocument@@XZ 0046e8dc     Qt5Widgets:Qt5Widgets.dll
 0002:000008e0       __imp_?moveCursor@QTextEdit@@QAEXW4MoveOperation@QTextCursor@@W4MoveMode@3@@Z 0046e8e0     Qt5Widgets:Qt5Widgets.dll
 0002:000008e4       __imp_?clear@QTextEdit@@QAEXXZ 0046e8e4     Qt5Widgets:Qt5Widgets.dll
 0002:000008e8       __imp_?append@QTextEdit@@QAEXABVQString@@@Z 0046e8e8     Qt5Widgets:Qt5Widgets.dll
 0002:000008ec       __imp_??0QErrorMessage@@QAE@PAVQWidget@@@Z 0046e8ec     Qt5Widgets:Qt5Widgets.dll
 0002:000008f0       __imp_??1QErrorMessage@@UAE@XZ 0046e8f0     Qt5Widgets:Qt5Widgets.dll
 0002:000008f4       __imp_?showMessage@QErrorMessage@@QAEXABVQString@@@Z 0046e8f4     Qt5Widgets:Qt5Widgets.dll
 0002:000008f8       __imp_??0QMainWindow@@QAE@PAVQWidget@@V?$QFlags@W4WindowType@Qt@@@@@Z 0046e8f8     Qt5Widgets:Qt5Widgets.dll
 0002:000008fc       __imp_??1QMainWindow@@UAE@XZ 0046e8fc     Qt5Widgets:Qt5Widgets.dll
 0002:00000900       __imp_?setDocumentMode@QMainWindow@@QAEX_N@Z 0046e900     Qt5Widgets:Qt5Widgets.dll
 0002:00000904       __imp_?setStatusBar@QMainWindow@@QAEXPAVQStatusBar@@@Z 0046e904     Qt5Widgets:Qt5Widgets.dll
 0002:00000908       __imp_?setCentralWidget@QMainWindow@@QAEXPAVQWidget@@@Z 0046e908     Qt5Widgets:Qt5Widgets.dll
 0002:0000090c       __imp_?takeCentralWidget@QMainWindow@@QAEPAVQWidget@@XZ 0046e90c     Qt5Widgets:Qt5Widgets.dll
 0002:00000910       __imp_?addToolBar@QMainWindow@@QAEXW4ToolBarArea@Qt@@PAVQToolBar@@@Z 0046e910     Qt5Widgets:Qt5Widgets.dll
 0002:00000914       __imp_?addDockWidget@QMainWindow@@QAEXW4DockWidgetArea@Qt@@PAVQDockWidget@@@Z 0046e914     Qt5Widgets:Qt5Widgets.dll
 0002:00000918       __imp_?splitDockWidget@QMainWindow@@QAEXPAVQDockWidget@@0W4Orientation@Qt@@@Z 0046e918     Qt5Widgets:Qt5Widgets.dll
 0002:0000091c       __imp_?tabifyDockWidget@QMainWindow@@QAEXPAVQDockWidget@@0@Z 0046e91c     Qt5Widgets:Qt5Widgets.dll
 0002:00000920       __imp_?setDockNestingEnabled@QMainWindow@@QAEX_N@Z 0046e920     Qt5Widgets:Qt5Widgets.dll
 0002:00000924       __imp_??0QTextBrowser@@QAE@PAVQWidget@@@Z 0046e924     Qt5Widgets:Qt5Widgets.dll
 0002:00000928       __imp_??1QTextBrowser@@UAE@XZ 0046e928     Qt5Widgets:Qt5Widgets.dll
 0002:0000092c       __imp_?setMargin@QLayout@@QAEXH@Z 0046e92c     Qt5Widgets:Qt5Widgets.dll
 0002:00000930       __imp_??0QDockWidget@@QAE@PAVQWidget@@V?$QFlags@W4WindowType@Qt@@@@@Z 0046e930     Qt5Widgets:Qt5Widgets.dll
 0002:00000934       __imp_??1QDockWidget@@UAE@XZ 0046e934     Qt5Widgets:Qt5Widgets.dll
 0002:00000938       __imp_?setWidget@QDockWidget@@QAEXPAVQWidget@@@Z 0046e938     Qt5Widgets:Qt5Widgets.dll
 0002:0000093c       __imp_?setFeatures@QDockWidget@@QAEXV?$QFlags@W4DockWidgetFeature@QDockWidget@@@@@Z 0046e93c     Qt5Widgets:Qt5Widgets.dll
 0002:00000940       __imp_?setAllowedAreas@QDockWidget@@QAEXV?$QFlags@W4DockWidgetArea@Qt@@@@@Z 0046e940     Qt5Widgets:Qt5Widgets.dll
 0002:00000944       __imp_?setTitleBarWidget@QDockWidget@@QAEXPAVQWidget@@@Z 0046e944     Qt5Widgets:Qt5Widgets.dll
 0002:00000948       __imp_??0QStatusBar@@QAE@PAVQWidget@@@Z 0046e948     Qt5Widgets:Qt5Widgets.dll
 0002:0000094c       __imp_??1QStatusBar@@UAE@XZ 0046e94c     Qt5Widgets:Qt5Widgets.dll
 0002:00000950       __imp_?showMessage@QStatusBar@@QAEXABVQString@@H@Z 0046e950     Qt5Widgets:Qt5Widgets.dll
 0002:00000954       __imp_??0QTreeView@@QAE@PAVQWidget@@@Z 0046e954     Qt5Widgets:Qt5Widgets.dll
 0002:00000958       __imp_??1QTreeView@@UAE@XZ 0046e958     Qt5Widgets:Qt5Widgets.dll
 0002:0000095c       __imp_?backward@QTextBrowser@@UAEXXZ 0046e95c     Qt5Widgets:Qt5Widgets.dll
 0002:00000960       __imp_?canInsertFromMimeData@QTextEdit@@MBE_NPBVQMimeData@@@Z 0046e960     Qt5Widgets:Qt5Widgets.dll
 0002:00000964       __imp_?changeEvent@QDockWidget@@MAEXPAVQEvent@@@Z 0046e964     Qt5Widgets:Qt5Widgets.dll
 0002:00000968       __imp_?changeEvent@QTextEdit@@MAEXPAVQEvent@@@Z 0046e968     Qt5Widgets:Qt5Widgets.dll
 0002:0000096c       __imp_?closeEvent@QDockWidget@@MAEXPAVQCloseEvent@@@Z 0046e96c     Qt5Widgets:Qt5Widgets.dll
 0002:00000970       __imp_?contextMenuEvent@QMainWindow@@MAEXPAVQContextMenuEvent@@@Z 0046e970     Qt5Widgets:Qt5Widgets.dll
 0002:00000974       __imp_?contextMenuEvent@QTextEdit@@MAEXPAVQContextMenuEvent@@@Z 0046e974     Qt5Widgets:Qt5Widgets.dll
 0002:00000978       __imp_??0QComboBox@@QAE@PAVQWidget@@@Z 0046e978     Qt5Widgets:Qt5Widgets.dll
 0002:0000097c       __imp_?createPopupMenu@QMainWindow@@UAEPAVQMenu@@XZ 0046e97c     Qt5Widgets:Qt5Widgets.dll
 0002:00000980       __imp_?currentChanged@QTreeView@@MAEXABVQModelIndex@@0@Z 0046e980     Qt5Widgets:Qt5Widgets.dll
 0002:00000984       __imp_?dataChanged@QTreeView@@UAEXABVQModelIndex@@0ABV?$QVector@H@@@Z 0046e984     Qt5Widgets:Qt5Widgets.dll
 0002:00000988       __imp_?doItemsLayout@QTreeView@@UAEXXZ 0046e988     Qt5Widgets:Qt5Widgets.dll
 0002:0000098c       __imp_?doSetTextCursor@QTextEdit@@MAEXABVQTextCursor@@@Z 0046e98c     Qt5Widgets:Qt5Widgets.dll
 0002:00000990       __imp_?dragEnterEvent@QTextEdit@@MAEXPAVQDragEnterEvent@@@Z 0046e990     Qt5Widgets:Qt5Widgets.dll
 0002:00000994       __imp_?dragLeaveEvent@QTextEdit@@MAEXPAVQDragLeaveEvent@@@Z 0046e994     Qt5Widgets:Qt5Widgets.dll
 0002:00000998       __imp_?dragMoveEvent@QTextEdit@@MAEXPAVQDragMoveEvent@@@Z 0046e998     Qt5Widgets:Qt5Widgets.dll
 0002:0000099c       __imp_?dragMoveEvent@QTreeView@@MAEXPAVQDragMoveEvent@@@Z 0046e99c     Qt5Widgets:Qt5Widgets.dll
 0002:000009a0       __imp_?drawBranches@QTreeView@@MBEXPAVQPainter@@ABVQRect@@ABVQModelIndex@@@Z 0046e9a0     Qt5Widgets:Qt5Widgets.dll
 0002:000009a4       __imp_?drawRow@QTreeView@@MBEXPAVQPainter@@ABVQStyleOptionViewItem@@ABVQModelIndex@@@Z 0046e9a4     Qt5Widgets:Qt5Widgets.dll
 0002:000009a8       __imp_?dropEvent@QAbstractItemView@@MAEXPAVQDropEvent@@@Z 0046e9a8     Qt5Widgets:Qt5Widgets.dll
 0002:000009ac       __imp_?dropEvent@QTextEdit@@MAEXPAVQDropEvent@@@Z 0046e9ac     Qt5Widgets:Qt5Widgets.dll
 0002:000009b0       __imp_?event@QAbstractItemView@@MAE_NPAVQEvent@@@Z 0046e9b0     Qt5Widgets:Qt5Widgets.dll
 0002:000009b4       __imp_?event@QDockWidget@@MAE_NPAVQEvent@@@Z 0046e9b4     Qt5Widgets:Qt5Widgets.dll
 0002:000009b8       __imp_?event@QMainWindow@@MAE_NPAVQEvent@@@Z 0046e9b8     Qt5Widgets:Qt5Widgets.dll
 0002:000009bc       __imp_?event@QStatusBar@@MAE_NPAVQEvent@@@Z 0046e9bc     Qt5Widgets:Qt5Widgets.dll
 0002:000009c0       __imp_?event@QTextBrowser@@MAE_NPAVQEvent@@@Z 0046e9c0     Qt5Widgets:Qt5Widgets.dll
 0002:000009c4       __imp_?event@QTextEdit@@MAE_NPAVQEvent@@@Z 0046e9c4     Qt5Widgets:Qt5Widgets.dll
 0002:000009c8       __imp_?eventFilter@QAbstractScrollArea@@MAE_NPAVQObject@@PAVQEvent@@@Z 0046e9c8     Qt5Widgets:Qt5Widgets.dll
 0002:000009cc       __imp_?focusInEvent@QTextEdit@@MAEXPAVQFocusEvent@@@Z 0046e9cc     Qt5Widgets:Qt5Widgets.dll
 0002:000009d0       __imp_?focusNextPrevChild@QTextBrowser@@MAE_N_N@Z 0046e9d0     Qt5Widgets:Qt5Widgets.dll
 0002:000009d4       __imp_?focusNextPrevChild@QTextEdit@@MAE_N_N@Z 0046e9d4     Qt5Widgets:Qt5Widgets.dll
 0002:000009d8       __imp_?focusOutEvent@QTextBrowser@@MAEXPAVQFocusEvent@@@Z 0046e9d8     Qt5Widgets:Qt5Widgets.dll
 0002:000009dc       __imp_?focusOutEvent@QTextEdit@@MAEXPAVQFocusEvent@@@Z 0046e9dc     Qt5Widgets:Qt5Widgets.dll
 0002:000009e0       __imp_?forward@QTextBrowser@@UAEXXZ 0046e9e0     Qt5Widgets:Qt5Widgets.dll
 0002:000009e4       __imp_?home@QTextBrowser@@UAEXXZ 0046e9e4     Qt5Widgets:Qt5Widgets.dll
 0002:000009e8       __imp_?horizontalOffset@QTreeView@@MBEHXZ 0046e9e8     Qt5Widgets:Qt5Widgets.dll
 0002:000009ec       __imp_?horizontalScrollbarAction@QTreeView@@MAEXH@Z 0046e9ec     Qt5Widgets:Qt5Widgets.dll
 0002:000009f0       __imp_?indexAt@QTreeView@@UBE?AVQModelIndex@@ABVQPoint@@@Z 0046e9f0     Qt5Widgets:Qt5Widgets.dll
 0002:000009f4       __imp_?inputMethodEvent@QTextEdit@@MAEXPAVQInputMethodEvent@@@Z 0046e9f4     Qt5Widgets:Qt5Widgets.dll
 0002:000009f8       __imp_?inputMethodQuery@QTextEdit@@UBE?AVQVariant@@W4InputMethodQuery@Qt@@@Z 0046e9f8     Qt5Widgets:Qt5Widgets.dll
 0002:000009fc       __imp_?insertFromMimeData@QTextEdit@@MAEXPBVQMimeData@@@Z 0046e9fc     Qt5Widgets:Qt5Widgets.dll
 0002:00000a00       __imp_?isIndexHidden@QTreeView@@MBE_NABVQModelIndex@@@Z 0046ea00     Qt5Widgets:Qt5Widgets.dll
 0002:00000a04       __imp_?keyPressEvent@QTextBrowser@@MAEXPAVQKeyEvent@@@Z 0046ea04     Qt5Widgets:Qt5Widgets.dll
 0002:00000a08       __imp_?keyPressEvent@QTextEdit@@MAEXPAVQKeyEvent@@@Z 0046ea08     Qt5Widgets:Qt5Widgets.dll
 0002:00000a0c       __imp_?keyPressEvent@QTreeView@@MAEXPAVQKeyEvent@@@Z 0046ea0c     Qt5Widgets:Qt5Widgets.dll
 0002:00000a10       __imp_?keyReleaseEvent@QTextEdit@@MAEXPAVQKeyEvent@@@Z 0046ea10     Qt5Widgets:Qt5Widgets.dll
 0002:00000a14       __imp_?keyboardSearch@QTreeView@@UAEXABVQString@@@Z 0046ea14     Qt5Widgets:Qt5Widgets.dll
 0002:00000a18       __imp_?loadResource@QTextBrowser@@UAE?AVQVariant@@HABVQUrl@@@Z 0046ea18     Qt5Widgets:Qt5Widgets.dll
 0002:00000a1c       __imp_?loadResource@QTextEdit@@UAE?AVQVariant@@HABVQUrl@@@Z 0046ea1c     Qt5Widgets:Qt5Widgets.dll
 0002:00000a20       __imp_?metaObject@QDockWidget@@UBEPBUQMetaObject@@XZ 0046ea20     Qt5Widgets:Qt5Widgets.dll
 0002:00000a24       __imp_?metaObject@QStatusBar@@UBEPBUQMetaObject@@XZ 0046ea24     Qt5Widgets:Qt5Widgets.dll
 0002:00000a28       __imp_?metaObject@QTextBrowser@@UBEPBUQMetaObject@@XZ 0046ea28     Qt5Widgets:Qt5Widgets.dll
 0002:00000a2c       __imp_?metaObject@QTextEdit@@UBEPBUQMetaObject@@XZ 0046ea2c     Qt5Widgets:Qt5Widgets.dll
 0002:00000a30       __imp_?metaObject@QTreeView@@UBEPBUQMetaObject@@XZ 0046ea30     Qt5Widgets:Qt5Widgets.dll
 0002:00000a34       __imp_?mouseDoubleClickEvent@QTextEdit@@MAEXPAVQMouseEvent@@@Z 0046ea34     Qt5Widgets:Qt5Widgets.dll
 0002:00000a38       __imp_?mouseDoubleClickEvent@QTreeView@@MAEXPAVQMouseEvent@@@Z 0046ea38     Qt5Widgets:Qt5Widgets.dll
 0002:00000a3c       __imp_?mouseMoveEvent@QTextBrowser@@MAEXPAVQMouseEvent@@@Z 0046ea3c     Qt5Widgets:Qt5Widgets.dll
 0002:00000a40       __imp_?mouseMoveEvent@QTextEdit@@MAEXPAVQMouseEvent@@@Z 0046ea40     Qt5Widgets:Qt5Widgets.dll
 0002:00000a44       __imp_?mouseMoveEvent@QTreeView@@MAEXPAVQMouseEvent@@@Z 0046ea44     Qt5Widgets:Qt5Widgets.dll
 0002:00000a48       __imp_?mousePressEvent@QTextBrowser@@MAEXPAVQMouseEvent@@@Z 0046ea48     Qt5Widgets:Qt5Widgets.dll
 0002:00000a4c       __imp_?mousePressEvent@QTextEdit@@MAEXPAVQMouseEvent@@@Z 0046ea4c     Qt5Widgets:Qt5Widgets.dll
 0002:00000a50       __imp_?mousePressEvent@QTreeView@@MAEXPAVQMouseEvent@@@Z 0046ea50     Qt5Widgets:Qt5Widgets.dll
 0002:00000a54       __imp_?mouseReleaseEvent@QTextBrowser@@MAEXPAVQMouseEvent@@@Z 0046ea54     Qt5Widgets:Qt5Widgets.dll
 0002:00000a58       __imp_?mouseReleaseEvent@QTextEdit@@MAEXPAVQMouseEvent@@@Z 0046ea58     Qt5Widgets:Qt5Widgets.dll
 0002:00000a5c       __imp_?mouseReleaseEvent@QTreeView@@MAEXPAVQMouseEvent@@@Z 0046ea5c     Qt5Widgets:Qt5Widgets.dll
 0002:00000a60       __imp_?moveCursor@QTreeView@@MAE?AVQModelIndex@@W4CursorAction@QAbstractItemView@@V?$QFlags@W4KeyboardModifier@Qt@@@@@Z 0046ea60     Qt5Widgets:Qt5Widgets.dll
 0002:00000a64       __imp_?paintEvent@QDockWidget@@MAEXPAVQPaintEvent@@@Z 0046ea64     Qt5Widgets:Qt5Widgets.dll
 0002:00000a68       __imp_?paintEvent@QStatusBar@@MAEXPAVQPaintEvent@@@Z 0046ea68     Qt5Widgets:Qt5Widgets.dll
 0002:00000a6c       __imp_?paintEvent@QTextBrowser@@MAEXPAVQPaintEvent@@@Z 0046ea6c     Qt5Widgets:Qt5Widgets.dll
 0002:00000a70       __imp_?paintEvent@QTextEdit@@MAEXPAVQPaintEvent@@@Z 0046ea70     Qt5Widgets:Qt5Widgets.dll
 0002:00000a74       __imp_?paintEvent@QTreeView@@MAEXPAVQPaintEvent@@@Z 0046ea74     Qt5Widgets:Qt5Widgets.dll
 0002:00000a78       __imp_?qt_metacall@QDockWidget@@UAEHW4Call@QMetaObject@@HPAPAX@Z 0046ea78     Qt5Widgets:Qt5Widgets.dll
 0002:00000a7c       __imp_?qt_metacall@QStatusBar@@UAEHW4Call@QMetaObject@@HPAPAX@Z 0046ea7c     Qt5Widgets:Qt5Widgets.dll
 0002:00000a80       __imp_?qt_metacall@QTextBrowser@@UAEHW4Call@QMetaObject@@HPAPAX@Z 0046ea80     Qt5Widgets:Qt5Widgets.dll
 0002:00000a84       __imp_?qt_metacall@QTextEdit@@UAEHW4Call@QMetaObject@@HPAPAX@Z 0046ea84     Qt5Widgets:Qt5Widgets.dll
 0002:00000a88       __imp_?qt_metacall@QTreeView@@UAEHW4Call@QMetaObject@@HPAPAX@Z 0046ea88     Qt5Widgets:Qt5Widgets.dll
 0002:00000a8c       __imp_?qt_metacast@QDockWidget@@UAEPAXPBD@Z 0046ea8c     Qt5Widgets:Qt5Widgets.dll
 0002:00000a90       __imp_?qt_metacast@QStatusBar@@UAEPAXPBD@Z 0046ea90     Qt5Widgets:Qt5Widgets.dll
 0002:00000a94       __imp_?qt_metacast@QTextBrowser@@UAEPAXPBD@Z 0046ea94     Qt5Widgets:Qt5Widgets.dll
 0002:00000a98       __imp_?qt_metacast@QTextEdit@@UAEPAXPBD@Z 0046ea98     Qt5Widgets:Qt5Widgets.dll
 0002:00000a9c       __imp_?qt_metacast@QTreeView@@UAEPAXPBD@Z 0046ea9c     Qt5Widgets:Qt5Widgets.dll
 0002:00000aa0       __imp_?reload@QTextBrowser@@UAEXXZ 0046eaa0     Qt5Widgets:Qt5Widgets.dll
 0002:00000aa4       __imp_?reset@QTreeView@@UAEXXZ 0046eaa4     Qt5Widgets:Qt5Widgets.dll
 0002:00000aa8       __imp_?resizeEvent@QStatusBar@@MAEXPAVQResizeEvent@@@Z 0046eaa8     Qt5Widgets:Qt5Widgets.dll
 0002:00000aac       __imp_?resizeEvent@QTextEdit@@MAEXPAVQResizeEvent@@@Z 0046eaac     Qt5Widgets:Qt5Widgets.dll
 0002:00000ab0       __imp_?rowsAboutToBeRemoved@QTreeView@@MAEXABVQModelIndex@@HH@Z 0046eab0     Qt5Widgets:Qt5Widgets.dll
 0002:00000ab4       __imp_?rowsInserted@QTreeView@@MAEXABVQModelIndex@@HH@Z 0046eab4     Qt5Widgets:Qt5Widgets.dll
 0002:00000ab8       __imp_?scrollContentsBy@QTextEdit@@MAEXHH@Z 0046eab8     Qt5Widgets:Qt5Widgets.dll
 0002:00000abc       __imp_?scrollContentsBy@QTreeView@@MAEXHH@Z 0046eabc     Qt5Widgets:Qt5Widgets.dll
 0002:00000ac0       __imp_?scrollTo@QTreeView@@UAEXABVQModelIndex@@W4ScrollHint@QAbstractItemView@@@Z 0046eac0     Qt5Widgets:Qt5Widgets.dll
 0002:00000ac4       __imp_?selectAll@QTreeView@@UAEXXZ 0046eac4     Qt5Widgets:Qt5Widgets.dll
 0002:00000ac8       __imp_?selectedIndexes@QTreeView@@MBE?AV?$QList@VQModelIndex@@@@XZ 0046eac8     Qt5Widgets:Qt5Widgets.dll
 0002:00000acc       __imp_?selectionChanged@QTreeView@@MAEXABVQItemSelection@@0@Z 0046eacc     Qt5Widgets:Qt5Widgets.dll
 0002:00000ad0       __imp_?setModel@QTreeView@@UAEXPAVQAbstractItemModel@@@Z 0046ead0     Qt5Widgets:Qt5Widgets.dll
 0002:00000ad4       __imp_?setRootIndex@QTreeView@@UAEXABVQModelIndex@@@Z 0046ead4     Qt5Widgets:Qt5Widgets.dll
 0002:00000ad8       __imp_?setSelection@QTreeView@@MAEXABVQRect@@V?$QFlags@W4SelectionFlag@QItemSelectionModel@@@@@Z 0046ead8     Qt5Widgets:Qt5Widgets.dll
 0002:00000adc       __imp_?setSelectionModel@QTreeView@@UAEXPAVQItemSelectionModel@@@Z 0046eadc     Qt5Widgets:Qt5Widgets.dll
 0002:00000ae0       __imp_?setSource@QTextBrowser@@UAEXABVQUrl@@@Z 0046eae0     Qt5Widgets:Qt5Widgets.dll
 0002:00000ae4       __imp_?showEvent@QStatusBar@@MAEXPAVQShowEvent@@@Z 0046eae4     Qt5Widgets:Qt5Widgets.dll
 0002:00000ae8       __imp_?showEvent@QTextEdit@@MAEXPAVQShowEvent@@@Z 0046eae8     Qt5Widgets:Qt5Widgets.dll
 0002:00000aec       __imp_?sizeHintForColumn@QTreeView@@MBEHH@Z 0046eaec     Qt5Widgets:Qt5Widgets.dll
 0002:00000af0       __imp_?sizeHintForRow@QAbstractItemView@@UBEHH@Z 0046eaf0     Qt5Widgets:Qt5Widgets.dll
 0002:00000af4       __imp_?timerEvent@QTextEdit@@MAEXPAVQTimerEvent@@@Z 0046eaf4     Qt5Widgets:Qt5Widgets.dll
 0002:00000af8       __imp_?timerEvent@QTreeView@@MAEXPAVQTimerEvent@@@Z 0046eaf8     Qt5Widgets:Qt5Widgets.dll
 0002:00000afc       __imp_?updateGeometries@QTreeView@@MAEXXZ 0046eafc     Qt5Widgets:Qt5Widgets.dll
 0002:00000b00       __imp_?verticalOffset@QTreeView@@MBEHXZ 0046eb00     Qt5Widgets:Qt5Widgets.dll
 0002:00000b04       __imp_?verticalScrollbarAction@QAbstractItemView@@MAEXH@Z 0046eb04     Qt5Widgets:Qt5Widgets.dll
 0002:00000b08       __imp_?verticalScrollbarValueChanged@QTreeView@@MAEXH@Z 0046eb08     Qt5Widgets:Qt5Widgets.dll
 0002:00000b0c       __imp_?viewOptions@QAbstractItemView@@MBE?AVQStyleOptionViewItem@@XZ 0046eb0c     Qt5Widgets:Qt5Widgets.dll
 0002:00000b10       __imp_?viewportEvent@QTreeView@@MAE_NPAVQEvent@@@Z 0046eb10     Qt5Widgets:Qt5Widgets.dll
 0002:00000b14       __imp_?viewportSizeHint@QTreeView@@MBE?AVQSize@@XZ 0046eb14     Qt5Widgets:Qt5Widgets.dll
 0002:00000b18       __imp_?visualRect@QTreeView@@UBE?AVQRect@@ABVQModelIndex@@@Z 0046eb18     Qt5Widgets:Qt5Widgets.dll
 0002:00000b1c       __imp_?visualRegionForSelection@QTreeView@@MBE?AVQRegion@@ABVQItemSelection@@@Z 0046eb1c     Qt5Widgets:Qt5Widgets.dll
 0002:00000b20       __imp_?wheelEvent@QTextEdit@@MAEXPAVQWheelEvent@@@Z 0046eb20     Qt5Widgets:Qt5Widgets.dll
 0002:00000b24       __imp_?setBaseSize@QWidget@@QAEXABVQSize@@@Z 0046eb24     Qt5Widgets:Qt5Widgets.dll
 0002:00000b28       __imp_?setShortcut@QAction@@QAEXABVQKeySequence@@@Z 0046eb28     Qt5Widgets:Qt5Widgets.dll
 0002:00000b2c       __imp_?setMinimum@QDoubleSpinBox@@QAEXN@Z 0046eb2c     Qt5Widgets:Qt5Widgets.dll
 0002:00000b30       __imp_?clicked@QAbstractButton@@QAEX_N@Z 0046eb30     Qt5Widgets:Qt5Widgets.dll
 0002:00000b34       __imp_?currentIndex@QComboBox@@QBEHXZ 0046eb34     Qt5Widgets:Qt5Widgets.dll
 0002:00000b38       __imp_?setCurrentIndex@QComboBox@@QAEXH@Z 0046eb38     Qt5Widgets:Qt5Widgets.dll
 0002:00000b3c       __imp_??0QGroupBox@@QAE@PAVQWidget@@@Z 0046eb3c     Qt5Widgets:Qt5Widgets.dll
 0002:00000b40       __imp_??1QGroupBox@@UAE@XZ 0046eb40     Qt5Widgets:Qt5Widgets.dll
 0002:00000b44       __imp_?setTitle@QGroupBox@@QAEXABVQString@@@Z 0046eb44     Qt5Widgets:Qt5Widgets.dll
 0002:00000b48       __imp_?setAlignment@QLabel@@QAEXV?$QFlags@W4AlignmentFlag@Qt@@@@@Z 0046eb48     Qt5Widgets:Qt5Widgets.dll
 0002:00000b4c       __imp_?setValidator@QLineEdit@@QAEXPBVQValidator@@@Z 0046eb4c     Qt5Widgets:Qt5Widgets.dll
 0002:00000b50       __imp_?setInputMask@QLineEdit@@QAEXABVQString@@@Z 0046eb50     Qt5Widgets:Qt5Widgets.dll
 0002:00000b54       __imp_?warning@QMessageBox@@SA?AW4StandardButton@1@PAVQWidget@@ABVQString@@1V?$QFlags@W4StandardButton@QMessageBox@@@@W421@@Z 0046eb54     Qt5Widgets:Qt5Widgets.dll
 0002:00000b58       __imp_?changeEvent@QGroupBox@@MAEXPAVQEvent@@@Z 0046eb58     Qt5Widgets:Qt5Widgets.dll
 0002:00000b5c       __imp_?childEvent@QGroupBox@@MAEXPAVQChildEvent@@@Z 0046eb5c     Qt5Widgets:Qt5Widgets.dll
 0002:00000b60       __imp_?event@QGroupBox@@MAE_NPAVQEvent@@@Z 0046eb60     Qt5Widgets:Qt5Widgets.dll
 0002:00000b64       __imp_?focusInEvent@QGroupBox@@MAEXPAVQFocusEvent@@@Z 0046eb64     Qt5Widgets:Qt5Widgets.dll
 0002:00000b68       __imp_?metaObject@QGroupBox@@UBEPBUQMetaObject@@XZ 0046eb68     Qt5Widgets:Qt5Widgets.dll
 0002:00000b6c       __imp_?minimumSizeHint@QGroupBox@@UBE?AVQSize@@XZ 0046eb6c     Qt5Widgets:Qt5Widgets.dll
 0002:00000b70       __imp_?mouseMoveEvent@QGroupBox@@MAEXPAVQMouseEvent@@@Z 0046eb70     Qt5Widgets:Qt5Widgets.dll
 0002:00000b74       __imp_?mousePressEvent@QGroupBox@@MAEXPAVQMouseEvent@@@Z 0046eb74     Qt5Widgets:Qt5Widgets.dll
 0002:00000b78       __imp_?mouseReleaseEvent@QGroupBox@@MAEXPAVQMouseEvent@@@Z 0046eb78     Qt5Widgets:Qt5Widgets.dll
 0002:00000b7c       __imp_?paintEvent@QGroupBox@@MAEXPAVQPaintEvent@@@Z 0046eb7c     Qt5Widgets:Qt5Widgets.dll
 0002:00000b80       __imp_?qt_metacall@QGroupBox@@UAEHW4Call@QMetaObject@@HPAPAX@Z 0046eb80     Qt5Widgets:Qt5Widgets.dll
 0002:00000b84       __imp_?qt_metacast@QGroupBox@@UAEPAXPBD@Z 0046eb84     Qt5Widgets:Qt5Widgets.dll
 0002:00000b88       __imp_?resizeEvent@QGroupBox@@MAEXPAVQResizeEvent@@@Z 0046eb88     Qt5Widgets:Qt5Widgets.dll
 0002:00000b8c       __imp_?staticMetaObject@QWidget@@2UQMetaObject@@B 0046eb8c     Qt5Widgets:Qt5Widgets.dll
 0002:00000b90       __imp_?staticMetaObject@QDialog@@2UQMetaObject@@B 0046eb90     Qt5Widgets:Qt5Widgets.dll
 0002:00000b94       __imp_?qt_metacast@QDialog@@UAEPAXPBD@Z 0046eb94     Qt5Widgets:Qt5Widgets.dll
 0002:00000b98       __imp_?qt_metacall@QDialog@@UAEHW4Call@QMetaObject@@HPAPAX@Z 0046eb98     Qt5Widgets:Qt5Widgets.dll
 0002:00000b9c       __imp_?staticMetaObject@QMainWindow@@2UQMetaObject@@B 0046eb9c     Qt5Widgets:Qt5Widgets.dll
 0002:00000ba0       __imp_?qt_metacast@QMainWindow@@UAEPAXPBD@Z 0046eba0     Qt5Widgets:Qt5Widgets.dll
 0002:00000ba4       __imp_?qt_metacall@QMainWindow@@UAEHW4Call@QMetaObject@@HPAPAX@Z 0046eba4     Qt5Widgets:Qt5Widgets.dll
 0002:00000ba8       __imp_??1QCheckBox@@UAE@XZ 0046eba8     Qt5Widgets:Qt5Widgets.dll
 0002:00000bac       __imp_?paintEvent@QMdiArea@@MAEXPAVQPaintEvent@@@Z 0046ebac     Qt5Widgets:Qt5Widgets.dll
 0002:00000bb0       __imp_?paintEvent@QFrame@@MAEXPAVQPaintEvent@@@Z 0046ebb0     Qt5Widgets:Qt5Widgets.dll
 0002:00000bb4       __imp_?paintEvent@QAbstractScrollArea@@MAEXPAVQPaintEvent@@@Z 0046ebb4     Qt5Widgets:Qt5Widgets.dll
 0002:00000bb8       __imp_?mouseReleaseEvent@QAbstractScrollArea@@MAEXPAVQMouseEvent@@@Z 0046ebb8     Qt5Widgets:Qt5Widgets.dll
 0002:00000bbc       __imp_?mousePressEvent@QAbstractScrollArea@@MAEXPAVQMouseEvent@@@Z 0046ebbc     Qt5Widgets:Qt5Widgets.dll
 0002:00000bc0       __imp_?mouseMoveEvent@QAbstractScrollArea@@MAEXPAVQMouseEvent@@@Z 0046ebc0     Qt5Widgets:Qt5Widgets.dll
 0002:00000bc4       __imp_?mouseDoubleClickEvent@QAbstractScrollArea@@MAEXPAVQMouseEvent@@@Z 0046ebc4     Qt5Widgets:Qt5Widgets.dll
 0002:00000bc8       __imp_?minimumSizeHint@QTabWidget@@UBE?AVQSize@@XZ 0046ebc8     Qt5Widgets:Qt5Widgets.dll
 0002:00000bcc       __imp_?minimumSizeHint@QMdiArea@@UBE?AVQSize@@XZ 0046ebcc     Qt5Widgets:Qt5Widgets.dll
 0002:00000bd0       __imp_?metaObject@QTabWidget@@UBEPBUQMetaObject@@XZ 0046ebd0     Qt5Widgets:Qt5Widgets.dll
 0002:00000bd4       __imp_?metaObject@QSpinBox@@UBEPBUQMetaObject@@XZ 0046ebd4     Qt5Widgets:Qt5Widgets.dll
 0002:00000bd8       __imp_?metaObject@QScrollArea@@UBEPBUQMetaObject@@XZ 0046ebd8     Qt5Widgets:Qt5Widgets.dll
 0002:00000bdc       __imp_?metaObject@QMdiArea@@UBEPBUQMetaObject@@XZ 0046ebdc     Qt5Widgets:Qt5Widgets.dll
 0002:00000be0       __imp_?metaObject@QFrame@@UBEPBUQMetaObject@@XZ 0046ebe0     Qt5Widgets:Qt5Widgets.dll
 0002:00000be4       __imp_?metaObject@QButtonGroup@@UBEPBUQMetaObject@@XZ 0046ebe4     Qt5Widgets:Qt5Widgets.dll
 0002:00000be8       __imp_?keyPressEvent@QTabWidget@@MAEXPAVQKeyEvent@@@Z 0046ebe8     Qt5Widgets:Qt5Widgets.dll
 0002:00000bec       __imp_?keyPressEvent@QAbstractScrollArea@@MAEXPAVQKeyEvent@@@Z 0046ebec     Qt5Widgets:Qt5Widgets.dll
 0002:00000bf0       __imp_?heightForWidth@QTabWidget@@UBEHH@Z 0046ebf0     Qt5Widgets:Qt5Widgets.dll
 0002:00000bf4       __imp_?hasHeightForWidth@QTabWidget@@UBE_NXZ 0046ebf4     Qt5Widgets:Qt5Widgets.dll
 0002:00000bf8       __imp_?focusNextPrevChild@QScrollArea@@UAE_N_N@Z 0046ebf8     Qt5Widgets:Qt5Widgets.dll
 0002:00000bfc       __imp_?fixup@QSpinBox@@MBEXAAVQString@@@Z 0046ebfc     Qt5Widgets:Qt5Widgets.dll
 0002:00000c00       __imp_?eventFilter@QScrollArea@@MAE_NPAVQObject@@PAVQEvent@@@Z 0046ec00     Qt5Widgets:Qt5Widgets.dll
 0002:00000c04       __imp_?eventFilter@QMdiArea@@MAE_NPAVQObject@@PAVQEvent@@@Z 0046ec04     Qt5Widgets:Qt5Widgets.dll
 0002:00000c08       __imp_?event@QTabWidget@@MAE_NPAVQEvent@@@Z 0046ec08     Qt5Widgets:Qt5Widgets.dll
 0002:00000c0c       __imp_?event@QSpinBox@@MAE_NPAVQEvent@@@Z 0046ec0c     Qt5Widgets:Qt5Widgets.dll
 0002:00000c10       __imp_?event@QScrollArea@@MAE_NPAVQEvent@@@Z 0046ec10     Qt5Widgets:Qt5Widgets.dll
 0002:00000c14       __imp_?event@QMdiArea@@MAE_NPAVQEvent@@@Z 0046ec14     Qt5Widgets:Qt5Widgets.dll
 0002:00000c18       __imp_?event@QFrame@@MAE_NPAVQEvent@@@Z 0046ec18     Qt5Widgets:Qt5Widgets.dll
 0002:00000c1c       __imp_?dropEvent@QAbstractScrollArea@@MAEXPAVQDropEvent@@@Z 0046ec1c     Qt5Widgets:Qt5Widgets.dll
 0002:00000c20       __imp_?dragMoveEvent@QAbstractScrollArea@@MAEXPAVQDragMoveEvent@@@Z 0046ec20     Qt5Widgets:Qt5Widgets.dll
 0002:00000c24       __imp_?dragLeaveEvent@QAbstractScrollArea@@MAEXPAVQDragLeaveEvent@@@Z 0046ec24     Qt5Widgets:Qt5Widgets.dll
 0002:00000c28       __imp_?dragEnterEvent@QAbstractScrollArea@@MAEXPAVQDragEnterEvent@@@Z 0046ec28     Qt5Widgets:Qt5Widgets.dll
 0002:00000c2c       __imp_?childEvent@QMdiArea@@MAEXPAVQChildEvent@@@Z 0046ec2c     Qt5Widgets:Qt5Widgets.dll
 0002:00000c30       __imp_?changeEvent@QTabWidget@@MAEXPAVQEvent@@@Z 0046ec30     Qt5Widgets:Qt5Widgets.dll
 0002:00000c34       __imp_?getExistingDirectory@QFileDialog@@SA?AVQString@@PAVQWidget@@ABV2@1V?$QFlags@W4Option@QFileDialog@@@@@Z 0046ec34     Qt5Widgets:Qt5Widgets.dll
 0002:00000c38       __imp_?setButtonText@QMessageBox@@QAEXHABVQString@@@Z 0046ec38     Qt5Widgets:Qt5Widgets.dll
 0002:00000c3c       __imp_??1QMessageBox@@UAE@XZ 0046ec3c     Qt5Widgets:Qt5Widgets.dll
 0002:00000c40       __imp_??0QMessageBox@@QAE@W4Icon@0@ABVQString@@1V?$QFlags@W4StandardButton@QMessageBox@@@@PAVQWidget@@V?$QFlags@W4WindowType@Qt@@@@@Z 0046ec40     Qt5Widgets:Qt5Widgets.dll
 0002:00000c44       __imp_?setWidgetResizable@QScrollArea@@QAEX_N@Z 0046ec44     Qt5Widgets:Qt5Widgets.dll
 0002:00000c48       __imp_?setWidget@QScrollArea@@QAEXPAVQWidget@@@Z 0046ec48     Qt5Widgets:Qt5Widgets.dll
 0002:00000c4c       __imp_??1QScrollArea@@UAE@XZ 0046ec4c     Qt5Widgets:Qt5Widgets.dll
 0002:00000c50       __imp_??0QScrollArea@@QAE@PAVQWidget@@@Z 0046ec50     Qt5Widgets:Qt5Widgets.dll
 0002:00000c54       __imp_?setBackground@QMdiArea@@QAEXABVQBrush@@@Z 0046ec54     Qt5Widgets:Qt5Widgets.dll
 0002:00000c58       __imp_??1QMdiArea@@UAE@XZ  0046ec58     Qt5Widgets:Qt5Widgets.dll
 0002:00000c5c       __imp_??0QMdiArea@@QAE@PAVQWidget@@@Z 0046ec5c     Qt5Widgets:Qt5Widgets.dll
 0002:00000c60       __imp_?setTextFormat@QLabel@@QAEXW4TextFormat@Qt@@@Z 0046ec60     Qt5Widgets:Qt5Widgets.dll
 0002:00000c64       __imp_?click@QAbstractButton@@QAEXXZ 0046ec64     Qt5Widgets:Qt5Widgets.dll
 0002:00000c68       __imp_?setId@QButtonGroup@@QAEXPAVQAbstractButton@@H@Z 0046ec68     Qt5Widgets:Qt5Widgets.dll
 0002:00000c6c       __imp_?buttons@QButtonGroup@@QBE?AV?$QList@PAVQAbstractButton@@@@XZ 0046ec6c     Qt5Widgets:Qt5Widgets.dll
 0002:00000c70       __imp_?addButton@QButtonGroup@@QAEXPAVQAbstractButton@@H@Z 0046ec70     Qt5Widgets:Qt5Widgets.dll
 0002:00000c74       __imp_??1QButtonGroup@@UAE@XZ 0046ec74     Qt5Widgets:Qt5Widgets.dll
 0002:00000c78       __imp_??0QButtonGroup@@QAE@PAVQObject@@@Z 0046ec78     Qt5Widgets:Qt5Widgets.dll
 0002:00000c7c       __imp_?setValue@QSpinBox@@QAEXH@Z 0046ec7c     Qt5Widgets:Qt5Widgets.dll
 0002:00000c80       __imp_?setMaximum@QSpinBox@@QAEXH@Z 0046ec80     Qt5Widgets:Qt5Widgets.dll
 0002:00000c84       __imp_?setMinimum@QSpinBox@@QAEXH@Z 0046ec84     Qt5Widgets:Qt5Widgets.dll
 0002:00000c88       __imp_?value@QSpinBox@@QBEHXZ 0046ec88     Qt5Widgets:Qt5Widgets.dll
 0002:00000c8c       __imp_??1QSpinBox@@UAE@XZ  0046ec8c     Qt5Widgets:Qt5Widgets.dll
 0002:00000c90       __imp_??0QSpinBox@@QAE@PAVQWidget@@@Z 0046ec90     Qt5Widgets:Qt5Widgets.dll
 0002:00000c94       __imp_?setCurrentIndex@QTabWidget@@QAEXH@Z 0046ec94     Qt5Widgets:Qt5Widgets.dll
 0002:00000c98       __imp_?setTabPosition@QTabWidget@@QAEXW4TabPosition@1@@Z 0046ec98     Qt5Widgets:Qt5Widgets.dll
 0002:00000c9c       __imp_?indexOf@QTabWidget@@QBEHPAVQWidget@@@Z 0046ec9c     Qt5Widgets:Qt5Widgets.dll
 0002:00000ca0       __imp_?setTabText@QTabWidget@@QAEXHABVQString@@@Z 0046eca0     Qt5Widgets:Qt5Widgets.dll
 0002:00000ca4       __imp_?addTab@QTabWidget@@QAEHPAVQWidget@@ABVQString@@@Z 0046eca4     Qt5Widgets:Qt5Widgets.dll
 0002:00000ca8       __imp_??1QTabWidget@@UAE@XZ 0046eca8     Qt5Widgets:Qt5Widgets.dll
 0002:00000cac       __imp_??0QTabWidget@@QAE@PAVQWidget@@@Z 0046ecac     Qt5Widgets:Qt5Widgets.dll
 0002:00000cb0       __imp_?setFrameShadow@QFrame@@QAEXW4Shadow@1@@Z 0046ecb0     Qt5Widgets:Qt5Widgets.dll
 0002:00000cb4       __imp_?setFrameShape@QFrame@@QAEXW4Shape@1@@Z 0046ecb4     Qt5Widgets:Qt5Widgets.dll
 0002:00000cb8       __imp_??1QFrame@@UAE@XZ    0046ecb8     Qt5Widgets:Qt5Widgets.dll
 0002:00000cbc       __imp_??0QFrame@@QAE@PAVQWidget@@V?$QFlags@W4WindowType@Qt@@@@@Z 0046ecbc     Qt5Widgets:Qt5Widgets.dll
 0002:00000cc0       __imp_?paintEvent@QTabWidget@@MAEXPAVQPaintEvent@@@Z 0046ecc0     Qt5Widgets:Qt5Widgets.dll
 0002:00000cc4       __imp_?itemAtPosition@QGridLayout@@QBEPAVQLayoutItem@@HH@Z 0046ecc4     Qt5Widgets:Qt5Widgets.dll
 0002:00000cc8       __imp_?setRowMinimumHeight@QGridLayout@@QAEXHH@Z 0046ecc8     Qt5Widgets:Qt5Widgets.dll
 0002:00000ccc       __imp_?setColumnStretch@QGridLayout@@QAEXHH@Z 0046eccc     Qt5Widgets:Qt5Widgets.dll
 0002:00000cd0       __imp_?setRowStretch@QGridLayout@@QAEXHH@Z 0046ecd0     Qt5Widgets:Qt5Widgets.dll
 0002:00000cd4       __imp_??0QVBoxLayout@@QAE@XZ 0046ecd4     Qt5Widgets:Qt5Widgets.dll
 0002:00000cd8       __imp_?removeItem@QLayout@@QAEXPAVQLayoutItem@@@Z 0046ecd8     Qt5Widgets:Qt5Widgets.dll
 0002:00000cdc       __imp_?setParent@QWidget@@QAEXPAV1@@Z 0046ecdc     Qt5Widgets:Qt5Widgets.dll
 0002:00000ce0       __imp_?setLayout@QWidget@@QAEXPAVQLayout@@@Z 0046ece0     Qt5Widgets:Qt5Widgets.dll
 0002:00000ce4       __imp_?setSizePolicy@QWidget@@QAEXW4Policy@QSizePolicy@@0@Z 0046ece4     Qt5Widgets:Qt5Widgets.dll
 0002:00000ce8       __imp_?adjustSize@QWidget@@QAEXXZ 0046ece8     Qt5Widgets:Qt5Widgets.dll
 0002:00000cec       __imp_?setGeometry@QWidget@@QAEXABVQRect@@@Z 0046ecec     Qt5Widgets:Qt5Widgets.dll
 0002:00000cf0       __imp_?setToolTip@QWidget@@QAEXABVQString@@@Z 0046ecf0     Qt5Widgets:Qt5Widgets.dll
 0002:00000cf4       __imp_?setFont@QWidget@@QAEXABVQFont@@@Z 0046ecf4     Qt5Widgets:Qt5Widgets.dll
 0002:00000cf8       __imp_?setMaximumHeight@QWidget@@QAEXH@Z 0046ecf8     Qt5Widgets:Qt5Widgets.dll
 0002:00000cfc       __imp_?setMinimumWidth@QWidget@@QAEXH@Z 0046ecfc     Qt5Widgets:Qt5Widgets.dll
 0002:00000d00       __imp_?setMinimumSize@QWidget@@QAEXHH@Z 0046ed00     Qt5Widgets:Qt5Widgets.dll
 0002:00000d04       __imp_?showMaximized@QWidget@@QAEXXZ 0046ed04     Qt5Widgets:Qt5Widgets.dll
 0002:00000d08       __imp_?exec@QApplication@@SAHXZ 0046ed08     Qt5Widgets:Qt5Widgets.dll
 0002:00000d0c       __imp_?setFont@QApplication@@SAXABVQFont@@PBD@Z 0046ed0c     Qt5Widgets:Qt5Widgets.dll
 0002:00000d10       __imp_??1QApplication@@UAE@XZ 0046ed10     Qt5Widgets:Qt5Widgets.dll
 0002:00000d14       __imp_??0QApplication@@QAE@AAHPAPADH@Z 0046ed14     Qt5Widgets:Qt5Widgets.dll
 0002:00000d18       __imp_?staticMetaObject@QAction@@2UQMetaObject@@B 0046ed18     Qt5Widgets:Qt5Widgets.dll
 0002:00000d1c       __imp_?wheelEvent@QMenu@@MAEXPAVQWheelEvent@@@Z 0046ed1c     Qt5Widgets:Qt5Widgets.dll
 0002:00000d20       __imp_?timerEvent@QMenu@@MAEXPAVQTimerEvent@@@Z 0046ed20     Qt5Widgets:Qt5Widgets.dll
 0002:00000d24       __imp_?sizeHint@QMenu@@UBE?AVQSize@@XZ 0046ed24     Qt5Widgets:Qt5Widgets.dll
 0002:00000d28       __imp_?qt_metacast@QMenu@@UAEPAXPBD@Z 0046ed28     Qt5Widgets:Qt5Widgets.dll
 0002:00000d2c       __imp_?qt_metacast@QAction@@UAEPAXPBD@Z 0046ed2c     Qt5Widgets:Qt5Widgets.dll
 0002:00000d30       __imp_?qt_metacall@QMenu@@UAEHW4Call@QMetaObject@@HPAPAX@Z 0046ed30     Qt5Widgets:Qt5Widgets.dll
 0002:00000d34       __imp_?qt_metacall@QAction@@UAEHW4Call@QMetaObject@@HPAPAX@Z 0046ed34     Qt5Widgets:Qt5Widgets.dll
 0002:00000d38       __imp_?paintEvent@QMenu@@MAEXPAVQPaintEvent@@@Z 0046ed38     Qt5Widgets:Qt5Widgets.dll
 0002:00000d3c       __imp_?mouseReleaseEvent@QMenu@@MAEXPAVQMouseEvent@@@Z 0046ed3c     Qt5Widgets:Qt5Widgets.dll
 0002:00000d40       __imp_?mousePressEvent@QMenu@@MAEXPAVQMouseEvent@@@Z 0046ed40     Qt5Widgets:Qt5Widgets.dll
 0002:00000d44       __imp_?mouseMoveEvent@QMenu@@MAEXPAVQMouseEvent@@@Z 0046ed44     Qt5Widgets:Qt5Widgets.dll
 0002:00000d48       __imp_?metaObject@QMenu@@UBEPBUQMetaObject@@XZ 0046ed48     Qt5Widgets:Qt5Widgets.dll
 0002:00000d4c       __imp_?metaObject@QAction@@UBEPBUQMetaObject@@XZ 0046ed4c     Qt5Widgets:Qt5Widgets.dll
 0002:00000d50       __imp_?leaveEvent@QMenu@@MAEXPAVQEvent@@@Z 0046ed50     Qt5Widgets:Qt5Widgets.dll
 0002:00000d54       __imp_?keyPressEvent@QMenu@@MAEXPAVQKeyEvent@@@Z 0046ed54     Qt5Widgets:Qt5Widgets.dll
 0002:00000d58       __imp_?hideEvent@QMenu@@MAEXPAVQHideEvent@@@Z 0046ed58     Qt5Widgets:Qt5Widgets.dll
 0002:00000d5c       __imp_?focusNextPrevChild@QMenu@@MAE_N_N@Z 0046ed5c     Qt5Widgets:Qt5Widgets.dll
 0002:00000d60       __imp_?event@QMenu@@MAE_NPAVQEvent@@@Z 0046ed60     Qt5Widgets:Qt5Widgets.dll
 0002:00000d64       __imp_?event@QAction@@MAE_NPAVQEvent@@@Z 0046ed64     Qt5Widgets:Qt5Widgets.dll
 0002:00000d68       __imp_?enterEvent@QMenu@@MAEXPAVQEvent@@@Z 0046ed68     Qt5Widgets:Qt5Widgets.dll
 0002:00000d6c       __imp_?changeEvent@QMenu@@MAEXPAVQEvent@@@Z 0046ed6c     Qt5Widgets:Qt5Widgets.dll
 0002:00000d70       __imp_?actionEvent@QMenu@@MAEXPAVQActionEvent@@@Z 0046ed70     Qt5Widgets:Qt5Widgets.dll
 0002:00000d74       __imp_?setSpacing@QGridLayout@@QAEXH@Z 0046ed74     Qt5Widgets:Qt5Widgets.dll
 0002:00000d78       __imp_??0QGridLayout@@QAE@PAVQWidget@@@Z 0046ed78     Qt5Widgets:Qt5Widgets.dll
 0002:00000d7c       __imp_?exec@QMenu@@QAEPAVQAction@@ABVQPoint@@PAV2@@Z 0046ed7c     Qt5Widgets:Qt5Widgets.dll
 0002:00000d80       __imp_?addSeparator@QMenu@@QAEPAVQAction@@XZ 0046ed80     Qt5Widgets:Qt5Widgets.dll
 0002:00000d84       __imp_??1QMenu@@UAE@XZ     0046ed84     Qt5Widgets:Qt5Widgets.dll
 0002:00000d88       __imp_??0QMenu@@QAE@PAVQWidget@@@Z 0046ed88     Qt5Widgets:Qt5Widgets.dll
 0002:00000d8c       __imp_?triggered@QAction@@QAEX_N@Z 0046ed8c     Qt5Widgets:Qt5Widgets.dll
 0002:00000d90       __imp_?text@QAction@@QBE?AVQString@@XZ 0046ed90     Qt5Widgets:Qt5Widgets.dll
 0002:00000d94       __imp_?setText@QAction@@QAEXABVQString@@@Z 0046ed94     Qt5Widgets:Qt5Widgets.dll
 0002:00000d98       __imp_??1QAction@@UAE@XZ   0046ed98     Qt5Widgets:Qt5Widgets.dll
 0002:00000d9c       __imp_??0QAction@@QAE@PAVQObject@@@Z 0046ed9c     Qt5Widgets:Qt5Widgets.dll
 0002:00000da0       __imp_?addAction@QWidget@@QAEXPAVQAction@@@Z 0046eda0     Qt5Widgets:Qt5Widgets.dll
 0002:00000da4       __imp_?raise@QWidget@@QAEXXZ 0046eda4     Qt5Widgets:Qt5Widgets.dll
 0002:00000da8       __imp_?show@QWidget@@QAEXXZ 0046eda8     Qt5Widgets:Qt5Widgets.dll
 0002:00000dac       __imp_?setContextMenuPolicy@QWidget@@QAEXW4ContextMenuPolicy@Qt@@@Z 0046edac     Qt5Widgets:Qt5Widgets.dll
 0002:00000db0       __imp_?wheelEvent@QComboBox@@MAEXPAVQWheelEvent@@@Z 0046edb0     Qt5Widgets:Qt5Widgets.dll
 0002:00000db4       __imp_?sizeHint@QComboBox@@UBE?AVQSize@@XZ 0046edb4     Qt5Widgets:Qt5Widgets.dll
 0002:00000db8       __imp_?sizeHint@QCheckBox@@UBE?AVQSize@@XZ 0046edb8     Qt5Widgets:Qt5Widgets.dll
 0002:00000dbc       __imp_?showPopup@QComboBox@@UAEXXZ 0046edbc     Qt5Widgets:Qt5Widgets.dll
 0002:00000dc0       __imp_?showEvent@QComboBox@@MAEXPAVQShowEvent@@@Z 0046edc0     Qt5Widgets:Qt5Widgets.dll
 0002:00000dc4       __imp_?resizeEvent@QComboBox@@MAEXPAVQResizeEvent@@@Z 0046edc4     Qt5Widgets:Qt5Widgets.dll
 0002:00000dc8       __imp_?qt_metacast@QComboBox@@UAEPAXPBD@Z 0046edc8     Qt5Widgets:Qt5Widgets.dll
 0002:00000dcc       __imp_?qt_metacast@QCheckBox@@UAEPAXPBD@Z 0046edcc     Qt5Widgets:Qt5Widgets.dll
 0002:00000dd0       __imp_?qt_metacall@QComboBox@@UAEHW4Call@QMetaObject@@HPAPAX@Z 0046edd0     Qt5Widgets:Qt5Widgets.dll
 0002:00000dd4       __imp_?qt_metacall@QCheckBox@@UAEHW4Call@QMetaObject@@HPAPAX@Z 0046edd4     Qt5Widgets:Qt5Widgets.dll
 0002:00000dd8       __imp_?paintEvent@QComboBox@@MAEXPAVQPaintEvent@@@Z 0046edd8     Qt5Widgets:Qt5Widgets.dll
 0002:00000ddc       __imp_?paintEvent@QCheckBox@@MAEXPAVQPaintEvent@@@Z 0046eddc     Qt5Widgets:Qt5Widgets.dll
 0002:00000de0       __imp_?nextCheckState@QCheckBox@@MAEXXZ 0046ede0     Qt5Widgets:Qt5Widgets.dll
 0002:00000de4       __imp_?mouseReleaseEvent@QComboBox@@MAEXPAVQMouseEvent@@@Z 0046ede4     Qt5Widgets:Qt5Widgets.dll
 0002:00000de8       __imp_?mousePressEvent@QComboBox@@MAEXPAVQMouseEvent@@@Z 0046ede8     Qt5Widgets:Qt5Widgets.dll
 0002:00000dec       __imp_?mouseMoveEvent@QCheckBox@@MAEXPAVQMouseEvent@@@Z 0046edec     Qt5Widgets:Qt5Widgets.dll
 0002:00000df0       __imp_?minimumSizeHint@QComboBox@@UBE?AVQSize@@XZ 0046edf0     Qt5Widgets:Qt5Widgets.dll
 0002:00000df4       __imp_?minimumSizeHint@QCheckBox@@UBE?AVQSize@@XZ 0046edf4     Qt5Widgets:Qt5Widgets.dll
 0002:00000df8       __imp_?metaObject@QComboBox@@UBEPBUQMetaObject@@XZ 0046edf8     Qt5Widgets:Qt5Widgets.dll
 0002:00000dfc       __imp_?metaObject@QCheckBox@@UBEPBUQMetaObject@@XZ 0046edfc     Qt5Widgets:Qt5Widgets.dll
 0002:00000e00       __imp_?keyReleaseEvent@QComboBox@@MAEXPAVQKeyEvent@@@Z 0046ee00     Qt5Widgets:Qt5Widgets.dll
 0002:00000e04       __imp_?keyPressEvent@QComboBox@@MAEXPAVQKeyEvent@@@Z 0046ee04     Qt5Widgets:Qt5Widgets.dll
 0002:00000e08       __imp_?keyPressEvent@QAbstractButton@@MAEXPAVQKeyEvent@@@Z 0046ee08     Qt5Widgets:Qt5Widgets.dll
 0002:00000e0c       __imp_?inputMethodQuery@QComboBox@@UBE?AVQVariant@@W4InputMethodQuery@Qt@@@Z 0046ee0c     Qt5Widgets:Qt5Widgets.dll
 0002:00000e10       __imp_?inputMethodEvent@QComboBox@@MAEXPAVQInputMethodEvent@@@Z 0046ee10     Qt5Widgets:Qt5Widgets.dll
 0002:00000e14       __imp_?hitButton@QCheckBox@@MBE_NABVQPoint@@@Z 0046ee14     Qt5Widgets:Qt5Widgets.dll
 0002:00000e18       __imp_?hidePopup@QComboBox@@UAEXXZ 0046ee18     Qt5Widgets:Qt5Widgets.dll
 0002:00000e1c       __imp_?hideEvent@QComboBox@@MAEXPAVQHideEvent@@@Z 0046ee1c     Qt5Widgets:Qt5Widgets.dll
 0002:00000e20       __imp_?focusOutEvent@QComboBox@@MAEXPAVQFocusEvent@@@Z 0046ee20     Qt5Widgets:Qt5Widgets.dll
 0002:00000e24       __imp_?focusOutEvent@QAbstractButton@@MAEXPAVQFocusEvent@@@Z 0046ee24     Qt5Widgets:Qt5Widgets.dll
 0002:00000e28       __imp_?focusInEvent@QComboBox@@MAEXPAVQFocusEvent@@@Z 0046ee28     Qt5Widgets:Qt5Widgets.dll
 0002:00000e2c       __imp_?focusInEvent@QAbstractButton@@MAEXPAVQFocusEvent@@@Z 0046ee2c     Qt5Widgets:Qt5Widgets.dll
 0002:00000e30       __imp_?event@QComboBox@@UAE_NPAVQEvent@@@Z 0046ee30     Qt5Widgets:Qt5Widgets.dll
 0002:00000e34       __imp_?event@QCheckBox@@MAE_NPAVQEvent@@@Z 0046ee34     Qt5Widgets:Qt5Widgets.dll
 0002:00000e38       __imp_?contextMenuEvent@QComboBox@@MAEXPAVQContextMenuEvent@@@Z 0046ee38     Qt5Widgets:Qt5Widgets.dll
 0002:00000e3c       __imp_?checkStateSet@QCheckBox@@MAEXXZ 0046ee3c     Qt5Widgets:Qt5Widgets.dll
 0002:00000e40       __imp_?changeEvent@QComboBox@@MAEXPAVQEvent@@@Z 0046ee40     Qt5Widgets:Qt5Widgets.dll
 0002:00000e44       __imp_?setScaledContents@QLabel@@QAEX_N@Z 0046ee44     Qt5Widgets:Qt5Widgets.dll
 0002:00000e48       __imp_?setDecimals@QDoubleSpinBox@@QAEXH@Z 0046ee48     Qt5Widgets:Qt5Widgets.dll
 0002:00000e4c       __imp_?setCurrentText@QComboBox@@QAEXABVQString@@@Z 0046ee4c     Qt5Widgets:Qt5Widgets.dll
 0002:00000e50       __imp_?setItemText@QComboBox@@QAEXHABVQString@@@Z 0046ee50     Qt5Widgets:Qt5Widgets.dll
 0002:00000e54       __imp_?insertItem@QComboBox@@QAEXHABVQIcon@@ABVQString@@ABVQVariant@@@Z 0046ee54     Qt5Widgets:Qt5Widgets.dll
 0002:00000e58       __imp_?currentText@QComboBox@@QBE?AVQString@@XZ 0046ee58     Qt5Widgets:Qt5Widgets.dll
 0002:00000e5c       __imp_?count@QComboBox@@QBEHXZ 0046ee5c     Qt5Widgets:Qt5Widgets.dll
 0002:00000e60       __imp_??0QCheckBox@@QAE@PAVQWidget@@@Z 0046ee60     Qt5Widgets:Qt5Widgets.dll
 0002:00000e64       __imp_?setChecked@QAbstractButton@@QAEX_N@Z 0046ee64     Qt5Widgets:Qt5Widgets.dll
 0002:00000e68       __imp_?isChecked@QAbstractButton@@QBE_NXZ 0046ee68     Qt5Widgets:Qt5Widgets.dll
 0002:00000e6c       __imp_?isEnabled@QWidget@@QBE_NXZ 0046ee6c     Qt5Widgets:Qt5Widgets.dll
 0002:00000e70       __imp_?write@QTableWidgetItem@@UBEXAAVQDataStream@@@Z 0046ee70     Qt5Widgets:Qt5Widgets.dll
 0002:00000e74       __imp_?wheelEvent@QAbstractScrollArea@@MAEXPAVQWheelEvent@@@Z 0046ee74     Qt5Widgets:Qt5Widgets.dll
 0002:00000e78       __imp_?visualRegionForSelection@QTableView@@MBE?AVQRegion@@ABVQItemSelection@@@Z 0046ee78     Qt5Widgets:Qt5Widgets.dll
 0002:00000e7c       __imp_?visualRect@QTableView@@UBE?AVQRect@@ABVQModelIndex@@@Z 0046ee7c     Qt5Widgets:Qt5Widgets.dll
 0002:00000e80       __imp_?viewportSizeHint@QTableView@@MBE?AVQSize@@XZ 0046ee80     Qt5Widgets:Qt5Widgets.dll
 0002:00000e84       __imp_?viewportEvent@QAbstractItemView@@MAE_NPAVQEvent@@@Z 0046ee84     Qt5Widgets:Qt5Widgets.dll
 0002:00000e88       __imp_?viewOptions@QTableView@@MBE?AVQStyleOptionViewItem@@XZ 0046ee88     Qt5Widgets:Qt5Widgets.dll
 0002:00000e8c       __imp_?verticalScrollbarValueChanged@QAbstractItemView@@MAEXH@Z 0046ee8c     Qt5Widgets:Qt5Widgets.dll
 0002:00000e90       __imp_?verticalScrollbarAction@QTableView@@MAEXH@Z 0046ee90     Qt5Widgets:Qt5Widgets.dll
 0002:00000e94       __imp_?verticalOffset@QTableView@@MBEHXZ 0046ee94     Qt5Widgets:Qt5Widgets.dll
 0002:00000e98       __imp_?updateGeometries@QTableView@@MAEXXZ 0046ee98     Qt5Widgets:Qt5Widgets.dll
 0002:00000e9c       __imp_?updateEditorGeometries@QAbstractItemView@@MAEXXZ 0046ee9c     Qt5Widgets:Qt5Widgets.dll
 0002:00000ea0       __imp_?updateEditorData@QAbstractItemView@@MAEXXZ 0046eea0     Qt5Widgets:Qt5Widgets.dll
 0002:00000ea4       __imp_?timerEvent@QTableView@@MAEXPAVQTimerEvent@@@Z 0046eea4     Qt5Widgets:Qt5Widgets.dll
 0002:00000ea8       __imp_?supportedDropActions@QTableWidget@@MBE?AV?$QFlags@W4DropAction@Qt@@@@XZ 0046eea8     Qt5Widgets:Qt5Widgets.dll
 0002:00000eac       __imp_?startDrag@QAbstractItemView@@MAEXV?$QFlags@W4DropAction@Qt@@@@@Z 0046eeac     Qt5Widgets:Qt5Widgets.dll
 0002:00000eb0       __imp_?sizeHintForRow@QTableView@@MBEHH@Z 0046eeb0     Qt5Widgets:Qt5Widgets.dll
 0002:00000eb4       __imp_?sizeHintForColumn@QTableView@@MBEHH@Z 0046eeb4     Qt5Widgets:Qt5Widgets.dll
 0002:00000eb8       __imp_?sizeHint@QAbstractScrollArea@@UBE?AVQSize@@XZ 0046eeb8     Qt5Widgets:Qt5Widgets.dll
 0002:00000ebc       __imp_?setupViewport@QAbstractScrollArea@@UAEXPAVQWidget@@@Z 0046eebc     Qt5Widgets:Qt5Widgets.dll
 0002:00000ec0       __imp_?setSelectionModel@QTableView@@UAEXPAVQItemSelectionModel@@@Z 0046eec0     Qt5Widgets:Qt5Widgets.dll
 0002:00000ec4       __imp_?setSelection@QTableView@@MAEXABVQRect@@V?$QFlags@W4SelectionFlag@QItemSelectionModel@@@@@Z 0046eec4     Qt5Widgets:Qt5Widgets.dll
 0002:00000ec8       __imp_?setRootIndex@QTableView@@UAEXABVQModelIndex@@@Z 0046eec8     Qt5Widgets:Qt5Widgets.dll
 0002:00000ecc       __imp_?setModel@QTableWidget@@EAEXPAVQAbstractItemModel@@@Z 0046eecc     Qt5Widgets:Qt5Widgets.dll
 0002:00000ed0       __imp_?setData@QTableWidgetItem@@UAEXHABVQVariant@@@Z 0046eed0     Qt5Widgets:Qt5Widgets.dll
 0002:00000ed4       __imp_?selectionCommand@QAbstractItemView@@MBE?AV?$QFlags@W4SelectionFlag@QItemSelectionModel@@@@ABVQModelIndex@@PBVQEvent@@@Z 0046eed4     Qt5Widgets:Qt5Widgets.dll
 0002:00000ed8       __imp_?selectionChanged@QTableView@@MAEXABVQItemSelection@@0@Z 0046eed8     Qt5Widgets:Qt5Widgets.dll
 0002:00000edc       __imp_?selectedIndexes@QTableView@@MBE?AV?$QList@VQModelIndex@@@@XZ 0046eedc     Qt5Widgets:Qt5Widgets.dll
 0002:00000ee0       __imp_?selectAll@QAbstractItemView@@UAEXXZ 0046eee0     Qt5Widgets:Qt5Widgets.dll
 0002:00000ee4       __imp_?scrollTo@QTableView@@UAEXABVQModelIndex@@W4ScrollHint@QAbstractItemView@@@Z 0046eee4     Qt5Widgets:Qt5Widgets.dll
 0002:00000ee8       __imp_?scrollContentsBy@QTableView@@MAEXHH@Z 0046eee8     Qt5Widgets:Qt5Widgets.dll
 0002:00000eec       __imp_?rowsInserted@QAbstractItemView@@MAEXABVQModelIndex@@HH@Z 0046eeec     Qt5Widgets:Qt5Widgets.dll
 0002:00000ef0       __imp_?rowsAboutToBeRemoved@QAbstractItemView@@MAEXABVQModelIndex@@HH@Z 0046eef0     Qt5Widgets:Qt5Widgets.dll
 0002:00000ef4       __imp_?resizeEvent@QAbstractItemView@@MAEXPAVQResizeEvent@@@Z 0046eef4     Qt5Widgets:Qt5Widgets.dll
 0002:00000ef8       __imp_?reset@QAbstractItemView@@UAEXXZ 0046eef8     Qt5Widgets:Qt5Widgets.dll
 0002:00000efc       __imp_?read@QTableWidgetItem@@UAEXAAVQDataStream@@@Z 0046eefc     Qt5Widgets:Qt5Widgets.dll
 0002:00000f00       __imp_?qt_metacast@QTableWidget@@UAEPAXPBD@Z 0046ef00     Qt5Widgets:Qt5Widgets.dll
 0002:00000f04       __imp_?qt_metacall@QTableWidget@@UAEHW4Call@QMetaObject@@HPAPAX@Z 0046ef04     Qt5Widgets:Qt5Widgets.dll
 0002:00000f08       __imp_?paintEvent@QTableView@@MAEXPAVQPaintEvent@@@Z 0046ef08     Qt5Widgets:Qt5Widgets.dll
 0002:00000f0c       __imp_?moveCursor@QTableView@@MAE?AVQModelIndex@@W4CursorAction@QAbstractItemView@@V?$QFlags@W4KeyboardModifier@Qt@@@@@Z 0046ef0c     Qt5Widgets:Qt5Widgets.dll
 0002:00000f10       __imp_?mouseReleaseEvent@QAbstractItemView@@MAEXPAVQMouseEvent@@@Z 0046ef10     Qt5Widgets:Qt5Widgets.dll
 0002:00000f14       __imp_?mousePressEvent@QAbstractItemView@@MAEXPAVQMouseEvent@@@Z 0046ef14     Qt5Widgets:Qt5Widgets.dll
 0002:00000f18       __imp_?mouseMoveEvent@QAbstractItemView@@MAEXPAVQMouseEvent@@@Z 0046ef18     Qt5Widgets:Qt5Widgets.dll
 0002:00000f1c       __imp_?mouseDoubleClickEvent@QAbstractItemView@@MAEXPAVQMouseEvent@@@Z 0046ef1c     Qt5Widgets:Qt5Widgets.dll
 0002:00000f20       __imp_?minimumSizeHint@QAbstractScrollArea@@UBE?AVQSize@@XZ 0046ef20     Qt5Widgets:Qt5Widgets.dll
 0002:00000f24       __imp_?mimeTypes@QTableWidget@@MBE?AVQStringList@@XZ 0046ef24     Qt5Widgets:Qt5Widgets.dll
 0002:00000f28       __imp_?mimeData@QTableWidget@@MBEPAVQMimeData@@V?$QList@PAVQTableWidgetItem@@@@@Z 0046ef28     Qt5Widgets:Qt5Widgets.dll
 0002:00000f2c       __imp_?metaObject@QTableWidget@@UBEPBUQMetaObject@@XZ 0046ef2c     Qt5Widgets:Qt5Widgets.dll
 0002:00000f30       __imp_?keyboardSearch@QAbstractItemView@@UAEXABVQString@@@Z 0046ef30     Qt5Widgets:Qt5Widgets.dll
 0002:00000f34       __imp_?keyPressEvent@QAbstractItemView@@MAEXPAVQKeyEvent@@@Z 0046ef34     Qt5Widgets:Qt5Widgets.dll
 0002:00000f38       __imp_?isIndexHidden@QTableView@@MBE_NABVQModelIndex@@@Z 0046ef38     Qt5Widgets:Qt5Widgets.dll
 0002:00000f3c       __imp_?inputMethodQuery@QAbstractItemView@@UBE?AVQVariant@@W4InputMethodQuery@Qt@@@Z 0046ef3c     Qt5Widgets:Qt5Widgets.dll
 0002:00000f40       __imp_?inputMethodEvent@QAbstractItemView@@MAEXPAVQInputMethodEvent@@@Z 0046ef40     Qt5Widgets:Qt5Widgets.dll
 0002:00000f44       __imp_?indexAt@QTableView@@UBE?AVQModelIndex@@ABVQPoint@@@Z 0046ef44     Qt5Widgets:Qt5Widgets.dll
 0002:00000f48       __imp_?horizontalScrollbarValueChanged@QAbstractItemView@@MAEXH@Z 0046ef48     Qt5Widgets:Qt5Widgets.dll
 0002:00000f4c       __imp_?horizontalScrollbarAction@QTableView@@MAEXH@Z 0046ef4c     Qt5Widgets:Qt5Widgets.dll
 0002:00000f50       __imp_?horizontalOffset@QTableView@@MBEHXZ 0046ef50     Qt5Widgets:Qt5Widgets.dll
 0002:00000f54       __imp_?focusOutEvent@QAbstractItemView@@MAEXPAVQFocusEvent@@@Z 0046ef54     Qt5Widgets:Qt5Widgets.dll
 0002:00000f58       __imp_?focusNextPrevChild@QAbstractItemView@@MAE_N_N@Z 0046ef58     Qt5Widgets:Qt5Widgets.dll
 0002:00000f5c       __imp_?focusInEvent@QAbstractItemView@@MAEXPAVQFocusEvent@@@Z 0046ef5c     Qt5Widgets:Qt5Widgets.dll
 0002:00000f60       __imp_?eventFilter@QAbstractItemView@@MAE_NPAVQObject@@PAVQEvent@@@Z 0046ef60     Qt5Widgets:Qt5Widgets.dll
 0002:00000f64       __imp_?event@QTableWidget@@MAE_NPAVQEvent@@@Z 0046ef64     Qt5Widgets:Qt5Widgets.dll
 0002:00000f68       __imp_?editorDestroyed@QAbstractItemView@@MAEXPAVQObject@@@Z 0046ef68     Qt5Widgets:Qt5Widgets.dll
 0002:00000f6c       __imp_?edit@QAbstractItemView@@MAE_NABVQModelIndex@@W4EditTrigger@1@PAVQEvent@@@Z 0046ef6c     Qt5Widgets:Qt5Widgets.dll
 0002:00000f70       __imp_?dropMimeData@QTableWidget@@MAE_NHHPBVQMimeData@@W4DropAction@Qt@@@Z 0046ef70     Qt5Widgets:Qt5Widgets.dll
 0002:00000f74       __imp_?dropEvent@QTableWidget@@MAEXPAVQDropEvent@@@Z 0046ef74     Qt5Widgets:Qt5Widgets.dll
 0002:00000f78       __imp_?dragMoveEvent@QAbstractItemView@@MAEXPAVQDragMoveEvent@@@Z 0046ef78     Qt5Widgets:Qt5Widgets.dll
 0002:00000f7c       __imp_?dragLeaveEvent@QAbstractItemView@@MAEXPAVQDragLeaveEvent@@@Z 0046ef7c     Qt5Widgets:Qt5Widgets.dll
 0002:00000f80       __imp_?dragEnterEvent@QAbstractItemView@@MAEXPAVQDragEnterEvent@@@Z 0046ef80     Qt5Widgets:Qt5Widgets.dll
 0002:00000f84       __imp_?doItemsLayout@QTableView@@UAEXXZ 0046ef84     Qt5Widgets:Qt5Widgets.dll
 0002:00000f88       __imp_?dataChanged@QAbstractItemView@@MAEXABVQModelIndex@@0ABV?$QVector@H@@@Z 0046ef88     Qt5Widgets:Qt5Widgets.dll
 0002:00000f8c       __imp_?data@QTableWidgetItem@@UBE?AVQVariant@@H@Z 0046ef8c     Qt5Widgets:Qt5Widgets.dll
 0002:00000f90       __imp_?currentChanged@QTableView@@MAEXABVQModelIndex@@0@Z 0046ef90     Qt5Widgets:Qt5Widgets.dll
 0002:00000f94       __imp_?contextMenuEvent@QAbstractScrollArea@@MAEXPAVQContextMenuEvent@@@Z 0046ef94     Qt5Widgets:Qt5Widgets.dll
 0002:00000f98       __imp_?commitData@QAbstractItemView@@MAEXPAVQWidget@@@Z 0046ef98     Qt5Widgets:Qt5Widgets.dll
 0002:00000f9c       __imp_?closeEditor@QAbstractItemView@@MAEXPAVQWidget@@W4EndEditHint@QAbstractItemDelegate@@@Z 0046ef9c     Qt5Widgets:Qt5Widgets.dll
 0002:00000fa0       __imp_?clone@QTableWidgetItem@@UBEPAV1@XZ 0046efa0     Qt5Widgets:Qt5Widgets.dll
 0002:00000fa4       __imp_?changeEvent@QFrame@@MAEXPAVQEvent@@@Z 0046efa4     Qt5Widgets:Qt5Widgets.dll
 0002:00000fa8       __imp_??MQTableWidgetItem@@UBE_NABV0@@Z 0046efa8     Qt5Widgets:Qt5Widgets.dll
 0002:00000fac       __imp_?text@QLabel@@QBE?AVQString@@XZ 0046efac     Qt5Widgets:Qt5Widgets.dll
 0002:00000fb0       __imp_?setSectionResizeMode@QHeaderView@@QAEXW4ResizeMode@1@@Z 0046efb0     Qt5Widgets:Qt5Widgets.dll
 0002:00000fb4       __imp_?setHorizontalHeaderLabels@QTableWidget@@QAEXABVQStringList@@@Z 0046efb4     Qt5Widgets:Qt5Widgets.dll
 0002:00000fb8       __imp_?setItem@QTableWidget@@QAEXHHPAVQTableWidgetItem@@@Z 0046efb8     Qt5Widgets:Qt5Widgets.dll
 0002:00000fbc       __imp_?columnCount@QTableWidget@@QBEHXZ 0046efbc     Qt5Widgets:Qt5Widgets.dll
 0002:00000fc0       __imp_?setColumnCount@QTableWidget@@QAEXH@Z 0046efc0     Qt5Widgets:Qt5Widgets.dll
 0002:00000fc4       __imp_?setRowCount@QTableWidget@@QAEXH@Z 0046efc4     Qt5Widgets:Qt5Widgets.dll
 0002:00000fc8       __imp_??1QTableWidget@@UAE@XZ 0046efc8     Qt5Widgets:Qt5Widgets.dll
 0002:00000fcc       __imp_??0QTableWidget@@QAE@PAVQWidget@@@Z 0046efcc     Qt5Widgets:Qt5Widgets.dll
 0002:00000fd0       __imp_?setBackgroundColor@QTableWidgetItem@@QAEXABVQColor@@@Z 0046efd0     Qt5Widgets:Qt5Widgets.dll
 0002:00000fd4       __imp_?setTextAlignment@QTableWidgetItem@@QAEXH@Z 0046efd4     Qt5Widgets:Qt5Widgets.dll
 0002:00000fd8       __imp_??1QTableWidgetItem@@UAE@XZ 0046efd8     Qt5Widgets:Qt5Widgets.dll
 0002:00000fdc       __imp_??0QTableWidgetItem@@QAE@H@Z 0046efdc     Qt5Widgets:Qt5Widgets.dll
 0002:00000fe0       __imp_?horizontalHeader@QTableView@@QBEPAVQHeaderView@@XZ 0046efe0     Qt5Widgets:Qt5Widgets.dll
 0002:00000fe4       __imp_?setFixedHeight@QWidget@@QAEXH@Z 0046efe4     Qt5Widgets:Qt5Widgets.dll
 0002:00000fe8       __imp_?setReadOnly@QLineEdit@@QAEX_N@Z 0046efe8     Qt5Widgets:Qt5Widgets.dll
 0002:00000fec       __imp_??0QHBoxLayout@@QAE@XZ 0046efec     Qt5Widgets:Qt5Widgets.dll
 0002:00000ff0       __imp_?setWindowFlag@QWidget@@QAEXW4WindowType@Qt@@_N@Z 0046eff0     Qt5Widgets:Qt5Widgets.dll
 0002:00000ff4       __imp_?setEnabled@QWidget@@QAEX_N@Z 0046eff4     Qt5Widgets:Qt5Widgets.dll
 0002:00000ff8       __imp_?timerEvent@QAbstractButton@@MAEXPAVQTimerEvent@@@Z 0046eff8     Qt5Widgets:Qt5Widgets.dll
 0002:00000ffc       __imp_?takeAt@QGridLayout@@UAEPAVQLayoutItem@@H@Z 0046effc     Qt5Widgets:Qt5Widgets.dll
 0002:00001000       __imp_?spacerItem@QSpacerItem@@UAEPAV1@XZ 0046f000     Qt5Widgets:Qt5Widgets.dll
 0002:00001004       __imp_?sizeHint@QSpacerItem@@UBE?AVQSize@@XZ 0046f004     Qt5Widgets:Qt5Widgets.dll
 0002:00001008       __imp_?sizeHint@QPushButton@@UBE?AVQSize@@XZ 0046f008     Qt5Widgets:Qt5Widgets.dll
 0002:0000100c       __imp_?sizeHint@QLineEdit@@UBE?AVQSize@@XZ 0046f00c     Qt5Widgets:Qt5Widgets.dll
 0002:00001010       __imp_?sizeHint@QGridLayout@@UBE?AVQSize@@XZ 0046f010     Qt5Widgets:Qt5Widgets.dll
 0002:00001014       __imp_?sizeHint@QDialog@@UBE?AVQSize@@XZ 0046f014     Qt5Widgets:Qt5Widgets.dll
 0002:00001018       __imp_?showEvent@QDialog@@MAEXPAVQShowEvent@@@Z 0046f018     Qt5Widgets:Qt5Widgets.dll
 0002:0000101c       __imp_?setVisible@QDialog@@UAEX_N@Z 0046f01c     Qt5Widgets:Qt5Widgets.dll
 0002:00001020       __imp_?setGeometry@QSpacerItem@@UAEXABVQRect@@@Z 0046f020     Qt5Widgets:Qt5Widgets.dll
 0002:00001024       __imp_?setGeometry@QGridLayout@@UAEXABVQRect@@@Z 0046f024     Qt5Widgets:Qt5Widgets.dll
 0002:00001028       __imp_?resizeEvent@QDialog@@MAEXPAVQResizeEvent@@@Z 0046f028     Qt5Widgets:Qt5Widgets.dll
 0002:0000102c       __imp_?reject@QDialog@@UAEXXZ 0046f02c     Qt5Widgets:Qt5Widgets.dll
 0002:00001030       __imp_?qt_metacast@QWidget@@UAEPAXPBD@Z 0046f030     Qt5Widgets:Qt5Widgets.dll
 0002:00001034       __imp_?qt_metacast@QVBoxLayout@@UAEPAXPBD@Z 0046f034     Qt5Widgets:Qt5Widgets.dll
 0002:00001038       __imp_?qt_metacast@QPushButton@@UAEPAXPBD@Z 0046f038     Qt5Widgets:Qt5Widgets.dll
 0002:0000103c       __imp_?qt_metacast@QLineEdit@@UAEPAXPBD@Z 0046f03c     Qt5Widgets:Qt5Widgets.dll
 0002:00001040       __imp_?qt_metacast@QGridLayout@@UAEPAXPBD@Z 0046f040     Qt5Widgets:Qt5Widgets.dll
 0002:00001044       __imp_?qt_metacall@QWidget@@UAEHW4Call@QMetaObject@@HPAPAX@Z 0046f044     Qt5Widgets:Qt5Widgets.dll
 0002:00001048       __imp_?qt_metacall@QVBoxLayout@@UAEHW4Call@QMetaObject@@HPAPAX@Z 0046f048     Qt5Widgets:Qt5Widgets.dll
 0002:0000104c       __imp_?qt_metacall@QPushButton@@UAEHW4Call@QMetaObject@@HPAPAX@Z 0046f04c     Qt5Widgets:Qt5Widgets.dll
 0002:00001050       __imp_?qt_metacall@QLineEdit@@UAEHW4Call@QMetaObject@@HPAPAX@Z 0046f050     Qt5Widgets:Qt5Widgets.dll
 0002:00001054       __imp_?qt_metacall@QGridLayout@@UAEHW4Call@QMetaObject@@HPAPAX@Z 0046f054     Qt5Widgets:Qt5Widgets.dll
 0002:00001058       __imp_?paintEvent@QPushButton@@MAEXPAVQPaintEvent@@@Z 0046f058     Qt5Widgets:Qt5Widgets.dll
 0002:0000105c       __imp_?paintEvent@QLineEdit@@MAEXPAVQPaintEvent@@@Z 0046f05c     Qt5Widgets:Qt5Widgets.dll
 0002:00001060       __imp_?open@QDialog@@UAEXXZ 0046f060     Qt5Widgets:Qt5Widgets.dll
 0002:00001064       __imp_?nextCheckState@QAbstractButton@@MAEXXZ 0046f064     Qt5Widgets:Qt5Widgets.dll
 0002:00001068       __imp_?mouseReleaseEvent@QLineEdit@@MAEXPAVQMouseEvent@@@Z 0046f068     Qt5Widgets:Qt5Widgets.dll
 0002:0000106c       __imp_?mouseReleaseEvent@QAbstractButton@@MAEXPAVQMouseEvent@@@Z 0046f06c     Qt5Widgets:Qt5Widgets.dll
 0002:00001070       __imp_?mousePressEvent@QLineEdit@@MAEXPAVQMouseEvent@@@Z 0046f070     Qt5Widgets:Qt5Widgets.dll
 0002:00001074       __imp_?mousePressEvent@QAbstractButton@@MAEXPAVQMouseEvent@@@Z 0046f074     Qt5Widgets:Qt5Widgets.dll
 0002:00001078       __imp_?mouseMoveEvent@QLineEdit@@MAEXPAVQMouseEvent@@@Z 0046f078     Qt5Widgets:Qt5Widgets.dll
 0002:0000107c       __imp_?mouseMoveEvent@QAbstractButton@@MAEXPAVQMouseEvent@@@Z 0046f07c     Qt5Widgets:Qt5Widgets.dll
 0002:00001080       __imp_?mouseDoubleClickEvent@QLineEdit@@MAEXPAVQMouseEvent@@@Z 0046f080     Qt5Widgets:Qt5Widgets.dll
 0002:00001084       __imp_?minimumSizeHint@QPushButton@@UBE?AVQSize@@XZ 0046f084     Qt5Widgets:Qt5Widgets.dll
 0002:00001088       __imp_?minimumSizeHint@QLineEdit@@UBE?AVQSize@@XZ 0046f088     Qt5Widgets:Qt5Widgets.dll
 0002:0000108c       __imp_?minimumSizeHint@QDialog@@UBE?AVQSize@@XZ 0046f08c     Qt5Widgets:Qt5Widgets.dll
 0002:00001090       __imp_?minimumSize@QSpacerItem@@UBE?AVQSize@@XZ 0046f090     Qt5Widgets:Qt5Widgets.dll
 0002:00001094       __imp_?minimumSize@QGridLayout@@UBE?AVQSize@@XZ 0046f094     Qt5Widgets:Qt5Widgets.dll
 0002:00001098       __imp_?minimumHeightForWidth@QLayoutItem@@UBEHH@Z 0046f098     Qt5Widgets:Qt5Widgets.dll
 0002:0000109c       __imp_?minimumHeightForWidth@QGridLayout@@UBEHH@Z 0046f09c     Qt5Widgets:Qt5Widgets.dll
 0002:000010a0       __imp_?metaObject@QWidget@@UBEPBUQMetaObject@@XZ 0046f0a0     Qt5Widgets:Qt5Widgets.dll
 0002:000010a4       __imp_?metaObject@QVBoxLayout@@UBEPBUQMetaObject@@XZ 0046f0a4     Qt5Widgets:Qt5Widgets.dll
 0002:000010a8       __imp_?metaObject@QPushButton@@UBEPBUQMetaObject@@XZ 0046f0a8     Qt5Widgets:Qt5Widgets.dll
 0002:000010ac       __imp_?metaObject@QLineEdit@@UBEPBUQMetaObject@@XZ 0046f0ac     Qt5Widgets:Qt5Widgets.dll
 0002:000010b0       __imp_?metaObject@QGridLayout@@UBEPBUQMetaObject@@XZ 0046f0b0     Qt5Widgets:Qt5Widgets.dll
 0002:000010b4       __imp_?maximumSize@QSpacerItem@@UBE?AVQSize@@XZ 0046f0b4     Qt5Widgets:Qt5Widgets.dll
 0002:000010b8       __imp_?maximumSize@QGridLayout@@UBE?AVQSize@@XZ 0046f0b8     Qt5Widgets:Qt5Widgets.dll
 0002:000010bc       __imp_?layout@QLayoutItem@@UAEPAVQLayout@@XZ 0046f0bc     Qt5Widgets:Qt5Widgets.dll
 0002:000010c0       __imp_?keyReleaseEvent@QAbstractButton@@MAEXPAVQKeyEvent@@@Z 0046f0c0     Qt5Widgets:Qt5Widgets.dll
 0002:000010c4       __imp_?keyPressEvent@QPushButton@@MAEXPAVQKeyEvent@@@Z 0046f0c4     Qt5Widgets:Qt5Widgets.dll
 0002:000010c8       __imp_?keyPressEvent@QLineEdit@@MAEXPAVQKeyEvent@@@Z 0046f0c8     Qt5Widgets:Qt5Widgets.dll
 0002:000010cc       __imp_?keyPressEvent@QDialog@@MAEXPAVQKeyEvent@@@Z 0046f0cc     Qt5Widgets:Qt5Widgets.dll
 0002:000010d0       __imp_?itemAt@QGridLayout@@UBEPAVQLayoutItem@@H@Z 0046f0d0     Qt5Widgets:Qt5Widgets.dll
 0002:000010d4       __imp_?isEmpty@QSpacerItem@@UBE_NXZ 0046f0d4     Qt5Widgets:Qt5Widgets.dll
 0002:000010d8       __imp_?invalidate@QLayoutItem@@UAEXXZ 0046f0d8     Qt5Widgets:Qt5Widgets.dll
 0002:000010dc       __imp_?invalidate@QGridLayout@@UAEXXZ 0046f0dc     Qt5Widgets:Qt5Widgets.dll
 0002:000010e0       __imp_?inputMethodQuery@QLineEdit@@UBE?AVQVariant@@W4InputMethodQuery@Qt@@@Z 0046f0e0     Qt5Widgets:Qt5Widgets.dll
 0002:000010e4       __imp_?inputMethodEvent@QLineEdit@@MAEXPAVQInputMethodEvent@@@Z 0046f0e4     Qt5Widgets:Qt5Widgets.dll
 0002:000010e8       __imp_?hitButton@QAbstractButton@@MBE_NABVQPoint@@@Z 0046f0e8     Qt5Widgets:Qt5Widgets.dll
 0002:000010ec       __imp_?heightForWidth@QLayoutItem@@UBEHH@Z 0046f0ec     Qt5Widgets:Qt5Widgets.dll
 0002:000010f0       __imp_?heightForWidth@QGridLayout@@UBEHH@Z 0046f0f0     Qt5Widgets:Qt5Widgets.dll
 0002:000010f4       __imp_?hasHeightForWidth@QLayoutItem@@UBE_NXZ 0046f0f4     Qt5Widgets:Qt5Widgets.dll
 0002:000010f8       __imp_?hasHeightForWidth@QGridLayout@@UBE_NXZ 0046f0f8     Qt5Widgets:Qt5Widgets.dll
 0002:000010fc       __imp_?geometry@QSpacerItem@@UBE?AVQRect@@XZ 0046f0fc     Qt5Widgets:Qt5Widgets.dll
 0002:00001100       __imp_?focusOutEvent@QPushButton@@MAEXPAVQFocusEvent@@@Z 0046f100     Qt5Widgets:Qt5Widgets.dll
 0002:00001104       __imp_?focusOutEvent@QLineEdit@@MAEXPAVQFocusEvent@@@Z 0046f104     Qt5Widgets:Qt5Widgets.dll
 0002:00001108       __imp_?focusInEvent@QPushButton@@MAEXPAVQFocusEvent@@@Z 0046f108     Qt5Widgets:Qt5Widgets.dll
 0002:0000110c       __imp_?focusInEvent@QLineEdit@@MAEXPAVQFocusEvent@@@Z 0046f10c     Qt5Widgets:Qt5Widgets.dll
 0002:00001110       __imp_?expandingDirections@QSpacerItem@@UBE?AV?$QFlags@W4Orientation@Qt@@@@XZ 0046f110     Qt5Widgets:Qt5Widgets.dll
 0002:00001114       __imp_?expandingDirections@QGridLayout@@UBE?AV?$QFlags@W4Orientation@Qt@@@@XZ 0046f114     Qt5Widgets:Qt5Widgets.dll
 0002:00001118       __imp_?exec@QDialog@@UAEHXZ 0046f118     Qt5Widgets:Qt5Widgets.dll
 0002:0000111c       __imp_?eventFilter@QDialog@@MAE_NPAVQObject@@PAVQEvent@@@Z 0046f11c     Qt5Widgets:Qt5Widgets.dll
 0002:00001120       __imp_?event@QPushButton@@MAE_NPAVQEvent@@@Z 0046f120     Qt5Widgets:Qt5Widgets.dll
 0002:00001124       __imp_?event@QLineEdit@@UAE_NPAVQEvent@@@Z 0046f124     Qt5Widgets:Qt5Widgets.dll
 0002:00001128       __imp_?dropEvent@QLineEdit@@MAEXPAVQDropEvent@@@Z 0046f128     Qt5Widgets:Qt5Widgets.dll
 0002:0000112c       __imp_?dragMoveEvent@QLineEdit@@MAEXPAVQDragMoveEvent@@@Z 0046f12c     Qt5Widgets:Qt5Widgets.dll
 0002:00001130       __imp_?dragLeaveEvent@QLineEdit@@MAEXPAVQDragLeaveEvent@@@Z 0046f130     Qt5Widgets:Qt5Widgets.dll
 0002:00001134       __imp_?dragEnterEvent@QLineEdit@@MAEXPAVQDragEnterEvent@@@Z 0046f134     Qt5Widgets:Qt5Widgets.dll
 0002:00001138       __imp_?done@QDialog@@UAEXH@Z 0046f138     Qt5Widgets:Qt5Widgets.dll
 0002:0000113c       __imp_?count@QGridLayout@@UBEHXZ 0046f13c     Qt5Widgets:Qt5Widgets.dll
 0002:00001140       __imp_?controlTypes@QLayoutItem@@UBE?AV?$QFlags@W4ControlType@QSizePolicy@@@@XZ 0046f140     Qt5Widgets:Qt5Widgets.dll
 0002:00001144       __imp_?contextMenuEvent@QLineEdit@@MAEXPAVQContextMenuEvent@@@Z 0046f144     Qt5Widgets:Qt5Widgets.dll
 0002:00001148       __imp_?contextMenuEvent@QDialog@@MAEXPAVQContextMenuEvent@@@Z 0046f148     Qt5Widgets:Qt5Widgets.dll
 0002:0000114c       __imp_?closeEvent@QDialog@@MAEXPAVQCloseEvent@@@Z 0046f14c     Qt5Widgets:Qt5Widgets.dll
 0002:00001150       __imp_?checkStateSet@QAbstractButton@@MAEXXZ 0046f150     Qt5Widgets:Qt5Widgets.dll
 0002:00001154       __imp_?changeEvent@QLineEdit@@MAEXPAVQEvent@@@Z 0046f154     Qt5Widgets:Qt5Widgets.dll
 0002:00001158       __imp_?changeEvent@QAbstractButton@@MAEXPAVQEvent@@@Z 0046f158     Qt5Widgets:Qt5Widgets.dll
 0002:0000115c       __imp_?addItem@QGridLayout@@MAEXPAVQLayoutItem@@@Z 0046f15c     Qt5Widgets:Qt5Widgets.dll
 0002:00001160       __imp_?accept@QDialog@@UAEXXZ 0046f160     Qt5Widgets:Qt5Widgets.dll
 0002:00001164       __imp_??1QPushButton@@UAE@XZ 0046f164     Qt5Widgets:Qt5Widgets.dll
 0002:00001168       __imp_??0QPushButton@@QAE@PAVQWidget@@@Z 0046f168     Qt5Widgets:Qt5Widgets.dll
 0002:0000116c       __imp_?setText@QAbstractButton@@QAEXABVQString@@@Z 0046f16c     Qt5Widgets:Qt5Widgets.dll
 0002:00001170       __imp_?setText@QLineEdit@@QAEXABVQString@@@Z 0046f170     Qt5Widgets:Qt5Widgets.dll
 0002:00001174       __imp_?setEchoMode@QLineEdit@@QAEXW4EchoMode@1@@Z 0046f174     Qt5Widgets:Qt5Widgets.dll
 0002:00001178       __imp_?setPlaceholderText@QLineEdit@@QAEXABVQString@@@Z 0046f178     Qt5Widgets:Qt5Widgets.dll
 0002:0000117c       __imp_?text@QLineEdit@@QBE?AVQString@@XZ 0046f17c     Qt5Widgets:Qt5Widgets.dll
 0002:00001180       __imp_??1QLineEdit@@UAE@XZ 0046f180     Qt5Widgets:Qt5Widgets.dll
 0002:00001184       __imp_??0QLineEdit@@QAE@PAVQWidget@@@Z 0046f184     Qt5Widgets:Qt5Widgets.dll
 0002:00001188       __imp_?addWidget@QGridLayout@@QAEXPAVQWidget@@HHHHV?$QFlags@W4AlignmentFlag@Qt@@@@@Z 0046f188     Qt5Widgets:Qt5Widgets.dll
 0002:0000118c       __imp_?setVerticalSpacing@QGridLayout@@QAEXH@Z 0046f18c     Qt5Widgets:Qt5Widgets.dll
 0002:00001190       __imp_??1QGridLayout@@UAE@XZ 0046f190     Qt5Widgets:Qt5Widgets.dll
 0002:00001194       __imp_??0QGridLayout@@QAE@XZ 0046f194     Qt5Widgets:Qt5Widgets.dll
 0002:00001198       __imp_??1QVBoxLayout@@UAE@XZ 0046f198     Qt5Widgets:Qt5Widgets.dll
 0002:0000119c       __imp_??0QVBoxLayout@@QAE@PAVQWidget@@@Z 0046f19c     Qt5Widgets:Qt5Widgets.dll
 0002:000011a0       __imp_?addLayout@QBoxLayout@@QAEXPAVQLayout@@H@Z 0046f1a0     Qt5Widgets:Qt5Widgets.dll
 0002:000011a4       __imp_??1QSpacerItem@@UAE@XZ 0046f1a4     Qt5Widgets:Qt5Widgets.dll
 0002:000011a8       __imp_??0QSpacerItem@@QAE@HHW4Policy@QSizePolicy@@0@Z 0046f1a8     Qt5Widgets:Qt5Widgets.dll
 0002:000011ac       __imp_??1QDialog@@UAE@XZ   0046f1ac     Qt5Widgets:Qt5Widgets.dll
 0002:000011b0       __imp_??0QDialog@@QAE@PAVQWidget@@V?$QFlags@W4WindowType@Qt@@@@@Z 0046f1b0     Qt5Widgets:Qt5Widgets.dll
 0002:000011b4       __imp_?close@QWidget@@QAE_NXZ 0046f1b4     Qt5Widgets:Qt5Widgets.dll
 0002:000011b8       __imp_?widget@QLayoutItem@@UAEPAVQWidget@@XZ 0046f1b8     Qt5Widgets:Qt5Widgets.dll
 0002:000011bc       __imp_?wheelEvent@QWidget@@MAEXPAVQWheelEvent@@@Z 0046f1bc     Qt5Widgets:Qt5Widgets.dll
 0002:000011c0       __imp_?wheelEvent@QAbstractSpinBox@@MAEXPAVQWheelEvent@@@Z 0046f1c0     Qt5Widgets:Qt5Widgets.dll
 0002:000011c4       __imp_?valueFromText@QDoubleSpinBox@@UBENABVQString@@@Z 0046f1c4     Qt5Widgets:Qt5Widgets.dll
 0002:000011c8       __imp_?validate@QDoubleSpinBox@@UBE?AW4State@QValidator@@AAVQString@@AAH@Z 0046f1c8     Qt5Widgets:Qt5Widgets.dll
 0002:000011cc       __imp_?timerEvent@QAbstractSpinBox@@MAEXPAVQTimerEvent@@@Z 0046f1cc     Qt5Widgets:Qt5Widgets.dll
 0002:000011d0       __imp_?textFromValue@QDoubleSpinBox@@UBE?AVQString@@N@Z 0046f1d0     Qt5Widgets:Qt5Widgets.dll
 0002:000011d4       __imp_?takeAt@QBoxLayout@@UAEPAVQLayoutItem@@H@Z 0046f1d4     Qt5Widgets:Qt5Widgets.dll
 0002:000011d8       __imp_?tabletEvent@QWidget@@MAEXPAVQTabletEvent@@@Z 0046f1d8     Qt5Widgets:Qt5Widgets.dll
 0002:000011dc       __imp_?stepEnabled@QAbstractSpinBox@@MBE?AV?$QFlags@W4StepEnabledFlag@QAbstractSpinBox@@@@XZ 0046f1dc     Qt5Widgets:Qt5Widgets.dll
 0002:000011e0       __imp_?stepBy@QAbstractSpinBox@@UAEXH@Z 0046f1e0     Qt5Widgets:Qt5Widgets.dll
 0002:000011e4       __imp_?spacerItem@QLayoutItem@@UAEPAVQSpacerItem@@XZ 0046f1e4     Qt5Widgets:Qt5Widgets.dll
 0002:000011e8       __imp_?sizeHint@QWidget@@UBE?AVQSize@@XZ 0046f1e8     Qt5Widgets:Qt5Widgets.dll
 0002:000011ec       __imp_?sizeHint@QLabel@@UBE?AVQSize@@XZ 0046f1ec     Qt5Widgets:Qt5Widgets.dll
 0002:000011f0       __imp_?sizeHint@QBoxLayout@@UBE?AVQSize@@XZ 0046f1f0     Qt5Widgets:Qt5Widgets.dll
 0002:000011f4       __imp_?sizeHint@QAbstractSpinBox@@UBE?AVQSize@@XZ 0046f1f4     Qt5Widgets:Qt5Widgets.dll
 0002:000011f8       __imp_?showEvent@QWidget@@MAEXPAVQShowEvent@@@Z 0046f1f8     Qt5Widgets:Qt5Widgets.dll
 0002:000011fc       __imp_?showEvent@QAbstractSpinBox@@MAEXPAVQShowEvent@@@Z 0046f1fc     Qt5Widgets:Qt5Widgets.dll
 0002:00001200       __imp_?sharedPainter@QWidget@@MBEPAVQPainter@@XZ 0046f200     Qt5Widgets:Qt5Widgets.dll
 0002:00001204       __imp_?setVisible@QWidget@@UAEX_N@Z 0046f204     Qt5Widgets:Qt5Widgets.dll
 0002:00001208       __imp_?setGeometry@QBoxLayout@@UAEXABVQRect@@@Z 0046f208     Qt5Widgets:Qt5Widgets.dll
 0002:0000120c       __imp_?resizeEvent@QWidget@@MAEXPAVQResizeEvent@@@Z 0046f20c     Qt5Widgets:Qt5Widgets.dll
 0002:00001210       __imp_?resizeEvent@QAbstractSpinBox@@MAEXPAVQResizeEvent@@@Z 0046f210     Qt5Widgets:Qt5Widgets.dll
 0002:00001214       __imp_?redirected@QWidget@@MBEPAVQPaintDevice@@PAVQPoint@@@Z 0046f214     Qt5Widgets:Qt5Widgets.dll
 0002:00001218       __imp_?qt_metacast@QLabel@@UAEPAXPBD@Z 0046f218     Qt5Widgets:Qt5Widgets.dll
 0002:0000121c       __imp_?qt_metacast@QHBoxLayout@@UAEPAXPBD@Z 0046f21c     Qt5Widgets:Qt5Widgets.dll
 0002:00001220       __imp_?qt_metacast@QDoubleSpinBox@@UAEPAXPBD@Z 0046f220     Qt5Widgets:Qt5Widgets.dll
 0002:00001224       __imp_?qt_metacall@QLabel@@UAEHW4Call@QMetaObject@@HPAPAX@Z 0046f224     Qt5Widgets:Qt5Widgets.dll
 0002:00001228       __imp_?qt_metacall@QHBoxLayout@@UAEHW4Call@QMetaObject@@HPAPAX@Z 0046f228     Qt5Widgets:Qt5Widgets.dll
 0002:0000122c       __imp_?qt_metacall@QDoubleSpinBox@@UAEHW4Call@QMetaObject@@HPAPAX@Z 0046f22c     Qt5Widgets:Qt5Widgets.dll
 0002:00001230       __imp_?paintEvent@QWidget@@MAEXPAVQPaintEvent@@@Z 0046f230     Qt5Widgets:Qt5Widgets.dll
 0002:00001234       __imp_?paintEvent@QLabel@@MAEXPAVQPaintEvent@@@Z 0046f234     Qt5Widgets:Qt5Widgets.dll
 0002:00001238       __imp_?paintEvent@QAbstractSpinBox@@MAEXPAVQPaintEvent@@@Z 0046f238     Qt5Widgets:Qt5Widgets.dll
 0002:0000123c       __imp_?paintEngine@QWidget@@UBEPAVQPaintEngine@@XZ 0046f23c     Qt5Widgets:Qt5Widgets.dll
 0002:00001240       __imp_?nativeEvent@QWidget@@MAE_NABVQByteArray@@PAXPAJ@Z 0046f240     Qt5Widgets:Qt5Widgets.dll
 0002:00001244       __imp_?moveEvent@QWidget@@MAEXPAVQMoveEvent@@@Z 0046f244     Qt5Widgets:Qt5Widgets.dll
 0002:00001248       __imp_?mouseReleaseEvent@QWidget@@MAEXPAVQMouseEvent@@@Z 0046f248     Qt5Widgets:Qt5Widgets.dll
 0002:0000124c       __imp_?mouseReleaseEvent@QLabel@@MAEXPAVQMouseEvent@@@Z 0046f24c     Qt5Widgets:Qt5Widgets.dll
 0002:00001250       __imp_?mouseReleaseEvent@QAbstractSpinBox@@MAEXPAVQMouseEvent@@@Z 0046f250     Qt5Widgets:Qt5Widgets.dll
 0002:00001254       __imp_?mousePressEvent@QWidget@@MAEXPAVQMouseEvent@@@Z 0046f254     Qt5Widgets:Qt5Widgets.dll
 0002:00001258       __imp_?mousePressEvent@QLabel@@MAEXPAVQMouseEvent@@@Z 0046f258     Qt5Widgets:Qt5Widgets.dll
 0002:0000125c       __imp_?mousePressEvent@QAbstractSpinBox@@MAEXPAVQMouseEvent@@@Z 0046f25c     Qt5Widgets:Qt5Widgets.dll
 0002:00001260       __imp_?mouseMoveEvent@QWidget@@MAEXPAVQMouseEvent@@@Z 0046f260     Qt5Widgets:Qt5Widgets.dll
 0002:00001264       __imp_?mouseMoveEvent@QLabel@@MAEXPAVQMouseEvent@@@Z 0046f264     Qt5Widgets:Qt5Widgets.dll
 0002:00001268       __imp_?mouseMoveEvent@QAbstractSpinBox@@MAEXPAVQMouseEvent@@@Z 0046f268     Qt5Widgets:Qt5Widgets.dll
 0002:0000126c       __imp_?mouseDoubleClickEvent@QWidget@@MAEXPAVQMouseEvent@@@Z 0046f26c     Qt5Widgets:Qt5Widgets.dll
 0002:00001270       __imp_?minimumSizeHint@QWidget@@UBE?AVQSize@@XZ 0046f270     Qt5Widgets:Qt5Widgets.dll
 0002:00001274       __imp_?minimumSizeHint@QLabel@@UBE?AVQSize@@XZ 0046f274     Qt5Widgets:Qt5Widgets.dll
 0002:00001278       __imp_?minimumSizeHint@QAbstractSpinBox@@UBE?AVQSize@@XZ 0046f278     Qt5Widgets:Qt5Widgets.dll
 0002:0000127c       __imp_?minimumSize@QBoxLayout@@UBE?AVQSize@@XZ 0046f27c     Qt5Widgets:Qt5Widgets.dll
 0002:00001280       __imp_?minimumHeightForWidth@QBoxLayout@@UBEHH@Z 0046f280     Qt5Widgets:Qt5Widgets.dll
 0002:00001284       __imp_?metric@QWidget@@MBEHW4PaintDeviceMetric@QPaintDevice@@@Z 0046f284     Qt5Widgets:Qt5Widgets.dll
 0002:00001288       __imp_?metaObject@QLabel@@UBEPBUQMetaObject@@XZ 0046f288     Qt5Widgets:Qt5Widgets.dll
 0002:0000128c       __imp_?metaObject@QHBoxLayout@@UBEPBUQMetaObject@@XZ 0046f28c     Qt5Widgets:Qt5Widgets.dll
 0002:00001290       __imp_?metaObject@QDoubleSpinBox@@UBEPBUQMetaObject@@XZ 0046f290     Qt5Widgets:Qt5Widgets.dll
 0002:00001294       __imp_?maximumSize@QBoxLayout@@UBE?AVQSize@@XZ 0046f294     Qt5Widgets:Qt5Widgets.dll
 0002:00001298       __imp_?leaveEvent@QWidget@@MAEXPAVQEvent@@@Z 0046f298     Qt5Widgets:Qt5Widgets.dll
 0002:0000129c       __imp_?layout@QLayout@@UAEPAV1@XZ 0046f29c     Qt5Widgets:Qt5Widgets.dll
 0002:000012a0       __imp_?keyReleaseEvent@QWidget@@MAEXPAVQKeyEvent@@@Z 0046f2a0     Qt5Widgets:Qt5Widgets.dll
 0002:000012a4       __imp_?keyReleaseEvent@QAbstractSpinBox@@MAEXPAVQKeyEvent@@@Z 0046f2a4     Qt5Widgets:Qt5Widgets.dll
 0002:000012a8       __imp_?keyPressEvent@QWidget@@MAEXPAVQKeyEvent@@@Z 0046f2a8     Qt5Widgets:Qt5Widgets.dll
 0002:000012ac       __imp_?keyPressEvent@QLabel@@MAEXPAVQKeyEvent@@@Z 0046f2ac     Qt5Widgets:Qt5Widgets.dll
 0002:000012b0       __imp_?keyPressEvent@QAbstractSpinBox@@MAEXPAVQKeyEvent@@@Z 0046f2b0     Qt5Widgets:Qt5Widgets.dll
 0002:000012b4       __imp_?itemAt@QBoxLayout@@UBEPAVQLayoutItem@@H@Z 0046f2b4     Qt5Widgets:Qt5Widgets.dll
 0002:000012b8       __imp_?isEmpty@QLayout@@UBE_NXZ 0046f2b8     Qt5Widgets:Qt5Widgets.dll
 0002:000012bc       __imp_?invalidate@QBoxLayout@@UAEXXZ 0046f2bc     Qt5Widgets:Qt5Widgets.dll
 0002:000012c0       __imp_?inputMethodQuery@QWidget@@UBE?AVQVariant@@W4InputMethodQuery@Qt@@@Z 0046f2c0     Qt5Widgets:Qt5Widgets.dll
 0002:000012c4       __imp_?inputMethodQuery@QAbstractSpinBox@@UBE?AVQVariant@@W4InputMethodQuery@Qt@@@Z 0046f2c4     Qt5Widgets:Qt5Widgets.dll
 0002:000012c8       __imp_?inputMethodEvent@QWidget@@MAEXPAVQInputMethodEvent@@@Z 0046f2c8     Qt5Widgets:Qt5Widgets.dll
 0002:000012cc       __imp_?initPainter@QWidget@@MBEXPAVQPainter@@@Z 0046f2cc     Qt5Widgets:Qt5Widgets.dll
 0002:000012d0       __imp_?indexOf@QLayout@@UBEHPAVQWidget@@@Z 0046f2d0     Qt5Widgets:Qt5Widgets.dll
 0002:000012d4       __imp_?hideEvent@QWidget@@MAEXPAVQHideEvent@@@Z 0046f2d4     Qt5Widgets:Qt5Widgets.dll
 0002:000012d8       __imp_?hideEvent@QAbstractSpinBox@@MAEXPAVQHideEvent@@@Z 0046f2d8     Qt5Widgets:Qt5Widgets.dll
 0002:000012dc       __imp_?heightForWidth@QWidget@@UBEHH@Z 0046f2dc     Qt5Widgets:Qt5Widgets.dll
 0002:000012e0       __imp_?heightForWidth@QLabel@@UBEHH@Z 0046f2e0     Qt5Widgets:Qt5Widgets.dll
 0002:000012e4       __imp_?heightForWidth@QBoxLayout@@UBEHH@Z 0046f2e4     Qt5Widgets:Qt5Widgets.dll
 0002:000012e8       __imp_?hasHeightForWidth@QWidget@@UBE_NXZ 0046f2e8     Qt5Widgets:Qt5Widgets.dll
 0002:000012ec       __imp_?hasHeightForWidth@QBoxLayout@@UBE_NXZ 0046f2ec     Qt5Widgets:Qt5Widgets.dll
 0002:000012f0       __imp_?geometry@QLayout@@UBE?AVQRect@@XZ 0046f2f0     Qt5Widgets:Qt5Widgets.dll
 0002:000012f4       __imp_?focusOutEvent@QWidget@@MAEXPAVQFocusEvent@@@Z 0046f2f4     Qt5Widgets:Qt5Widgets.dll
 0002:000012f8       __imp_?focusOutEvent@QLabel@@MAEXPAVQFocusEvent@@@Z 0046f2f8     Qt5Widgets:Qt5Widgets.dll
 0002:000012fc       __imp_?focusOutEvent@QAbstractSpinBox@@MAEXPAVQFocusEvent@@@Z 0046f2fc     Qt5Widgets:Qt5Widgets.dll
 0002:00001300       __imp_?focusNextPrevChild@QWidget@@MAE_N_N@Z 0046f300     Qt5Widgets:Qt5Widgets.dll
 0002:00001304       __imp_?focusNextPrevChild@QLabel@@MAE_N_N@Z 0046f304     Qt5Widgets:Qt5Widgets.dll
 0002:00001308       __imp_?focusInEvent@QWidget@@MAEXPAVQFocusEvent@@@Z 0046f308     Qt5Widgets:Qt5Widgets.dll
 0002:0000130c       __imp_?focusInEvent@QLabel@@MAEXPAVQFocusEvent@@@Z 0046f30c     Qt5Widgets:Qt5Widgets.dll
 0002:00001310       __imp_?focusInEvent@QAbstractSpinBox@@MAEXPAVQFocusEvent@@@Z 0046f310     Qt5Widgets:Qt5Widgets.dll
 0002:00001314       __imp_?fixup@QDoubleSpinBox@@UBEXAAVQString@@@Z 0046f314     Qt5Widgets:Qt5Widgets.dll
 0002:00001318       __imp_?expandingDirections@QBoxLayout@@UBE?AV?$QFlags@W4Orientation@Qt@@@@XZ 0046f318     Qt5Widgets:Qt5Widgets.dll
 0002:0000131c       __imp_?event@QWidget@@MAE_NPAVQEvent@@@Z 0046f31c     Qt5Widgets:Qt5Widgets.dll
 0002:00001320       __imp_?event@QLabel@@MAE_NPAVQEvent@@@Z 0046f320     Qt5Widgets:Qt5Widgets.dll
 0002:00001324       __imp_?event@QAbstractSpinBox@@UAE_NPAVQEvent@@@Z 0046f324     Qt5Widgets:Qt5Widgets.dll
 0002:00001328       __imp_?enterEvent@QWidget@@MAEXPAVQEvent@@@Z 0046f328     Qt5Widgets:Qt5Widgets.dll
 0002:0000132c       __imp_?dropEvent@QWidget@@MAEXPAVQDropEvent@@@Z 0046f32c     Qt5Widgets:Qt5Widgets.dll
 0002:00001330       __imp_?dragMoveEvent@QWidget@@MAEXPAVQDragMoveEvent@@@Z 0046f330     Qt5Widgets:Qt5Widgets.dll
 0002:00001334       __imp_?dragLeaveEvent@QWidget@@MAEXPAVQDragLeaveEvent@@@Z 0046f334     Qt5Widgets:Qt5Widgets.dll
 0002:00001338       __imp_?dragEnterEvent@QWidget@@MAEXPAVQDragEnterEvent@@@Z 0046f338     Qt5Widgets:Qt5Widgets.dll
 0002:0000133c       __imp_?devType@QWidget@@UBEHXZ 0046f33c     Qt5Widgets:Qt5Widgets.dll
 0002:00001340       __imp_?count@QBoxLayout@@UBEHXZ 0046f340     Qt5Widgets:Qt5Widgets.dll
 0002:00001344       __imp_?controlTypes@QLayout@@UBE?AV?$QFlags@W4ControlType@QSizePolicy@@@@XZ 0046f344     Qt5Widgets:Qt5Widgets.dll
 0002:00001348       __imp_?contextMenuEvent@QWidget@@MAEXPAVQContextMenuEvent@@@Z 0046f348     Qt5Widgets:Qt5Widgets.dll
 0002:0000134c       __imp_?contextMenuEvent@QLabel@@MAEXPAVQContextMenuEvent@@@Z 0046f34c     Qt5Widgets:Qt5Widgets.dll
 0002:00001350       __imp_?contextMenuEvent@QAbstractSpinBox@@MAEXPAVQContextMenuEvent@@@Z 0046f350     Qt5Widgets:Qt5Widgets.dll
 0002:00001354       __imp_?closeEvent@QWidget@@MAEXPAVQCloseEvent@@@Z 0046f354     Qt5Widgets:Qt5Widgets.dll
 0002:00001358       __imp_?closeEvent@QAbstractSpinBox@@MAEXPAVQCloseEvent@@@Z 0046f358     Qt5Widgets:Qt5Widgets.dll
 0002:0000135c       __imp_?clear@QAbstractSpinBox@@UAEXXZ 0046f35c     Qt5Widgets:Qt5Widgets.dll
 0002:00001360       __imp_?childEvent@QLayout@@MAEXPAVQChildEvent@@@Z 0046f360     Qt5Widgets:Qt5Widgets.dll
 0002:00001364       __imp_?changeEvent@QWidget@@MAEXPAVQEvent@@@Z 0046f364     Qt5Widgets:Qt5Widgets.dll
 0002:00001368       __imp_?changeEvent@QLabel@@MAEXPAVQEvent@@@Z 0046f368     Qt5Widgets:Qt5Widgets.dll
 0002:0000136c       __imp_?changeEvent@QAbstractSpinBox@@MAEXPAVQEvent@@@Z 0046f36c     Qt5Widgets:Qt5Widgets.dll
 0002:00001370       __imp_?addItem@QBoxLayout@@UAEXPAVQLayoutItem@@@Z 0046f370     Qt5Widgets:Qt5Widgets.dll
 0002:00001374       __imp_?actionEvent@QWidget@@MAEXPAVQActionEvent@@@Z 0046f374     Qt5Widgets:Qt5Widgets.dll
 0002:00001378       __imp_?setText@QLabel@@QAEXABVQString@@@Z 0046f378     Qt5Widgets:Qt5Widgets.dll
 0002:0000137c       __imp_??1QLabel@@UAE@XZ    0046f37c     Qt5Widgets:Qt5Widgets.dll
 0002:00001380       __imp_??0QLabel@@QAE@PAVQWidget@@V?$QFlags@W4WindowType@Qt@@@@@Z 0046f380     Qt5Widgets:Qt5Widgets.dll
 0002:00001384       __imp_??1QHBoxLayout@@UAE@XZ 0046f384     Qt5Widgets:Qt5Widgets.dll
 0002:00001388       __imp_??0QHBoxLayout@@QAE@PAVQWidget@@@Z 0046f388     Qt5Widgets:Qt5Widgets.dll
 0002:0000138c       __imp_?setStretch@QBoxLayout@@QAEXHH@Z 0046f38c     Qt5Widgets:Qt5Widgets.dll
 0002:00001390       __imp_?setSpacing@QBoxLayout@@QAEXH@Z 0046f390     Qt5Widgets:Qt5Widgets.dll
 0002:00001394       __imp_?addWidget@QBoxLayout@@QAEXPAVQWidget@@HV?$QFlags@W4AlignmentFlag@Qt@@@@@Z 0046f394     Qt5Widgets:Qt5Widgets.dll
 0002:00001398       __imp_?setContentsMargins@QLayout@@QAEXHHHH@Z 0046f398     Qt5Widgets:Qt5Widgets.dll
 0002:0000139c       __imp_?setValue@QDoubleSpinBox@@QAEXN@Z 0046f39c     Qt5Widgets:Qt5Widgets.dll
 0002:000013a0       __imp_?setMaximum@QDoubleSpinBox@@QAEXN@Z 0046f3a0     Qt5Widgets:Qt5Widgets.dll
 0002:000013a4       __imp_?setSingleStep@QDoubleSpinBox@@QAEXN@Z 0046f3a4     Qt5Widgets:Qt5Widgets.dll
 0002:000013a8       __imp_?value@QDoubleSpinBox@@QBENXZ 0046f3a8     Qt5Widgets:Qt5Widgets.dll
 0002:000013ac       __imp_??1QDoubleSpinBox@@UAE@XZ 0046f3ac     Qt5Widgets:Qt5Widgets.dll
 0002:000013b0       __imp_??0QDoubleSpinBox@@QAE@PAVQWidget@@@Z 0046f3b0     Qt5Widgets:Qt5Widgets.dll
 0002:000013b4       __imp_?setAlignment@QAbstractSpinBox@@QAEXV?$QFlags@W4AlignmentFlag@Qt@@@@@Z 0046f3b4     Qt5Widgets:Qt5Widgets.dll
 0002:000013b8       __imp_?setButtonSymbols@QAbstractSpinBox@@QAEXW4ButtonSymbols@1@@Z 0046f3b8     Qt5Widgets:Qt5Widgets.dll
 0002:000013bc       __imp_?setSizePolicy@QWidget@@QAEXVQSizePolicy@@@Z 0046f3bc     Qt5Widgets:Qt5Widgets.dll
 0002:000013c0       __imp_?sizePolicy@QWidget@@QBE?AVQSizePolicy@@XZ 0046f3c0     Qt5Widgets:Qt5Widgets.dll
 0002:000013c4       __imp_?resize@QWidget@@QAEXHH@Z 0046f3c4     Qt5Widgets:Qt5Widgets.dll
 0002:000013c8       __imp_?setWindowTitle@QWidget@@QAEXABVQString@@@Z 0046f3c8     Qt5Widgets:Qt5Widgets.dll
 0002:000013cc       __imp_??1QWidget@@UAE@XZ   0046f3cc     Qt5Widgets:Qt5Widgets.dll
 0002:000013d0       __imp_??0QWidget@@QAE@PAV0@V?$QFlags@W4WindowType@Qt@@@@@Z 0046f3d0     Qt5Widgets:Qt5Widgets.dll
 0002:000013d4       __imp_?setVerticalStretch@QSizePolicy@@QAEXH@Z 0046f3d4     Qt5Widgets:Qt5Widgets.dll
 0002:000013d8       __imp_?setHorizontalStretch@QSizePolicy@@QAEXH@Z 0046f3d8     Qt5Widgets:Qt5Widgets.dll
 0002:000013dc       __imp_?hasHeightForWidth@QSizePolicy@@QBE_NXZ 0046f3dc     Qt5Widgets:Qt5Widgets.dll
 0002:000013e0       __imp_?setHeightForWidth@QSizePolicy@@QAEX_N@Z 0046f3e0     Qt5Widgets:Qt5Widgets.dll
 0002:000013e4       __imp_??0QSizePolicy@@QAE@W4Policy@0@0W4ControlType@0@@Z 0046f3e4     Qt5Widgets:Qt5Widgets.dll
 0002:000013e8       __imp_??1QComboBox@@UAE@XZ 0046f3e8     Qt5Widgets:Qt5Widgets.dll
 0002:000013ec       __imp_?createMimeDataFromSelection@QTextEdit@@MBEPAVQMimeData@@XZ 0046f3ec     Qt5Widgets:Qt5Widgets.dll
 0002:000013f0       \177Qt5Widgets_NULL_THUNK_DATA 0046f3f0     Qt5Widgets:Qt5Widgets.dll
 0002:000013f4       __imp__CommandLineToArgvW@8 0046f3f4     shell32:SHELL32.dll
 0002:000013f8       \177SHELL32_NULL_THUNK_DATA 0046f3f8     shell32:SHELL32.dll
 0002:000013fc       __imp_?SetCustomWidgetCreator@Builder@tt@@QAEXABVQString@@ABV?$function@$$A6APAVQWidget@@XZ@std@@@Z 0046f3fc     TabToolbar:TabToolbar.dll
 0002:00001400       __imp_?CreateTabToolbar@Builder@tt@@QAEPAVTabToolbar@2@ABVQString@@@Z 0046f400     TabToolbar:TabToolbar.dll
 0002:00001404       __imp_??0Builder@tt@@QAE@PAVQWidget@@@Z 0046f404     TabToolbar:TabToolbar.dll
 0002:00001408       __imp_??1Builder@tt@@UAE@XZ 0046f408     TabToolbar:TabToolbar.dll
 0002:0000140c       \177TabToolbar_NULL_THUNK_DATA 0046f40c     TabToolbar:TabToolbar.dll
 0002:00001410       __imp____std_exception_destroy 0046f410     vcruntime:VCRUNTIME140.dll
 0002:00001414       __imp____std_exception_copy 0046f414     vcruntime:VCRUNTIME140.dll
 0002:00001418       __imp___except_handler4_common 0046f418     vcruntime:VCRUNTIME140.dll
 0002:0000141c       __imp____current_exception_context 0046f41c     vcruntime:VCRUNTIME140.dll
 0002:00001420       __imp____current_exception 0046f420     vcruntime:VCRUNTIME140.dll
 0002:00001424       __imp____CxxFrameHandler3  0046f424     vcruntime:VCRUNTIME140.dll
 0002:00001428       __imp__memset              0046f428     vcruntime:VCRUNTIME140.dll
 0002:0000142c       __imp__memcpy              0046f42c     vcruntime:VCRUNTIME140.dll
 0002:00001430       __imp___CxxThrowException@8 0046f430     vcruntime:VCRUNTIME140.dll
 0002:00001434       __imp____std_terminate     0046f434     vcruntime:VCRUNTIME140.dll
 0002:00001438       __imp__memchr              0046f438     vcruntime:VCRUNTIME140.dll
 0002:0000143c       \177VCRUNTIME140_NULL_THUNK_DATA 0046f43c     vcruntime:VCRUNTIME140.dll
 0002:00001440       __imp__strtoul             0046f440     ucrt:api-ms-win-crt-convert-l1-1-0.dll
 0002:00001444       \177api-ms-win-crt-convert-l1-1-0_NULL_THUNK_DATA 0046f444     ucrt:api-ms-win-crt-convert-l1-1-0.dll
 0002:00001448       __imp__free                0046f448     ucrt:api-ms-win-crt-heap-l1-1-0.dll
 0002:0000144c       __imp__malloc              0046f44c     ucrt:api-ms-win-crt-heap-l1-1-0.dll
 0002:00001450       __imp___callnewh           0046f450     ucrt:api-ms-win-crt-heap-l1-1-0.dll
 0002:00001454       __imp___set_new_mode       0046f454     ucrt:api-ms-win-crt-heap-l1-1-0.dll
 0002:00001458       \177api-ms-win-crt-heap-l1-1-0_NULL_THUNK_DATA 0046f458     ucrt:api-ms-win-crt-heap-l1-1-0.dll
 0002:0000145c       __imp___configthreadlocale 0046f45c     ucrt:api-ms-win-crt-locale-l1-1-0.dll
 0002:00001460       \177api-ms-win-crt-locale-l1-1-0_NULL_THUNK_DATA 0046f460     ucrt:api-ms-win-crt-locale-l1-1-0.dll
 0002:00001464       __imp____setusermatherr    0046f464     ucrt:api-ms-win-crt-math-l1-1-0.dll
 0002:00001468       \177api-ms-win-crt-math-l1-1-0_NULL_THUNK_DATA 0046f468     ucrt:api-ms-win-crt-math-l1-1-0.dll
 0002:0000146c       __imp___initterm_e         0046f46c     ucrt:api-ms-win-crt-runtime-l1-1-0.dll
 0002:00001470       __imp___initterm           0046f470     ucrt:api-ms-win-crt-runtime-l1-1-0.dll
 0002:00001474       __imp___get_narrow_winmain_command_line 0046f474     ucrt:api-ms-win-crt-runtime-l1-1-0.dll
 0002:00001478       __imp__exit                0046f478     ucrt:api-ms-win-crt-runtime-l1-1-0.dll
 0002:0000147c       __imp___exit               0046f47c     ucrt:api-ms-win-crt-runtime-l1-1-0.dll
 0002:00001480       __imp___register_thread_local_exe_atexit_callback 0046f480     ucrt:api-ms-win-crt-runtime-l1-1-0.dll
 0002:00001484       __imp___seh_filter_exe     0046f484     ucrt:api-ms-win-crt-runtime-l1-1-0.dll
 0002:00001488       __imp___c_exit             0046f488     ucrt:api-ms-win-crt-runtime-l1-1-0.dll
 0002:0000148c       __imp___cexit              0046f48c     ucrt:api-ms-win-crt-runtime-l1-1-0.dll
 0002:00001490       __imp___crt_atexit         0046f490     ucrt:api-ms-win-crt-runtime-l1-1-0.dll
 0002:00001494       __imp___register_onexit_function 0046f494     ucrt:api-ms-win-crt-runtime-l1-1-0.dll
 0002:00001498       __imp___initialize_onexit_table 0046f498     ucrt:api-ms-win-crt-runtime-l1-1-0.dll
 0002:0000149c       __imp___initialize_narrow_environment 0046f49c     ucrt:api-ms-win-crt-runtime-l1-1-0.dll
 0002:000014a0       __imp___configure_narrow_argv 0046f4a0     ucrt:api-ms-win-crt-runtime-l1-1-0.dll
 0002:000014a4       __imp___controlfp_s        0046f4a4     ucrt:api-ms-win-crt-runtime-l1-1-0.dll
 0002:000014a8       __imp__terminate           0046f4a8     ucrt:api-ms-win-crt-runtime-l1-1-0.dll
 0002:000014ac       __imp___set_app_type       0046f4ac     ucrt:api-ms-win-crt-runtime-l1-1-0.dll
 0002:000014b0       \177api-ms-win-crt-runtime-l1-1-0_NULL_THUNK_DATA 0046f4b0     ucrt:api-ms-win-crt-runtime-l1-1-0.dll
 0002:000014b4       __imp___set_fmode          0046f4b4     ucrt:api-ms-win-crt-stdio-l1-1-0.dll
 0002:000014b8       __imp____p__commode        0046f4b8     ucrt:api-ms-win-crt-stdio-l1-1-0.dll
 0002:000014bc       \177api-ms-win-crt-stdio-l1-1-0_NULL_THUNK_DATA 0046f4bc     ucrt:api-ms-win-crt-stdio-l1-1-0.dll
 0002:000014c0       __imp__MiniDumpWriteDump@28 0046f4c0     Dbghelp:dbghelp.dll
 0002:000014c4       \177dbghelp_NULL_THUNK_DATA 0046f4c4     Dbghelp:dbghelp.dll
 0002:000014c8       __imp_?getIP@IPAddress@@QBE?AVQString@@XZ 0046f4c8     quc:quc.dll
 0002:000014cc       __imp_?setIP@IPAddress@@QAEXABVQString@@@Z 0046f4cc     quc:quc.dll
 0002:000014d0       __imp_?setBorderColor@PanelItem@@QAEXABVQColor@@@Z 0046f4d0     quc:quc.dll
 0002:000014d4       __imp_?setTitleText@PanelItem@@QAEXABVQString@@@Z 0046f4d4     quc:quc.dll
 0002:000014d8       __imp_?getBorderColor@PanelItem@@QBE?AVQColor@@XZ 0046f4d8     quc:quc.dll
 0002:000014dc       __imp_??0PanelItem@@QAE@PAVQWidget@@@Z 0046f4dc     quc:quc.dll
 0002:000014e0       __imp_??0IPAddress@@QAE@PAVQWidget@@@Z 0046f4e0     quc:quc.dll
 0002:000014e4       \177quc_NULL_THUNK_DATA    0046f4e4     quc:quc.dll
 0002:000014e8       __imp_?graphToExel@customPlot@@AAEXXZ 0046f4e8     yecplot:yecplot.dll
 0002:000014ec       __imp_?stoppedDrag@customPlot@@AAEXPAVQMouseEvent@@@Z 0046f4ec     yecplot:yecplot.dll
 0002:000014f0       __imp_?onMouseMoveDrag@customPlot@@AAEXPAVQMouseEvent@@@Z 0046f4f0     yecplot:yecplot.dll
 0002:000014f4       __imp_?onMouseMovePoint@customPlot@@AAEXPAVQMouseEvent@@@Z 0046f4f4     yecplot:yecplot.dll
 0002:000014f8       __imp_?graphToPNG@customPlot@@AAEXXZ 0046f4f8     yecplot:yecplot.dll
 0002:000014fc       __imp_?onMouseMoveBand@customPlot@@AAEXPAVQMouseEvent@@@Z 0046f4fc     yecplot:yecplot.dll
 0002:00001500       __imp_?xLogModeChange@customPlot@@AAEXXZ 0046f500     yecplot:yecplot.dll
 0002:00001504       __imp_?copyGraphData@customPlot@@AAEXXZ 0046f504     yecplot:yecplot.dll
 0002:00001508       __imp_?graphPause@customPlot@@AAEXXZ 0046f508     yecplot:yecplot.dll
 0002:0000150c       __imp_?onMouseMoveBand2@customPlot@@AAEXPAVQMouseEvent@@@Z 0046f50c     yecplot:yecplot.dll
 0002:00001510       __imp_?legendDoubleClick@customPlot@@AAEXPAVQCPLegend@@PAVQCPAbstractLegendItem@@@Z 0046f510     yecplot:yecplot.dll
 0002:00001514       __imp_??0customPlot@@QAE@PAVQWidget@@@Z 0046f514     yecplot:yecplot.dll
 0002:00001518       __imp_?addLine@customPlot@@QAEXVQString@@@Z 0046f518     yecplot:yecplot.dll
 0002:0000151c       __imp_?clearAllLines@customPlot@@QAEXXZ 0046f51c     yecplot:yecplot.dll
 0002:00001520       __imp_?setData@customPlot@@QAEXV?$QVector@N@@0H@Z 0046f520     yecplot:yecplot.dll
 0002:00001524       __imp_?setChartName@customPlot@@QAEXVQString@@@Z 0046f524     yecplot:yecplot.dll
 0002:00001528       __imp_?getLineCount@customPlot@@QAEHXZ 0046f528     yecplot:yecplot.dll
 0002:0000152c       __imp_?setMouseType@customPlot@@QAEXW4mouseType@1@@Z 0046f52c     yecplot:yecplot.dll
 0002:00001530       __imp_?showTracer@customPlot@@QAEX_N@Z 0046f530     yecplot:yecplot.dll
 0002:00001534       __imp_?setXLabel@customPlot@@QAEXVQString@@@Z 0046f534     yecplot:yecplot.dll
 0002:00001538       __imp_?setYLabel@customPlot@@QAEXVQString@@@Z 0046f538     yecplot:yecplot.dll
 0002:0000153c       __imp_?setXLogMode@customPlot@@QAEX_N@Z 0046f53c     yecplot:yecplot.dll
 0002:00001540       __imp_?setYLogMode@customPlot@@QAEX_N@Z 0046f540     yecplot:yecplot.dll
 0002:00001544       __imp_?plotContextMenuEvent@customPlot@@QAEXVQPoint@@@Z 0046f544     yecplot:yecplot.dll
 0002:00001548       __imp_?setLineVisible@customPlot@@QAEXH_N@Z 0046f548     yecplot:yecplot.dll
 0002:0000154c       __imp_?isShowTracer@customPlot@@QAE_NXZ 0046f54c     yecplot:yecplot.dll
 0002:00001550       __imp_?mousePressSignal@customPlot@@AAEXPAVQMouseEvent@@@Z 0046f550     yecplot:yecplot.dll
 0002:00001554       __imp_?mouseReleaseSignal@customPlot@@AAEXPAVQMouseEvent@@@Z 0046f554     yecplot:yecplot.dll
 0002:00001558       __imp_?onMouseMoveZoom@customPlot@@AAEXPAVQMouseEvent@@@Z 0046f558     yecplot:yecplot.dll
 0002:0000155c       __imp_?stoppedZoom@customPlot@@AAEXXZ 0046f55c     yecplot:yecplot.dll
 0002:00001560       __imp_?hideShow@customPlot@@AAEXXZ 0046f560     yecplot:yecplot.dll
 0002:00001564       __imp_?setMinMaxType@customPlot@@AAEXH@Z 0046f564     yecplot:yecplot.dll
 0002:00001568       __imp_?stoppedBand@customPlot@@AAEXXZ 0046f568     yecplot:yecplot.dll
 0002:0000156c       __imp_?mouseWheel@customPlot@@AAEXXZ 0046f56c     yecplot:yecplot.dll
 0002:00001570       __imp_?titleDoubleClick@customPlot@@AAEXPAVQMouseEvent@@@Z 0046f570     yecplot:yecplot.dll
 0002:00001574       __imp_?pressDrag@customPlot@@AAEXPAVQMouseEvent@@@Z 0046f574     yecplot:yecplot.dll
 0002:00001578       __imp_?zoomGroupTriggered@customPlot@@AAEXH@Z 0046f578     yecplot:yecplot.dll
 0002:0000157c       __imp_?minMaxGroupTriggered@customPlot@@AAEXH@Z 0046f57c     yecplot:yecplot.dll
 0002:00001580       __imp_?contextActTriggered@customPlot@@AAEXPAVQAction@@@Z 0046f580     yecplot:yecplot.dll
 0002:00001584       __imp_?yLogModeChange@customPlot@@AAEXXZ 0046f584     yecplot:yecplot.dll
 0002:00001588       \177yecplot_NULL_THUNK_DATA 0046f588     yecplot:yecplot.dll
 0002:0000158c       ___guard_check_icall_fptr  0046f58c     MSVCRT:guard_support.obj
 0002:00001590       ___xc_a                    0046f590     MSVCRT:initializers.obj
 0002:00001660       ___xc_z                    0046f660     MSVCRT:initializers.obj
 0002:00001664       ___xi_a                    0046f664     MSVCRT:initializers.obj
 0002:00001674       ___xi_z                    0046f674     MSVCRT:initializers.obj
 0002:00001678       ___xl_a                    0046f678     MSVCRT:tlssup.obj
 0002:0000167c       ___xl_z                    0046f67c     MSVCRT:tlssup.obj
 0002:00001680       ___xp_a                    0046f680     MSVCRT:initializers.obj
 0002:00001684       ___xp_z                    0046f684     MSVCRT:initializers.obj
 0002:00001688       ___xt_a                    0046f688     MSVCRT:initializers.obj
 0002:0000168c       ___xt_z                    0046f68c     MSVCRT:initializers.obj
 0002:00001690       ??_C@_0BL@HCMDKCOP@?9?f?$LD?$KC?e?$LN?$KC?f?$JF?$LA?f?$IN?$KO?9?f?$IM?$KP?e?$IK?$KI?i?$IA?$JK?i?$IB?$JD@ 0046f690     mysave.obj
 0002:000016ac       ??_C@_0BL@LABIDNNC@?9?h?$IH?$KK?e?$IK?$KI?d?$LI?$IK?d?$LM?$KA?f?$JF?$LA?f?$IN?$KO?9?i?$IA?$JK?i?$IB?$JD@ 0046f6ac     mysave.obj
 0002:000016c8       ??_C@_0BL@NDHCGPEL@?9?e?$IN?$JF?f?$KM?$KB?h?$KP?$LH?f?$LB?$IC?f?$LD?$KC?e?$LN?$KC?9?i?$IA?$JK?i?$IB?$JD@ 0046f6c8     mysave.obj
 0002:000016ec       ??_SQFile@@6B@             0046f6ec     mysave.obj
 0002:0000176c       ??_SQTextStream@@6B@       0046f76c     mysave.obj
 0002:00001770       ??_C@_04LCMACLFG@?4txt@    0046f770     mysave.obj
 0002:00001778       ??_C@_0P@BABBNOBC@yyyy?9M?9d?9H?9m?9s@ 0046f778     mysave.obj
 0002:00001788       ??_C@_01JOAMLHOP@?9@       0046f788     mysave.obj
 0002:0000178c       ??_C@_0M@JNBIKINJ@?1dataFiles?1@ 0046f78c     mysave.obj
 0002:00001798       ??_C@_0BC@LDIBJBEO@?$CF1?9?$CF2?9?$CF3?9?$CF4?9?$CF5?9?$CF6@ 0046f798     mysave.obj
 0002:000017b0       ??_7MySocket@@6B@          0046f7b0     mysocket.obj
 0002:00001848       ??_C@_0M@BLMLJBME@1recvData?$CI?$CJ@ 0046f848     mysocket.obj
 0002:00001854       ??_C@_0N@HMJECBDI@2readyRead?$CI?$CJ@ 0046f854     mysocket.obj
 0002:00001864       ??_C@_0BB@OAGDADFL@1sendHeartBeat?$CI?$CJ@ 0046f864     mysocket.obj
 0002:00001878       ??_C@_0L@CHKJBFLD@2timeout?$CI?$CJ@ 0046f878     mysocket.obj
 0002:00001892       ??_C@_00CNPNBAHC@@         0046f892     tcpdataanalysis.obj
 0002:00001898       ??_7tcpDataAnalysis@@6B@   0046f898     tcpdataanalysis.obj
 0002:000018c4       ??_C@_0BJ@DAGNHBKJ@1sendSingleImmediately?$CI?$CJ@ 0046f8c4     tcpdataanalysis.obj
 0002:000018e0       ??_C@_0BB@PILNOCKN@?5?e?$LK?$JE?h?$KP?$KF?i?$JF?$LP?e?$LK?$KG?o?$LM?$JK@ 0046f8e0     tcpdataanalysis.obj
 0002:000018f4       ??_C@_0BB@IKAODHID@?5?e?$LN?$JD?e?$IJ?$IN?i?$JF?$LP?e?$LK?$KG?o?$LM?$JK@ 0046f8f4     tcpdataanalysis.obj
 0002:00001908       ??_C@_0CN@MHBDIKIJ@?5?f?$IO?$IJ?g?$LK?$LP?e?$IJ?$IN?h?$IH?$KK?e?$IK?$KI?d?$LI?$IK?d?$LM?$KA?f?$LD?$KC?e?$LN?$KC?d?$LI?$KC@ 0046f908     tcpdataanalysis.obj
 0002:00001938       ??_C@_0CB@FGGKMCI@command?53?5internal?5length?5error@ 0046f938     tcpdataanalysis.obj
 0002:0000195c       ??_C@_0CD@OOJMHJDC@network?5parameters?5internal?5err@ 0046f95c     tcpdataanalysis.obj
 0002:00001980       ??_C@_0CC@JILIFCDH@sample?5parameters?5internal?5erro@ 0046f980     tcpdataanalysis.obj
 0002:000019a4       ??_C@_0L@EPOLBFIG@?5ch1name?3?5@ 0046f9a4     tcpdataanalysis.obj
 0002:000019b0       ??_C@_0M@HICDNBBO@?5chs?5count?3@ 0046f9b0     tcpdataanalysis.obj
 0002:000019bc       ??_C@_04GKMDNCOD@chs?3@    0046f9bc     tcpdataanalysis.obj
 0002:000019c4       ??_C@_05BAJFEBII@chs1?3@   0046f9c4     tcpdataanalysis.obj
 0002:000019cc       ??_C@_0BL@CKKLBFIO@command?50b?5internal?5error?$CB@ 0046f9cc     tcpdataanalysis.obj
 0002:000019e8       ??_C@_0BJ@NODAHJLG@?h?$KP?$LH?f?$LB?$IC?f?$JF?$LA?f?$IN?$KO?e?$IP?$JB?g?$JE?$JP?d?$LI?$KC?e?$IM?$IF@ 0046f9e8     tcpdataanalysis.obj
 0002:00001a04       ??_C@_0BP@LDPLCELP@?f?$JF?$LA?f?$IN?$KO?i?$IA?$JK?i?$IB?$JD?e?$LH?$LC?e?$II?$IH?f?$IN?$KC?o?$LM?$IM?i?$IA?$JK?i?$IB?$JD@ 0046fa04     tcpdataanalysis.obj
 0002:00001a24       ??_C@_0BA@KIMBKCMJ@?d?$LI?$KC?e?$KE?$LB?e?$IM?$IF?f?$JF?$LA?o?$LM?$JK@ 0046fa24     tcpdataanalysis.obj
 0002:00001a34       ??_C@_0BA@IGJMMMKM@?e?$LN?$JD?e?$IJ?$IN?e?$IM?$IF?e?$IP?$LH?o?$LM?$JK@ 0046fa34     tcpdataanalysis.obj
 0002:00001a44       ??_C@_0BA@COCKBJCA@?d?$LI?$IK?d?$LI?$KK?e?$IM?$IF?e?$IP?$LH?o?$LM?$JK@ 0046fa44     tcpdataanalysis.obj
 0002:00001a54       ??_C@_0DL@OJLJDAD@?3?f?$JF?$LA?f?$IN?$KO?e?$IM?$IF?e?$IP?$LH?d?$LI?$IN?h?$LP?$JO?g?$LL?$KN?o?$LM?$IM?e?$IN?$JF?f?$KM?$KB@ 0046fa54     tcpdataanalysis.obj
 0002:00001a90       ??_C@_0DI@KMOBEBC@?3?f?$JH?$LG?i?$JH?$LE?f?$II?$LD?e?$LH?$LC?f?$JL?$LE?f?$JG?$LA?o?$LM?$IM?e?$IN?$JF?f?$KM?$KB?f?$JF?$LA@ 0046fa90     tcpdataanalysis.obj
 0002:00001ac8       ??_C@_0EB@NCELCGIG@?3?f?$JF?$LA?f?$IN?$KO?e?$IM?$IF?e?$IP?$LH?d?$LI?$IN?h?$LP?$JO?g?$LL?$KN?o?$LM?$IM?e?$KO?$JO?f?$JH?$LG@ 0046fac8     tcpdataanalysis.obj
 0002:00001b0c       ??_C@_01JLIPDDHJ@?3@       0046fb0c     tcpdataanalysis.obj
 0002:00001b10       ??_C@_01CLKCMJKC@?5@       0046fb10     tcpdataanalysis.obj
 0002:00001b14       ??_C@_01LFCBOECM@?4@       0046fb14     tcpdataanalysis.obj
 0002:00001b18       ??_C@_0BB@FAPENONN@?5?e?$LK?$JE?f?$JE?$LG?i?$JF?$LP?e?$LK?$KG?o?$LM?$JK@ 0046fb18     tcpdataanalysis.obj
 0002:00001b2c       ??_C@_0DC@DKACPMJH@?h?$IH?$KK?e?$IK?$KI?d?$LI?$IK?d?$LM?$KA?f?$LD?$KC?e?$LN?$KC?e?$IP?$JB?g?$JE?$JP?d?$LI?$KC?e?$IM?$IF?0@ 0046fb2c     tcpdataanalysis.obj
 0002:00001b60       ??_C@_0BK@HBNENFMO@?3?i?$IA?$JK?i?$IB?$JD?e?$LH?$LC?e?$II?$IH?f?$IN?$KC?o?$LM?$IM?i?$IA?$JK?i?$IB?$JD@ 0046fb60     tcpdataanalysis.obj
 0002:00001b7c       ??_C@_0BA@EKBJMOHD@?d?$LI?$IK?d?$LI?$IA?e?$IM?$IF?e?$IP?$LH?o?$LM?$JK@ 0046fb7c     tcpdataanalysis.obj
 0002:00001b90       ??_C@_0EB@KGOLOKLI@?3?f?$JF?$LA?f?$IN?$KO?e?$IM?$IF?e?$IP?$LH?d?$LI?$IN?h?$LP?$JO?g?$LL?$KN?o?$LM?$IM?h?$IH?$KK?e?$IK?$KI@ 0046fb90     tcpdataanalysis.obj
 0002:00001bd8       ??_C@_0FH@JCJBCAKG@?3?f?$JH?$LG?i?$JH?$LE?f?$II?$LD?e?$LH?$LC?f?$JL?$LE?f?$JG?$LA?o?$LM?$IM?d?$LI?$IK?d?$LI?$IA?e?$LI?$KH@ 0046fbd8     tcpdataanalysis.obj
 0002:00001c30       ??_C@_0BD@GJJKNDC@?h?$KH?$KG?e?$IP?$JB?f?$IK?$KF?h?$KN?$KG?h?$KH?$IE?e?$II?$JJ@ 0046fc30     tcpdataanalysis.obj
 0002:00001c44       ??_C@_01IHBHIGKO@?0@       0046fc44     tcpdataanalysis.obj
 0002:00001c48       ??_C@_0O@JFKHBDC@wrong?5packet?3@ 0046fc48     tcpdataanalysis.obj
 0002:00001c58       ??_C@_0O@NICNEKPF@?3?f?$JE?$LG?e?$II?$LA?i?$JE?$JJ?e?$IM?$IF@ 0046fc58     tcpdataanalysis.obj
 0002:00001c68       __real@3f00000000000000    0046fc68     tcpdataanalysis.obj
 0002:00001c70       ??_C@_0CL@GGBGAILI@QtMetaTypePrivate?3?3QSequentialI@ 0046fc70     tcpserver.obj
 0002:00001c9c       ??_C@_0N@PCGEENFC@WifiFsParas?$CK@ 0046fc9c     tcpserver.obj
 0002:00001cb0       ??_7tcpServer@@6B@         0046fcb0     tcpserver.obj
 0002:00001ce8       ??_C@_0BA@DPFMDDMD@server?5start?5ok@ 0046fce8     tcpserver.obj
 0002:00001cf8       ??_C@_0BD@IIEEJLGL@sever?5start?5failed@ 0046fcf8     tcpserver.obj
 0002:00001d10       ??_C@_0EB@BFMCMDEP@?f?$KD?$IA?f?$LF?$IL?e?$II?$LA?f?$JG?$LA?h?$LP?$JO?f?$IO?$KF?o?$LM?$IM?e?$IH?$IG?e?$KE?$IH?f?$JP?$KF?h@ 0046fd10     tcpserver.obj
 0002:00001d54       ??_C@_0BM@OOLAEIN@1aboutToStart?$CIQString?0bool?$CJ@ 0046fd54     tcpserver.obj
 0002:00001d70       ??_C@_0BM@MDFADKK@2aboutToStart?$CIQString?0bool?$CJ@ 0046fd70     tcpserver.obj
 0002:00001d8c       ??_C@_0BB@LJAIHBAH@1delDaq?$CIQString?$CJ@ 0046fd8c     tcpserver.obj
 0002:00001da0       ??_C@_0BB@OKJCCKID@2delDaq?$CIQString?$CJ@ 0046fda0     tcpserver.obj
 0002:00001db4       ??_C@_0CL@PCPFFNED@2updateCurrentFirmwareVer?$CIQStri@ 0046fdb4     tcpserver.obj
 0002:00001de0       ??_C@_0P@BPOMNCBJ@1deleteLater?$CI?$CJ@ 0046fde0     tcpserver.obj
 0002:00001df0       ??_C@_0M@BMAHFEDH@2finished?$CI?$CJ@ 0046fdf0     tcpserver.obj
 0002:00001dfc       ??_C@_0BI@COJJIEF@2updateMessage?$CIQString?$CJ@ 0046fdfc     tcpserver.obj
 0002:00001e14       ??_C@_0BE@OBFFHMEI@2errerInfo?$CIQString?$CJ@ 0046fe14     tcpserver.obj
 0002:00001e28       ??_C@_0CH@OLBCPNIJ@2updateDeviceInfo?$CIint?0QString?0Q@ 0046fe28     tcpserver.obj
 0002:00001e50       ??_C@_0CD@MPLMAKFD@2createWidget?$CIint?0QString?0QStri@ 0046fe50     tcpserver.obj
 0002:00001e74       ??_C@_0DB@OFNGAFFJ@2updateCurrentVValue?$CIQString?0QL@ 0046fe74     tcpserver.obj
 0002:00001ea8       ??_C@_0CP@FHMMINFL@2updateCurrentTemperature?$CIQStri@ 0046fea8     tcpserver.obj
 0002:00001ed8       ??_C@_0CG@OBDNNIHL@2updateWave?$CIQString?0QVector?$DMdou@ 0046fed8     tcpserver.obj
 0002:00001f00       ??_C@_0CF@CHGAHFLC@2updateFFT?$CIQString?0QVector?$DMdoub@ 0046ff00     tcpserver.obj
 0002:00001f28       ??_C@_0CA@HPNIFHKP@2updateAlertStatus?$CIQString?0int?$CJ@ 0046ff28     tcpserver.obj
 0002:00001f48       ??_C@_0CF@INMDDIPI@2updateAlertData?$CIQString?0float?$CK@ 0046ff48     tcpserver.obj
 0002:00001f70       ??_C@_0CD@FFOGBMIO@2updateAPdata?$CIQString?0WifiApPar@ 0046ff70     tcpserver.obj
 0002:00001f94       ??_C@_0CG@HLILJNIB@2updateTCPServer?$CIQString?0QStrin@ 0046ff94     tcpserver.obj
 0002:00001fbc       ??_C@_0CH@HDKJIEB@2updateNetParas?$CIQString?0WifiNet@ 0046ffbc     tcpserver.obj
 0002:00001fe4       ??_C@_0CF@GDICEFMA@2updateFsParas?$CIQString?0WifiFsPa@ 0046ffe4     tcpserver.obj
 0002:0000200c       ??_C@_0BM@CBHCGKCL@2updateFsMode?$CIQString?0int?5?$CJ@ 0047000c     tcpserver.obj
 0002:00002028       ??_C@_0CE@FMFINHOA@2updateChParas?$CIQString?0WifiChPa@ 00470028     tcpserver.obj
 0002:0000204c       ??_C@_0CB@DNANFCGH@2updateChStatus?$CIQString?0quint16@ 0047004c     tcpserver.obj
 0002:00002070       ??_C@_0DB@EJPDFCPB@2updateSingleWave?$CIQString?0int?5?0@ 00470070     tcpserver.obj
 0002:000020a4       ??_C@_0CL@CPEKMIHJ@2saveErrorData?$CIQString?0QString?0@ 004700a4     tcpserver.obj
 0002:000020d0       ??_C@_0DI@DMLMDDJN@2updateAutoWave2?$CIQString?0QByteA@ 004700d0     tcpserver.obj
 0002:00002108       ??_C@_0M@JNHEKGCN@1stopByMe?$CI?$CJ@ 00470108     tcpserver.obj
 0002:00002114       ??_C@_0L@CKMCPBDN@2stopAll?$CI?$CJ@ 00470114     tcpserver.obj
 0002:00002120       ??_C@_0DD@BBCKPMPH@1setPowerMode?$CIQString?0quint8?0qu@ 00470120     tcpserver.obj
 0002:00002154       ??_C@_0DD@JEBIOOAD@2setPowerMode?$CIQString?0quint8?0qu@ 00470154     tcpserver.obj
 0002:00002188       ??_C@_0CF@MNFHPIPD@1setAlertSpanJunyue?$CIQString?0int@ 00470188     tcpserver.obj
 0002:000021b0       ??_C@_0CL@EBJEKIAC@2setAlertSpanJunyueDirect?$CIQStri@ 004701b0     tcpserver.obj
 0002:000021e0       ??_C@_0EC@PAELBCJG@2updateCharactersJunyue?$CIQString@ 004701e0     tcpserver.obj
 0002:00002224       ??_C@_0CP@EAOCLHGN@2updatePowerMode?$CIQString?0quint8@ 00470224     tcpserver.obj
 0002:00002254       ??_C@_0DH@FIGDBKJP@2updatePowerMode2?$CIQString?0quint@ 00470254     tcpserver.obj
 0002:0000228c       ??_C@_0DG@DDAJGCBB@2updatePowerMode?$CIQString?0quint8@ 0047028c     tcpserver.obj
 0002:000022c4       ??_C@_0CG@DEAINGCM@2updateAlertTimeSpan?$CIQString?0in@ 004702c4     tcpserver.obj
 0002:000022ec       ??_C@_0CJ@PGIBFOBB@2updateAlertJunyue?$CIQString?0QLis@ 004702ec     tcpserver.obj
 0002:00002318       ??_C@_0BI@JLIBDELB@1setFsMode?$CIQString?0int?$CJ@ 00470318     tcpserver.obj
 0002:00002330       ??_C@_0BM@PGJAIEDA@2changeFsMode?$CIQString?0int?5?$CJ@ 00470330     tcpserver.obj
 0002:0000234c       ??_C@_0CC@HJIKFCBG@1setfsParas?$CIQString?0WifiFsParas@ 0047034c     tcpserver.obj
 0002:00002370       ??_C@_0CL@DHELFKMF@2changeFsParasDirect?$CIQString?0Wi@ 00470370     tcpserver.obj
 0002:0000239c       ??_C@_0CC@BABBHBBJ@1setChParas?$CIQString?0WifiChParas@ 0047039c     tcpserver.obj
 0002:000023c0       ??_C@_0CL@FMLLBKHI@2changeChParasDirect?$CIQString?0Wi@ 004703c0     tcpserver.obj
 0002:000023ec       ??_C@_0CO@MJPKPLKJ@1changeTCPServer?$CIQString?0QStrin@ 004703ec     tcpserver.obj
 0002:0000241c       ??_C@_0CO@EJKAFHBM@2changeTCPServer?$CIQString?0QStrin@ 0047041c     tcpserver.obj
 0002:0000244c       ??_C@_0CA@CHEBNIGE@1showDisconnection?$CIint?0QString?$CJ@ 0047044c     tcpserver.obj
 0002:0000246c       ??_C@_0BK@PBKBAFGA@2disconnInfo?$CIint?0QString?$CJ@ 0047046c     tcpserver.obj
 0002:00002488       ??_C@_0BK@LLIOFIJH@1commandSent?$CIQStringList?$CJ@ 00470488     tcpserver.obj
 0002:000024a4       ??_C@_0BK@EJNJLFGP@2commandSent?$CIQStringList?$CJ@ 004704a4     tcpserver.obj
 0002:000024c0       ??_C@_0BJ@CGEBJCFL@1commandsToSend?$CIQString?$CJ@ 004704c0     tcpserver.obj
 0002:000024dc       ??_C@_0BN@BEMCHDNE@2aboutTosendCommand?$CIQString?$CJ@ 004704dc     tcpserver.obj
 0002:000024fc       ??_C@_0DA@JDCIFNPD@1sendCommands?$CIQString?0QStringLi@ 004704fc     tcpserver.obj
 0002:0000252c       ??_C@_0DA@NFPKGIJH@2sendCommands?$CIQString?0QStringLi@ 0047052c     tcpserver.obj
 0002:0000255c       ??_C@_03KDBLNKAE@?301@     0047055c     tcpserver.obj
 0002:00002560       ??_C@_03IIDGIJMH@?302@     00470560     tcpserver.obj
 0002:00002564       ??_C@_03JBCNLIIG@?303@     00470564     tcpserver.obj
 0002:00002568       ??_C@_03NOGMCOEB@?304@     00470568     tcpserver.obj
 0002:0000256c       ??_C@_05PBJBIFJL@?5SN?3?5@ 0047056c     tcpserver.obj
 0002:00002574       ??_C@_0CA@MDMMLEEG@?h?$KO?$LO?e?$KE?$IH?f?$JG?$KN?e?$LM?$IA?h?$LP?$JO?f?$IO?$KF?0socket?e?$IP?$LH?o?$LM?$JK@ 00470574     tcpserver.obj
 0002:00002594       ??_C@_0M@NEIINJEL@?5objThread?3@ 00470594     tcpserver.obj
 0002:000025a0       ??_C@_08NOANOBOB@?5socket?3@ 004705a0     tcpserver.obj
 0002:000025ac       ??_C@_0CA@JJKOBOGH@back?5componentscount?9?9analysis?3@ 004705ac     tcpserver.obj
 0002:000025cc       ??_C@_04JCOFCNJJ@?0IP?3@   004705cc     tcpserver.obj
 0002:000025d4       ??_C@_0BP@DEAEICJG@?h?$KO?$LO?e?$KE?$IH?e?$LH?$LC?h?$LP?$JO?f?$IO?$KF?o?$LM?$IM?e?$LK?$IP?e?$II?$JH?e?$IP?$LH?o?$LM?$JK@ 004705d4     tcpserver.obj
 0002:000025f4       ??_C@_05EPCGOCDE@QList@    004705f4     tcpserver.obj
 0002:00002610       ??_7tcpServerThread@@6B@   00470610     tcpserverthread.obj
 0002:00002640       ??_C@_07JMMMDOKH@1stop?$CI?$CJ@ 00470640     tcpserverthread.obj
 0002:00002648       ??_C@_0O@CMAFGKIG@2stopSocket?$CI?$CJ@ 00470648     tcpserverthread.obj
 0002:00002658       ??_C@_0BH@ENNGICAF@1recErrorInfo?$CIQString?$CJ@ 00470658     tcpserverthread.obj
 0002:00002670       ??_C@_0BD@GJEMIHDM@2dataInfo?$CIQString?$CJ@ 00470670     tcpserverthread.obj
 0002:00002684       ??_C@_0BP@LODPKFHH@1recvData?$CIQString?0?5QByteArray?$CJ@ 00470684     tcpserverthread.obj
 0002:000026a4       ??_C@_0BO@FJPEDCGN@2revData?$CIQString?0?5QByteArray?$CJ@ 004706a4     tcpserverthread.obj
 0002:000026c4       ??_C@_0BK@MDDCNJLF@1sendMsg?$CIQByteArray?0?5int?$CJ@ 004706c4     tcpserverthread.obj
 0002:000026e0       ??_C@_0BK@BBFBNOKP@2sendDat?$CIQByteArray?0?5int?$CJ@ 004706e0     tcpserverthread.obj
 0002:000026fc       ??_C@_0BN@EHLBPIBN@1readSN?$CIint?0QString?0QString?$CJ@ 004706fc     tcpserverthread.obj
 0002:0000271c       ??_C@_0CG@MECMHLCB@2updateNetParas?$CIQString?0WifiNet@ 0047071c     tcpserverthread.obj
 0002:00002744       ??_C@_0CE@BHFJDKDI@2updateFsParas?$CIQString?0WifiFsPa@ 00470744     tcpserverthread.obj
 0002:00002768       ??_C@_0BL@FFOOLNBB@2updateFsMode?$CIQString?0int?$CJ@ 00470768     tcpserverthread.obj
 0002:00002784       ??_C@_0O@JPDOCEMO@1reset30?$CIint?$CJ@ 00470784     tcpserverthread.obj
 0002:00002794       ??_C@_0O@ODFPABBF@2reset30?$CIint?$CJ@ 00470794     tcpserverthread.obj
 0002:000027a4       ??_C@_0BC@CMDEOCKD@1requireData?$CIint?$CJ@ 004707a4     tcpserverthread.obj
 0002:000027b8       ??_C@_0BD@KOPHAIOF@2readyForRead?$CIint?$CJ@ 004707b8     tcpserverthread.obj
 0002:000027cc       ??_C@_0BD@PAOAKJIL@2sendOver?$CIQString?$CJ@ 004707cc     tcpserverthread.obj
 0002:000027e0       ??_C@_0CJ@OFNBPAGD@2updateAlertRule?$CIQString?0int?0QB@ 004707e0     tcpserverthread.obj
 0002:0000280c       ??_C@_0CM@DCLGCBNM@2updateAlertRuleFitness?$CIQString@ 0047080c     tcpserverthread.obj
 0002:00002838       ??_C@_0O@DHNPKBFM@2noResponse?$CI?$CJ@ 00470838     tcpserverthread.obj
 0002:00002848       ??_C@_0BA@IEKCMBLA@1sendFirmData?$CI?$CJ@ 00470848     tcpserverthread.obj
 0002:00002858       ??_C@_0BI@NFNDPAFC@2readyForsendFirmware?$CI?$CJ@ 00470858     tcpserverthread.obj
 0002:00002870       ??_C@_0BA@LABDJJIM@1finishUpdate?$CI?$CJ@ 00470870     tcpserverthread.obj
 0002:00002880       ??_C@_0O@CLJNKDKL@2stopUpdate?$CI?$CJ@ 00470880     tcpserverthread.obj
 0002:00002890       ??_C@_0CC@PGLJEJPP@2updateUpdateResult?$CIQString?0boo@ 00470890     tcpserverthread.obj
 0002:000028b4       ??_C@_0BO@KBIMDFDH@2updateComplete?$CIQString?0bool?$CJ@ 004708b4     tcpserverthread.obj
 0002:000028d8       ??_7virbValue@@6B@         004708d8     virbvalue.obj
 0002:00002908       ??_7WifiChParas@@6B@       00470908     wifichparas.obj
 0002:0000293c       ??_SQDoubleSpinBox@@6BQObject@@@ 0047093c     alertchjunyue.obj
 0002:00002a10       ??_SQDoubleSpinBox@@6BQPaintDevice@@@ 00470a10     alertchjunyue.obj
 0002:00002a30       ??_7alertChJunyue@@6BQObject@@@ 00470a30     alertchjunyue.obj
 0002:00002ae8       ??_7alertChJunyue@@6BQPaintDevice@@@ 00470ae8     alertchjunyue.obj
 0002:00002b0c       ??_SQHBoxLayout@@6BQObject@@@ 00470b0c     alertchjunyue.obj
 0002:00002b54       ??_SQHBoxLayout@@6BQLayoutItem@@@ 00470b54     alertchjunyue.obj
 0002:00002b9c       ??_SQLabel@@6BQObject@@@   00470b9c     alertchjunyue.obj
 0002:00002c54       ??_SQLabel@@6BQPaintDevice@@@ 00470c54     alertchjunyue.obj
 0002:00002c70       ??_C@_0O@GHMCHPOA@alertChJunyue@ 00470c70     alertchjunyue.obj
 0002:00002c80       ??_C@_0BB@LNMDAGHP@horizontalLayout@ 00470c80     alertchjunyue.obj
 0002:00002c94       ??_C@_05OJHFALHP@lblCH@    00470c94     alertchjunyue.obj
 0002:00002c9c       ??_C@_03FJGAPNJI@acc@      00470c9c     alertchjunyue.obj
 0002:00002ca0       ??_C@_03BHLLPCMD@vel@      00470ca0     alertchjunyue.obj
 0002:00002ca4       ??_C@_04GKMJMOBJ@disp@     00470ca4     alertchjunyue.obj
 0002:00002cac       ??_C@_06NNPGPCGL@qiaodu@   00470cac     alertchjunyue.obj
 0002:00002cb4       ??_C@_07EILCBCEA@envelop@  00470cb4     alertchjunyue.obj
 0002:00002cbc       ??_C@_04KANOLIK@Form@      00470cbc     alertchjunyue.obj
 0002:00002cc8       __real@411e848000000000    00470cc8     alertchjunyue.obj
 0002:00002cd4       ??_SQWidget@@6BQObject@@@  00470cd4     apdialog.obj
 0002:00002d8c       ??_SQWidget@@6BQPaintDevice@@@ 00470d8c     apdialog.obj
 0002:00002dac       ??_7apDialog@@6BQObject@@@ 00470dac     apdialog.obj
 0002:00002e78       ??_7apDialog@@6BQPaintDevice@@@ 00470e78     apdialog.obj
 0002:00002e9c       ??_SQSpacerItem@@6B@       00470e9c     apdialog.obj
 0002:00002ee4       ??_SQVBoxLayout@@6BQObject@@@ 00470ee4     apdialog.obj
 0002:00002f2c       ??_SQVBoxLayout@@6BQLayoutItem@@@ 00470f2c     apdialog.obj
 0002:00002f74       ??_SQGridLayout@@6BQObject@@@ 00470f74     apdialog.obj
 0002:00002fbc       ??_SQGridLayout@@6BQLayoutItem@@@ 00470fbc     apdialog.obj
 0002:00003004       ??_SQLineEdit@@6BQObject@@@ 00471004     apdialog.obj
 0002:000030bc       ??_SQLineEdit@@6BQPaintDevice@@@ 004710bc     apdialog.obj
 0002:000030dc       ??_SQPushButton@@6BQObject@@@ 004710dc     apdialog.obj
 0002:000031a0       ??_SQPushButton@@6BQPaintDevice@@@ 004711a0     apdialog.obj
 0002:000031bc       ??_C@_08NNJEIHOF@apDialog@ 004711bc     apdialog.obj
 0002:000031c8       ??_C@_0P@OKOIOHML@verticalLayout@ 004711c8     apdialog.obj
 0002:000031d8       ??_C@_0L@HFKHLBOD@gridLayout@ 004711d8     apdialog.obj
 0002:000031e4       ??_C@_05IDCCNNGI@label@    004711e4     apdialog.obj
 0002:000031ec       ??_C@_06HIKMNLMO@apName@   004711ec     apdialog.obj
 0002:000031f4       ??_C@_07NPNGPBBI@label_2@  004711f4     apdialog.obj
 0002:000031fc       ??_C@_07NJNLGIMB@usrName@  004711fc     apdialog.obj
 0002:00003204       ??_C@_0L@ECOPBNHN@label_Pass@ 00471204     apdialog.obj
 0002:00003210       ??_C@_07MCLHKIP@usrPass@   00471210     apdialog.obj
 0002:00003218       ??_C@_06KLKLDLLI@widget@   00471218     apdialog.obj
 0002:00003220       ??_C@_05LEOBGKAB@btnOK@    00471220     apdialog.obj
 0002:00003228       ??_C@_09JPMHGMCO@btnCancel@ 00471228     apdialog.obj
 0002:00003234       ??_C@_0P@JEEDKAFL@AP?e?$IP?$IC?f?$JF?$LA?h?$KO?$LO?g?$LN?$KO@ 00471234     apdialog.obj
 0002:00003244       ??_C@_09DDDGPKEE@AP?e?$JA?$IN?g?$KH?$LA?3@ 00471244     apdialog.obj
 0002:00003250       ??_C@_0BI@PNAFLIPG@?h?$KP?$LH?h?$LO?$JD?e?$IF?$KF?f?$JG?$LA?g?$JK?$IEAP?e?$JA?$IN?g?$KH?$LA@ 00471250     apdialog.obj
 0002:00003268       ??_C@_0L@GFPDKEEP@?g?$JE?$KI?f?$II?$LH?e?$JA?$IN?3@ 00471268     apdialog.obj
 0002:00003274       ??_C@_0BD@MJNFEKDB@?h?$KP?$LH?h?$LO?$JD?e?$IF?$KF?g?$JE?$KI?f?$II?$LH?e?$JA?$IN@ 00471274     apdialog.obj
 0002:00003288       ??_C@_07DKCGPCNF@?e?$KP?$IG?g?$KA?$IB?3@ 00471288     apdialog.obj
 0002:00003290       ??_C@_0BA@NLGBPOLM@?h?$KP?$LH?h?$LO?$JD?e?$IF?$KF?e?$KP?$IG?g?$KA?$IB@ 00471290     apdialog.obj
 0002:000032a0       ??_C@_06CKPIFE@?g?$KB?$KO?e?$KO?$JK@ 004712a0     apdialog.obj
 0002:000032a8       ??_C@_06EDDGFDIJ@?e?$IP?$JG?f?$LG?$II@ 004712a8     apdialog.obj
 0002:000032b0       ??_C@_0N@JLNFPJLA@?e?$KO?$JO?f?$JH?$LG?f?$LD?$KC?e?$LN?$KC@ 004712b0     baseform2.obj
 0002:000032c0       ??_C@_0BD@IKOJIIOB@?h?$IH?$KK?e?$IK?$KI?d?$LI?$IK?d?$LM?$KA?f?$LD?$KC?e?$LN?$KC@ 004712c0     baseform2.obj
 0002:000032d4       ??_C@_03MHPPIDFM@fft@      004712d4     baseform2.obj
 0002:000032d8       ??_C@_0N@OENHNLGK@1?13?e?$IA?$IN?i?$KC?$JB?g?$KI?$IL@ 004712d8     baseform2.obj
 0002:000032e8       ??_C@_06DGCHCEDB@?h?$LG?$IL?e?$IK?$LP@ 004712e8     baseform2.obj
 0002:000032f0       ??_C@_09CFFPELN@?e?$IK?$JP?g?$IO?$IH?h?$LA?$LB@ 004712f0     baseform2.obj
 0002:000032fc       ??_C@_0BA@LCPGGDNC@?e?$IK?$JP?g?$IO?$IH?h?$LA?$LB?e?$KP?$IG?e?$LK?$KG@ 004712fc     baseform2.obj
 0002:0000330c       ??_C@_06HMCIOPBG@?e?$IM?$IF?g?$LL?$JM@ 0047130c     baseform2.obj
 0002:00003314       ??_C@_09NPLDJAFJ@?e?$IM?$IF?g?$LL?$JM?h?$LA?$LB@ 00471314     baseform2.obj
 0002:00003324       ??_7baseForm2@@6BQObject@@@ 00471324     baseform2.obj
 0002:000033f0       ??_7baseForm2@@6BQPaintDevice@@@ 004713f0     baseform2.obj
 0002:0000340c       ??_C@_09NHAEEOOK@baseForm2@ 0047140c     baseform2.obj
 0002:00003418       ??_C@_09GMMNPHKA@freshTime@ 00471418     baseform2.obj
 0002:00003424       ??_C@_0BA@LILDIOBB@?e?$II?$LH?f?$JG?$LA?f?$KM?$KB?f?$JF?$LA?o?$LM?$JK@ 00471424     baseform2.obj
 0002:00003434       ??_C@_02OHALLCDL@ch@       00471434     baseform2.obj
 0002:0000343c       ??_SQTableWidgetItem@@6B@  0047143c     characterform.obj
 0002:0000345c       ??_SQTableWidget@@6BQObject@@@ 0047145c     characterform.obj
 0002:000035cc       ??_SQTableWidget@@6BQPaintDevice@@@ 004715cc     characterform.obj
 0002:000035ec       ??_7characterForm@@6BQObject@@@ 004715ec     characterform.obj
 0002:000036b8       ??_7characterForm@@6BQPaintDevice@@@ 004716b8     characterform.obj
 0002:000036d4       ??_C@_0O@EANEIPAJ@characterForm@ 004716d4     characterform.obj
 0002:000036e4       ??_C@_0M@MDPHOAGE@tableWidget@ 004716e4     characterform.obj
 0002:000036f0       ??_C@_07NANNEIDA@lblTemp@  004716f0     characterform.obj
 0002:000036f8       ??_C@_07MGMNMAFJ@label_3@  004716f8     characterform.obj
 0002:00003700       ??_C@_0L@NOBLBOLI@lblBattery@ 00471700     characterform.obj
 0002:0000370c       ??_C@_07KNLOBBJM@lblTime@  0047170c     characterform.obj
 0002:00003714       ??_C@_09HPDONDLA@?g?$IJ?$LJ?e?$LO?$IB?e?$IA?$LM@ 00471714     characterform.obj
 0002:00003720       ??_C@_09LMGPJDIC@?f?$LI?$KJ?e?$LK?$KG?o?$LM?$JK@ 00471720     characterform.obj
 0002:0000372c       ??_C@_09KPOJJOBN@?g?$JE?$LF?i?$IH?$IP?o?$LM?$JK@ 0047172c     characterform.obj
 0002:00003738       ??_C@_0BA@CMBPPLBB@?f?$JL?$LE?f?$JG?$LA?f?$JH?$LG?i?$JH?$LE?o?$LM?$JK@ 00471738     characterform.obj
 0002:00003748       ??_C@_0N@GHNMEBJC@?g?$IJ?$LJ?e?$LO?$IB?e?$IA?$LM?o?$LM?$JK@ 00471748     characterform.obj
 0002:00003758       ??_C@_09EIHKIPMB@?i?$IA?$JK?i?$IB?$JD?e?$JA?$IN@ 00471758     characterform.obj
 0002:00003764       ??_C@_09JOGDKKJP@?e?$IK?$KA?i?$IA?$JP?e?$LK?$KG@ 00471764     characterform.obj
 0002:00003770       ??_C@_06GIHILGPP@?i?$IA?$JP?e?$LK?$KG@ 00471770     characterform.obj
 0002:00003778       ??_C@_06OKPAJDBK@?d?$LN?$IN?g?$KH?$LL@ 00471778     characterform.obj
 0002:00003780       ??_C@_06PGNHECGO@?e?$LD?$KN?e?$LK?$KG@ 00471780     characterform.obj
 0002:00003788       ??_C@_07MPLPGEAO@?i?$IA?$JK?i?$IB?$JDX@ 00471788     characterform.obj
 0002:00003790       ??_C@_07NGKEFFEP@?i?$IA?$JK?i?$IB?$JDY@ 00471790     characterform.obj
 0002:00003798       ??_C@_07PNIJAGIM@?i?$IA?$JK?i?$IB?$JDZ@ 00471798     characterform.obj
 0002:000037a0       ??_C@_0N@LDPKOAJN@?$DMfont?5color?$DN@ 004717a0     characterform.obj
 0002:000037b0       ??_C@_04LICMMEPN@red?$DO@  004717b0     characterform.obj
 0002:000037b8       ??_C@_06IJAKILMA@black?$DO@ 004717b8     characterform.obj
 0002:000037c0       ??_C@_07HNEBHIML@?$DM?1font?$DO@ 004717c0     characterform.obj
 0002:000037c8       ??_C@_07JJNHAPIE@AC?5Mode@ 004717c8     characterform.obj
 0002:000037d0       ??_C@_01FGNFDNOH@?$CF@     004717d0     characterform.obj
 0002:000037d4       ??_C@_0M@LEOIDFKC@?5?b?$IE?$ID?$DM?1font?$DO@ 004717d4     characterform.obj
 0002:000037e0       __real@3f800000            004717e0     characterform.obj
 0002:000037e4       __real@437f0000            004717e4     characterform.obj
 0002:000037ec       ??_7chControlAFD@@6BQObject@@@ 004717ec     chcontrolafd.obj
 0002:000038a4       ??_7chControlAFD@@6BQPaintDevice@@@ 004718a4     chcontrolafd.obj
 0002:000038c4       ??_SQCheckBox@@6BQObject@@@ 004718c4     chcontrolafd.obj
 0002:00003988       ??_SQCheckBox@@6BQPaintDevice@@@ 00471988     chcontrolafd.obj
 0002:000039ac       ??_SQComboBox@@6BQObject@@@ 004719ac     chcontrolafd.obj
 0002:00003a6c       ??_SQComboBox@@6BQPaintDevice@@@ 00471a6c     chcontrolafd.obj
 0002:00003a88       ??_C@_0N@KDCMFCLO@chControlAFD@ 00471a88     chcontrolafd.obj
 0002:00003a98       ??_C@_06LGEKBB@chName@     00471a98     chcontrolafd.obj
 0002:00003aa0       ??_C@_08EDGHBAAC@sampFreq@ 00471aa0     chcontrolafd.obj
 0002:00003aac       ??_C@_03BCFDGAHD@sen@      00471aac     chcontrolafd.obj
 0002:00003ab0       ??_C@_0L@GLJKINNO@alertValue@ 00471ab0     chcontrolafd.obj
 0002:00003abc       ??_C@_05CCGOGOBM@range@    00471abc     chcontrolafd.obj
 0002:00003ac4       ??_C@_05KLANBDFN@useit@    00471ac4     chcontrolafd.obj
 0002:00003acc       ??_C@_09BHFPINEP@TextLabel@ 00471acc     chcontrolafd.obj
 0002:00003ad8       ??_C@_04MJHCKDHM@1024@     00471ad8     chcontrolafd.obj
 0002:00003ae0       ??_C@_05ENLHCFHI@32768@    00471ae0     chcontrolafd.obj
 0002:00003ae8       ??_C@_04CGOKOKBC@2048@     00471ae8     chcontrolafd.obj
 0002:00003af0       ??_C@_04DPPBKBGP@4096@     00471af0     chcontrolafd.obj
 0002:00003af8       ??_C@_04CGNBOOAP@8192@     00471af8     chcontrolafd.obj
 0002:00003b00       ??_C@_05NMLGNHOC@16384@    00471b00     chcontrolafd.obj
 0002:00003b08       ??_C@_03PANGFEPN@600@      00471b08     chcontrolafd.obj
 0002:00003b0c       ??_C@_05JEEIGCJP@12800@    00471b0c     chcontrolafd.obj
 0002:00003b14       ??_C@_05EACDLLBC@25600@    00471b14     chcontrolafd.obj
 0002:00003b1c       ??_C@_05CHMELKDN@51200@    00471b1c     chcontrolafd.obj
 0002:00003b24       ??_C@_06LHGOIHJ@?e?$JA?$KP?g?$JE?$KI@ 00471b24     chcontrolafd.obj
 0002:00003b30       __real@3ff0000000000000    00471b30     chcontrolafd.obj
 0002:00003b38       __real@4049000000000000    00471b38     chcontrolafd.obj
 0002:00003b40       __real@40f869f000000000    00471b40     chcontrolafd.obj
 0002:00003b48       __real@4202a05f1ff80000    00471b48     chcontrolafd.obj
 0002:00003b54       ??_SQAction@@6B@           00471b54     daqinfo.obj
 0002:00003b84       ??_SQMenu@@6BQObject@@@    00471b84     daqinfo.obj
 0002:00003c3c       ??_SQMenu@@6BQPaintDevice@@@ 00471c3c     daqinfo.obj
 0002:00003c5c       ??_SQThread@@6B@           00471c5c     daqinfo.obj
 0002:00003c90       ??_7daqInfo@@6BQObject@@@  00471c90     daqinfo.obj
 0002:00003d48       ??_7daqInfo@@6BQPaintDevice@@@ 00471d48     daqinfo.obj
 0002:00003d64       ??_C@_07DOGGNBA@daqInfo@   00471d64     daqinfo.obj
 0002:00003d6c       ??_C@_09DNAIEFFD@actionDel@ 00471d6c     daqinfo.obj
 0002:00003d78       ??_C@_0O@IECKHEHG@actionSetting@ 00471d78     daqinfo.obj
 0002:00003d88       ??_C@_0BE@NEFDJCNB@actionViewCharacter@ 00471d88     daqinfo.obj
 0002:00003d9c       ??_C@_0P@KAPLALLN@actionViewWave@ 00471d9c     daqinfo.obj
 0002:00003dac       ??_C@_0BF@JJLAALGC@actionUpdateFirmware@ 00471dac     daqinfo.obj
 0002:00003dc4       ??_C@_0BA@KNMNDNA@actionStartStop@ 00471dc4     daqinfo.obj
 0002:00003dd4       ??_C@_0BD@JCKDNMOA@actionViewAutoWave@ 00471dd4     daqinfo.obj
 0002:00003de8       ??_C@_0L@EGKAFPBC@alarmCount@ 00471de8     daqinfo.obj
 0002:00003df4       ??_C@_05NCCFOPHA@model@    00471df4     daqinfo.obj
 0002:00003dfc       ??_C@_07IJIMFGJO@label_4@  00471dfc     daqinfo.obj
 0002:00003e04       ??_C@_0BA@HOHDHJND@firmWareVersion@ 00471e04     daqinfo.obj
 0002:00003e14       ??_C@_07CFDJBJJC@label_8@  00471e14     daqinfo.obj
 0002:00003e1c       ??_C@_07LHEPONKL@address@  00471e1c     daqinfo.obj
 0002:00003e24       ??_C@_0M@FBAFOCA@currentTemp@ 00471e24     daqinfo.obj
 0002:00003e30       ??_C@_07LLLKDEBM@label_6@  00471e30     daqinfo.obj
 0002:00003e38       ??_C@_0L@OJAKNHAD@alertCount@ 00471e38     daqinfo.obj
 0002:00003e44       ??_C@_07JAJHGHNP@label_5@  00471e44     daqinfo.obj
 0002:00003e4c       ??_C@_07KCKBAFFN@label_7@  00471e4c     daqinfo.obj
 0002:00003e54       ??_C@_02LONEIP@SN@         00471e54     daqinfo.obj
 0002:00003e58       ??_C@_0L@GDKMDJHF@updateTime@ 00471e58     daqinfo.obj
 0002:00003e64       ??_C@_07DMCCCIND@label_9@  00471e64     daqinfo.obj
 0002:00003e6c       ??_C@_0P@DLHALGMH@currentBattery@ 00471e6c     daqinfo.obj
 0002:00003e7c       ??_C@_0N@KAPBAJHI@?e?$II?$KA?i?$JJ?$KE?h?$KO?$LO?e?$KE?$IH@ 00471e7c     daqinfo.obj
 0002:00003e8c       ??_C@_0N@NCKIGFKO@?h?$KO?$LO?g?$LN?$KO?e?$IP?$IC?f?$JF?$LA@ 00471e8c     daqinfo.obj
 0002:00003e9c       ??_C@_0BA@DMAECIGN@?f?$JP?$KF?g?$JM?$IL?g?$IJ?$LJ?e?$LO?$IB?e?$IA?$LM@ 00471e9c     daqinfo.obj
 0002:00003eac       ??_C@_0N@NBIHJAAC@?f?$JP?$KF?g?$JM?$IL?f?$LD?$KC?e?$LN?$KC@ 00471eac     daqinfo.obj
 0002:00003ebc       ??_C@_0N@BFLELIIO@?e?$IN?$IH?g?$LK?$KH?e?$JL?$LK?d?$LL?$LG@ 00471ebc     daqinfo.obj
 0002:00003ecc       ??_C@_06LHMHKOII@?e?$JA?$KP?e?$IK?$KI@ 00471ecc     daqinfo.obj
 0002:00003ed4       ??_C@_0BJ@EIHPKEEN@?f?$JP?$KF?g?$JM?$IL?h?$IH?$KK?e?$IK?$KI?d?$LI?$IK?d?$LM?$KA?f?$LD?$KC?e?$LN?$KC@ 00471ed4     daqinfo.obj
 0002:00003ef0       ??_C@_0N@IJHMGAEK@temperature?3@ 00471ef0     daqinfo.obj
 0002:00003f00       ??_C@_0M@FKFPHPD@updateTime?3@ 00471f00     daqinfo.obj
 0002:00003f0c       ??_C@_03FIKOPOBM@SN?3@     00471f0c     daqinfo.obj
 0002:00003f10       ??_C@_07DAGCOONM@alarms?3@ 00471f10     daqinfo.obj
 0002:00003f18       ??_C@_08OGOLGJFH@Address?3@ 00471f18     daqinfo.obj
 0002:00003f24       ??_C@_07IGOCLENP@alerts?3@ 00471f24     daqinfo.obj
 0002:00003f2c       ??_C@_06LKMDLDDG@Model?3@  00471f2c     daqinfo.obj
 0002:00003f34       ??_C@_09CMKOLDKI@firmware?3@ 00471f34     daqinfo.obj
 0002:00003f40       ??_C@_08BBNLEEDF@battery?3@ 00471f40     daqinfo.obj
 0002:00003f4c       ??_C@_03FEFPNBIE@?b?$IE?$ID@ 00471f4c     daqinfo.obj
 0002:00003f50       ??_C@_0P@LKGPEBLF@yyyy?9M?9d?5H?3m?3s@ 00471f50     daqinfo.obj
 0002:00003f60       ??_C@_0L@EPFPMAEB@wifiJunyue@ 00471f60     daqinfo.obj
 0002:00003f6c       ??_C@_06EMJEKKOB@?e?$IB?$JM?f?$KN?$KC@ 00471f6c     daqinfo.obj
 0002:00003f78       __real@406fe00000000000    00471f78     daqinfo.obj
 0002:00003f80       ??_C@_06FKDAMKFP@DELETE@   00471f80     http_parser.obj
 0002:00003f88       ??_C@_03HAPOJHBM@GET@      00471f88     http_parser.obj
 0002:00003f8c       ??_C@_04BINJNOJD@HEAD@     00471f8c     http_parser.obj
 0002:00003f94       ??_C@_04HCJEIHPL@POST@     00471f94     http_parser.obj
 0002:00003f9c       ??_C@_03KBBGFLEK@PUT@      00471f9c     http_parser.obj
 0002:00003fa0       ??_C@_07FNNMGOPK@CONNECT@  00471fa0     http_parser.obj
 0002:00003fa8       ??_C@_07KDKMIPIP@OPTIONS@  00471fa8     http_parser.obj
 0002:00003fb0       ??_C@_05EHILDPJH@TRACE@    00471fb0     http_parser.obj
 0002:00003fb8       ??_C@_04OCDMKKLN@COPY@     00471fb8     http_parser.obj
 0002:00003fc0       ??_C@_04GPIFAJG@LOCK@      00471fc0     http_parser.obj
 0002:00003fc8       ??_C@_05HMHDBDJB@MKCOL@    00471fc8     http_parser.obj
 0002:00003fd0       ??_C@_04LPPGDFDD@MOVE@     00471fd0     http_parser.obj
 0002:00003fd8       ??_C@_08BNNEMDGO@PROPFIND@ 00471fd8     http_parser.obj
 0002:00003fe4       ??_C@_09ENKDFGKI@PROPPATCH@ 00471fe4     http_parser.obj
 0002:00003ff0       ??_C@_06GBNAAIDA@SEARCH@   00471ff0     http_parser.obj
 0002:00003ff8       ??_C@_06BJAJNFPJ@UNLOCK@   00471ff8     http_parser.obj
 0002:00004000       ??_C@_04BDODDOLH@BIND@     00472000     http_parser.obj
 0002:00004008       ??_C@_06KDHCHFJF@REBIND@   00472008     http_parser.obj
 0002:00004010       ??_C@_06MBCLLNI@UNBIND@    00472010     http_parser.obj
 0002:00004018       ??_C@_03NDADCMCL@ACL@      00472018     http_parser.obj
 0002:0000401c       ??_C@_06MDMHKGOO@REPORT@   0047201c     http_parser.obj
 0002:00004024       ??_C@_0L@CPELOPEL@MKACTIVITY@ 00472024     http_parser.obj
 0002:00004030       ??_C@_08MDJKHKOP@CHECKOUT@ 00472030     http_parser.obj
 0002:0000403c       ??_C@_05PEDHHHPL@MERGE@    0047203c     http_parser.obj
 0002:00004044       ??_C@_08FHBLFADH@M?9SEARCH@ 00472044     http_parser.obj
 0002:00004050       ??_C@_06LMEIPPMP@NOTIFY@   00472050     http_parser.obj
 0002:00004058       ??_C@_09NMAFIJHB@SUBSCRIBE@ 00472058     http_parser.obj
 0002:00004064       ??_C@_0M@GELMDIJN@UNSUBSCRIBE@ 00472064     http_parser.obj
 0002:00004070       ??_C@_05CJDDEJDD@PATCH@    00472070     http_parser.obj
 0002:00004078       ??_C@_05CLJPPBDM@PURGE@    00472078     http_parser.obj
 0002:00004080       ??_C@_0L@DLIIGOKM@MKCALENDAR@ 00472080     http_parser.obj
 0002:0000408c       ??_C@_04CLELJMBJ@LINK@     0047208c     http_parser.obj
 0002:00004094       ??_C@_06DELKBJHG@UNLINK@   00472094     http_parser.obj
 0002:000042c0       ??_C@_06HCMPIHJG@HPE_OK@   004722c0     http_parser.obj
 0002:000042c8       ??_C@_07IPNMCAN@success@   004722c8     http_parser.obj
 0002:000042d0       ??_C@_0BF@IPCPDMDP@HPE_CB_message_begin@ 004722d0     http_parser.obj
 0002:000042e8       ??_C@_0CF@FIKLBLKE@the?5on_message_begin?5callback?5f@ 004722e8     http_parser.obj
 0002:00004310       ??_C@_0L@BGAIMDHB@HPE_CB_url@ 00472310     http_parser.obj
 0002:0000431c       ??_C@_0BL@FHNPBLJD@the?5on_url?5callback?5failed@ 0047231c     http_parser.obj
 0002:00004338       ??_C@_0BE@EGJFLKIM@HPE_CB_header_field@ 00472338     http_parser.obj
 0002:0000434c       ??_C@_0CE@NCPJEBFC@the?5on_header_field?5callback?5fa@ 0047234c     http_parser.obj
 0002:00004370       ??_C@_0BE@CNHBFOC@HPE_CB_header_value@ 00472370     http_parser.obj
 0002:00004384       ??_C@_0CE@IEBDPPKH@the?5on_header_value?5callback?5fa@ 00472384     http_parser.obj
 0002:000043a8       ??_C@_0BI@MFDJEDCB@HPE_CB_headers_complete@ 004723a8     http_parser.obj
 0002:000043c0       ??_C@_0CI@FJODALIB@the?5on_headers_complete?5callbac@ 004723c0     http_parser.obj
 0002:000043e8       ??_C@_0M@KHEJBOLO@HPE_CB_body@ 004723e8     http_parser.obj
 0002:000043f4       ??_C@_0BM@OEICKNJO@the?5on_body?5callback?5failed@ 004723f4     http_parser.obj
 0002:00004410       ??_C@_0BI@MMENOJCN@HPE_CB_message_complete@ 00472410     http_parser.obj
 0002:00004428       ??_C@_0CI@CLNKFNMM@the?5on_message_complete?5callbac@ 00472428     http_parser.obj
 0002:00004450       ??_C@_0O@EEFDKLBN@HPE_CB_status@ 00472450     http_parser.obj
 0002:00004460       ??_C@_0BO@LICKLEHA@the?5on_status?5callback?5failed@ 00472460     http_parser.obj
 0002:00004480       ??_C@_0BE@OMJKMENK@HPE_CB_chunk_header@ 00472480     http_parser.obj
 0002:00004494       ??_C@_0CE@NNMBJODJ@the?5on_chunk_header?5callback?5fa@ 00472494     http_parser.obj
 0002:000044b8       ??_C@_0BG@CAAADNHD@HPE_CB_chunk_complete@ 004724b8     http_parser.obj
 0002:000044d0       ??_C@_0CG@MFPHODCA@the?5on_chunk_complete?5callback?5@ 004724d0     http_parser.obj
 0002:000044f8       ??_C@_0BG@GGGHMKAI@HPE_INVALID_EOF_STATE@ 004724f8     http_parser.obj
 0002:00004510       ??_C@_0CD@BNLCGJEB@stream?5ended?5at?5an?5unexpected?5t@ 00472510     http_parser.obj
 0002:00004534       ??_C@_0BE@FMGFKNKB@HPE_HEADER_OVERFLOW@ 00472534     http_parser.obj
 0002:00004548       ??_C@_0CO@GGIKFED@too?5many?5header?5bytes?5seen?$DL?5ove@ 00472548     http_parser.obj
 0002:00004578       ??_C@_0BG@GCINOCIP@HPE_CLOSED_CONNECTION@ 00472578     http_parser.obj
 0002:00004590       ??_C@_0DI@CKAHDGDC@data?5received?5after?5completed?5c@ 00472590     http_parser.obj
 0002:000045c8       ??_C@_0BE@FFIHLPNJ@HPE_INVALID_VERSION@ 004725c8     http_parser.obj
 0002:000045dc       ??_C@_0BF@CFOPGFMA@invalid?5HTTP?5version@ 004725dc     http_parser.obj
 0002:000045f4       ??_C@_0BD@MAJDLGBL@HPE_INVALID_STATUS@ 004725f4     http_parser.obj
 0002:00004608       ??_C@_0BJ@KBCLEIIE@invalid?5HTTP?5status?5code@ 00472608     http_parser.obj
 0002:00004624       ??_C@_0BD@JJAFNCFD@HPE_INVALID_METHOD@ 00472624     http_parser.obj
 0002:00004638       ??_C@_0BE@KAEFGEJO@invalid?5HTTP?5method@ 00472638     http_parser.obj
 0002:0000464c       ??_C@_0BA@DBELOOBJ@HPE_INVALID_URL@ 0047264c     http_parser.obj
 0002:0000465c       ??_C@_0M@IHNFGJMC@invalid?5URL@ 0047265c     http_parser.obj
 0002:00004668       ??_C@_0BB@JHPEEDEC@HPE_INVALID_HOST@ 00472668     http_parser.obj
 0002:0000467c       ??_C@_0N@EKHJDEOB@invalid?5host@ 0047267c     http_parser.obj
 0002:0000468c       ??_C@_0BB@MGKGPFDG@HPE_INVALID_PORT@ 0047268c     http_parser.obj
 0002:000046a0       ??_C@_0N@BLCLICJF@invalid?5port@ 004726a0     http_parser.obj
 0002:000046b0       ??_C@_0BB@MEIDKDOK@HPE_INVALID_PATH@ 004726b0     http_parser.obj
 0002:000046c4       ??_C@_0N@BJAONEEJ@invalid?5path@ 004726c4     http_parser.obj
 0002:000046d4       ??_C@_0BJ@NLLIIAID@HPE_INVALID_QUERY_STRING@ 004726d4     http_parser.obj
 0002:000046f0       ??_C@_0BF@PGFEONOK@invalid?5query?5string@ 004726f0     http_parser.obj
 0002:00004708       ??_C@_0BF@KPHPIPKG@HPE_INVALID_FRAGMENT@ 00472708     http_parser.obj
 0002:00004720       ??_C@_0BB@BLGKONIP@invalid?5fragment@ 00472720     http_parser.obj
 0002:00004734       ??_C@_0BA@LPCFBFPI@HPE_LF_EXPECTED@ 00472734     http_parser.obj
 0002:00004744       ??_C@_0BG@HEBLPMDJ@LF?5character?5expected@ 00472744     http_parser.obj
 0002:0000475c       ??_C@_0BJ@IHOEECLA@HPE_INVALID_HEADER_TOKEN@ 0047275c     http_parser.obj
 0002:00004778       ??_C@_0BM@JNNMENMG@invalid?5character?5in?5header@ 00472778     http_parser.obj
 0002:00004794       ??_C@_0BL@OLDOOILG@HPE_INVALID_CONTENT_LENGTH@ 00472794     http_parser.obj
 0002:000047b0       ??_C@_0CL@NJOOFCA@invalid?5character?5in?5content?9le@ 004727b0     http_parser.obj
 0002:000047dc       ??_C@_0BO@GDGKAFKO@HPE_UNEXPECTED_CONTENT_LENGTH@ 004727dc     http_parser.obj
 0002:000047fc       ??_C@_0CB@GJJNEHCK@unexpected?5content?9length?5heade@ 004727fc     http_parser.obj
 0002:00004820       ??_C@_0BH@DNFJEHAE@HPE_INVALID_CHUNK_SIZE@ 00472820     http_parser.obj
 0002:00004838       ??_C@_0CH@KJBEIJMP@invalid?5character?5in?5chunk?5size@ 00472838     http_parser.obj
 0002:00004860       ??_C@_0BF@IOMLLMND@HPE_INVALID_CONSTANT@ 00472860     http_parser.obj
 0002:00004878       ??_C@_0BI@FIOFDGGO@invalid?5constant?5string@ 00472878     http_parser.obj
 0002:00004890       ??_C@_0BL@KCFJDMGA@HPE_INVALID_INTERNAL_STATE@ 00472890     http_parser.obj
 0002:000048ac       ??_C@_0CG@MCDPPGMC@encountered?5unexpected?5internal@ 004728ac     http_parser.obj
 0002:000048d4       ??_C@_0L@NEACAOMN@HPE_STRICT@ 004728d4     http_parser.obj
 0002:000048e0       ??_C@_0BN@FGOIJDFH@strict?5mode?5assertion?5failed@ 004728e0     http_parser.obj
 0002:00004900       ??_C@_0L@HFDKICHA@HPE_PAUSED@ 00472900     http_parser.obj
 0002:0000490c       ??_C@_0BB@JFDHKBPI@parser?5is?5paused@ 0047290c     http_parser.obj
 0002:00004920       ??_C@_0M@FAFDJKCN@HPE_UNKNOWN@ 00472920     http_parser.obj
 0002:0000492c       ??_C@_0BK@FGOEOOHP@an?5unknown?5error?5occurred@ 0047292c     http_parser.obj
 0002:00004948       ??_C@_0L@IJAFCDGM@connection@ 00472948     http_parser.obj
 0002:00004954       ??_C@_0BB@GDGALMED@proxy?9connection@ 00472954     http_parser.obj
 0002:00004968       ??_C@_0P@DJOOPABC@content?9length@ 00472968     http_parser.obj
 0002:00004978       ??_C@_0BC@JEMMGIEE@transfer?9encoding@ 00472978     http_parser.obj
 0002:0000498c       ??_C@_07NACIIPHM@upgrade@  0047298c     http_parser.obj
 0002:00004994       ??_C@_07KCKHAHHI@chunked@  00472994     http_parser.obj
 0002:0000499c       ??_C@_0L@FFDPOIEG@keep?9alive@ 0047299c     http_parser.obj
 0002:000049a8       ??_C@_05LBOHBHFK@close@    004729a8     http_parser.obj
 0002:000049b0       ??_C@_0BM@JDFAKCJE@?1api?1remoteservice_plcalert@ 004729b0     qasynhttpsocket.obj
 0002:000049cc       ??_C@_0BM@FJNIIAAO@?1api?1remoteservice_plcsetup@ 004729cc     qasynhttpsocket.obj
 0002:000049e8       ??_C@_08CHOMKDC@api?1lora@ 004729e8     qasynhttpsocket.obj
 0002:000049f4       ??_C@_05LAPONLG@false@     004729f4     qasynhttpsocket.obj
 0002:000049fc       ??_C@_04LOAJBDKD@true@     004729fc     qasynhttpsocket.obj
 0002:00004a08       ??_7QAsynHttpSocket@@6B@   00472a08     qasynhttpsocket.obj
 0002:00004aa0       ??_C@_05JNKNAC@State@      00472aa0     qasynhttpsocket.obj
 0002:00004aa8       ??_C@_04KOACHJEN@Type@     00472aa8     qasynhttpsocket.obj
 0002:00004ab0       ??_C@_0BC@IBBAJFEJ@1doParseRequest?$CI?$CJ@ 00472ab0     qasynhttpsocket.obj
 0002:00004ac4       ??_C@_0BC@DECAJDGD@1doDisconnected?$CI?$CJ@ 00472ac4     qasynhttpsocket.obj
 0002:00004ad8       ??_C@_0BA@GKAMIBNA@2disconnected?$CI?$CJ@ 00472ad8     qasynhttpsocket.obj
 0002:00004ae8       ??_C@_0BM@LCJLBABI@1doUpdateWriteCount?$CIqint64?$CJ@ 00472ae8     qasynhttpsocket.obj
 0002:00004b04       ??_C@_0BG@IMKMHMAI@2bytesWritten?$CIqint64?$CJ@ 00472b04     qasynhttpsocket.obj
 0002:00004b1c       ??_C@_0DA@LGEJHEMP@1handleRequest?$CIQHttpRequest?5?$CK?0?5@ 00472b1c     qasynhttpsocket.obj
 0002:00004b4c       ??_C@_0CN@PLHMEFDN@2newRequest?$CIQHttpRequest?5?$CK?0?5QHt@ 00472b4c     qasynhttpsocket.obj
 0002:00004b7c       ??_C@_05GGHNHOEK@path?3@   00472b7c     qasynhttpsocket.obj
 0002:00004b84       ??_C@_02JFDKPACN@Sn@       00472b84     qasynhttpsocket.obj
 0002:00004b88       ??_C@_0M@HNCDJEJD@AlertValues@ 00472b88     qasynhttpsocket.obj
 0002:00004b94       ??_C@_09KABDMIOB@text?1html@ 00472b94     qasynhttpsocket.obj
 0002:00004ba0       ??_C@_0N@LAFFMKKA@Content?9Type@ 00472ba0     qasynhttpsocket.obj
 0002:00004bb0       ??_C@_0P@HOJGPHBA@Content?9Length@ 00472bb0     qasynhttpsocket.obj
 0002:00004bc0       ??_C@_0BF@BCJILHHO@http?3?1?1www?4baidu?4com@ 00472bc0     qasynhttpsocket.obj
 0002:00004bd8       ??_C@_08CBBFJFMD@location@ 00472bd8     qasynhttpsocket.obj
 0002:00004be4       ??_C@_0BC@EJNHAAMF@SamplingFrequency@ 00472be4     qasynhttpsocket.obj
 0002:00004bf8       ??_C@_0M@ININPOCK@Sensitivity@ 00472bf8     qasynhttpsocket.obj
 0002:00004c04       ??_C@_0BF@NPHBKAON@TemperatureDeviation@ 00472c04     qasynhttpsocket.obj
 0002:00004c1c       ??_C@_09CPCFLBE@AlertSpan@ 00472c1c     qasynhttpsocket.obj
 0002:00004c28       ??_C@_08HODLJMFI@00?300?310@ 00472c28     qasynhttpsocket.obj
 0002:00004c34       ??_C@_0L@FBABAHPH@NormalSpan@ 00472c34     qasynhttpsocket.obj
 0002:00004c40       ??_C@_08PBHGPBIM@03?300?300@ 00472c40     qasynhttpsocket.obj
 0002:00004c4c       ??_C@_02FAMKOJFE@Ip@       00472c4c     qasynhttpsocket.obj
 0002:00004c50       ??_C@_02NPEGPENL@Ch@       00472c50     qasynhttpsocket.obj
 0002:00004c54       ??_C@_0O@BHJDPFAF@FsBottomLimit@ 00472c54     qasynhttpsocket.obj
 0002:00004c64       ??_C@_0L@FEEHGNMK@FsTopLimit@ 00472c64     qasynhttpsocket.obj
 0002:00004c70       ??_C@_0L@FIFPBHCO@SensorType@ 00472c70     qasynhttpsocket.obj
 0002:00004c7c       ??_C@_09OOJJFHMJ@ChartType@ 00472c7c     qasynhttpsocket.obj
 0002:00004c88       ??_C@_0N@BPGDFIPP@TsTimeLength@ 00472c88     qasynhttpsocket.obj
 0002:00004c98       ??_C@_04DICKPMGH@Data@     00472c98     qasynhttpsocket.obj
 0002:00004ca0       ??_C@_0BP@NGKHJABA@Error?3?5Not?5valid?5data?5request?$CB@ 00472ca0     qasynhttpsocket.obj
 0002:00004cc0       ??_C@_07CNNPNLPM@man_num@  00472cc0     qasynhttpsocket.obj
 0002:00004cc8       ??_C@_0P@IMICPPG@20150601113432@ 00472cc8     qasynhttpsocket.obj
 0002:00004cd8       ??_C@_04CLCEDBPF@time@     00472cd8     qasynhttpsocket.obj
 0002:00004ce0       ??_C@_05BGAGFDJI@?$CF1?4?$CF2@ 00472ce0     qasynhttpsocket.obj
 0002:00004ce8       __real@bff0000000000000    00472ce8     qasynhttpsocket.obj
 0002:00004cf4       ??_7QAsynTcpServer@@6B@    00472cf4     qasyntcpserver.obj
 0002:00004d30       ??_7QAsynTcpSocket@@6B@    00472d30     qasyntcpsocket.obj
 0002:00004dcc       ??_7QHttpRequest@@6B@      00472dcc     qhttprequest.obj
 0002:00004df8       ??_C@_0BC@HNLDCEOJ@http?3?1?1localhost?1@ 00472df8     qhttprequest.obj
 0002:00004e0c       ??_C@_02LMMGGCAJ@?3?5@     00472e0c     qhttpresponse.obj
 0002:00004e14       ??_7QHttpResponse@@6B@     00472e14     qhttpresponse.obj
 0002:00004e40       ??_C@_0BD@KFCEFLGM@2allBytesWritten?$CI?$CJ@ 00472e40     qhttpresponse.obj
 0002:00004e54       ??_C@_08LJHDLOLO@Continue@ 00472e54     qhttpresponse.obj
 0002:00004e60       ??_C@_0BE@FGMIEJDD@Switching?5Protocols@ 00472e60     qhttpresponse.obj
 0002:00004e74       ??_C@_0L@HFFAKEO@Processing@ 00472e74     qhttpresponse.obj
 0002:00004e80       ??_C@_02GIPFHKNO@OK@       00472e80     qhttpresponse.obj
 0002:00004e84       ??_C@_07BBIDHECN@Created@  00472e84     qhttpresponse.obj
 0002:00004e8c       ??_C@_08DOBOODLA@Accepted@ 00472e8c     qhttpresponse.obj
 0002:00004e98       ??_C@_0BO@NKBPKPBI@Non?9Authoritative?5Information@ 00472e98     qhttpresponse.obj
 0002:00004eb8       ??_C@_0L@FDPJCNGK@No?5Content@ 00472eb8     qhttpresponse.obj
 0002:00004ec4       ??_C@_0O@BFFLKCLE@Reset?5Content@ 00472ec4     qhttpresponse.obj
 0002:00004ed4       ??_C@_0BA@NNLNHGMN@Partial?5Content@ 00472ed4     qhttpresponse.obj
 0002:00004ee4       ??_C@_0N@BFLFIKGM@Multi?9Status@ 00472ee4     qhttpresponse.obj
 0002:00004ef4       ??_C@_0BB@HLFEHKPE@Multiple?5Choices@ 00472ef4     qhttpresponse.obj
 0002:00004f08       ??_C@_0BC@BPBCNFPI@Moved?5Permanently@ 00472f08     qhttpresponse.obj
 0002:00004f1c       ??_C@_0BC@LODIMCJL@Moved?5Temporarily@ 00472f1c     qhttpresponse.obj
 0002:00004f30       ??_C@_09FAMPMKIP@See?5Other@ 00472f30     qhttpresponse.obj
 0002:00004f3c       ??_C@_0N@IFEFAIJB@Not?5Modified@ 00472f3c     qhttpresponse.obj
 0002:00004f4c       ??_C@_09JFBGBFIM@Use?5Proxy@ 00472f4c     qhttpresponse.obj
 0002:00004f58       ??_C@_0BD@PJMNAMDM@Temporary?5Redirect@ 00472f58     qhttpresponse.obj
 0002:00004f6c       ??_C@_0M@LNAIDEEG@Bad?5Request@ 00472f6c     qhttpresponse.obj
 0002:00004f78       ??_C@_0N@OOAPMOJA@Unauthorized@ 00472f78     qhttpresponse.obj
 0002:00004f88       ??_C@_0BB@LMPIHCBH@Payment?5Required@ 00472f88     qhttpresponse.obj
 0002:00004f9c       ??_C@_09LMDIMFJD@Forbidden@ 00472f9c     qhttpresponse.obj
 0002:00004fa8       ??_C@_09CFCBFJND@Not?5Found@ 00472fa8     qhttpresponse.obj
 0002:00004fb4       ??_C@_0BD@CCIPIALO@Method?5Not?5Allowed@ 00472fb4     qhttpresponse.obj
 0002:00004fc8       ??_C@_0P@HHIDFAOI@Not?5Acceptable@ 00472fc8     qhttpresponse.obj
 0002:00004fd8       ??_C@_0BO@ONPAAOGI@Proxy?5Authentication?5Required@ 00472fd8     qhttpresponse.obj
 0002:00004ff8       ??_C@_0BB@GKNJPEJG@Request?5Time?9out@ 00472ff8     qhttpresponse.obj
 0002:0000500c       ??_C@_08OJCIFGDF@Conflict@ 0047300c     qhttpresponse.obj
 0002:00005018       ??_C@_04OKIIBCCG@Gone@     00473018     qhttpresponse.obj
 0002:00005020       ??_C@_0BA@JCKHPIPI@Length?5Required@ 00473020     qhttpresponse.obj
 0002:00005030       ??_C@_0BE@BBDBJOM@Precondition?5Failed@ 00473030     qhttpresponse.obj
 0002:00005044       ??_C@_0BJ@MMEIEOIG@Request?5Entity?5Too?5Large@ 00473044     qhttpresponse.obj
 0002:00005060       ??_C@_0BG@PMALKKB@Request?9URI?5Too?5Large@ 00473060     qhttpresponse.obj
 0002:00005078       ??_C@_0BH@HLJJIAEN@Unsupported?5Media?5Type@ 00473078     qhttpresponse.obj
 0002:00005090       ??_C@_0CA@CBAMGINK@Requested?5Range?5Not?5Satisfiable@ 00473090     qhttpresponse.obj
 0002:000050b0       ??_C@_0BD@NDMHPAED@Expectation?5Failed@ 004730b0     qhttpresponse.obj
 0002:000050c4       ??_C@_0N@NPEBOMFI@I?$CCm?5a?5teapot@ 004730c4     qhttpresponse.obj
 0002:000050d4       ??_C@_0BF@BHJGKCEF@Unprocessable?5Entity@ 004730d4     qhttpresponse.obj
 0002:000050ec       ??_C@_06GFKCFIPE@Locked@   004730ec     qhttpresponse.obj
 0002:000050f4       ??_C@_0BC@KKPOPIFM@Failed?5Dependency@ 004730f4     qhttpresponse.obj
 0002:00005108       ??_C@_0BF@JKJGKGEF@Unordered?5Collection@ 00473108     qhttpresponse.obj
 0002:00005120       ??_C@_0BB@NMNIKHMI@Upgrade?5Required@ 00473120     qhttpresponse.obj
 0002:00005134       ??_C@_0BG@NJGANGCC@Internal?5Server?5Error@ 00473134     qhttpresponse.obj
 0002:0000514c       ??_C@_0BA@JGKGKAME@Not?5Implemented@ 0047314c     qhttpresponse.obj
 0002:0000515c       ??_C@_0M@BNCNLPGM@Bad?5Gateway@ 0047315c     qhttpresponse.obj
 0002:00005168       ??_C@_0BE@NGHLFKBN@Service?5Unavailable@ 00473168     qhttpresponse.obj
 0002:0000517c       ??_C@_0BB@PHMOGCPC@Gateway?5Time?9out@ 0047317c     qhttpresponse.obj
 0002:00005190       ??_C@_0BL@GBBFKFHI@HTTP?5Version?5not?5supported@ 00473190     qhttpresponse.obj
 0002:000051ac       ??_C@_0BI@PDOLHBJO@Variant?5Also?5Negotiates@ 004731ac     qhttpresponse.obj
 0002:000051c4       ??_C@_0BF@GDOFGFPB@Insufficient?5Storage@ 004731c4     qhttpresponse.obj
 0002:000051dc       ??_C@_0BJ@DHMPCKNA@Bandwidth?5Limit?5Exceeded@ 004731dc     qhttpresponse.obj
 0002:000051f8       ??_C@_0N@JKOFFNBC@Not?5Extended@ 004731f8     qhttpresponse.obj
 0002:00005208       ??_C@_0EL@HOHFGBME@QHttpResponse?3?3setHeader?$CI?$CJ?5Cann@ 00473208     qhttpresponse.obj
 0002:00005254       ??_C@_02PCIJFNDE@?$AN?6@   00473254     qhttpresponse.obj
 0002:00005258       ??_C@_0EP@FGLBOIGK@QHttpResponse?3?3writeHeader?$CI?$CJ?5Ca@ 00473258     qhttpresponse.obj
 0002:000052a8       ??_C@_04JNIHBGGH@date@     004732a8     qhttpresponse.obj
 0002:000052b0       ??_C@_0L@PJJKMLL@Connection@ 004732b0     qhttpresponse.obj
 0002:000052bc       ??_C@_0BC@ELHLFCNH@Transfer?9Encoding@ 004732bc     qhttpresponse.obj
 0002:000052d0       ??_C@_04FIEKMBKB@?5GMT@    004732d0     qhttpresponse.obj
 0002:000052d8       ??_C@_0BK@JPODEMDG@ddd?0?5dd?5MMM?5yyyy?5hh?3mm?3ss@ 004732d8     qhttpresponse.obj
 0002:000052f4       ??_C@_04FMEGDJGD@Date@     004732f4     qhttpresponse.obj
 0002:00005300       ??_C@_0EN@BDNBEEHD@QHttpResponse?3?3writeHead?$CI?$CJ?5Cann@ 00473300     qhttpresponse.obj
 0002:00005350       ??_C@_0EC@FFBLMGBD@QHttpResponse?3?3writeHead?$CI?$CJ?5Alre@ 00473350     qhttpresponse.obj
 0002:00005394       ??_C@_0BB@GBHCONLN@HTTP?11?41?5?$CF1?5?$CF2?$AN?6@ 00473394     qhttpresponse.obj
 0002:000053a8       ??_C@_0EG@FLBNPCCO@QHttpResponse?3?3write?$CI?$CJ?5Cannot?5w@ 004733a8     qhttpresponse.obj
 0002:000053f0       ??_C@_0EL@LAIDCBDG@QHttpResponse?3?3write?$CI?$CJ?5You?5must@ 004733f0     qhttpresponse.obj
 0002:00005440       ??_C@_0ED@GJINGODK@QHttpResponse?3?3end?$CI?$CJ?5Cannot?5wri@ 00473440     qhttpresponse.obj
 0002:00005488       ??_7QHttpServer@@6B@       00473488     qhttpserver.obj
 0002:000054c0       ??_C@_0EJ@EEIJPDEE@1sockDisConnectSlot?$CIconst?5int?5?0@ 004734c0     qhttpserver.obj
 0002:00005510       ??_C@_0EF@OPIKGHMN@2sockDisConnect?$CIconst?5int?5?0cons@ 00473510     qhttpserver.obj
 0002:00005558       ??_C@_0EL@BIEOGPP@2getAlertData?$CIQString?0quint8?0qu@ 00473558     qhttpserver.obj
 0002:000055a8       ??_C@_0EG@OIJEPHOF@2getData?$CIQString?0quint8?0int?0int@ 004735a8     qhttpserver.obj
 0002:000055f0       ??_C@_0CC@PMGKFAEF@2setAlert?$CIQString?0quint8?0quint6@ 004735f0     qhttpserver.obj
 0002:00005614       ??_C@_0DK@IJMCKNKC@2setChParas?$CIQString?0quint8?0floa@ 00473614     qhttpserver.obj
 0002:00005650       ??_C@_0BL@GBFMCINE@2timeOut?$CIConditionPointer?$CJ@ 00473650     qhttpserver.obj
 0002:0000566c       ??_C@_0BC@BJFHOMHN@2message?$CIQString?$CJ@ 0047366c     qhttpserver.obj
 0002:00005680       ??_C@_05EGJIMALK@UTF?98@   00473680     staticfilecontroller.obj
 0002:00005688       ??_C@_07HPCADMJF@QVector@  00473688     main.obj
 0002:00005690       ??_C@_0M@NNPGNFIF@WifiFsParas@ 00473690     main.obj
 0002:0000569c       ??_C@_0M@OGNLMGAB@WifiApParas@ 0047369c     main.obj
 0002:000056a8       ??_C@_0M@PAMPBDNF@WifiChParas@ 004736a8     main.obj
 0002:000056b4       ??_C@_1BK@MGMFAEKH@?$AAk?$AAe?$AAr?$AAn?$AAe?$AAl?$AA3?$AA2?$AA?4?$AAd?$AAl?$AAl@ 004736b4     main.obj
 0002:000056d0       ??_C@_0BM@EBDAABIF@SetUnhandledExceptionFilter@ 004736d0     main.obj
 0002:000056ec       ??_C@_09ELOIGFDA@errCode?3?5@ 004736ec     main.obj
 0002:000056f8       ??_C@_09HLHOOLPM@errAddr?3?5@ 004736f8     main.obj
 0002:00005704       ??_C@_09PNKNHPMC@errFlag?3?5@ 00473704     main.obj
 0002:00005710       ??_C@_09EHBGHHGG@errPara?3?5@ 00473710     main.obj
 0002:0000571c       ??_C@_1BE@EJCCJHCK@?$AAc?$AAr?$AAa?$AAs?$AAh?$AA?4?$AAd?$AAm?$AAp@ 0047371c     main.obj
 0002:00005730       ??_C@_0BA@GEJHMDAN@hDumpFile?$DN?$DNNULL@ 00473730     main.obj
 0002:00005740       ??_C@_0BA@HEHOPGBN@Microsoft?5Yahei@ 00473740     main.obj
 0002:00005754       ??_SQFrame@@6BQObject@@@   00473754     maintab.obj
 0002:0000580c       ??_SQFrame@@6BQPaintDevice@@@ 0047380c     maintab.obj
 0002:0000582c       ??_SQTabWidget@@6BQObject@@@ 0047382c     maintab.obj
 0002:000058ec       ??_SQTabWidget@@6BQPaintDevice@@@ 004738ec     maintab.obj
 0002:0000590c       ??_SQSpinBox@@6BQObject@@@ 0047390c     maintab.obj
 0002:000059e0       ??_SQSpinBox@@6BQPaintDevice@@@ 004739e0     maintab.obj
 0002:00005a00       ??_7mainTab@@6BQObject@@@  00473a00     maintab.obj
 0002:00005ab8       ??_7mainTab@@6BQPaintDevice@@@ 00473ab8     maintab.obj
 0002:00005ad8       ??_SQButtonGroup@@6B@      00473ad8     maintab.obj
 0002:00005b0c       ??_SQMdiArea@@6BQObject@@@ 00473b0c     maintab.obj
 0002:00005bd4       ??_SQMdiArea@@6BQPaintDevice@@@ 00473bd4     maintab.obj
 0002:00005bf4       ??_SQScrollArea@@6BQObject@@@ 00473bf4     maintab.obj
 0002:00005cbc       ??_SQScrollArea@@6BQPaintDevice@@@ 00473cbc     maintab.obj
 0002:00005cd8       ??_C@_07KPLKHFNE@mainTab@  00473cd8     maintab.obj
 0002:00005ce0       ??_C@_0BD@LGCDLEHG@horizontalLayout_7@ 00473ce0     maintab.obj
 0002:00005cf4       ??_C@_09DMIEKCOP@tabWidget@ 00473cf4     maintab.obj
 0002:00005d00       ??_C@_0L@IKDKNCOL@tabWelcome@ 00473d00     maintab.obj
 0002:00005d0c       ??_C@_0L@JEEJIDE@tabDaqView@ 00473d0c     maintab.obj
 0002:00005d18       ??_C@_0BB@GGBPEGMA@verticalLayout_8@ 00473d18     maintab.obj
 0002:00005d2c       ??_C@_0L@LLIJDPKF@scrollArea@ 00473d2c     maintab.obj
 0002:00005d38       ??_C@_0BJ@GIOELLGD@scrollAreaWidgetContents@ 00473d38     maintab.obj
 0002:00005d54       ??_C@_0L@MDMIKCPE@tabDUTview@ 00473d54     maintab.obj
 0002:00005d60       ??_C@_0M@HMIBKAFP@tabDataView@ 00473d60     maintab.obj
 0002:00005d6c       ??_C@_0BB@JMPAKOEK@verticalLayout_2@ 00473d6c     maintab.obj
 0002:00005d80       ??_C@_07BHGOOJFL@mdiArea@  00473d80     maintab.obj
 0002:00005d88       ??_C@_0P@CJFAFMPF@tabHistoryData@ 00473d88     maintab.obj
 0002:00005d98       ??_C@_0M@LKDPBELB@tabSettings@ 00473d98     maintab.obj
 0002:00005da4       ??_C@_0BB@MKKKAJMM@verticalLayout_4@ 00473da4     maintab.obj
 0002:00005db8       ??_C@_0BB@IFOLJPAL@verticalLayout_3@ 00473db8     maintab.obj
 0002:00005dcc       ??_C@_0O@BNDJPAN@btnGrpSetLeft@ 00473dcc     maintab.obj
 0002:00005ddc       ??_C@_0N@BGNMOIIN@btnTcpServer@ 00473ddc     maintab.obj
 0002:00005dec       ??_C@_0O@JDHKOPKM@btnDutSetting@ 00473dec     maintab.obj
 0002:00005dfc       ??_C@_09MKBIPFLC@btnPosMap@ 00473dfc     maintab.obj
 0002:00005e08       ??_C@_09LLJNNLFM@tabForSet@ 00473e08     maintab.obj
 0002:00005e14       ??_C@_0L@EOKCHKAE@tabGeneral@ 00473e14     maintab.obj
 0002:00005e20       ??_C@_0BC@EJNDGOND@verticalLayout_20@ 00473e20     maintab.obj
 0002:00005e34       ??_C@_0BD@DBLLKILJ@horizontalLayout_8@ 00473e34     maintab.obj
 0002:00005e48       ??_C@_0BE@HEFIBKOJ@localTcpServerFrame@ 00473e48     maintab.obj
 0002:00005e5c       ??_C@_0BB@NDLBDIIN@verticalLayout_5@ 00473e5c     maintab.obj
 0002:00005e70       ??_C@_0BD@MLFEEADD@horizontalLayout_2@ 00473e70     maintab.obj
 0002:00005e84       ??_C@_05LJNFHEHL@ipTcp@    00473e84     maintab.obj
 0002:00005e8c       ??_C@_0BD@NCEPHBHC@horizontalLayout_3@ 00473e8c     maintab.obj
 0002:00005ea0       ??_C@_07CAAKPDLF@portTcp@  00473ea0     maintab.obj
 0002:00005ea8       ??_C@_0BD@IAMCGMNO@autoStartTcpServer@ 00473ea8     maintab.obj
 0002:00005ebc       ??_C@_0M@OCHCFBKP@btnApplyTcp@ 00473ebc     maintab.obj
 0002:00005ec8       ??_C@_0BF@HOBFCLPP@localHttpServerFrame@ 00473ec8     maintab.obj
 0002:00005ee0       ??_C@_0BC@DGOCCEMP@verticalLayout_15@ 00473ee0     maintab.obj
 0002:00005ef4       ??_C@_0BC@ELJFNAIK@verticalLayout_10@ 00473ef4     maintab.obj
 0002:00005f08       ??_C@_08KKNPADAJ@label_14@ 00473f08     maintab.obj
 0002:00005f14       ??_C@_0BE@EJDGOODP@horizontalLayout_13@ 00473f14     maintab.obj
 0002:00005f28       ??_C@_08LDMEDCEI@label_15@ 00473f28     maintab.obj
 0002:00005f34       ??_C@_0N@BLMGAFKN@ipHttpServer@ 00473f34     maintab.obj
 0002:00005f44       ??_C@_0BE@GHHHIPI@horizontalLayout_14@ 00473f44     maintab.obj
 0002:00005f58       ??_C@_08JIOJGBIL@label_16@ 00473f58     maintab.obj
 0002:00005f64       ??_C@_0P@EPLMIDLN@portHttpServer@ 00473f64     maintab.obj
 0002:00005f74       ??_C@_0BE@EMEMJHOA@autoStartHttpServer@ 00473f74     maintab.obj
 0002:00005f88       ??_C@_0BD@MNCAHNFL@btnApplyHttpServer@ 00473f88     maintab.obj
 0002:00005f9c       ??_C@_0BL@DCCFCPNA@remoteWebSocketServerFrame@ 00473f9c     maintab.obj
 0002:00005fb8       ??_C@_0BC@FAMIFPJC@verticalLayout_21@ 00473fb8     maintab.obj
 0002:00005fcc       ??_C@_0BC@HLOFAMFB@verticalLayout_22@ 00473fcc     maintab.obj
 0002:00005fe0       ??_C@_08MOLDMGAN@label_10@ 00473fe0     maintab.obj
 0002:00005fec       ??_C@_0BE@FCGLGBCH@horizontalLayout_22@ 00473fec     maintab.obj
 0002:00006000       ??_C@_08JKKPNPNC@label_26@ 00474000     maintab.obj
 0002:0000600c       ??_C@_0BI@PILFLCIL@ipRemoteWebsocketServer@ 0047400c     maintab.obj
 0002:00006024       ??_C@_0BE@ELHAFAGG@horizontalLayout_23@ 00474024     maintab.obj
 0002:00006038       ??_C@_08IDLEOOJD@label_27@ 00474038     maintab.obj
 0002:00006044       ??_C@_0BD@GFGPJLNK@portRemoteWSserver@ 00474044     maintab.obj
 0002:00006058       ??_C@_0BJ@GEFGNAPG@autoStartRemoteWebSocket@ 00474058     maintab.obj
 0002:00006074       ??_C@_0BI@NJNGNDOB@btnApplyRemoteWebSocket@ 00474074     maintab.obj
 0002:0000608c       ??_C@_0BE@KIGOGLMB@localUdpServerFrame@ 0047408c     maintab.obj
 0002:000060a0       ??_C@_0BC@CPPJBFIO@verticalLayout_14@ 004740a0     maintab.obj
 0002:000060b4       ??_C@_0BB@PIJMGLEO@verticalLayout_6@ 004740b4     maintab.obj
 0002:000060c8       ??_C@_0BD@JNAOOHLF@horizontalLayout_4@ 004740c8     maintab.obj
 0002:000060dc       ??_C@_0M@OJEGACFN@ipUdpServer@ 004740dc     maintab.obj
 0002:000060e8       ??_C@_0BD@IEBFNGPE@horizontalLayout_5@ 004740e8     maintab.obj
 0002:000060fc       ??_C@_07JNPJICFF@portUdp@  004740fc     maintab.obj
 0002:00006104       ??_C@_0BD@LGBGKCJ@autoStartUdpServer@ 00474104     maintab.obj
 0002:00006118       ??_C@_0O@LPGDBOMK@btnApplyTcp_2@ 00474118     maintab.obj
 0002:00006128       ??_C@_0BE@BPGMEJLJ@horizontalLayout_15@ 00474128     maintab.obj
 0002:0000613c       ??_C@_0BK@LHPKCDGF@localWebSocketServerFrame@ 0047413c     maintab.obj
 0002:00006158       ??_C@_0BC@JKFHGLMD@verticalLayout_19@ 00474158     maintab.obj
 0002:0000616c       ??_C@_0BC@HJKDLCAI@verticalLayout_12@ 0047416c     maintab.obj
 0002:00006180       ??_C@_08MMPFHIFE@label_20@ 00474180     maintab.obj
 0002:0000618c       ??_C@_0BE@KKMCDHPE@horizontalLayout_18@ 0047418c     maintab.obj
 0002:000061a0       ??_C@_08NFOOEJBF@label_21@ 004741a0     maintab.obj
 0002:000061ac       ??_C@_0BC@CODMGBOL@ipWebSocketServer@ 004741ac     maintab.obj
 0002:000061c0       ??_C@_0BE@LDNJAGLF@horizontalLayout_19@ 004741c0     maintab.obj
 0002:000061d4       ??_C@_08POMDBKNG@label_22@ 004741d4     maintab.obj
 0002:000061e0       ??_C@_0BE@BFPGKFI@portWebSocketServer@ 004741e0     maintab.obj
 0002:000061f4       ??_C@_0BJ@DDDAMKAM@autoStartWebsocketServer@ 004741f4     maintab.obj
 0002:00006210       ??_C@_0BI@DNMOICOO@btnApplyWebSocketServer@ 00474210     maintab.obj
 0002:00006228       ??_C@_0BH@CGCHDCOA@localModbusServerFrame@ 00474228     maintab.obj
 0002:00006240       ??_C@_0BC@IDEMFKIC@verticalLayout_18@ 00474240     maintab.obj
 0002:00006254       ??_C@_0BB@HPAEHHIB@verticalLayout_9@ 00474254     maintab.obj
 0002:00006268       ??_C@_08NHKIPHEM@label_11@ 00474268     maintab.obj
 0002:00006274       ??_C@_0BE@HLAAIMLN@horizontalLayout_11@ 00474274     maintab.obj
 0002:00006288       ??_C@_08PMIFKEIP@label_12@ 00474288     maintab.obj
 0002:00006294       ??_C@_0P@CPMLANPA@ipModbusServer@ 00474294     maintab.obj
 0002:000062a4       ??_C@_0BE@FACNNPHO@horizontalLayout_12@ 004742a4     maintab.obj
 0002:000062b8       ??_C@_08OFJOJFMO@label_13@ 004742b8     maintab.obj
 0002:000062c4       ??_C@_0BB@GBNCGNMO@portModbusServer@ 004742c4     maintab.obj
 0002:000062d8       ??_C@_0BG@HEBNJJFK@autoStartModbusServer@ 004742d8     maintab.obj
 0002:000062f0       ??_C@_0BF@DDPDGECD@btnApplyModbusServer@ 004742f0     maintab.obj
 0002:00006308       ??_C@_0BF@FIPFNGHH@remoteTcpServerFrame@ 00474308     maintab.obj
 0002:00006320       ??_C@_0BC@ENEEGEN@verticalLayout_17@ 00474320     maintab.obj
 0002:00006334       ??_C@_0BC@GALIIDEJ@verticalLayout_13@ 00474334     maintab.obj
 0002:00006348       ??_C@_08OHNICLJH@label_23@ 00474348     maintab.obj
 0002:00006354       ??_C@_0BE@GAFNADKF@horizontalLayout_20@ 00474354     maintab.obj
 0002:00006368       ??_C@_08KIJJLNFA@label_24@ 00474368     maintab.obj
 0002:00006374       ??_C@_0BC@GEKFHBKL@ipRemoteTcpServer@ 00474374     maintab.obj
 0002:00006388       ??_C@_0BE@HJEGDCOE@horizontalLayout_21@ 00474388     maintab.obj
 0002:0000639c       ??_C@_08LBICIMBB@label_25@ 0047439c     maintab.obj
 0002:000063a8       ??_C@_0BE@ELMGHKBI@portRemoteTcpServer@ 004743a8     maintab.obj
 0002:000063bc       ??_C@_0BD@MPIALHFN@autoStartTcpClient@ 004743bc     maintab.obj
 0002:000063d0       ??_C@_0BC@BNHMMBIJ@btnApplyTcpClient@ 004743d0     maintab.obj
 0002:000063e4       ??_C@_0BG@GJIODIHA@remoteHttpServerFrame@ 004743e4     maintab.obj
 0002:000063fc       ??_C@_0BC@BNMPHHAM@verticalLayout_16@ 004743fc     maintab.obj
 0002:00006410       ??_C@_0BC@FCIOOBML@verticalLayout_11@ 00474410     maintab.obj
 0002:00006424       ??_C@_08IBPCFAMK@label_17@ 00474424     maintab.obj
 0002:00006430       ??_C@_0BE@DEEBBKHK@horizontalLayout_16@ 00474430     maintab.obj
 0002:00006444       ??_C@_08GGKEMAF@label_18@  00474444     maintab.obj
 0002:00006450       ??_C@_0BD@GMMHHFEO@ipRemoteHttpServer@ 00474450     maintab.obj
 0002:00006464       ??_C@_0BE@CNFKCLDL@horizontalLayout_17@ 00474464     maintab.obj
 0002:00006478       ??_C@_08BPHBHNEE@label_19@ 00474478     maintab.obj
 0002:00006484       ??_C@_0BF@DOIAPEHD@portRemoteHttpServer@ 00474484     maintab.obj
 0002:0000649c       ??_C@_0BE@DAOEMGD@autoStartHttpClient@ 0047449c     maintab.obj
 0002:000064b0       ??_C@_0BJ@BMLOHDCC@btnApplyRemoteHttpServer@ 004744b0     maintab.obj
 0002:000064cc       ??_C@_0BB@OBIHFKAP@verticalLayout_7@ 004744cc     maintab.obj
 0002:000064e0       ??_C@_0BD@CIKAJJPI@horizontalLayout_9@ 004744e0     maintab.obj
 0002:000064f4       ??_C@_0N@GEPOHKLD@saveDataPath@ 004744f4     maintab.obj
 0002:00006504       ??_C@_0BC@PGLDINJJ@btnChangeLocation@ 00474504     maintab.obj
 0002:00006518       ??_C@_0BE@GCBLLNPM@horizontalLayout_10@ 00474518     maintab.obj
 0002:0000652c       ??_C@_08FKEHMHCB@saveWave@ 0047452c     maintab.obj
 0002:00006538       ??_C@_0O@NOCJAHDN@saveCharacter@ 00474538     maintab.obj
 0002:00006548       ??_C@_0BC@GHGDHCJE@saveOrignalPacket@ 00474548     maintab.obj
 0002:0000655c       ??_C@_0BD@KPDIIFDH@horizontalLayout_6@ 0047455c     maintab.obj
 0002:00006570       ??_C@_0L@GIJLFFPA@pushButton@ 00474570     maintab.obj
 0002:0000657c       ??_C@_0O@GMIEEBEN@tabDUTSetting@ 0047457c     maintab.obj
 0002:0000658c       ??_C@_0BB@GCCGFNGH@tabPosMapSetting@ 0047458c     maintab.obj
 0002:000065a0       ??_C@_06NMGEPFMN@tabSys@   004745a0     maintab.obj
 0002:000065a8       ??_C@_0O@FEMCKONB@tabDataExport@ 004745a8     maintab.obj
 0002:000065b8       ??_C@_07NALDAJPH@tabHelp@  004745b8     maintab.obj
 0002:000065c0       ??_C@_0EJ@LOLOMIBC@?f?$KM?$KC?h?$LP?$IO?i?$KB?$LF?o?$LM?$IM?f?$IP?$JA?d?$LO?$JL?f?$JM?$IA?h?$LP?$JB?d?$LN?$LP?g?$JE?$KI?g@ 004745c0     maintab.obj
 0002:0000660c       ??_C@_0N@KNBCMHEF@?e?$LI?$LI?h?$KH?$IE?h?$KO?$LO?g?$LN?$KO@ 0047460c     maintab.obj
 0002:0000661c       ??_C@_0N@BIFKFNLF@?f?$LF?$IL?g?$IC?$LJ?h?$KO?$LO?g?$LN?$KO@ 0047461c     maintab.obj
 0002:0000662c       ??_C@_0N@IKBODDLH@?f?$LF?$IL?g?$IC?$LJ?e?$KP?$LJ?e?$LK?$JE@ 0047462c     maintab.obj
 0002:0000663c       ??_C@_0BG@IEEOBPDO@?g?$JE?$KI?d?$LK?$IO?h?$LP?$JO?f?$IO?$KF?d?$LM?$KA?f?$IE?$JP?e?$JJ?$KI@ 0047463c     maintab.obj
 0002:00006654       ??_C@_0BA@GJDILKPO@?f?$JM?$KM?e?$JM?$LAtcpServer@ 00474654     maintab.obj
 0002:00006664       ??_C@_0M@PCLCMAFI@IP?e?$JM?$LA?e?$JN?$IA?o?$LM?$JK@ 00474664     maintab.obj
 0002:00006670       ??_C@_0N@FFNHDPMM@?5?g?$KL?$KP?5?e?$IP?$KD?5?o?$LM?$JK@ 00474670     maintab.obj
 0002:00006680       ??_C@_09NEKNMCMH@?h?$IH?$KK?e?$JA?$KP?e?$IK?$KI@ 00474680     maintab.obj
 0002:0000668c       ??_C@_0BD@IFCCEKEP@?g?$JE?$KI?d?$LK?$IO?f?$IO?$KF?f?$JE?$LG?h?$KP?$LH?f?$LB?$IC@ 0047468c     maintab.obj
 0002:000066a0       ??_C@_0BC@BOIBNAFO@?f?$JM?$KM?e?$JM?$LAhttp?5Server@ 004746a0     maintab.obj
 0002:000066b4       ??_C@_0DB@KCCNKJPL@?h?$LP?$JM?g?$KI?$ILwebSocketServer?o?$LM?$IM?g?$JE?$KI?d?$LK?$IO?f@ 004746b4     maintab.obj
 0002:000066e8       ??_C@_0BA@NIJBKDKJ@?h?$LP?$JM?g?$KI?$ILWS?5Server@ 004746e8     maintab.obj
 0002:000066f8       ??_C@_0BA@OCJLLMAJ@?f?$JM?$KM?e?$JM?$LAudpServer@ 004746f8     maintab.obj
 0002:00006708       ??_C@_0BH@OPFPDIAJ@?f?$JM?$KM?e?$JM?$LAwebsocket?5Server@ 00474708     maintab.obj
 0002:00006720       ??_C@_0BE@NBIKNECM@?f?$JM?$KM?e?$JM?$LAmodbus?5Server@ 00474720     maintab.obj
 0002:00006734       ??_C@_0BP@FGGNPFF@?g?$JE?$KI?d?$LK?$IO?d?$LI?$IK?d?$LM?$KA?f?$JF?$LA?f?$IN?$KO?e?$II?$LA?f?$JM?$IN?e?$IK?$KB?e?$JJ?$KI@ 00474734     maintab.obj
 0002:00006754       ??_C@_0BA@HOMCIGO@?h?$LP?$JM?g?$KI?$ILtcpServer@ 00474754     maintab.obj
 0002:00006764       ??_C@_0CO@LEKFLDDD@?g?$JE?$KI?d?$LK?$IO?d?$LI?$IK?d?$LM?$KA?f?$JF?$LA?f?$IN?$KO?h?$IH?$LDweb?f?$JM?$IN?e?$IK?$KB?e@ 00474764     maintab.obj
 0002:00006794       ??_C@_0BC@HBMBMGPI@?h?$LP?$JM?g?$KI?$ILhttp?5Server@ 00474794     maintab.obj
 0002:000067a8       ??_C@_0N@CMHEOJDL@?e?$KN?$JI?e?$IC?$KI?h?$KO?$LO?g?$LN?$KO@ 004747a8     maintab.obj
 0002:000067b8       ??_C@_0BA@BOAEAIGJ@?f?$JG?$IH?d?$LL?$LG?d?$LN?$IN?g?$LN?$KO?o?$LM?$JK@ 004747b8     maintab.obj
 0002:000067c8       ??_C@_03KHICJKCI@?4?4?4@   004747c8     maintab.obj
 0002:000067cc       ??_C@_0N@GAKPHOCH@?e?$KN?$JI?e?$IC?$KI?f?$LD?$KC?e?$LN?$KC@ 004747cc     maintab.obj
 0002:000067dc       ??_C@_0BA@PHMKNKEP@?e?$KN?$JI?e?$IC?$KI?g?$IJ?$LJ?e?$LO?$IB?e?$IA?$LM@ 004747dc     maintab.obj
 0002:000067ec       ??_C@_0BD@BDCFCFKB@?e?$KN?$JI?e?$IC?$KI?e?$IO?$JP?e?$KH?$IL?f?$IK?$KF?f?$JG?$IH@ 004747ec     maintab.obj
 0002:00006800       ??_C@_0N@LIBDPBJA@?d?$LP?$JN?e?$KN?$JI?h?$KO?$LO?g?$LN?$KO@ 00474800     maintab.obj
 0002:00006810       ??_C@_07ECEMPDJM@General@  00474810     maintab.obj
 0002:00006818       ??_C@_0L@HJEHEKNA@dutSetting@ 00474818     maintab.obj
 0002:00006824       ??_C@_0BD@HGJGDJGB@?f?$LF?$IL?g?$IC?$LJ?i?$IA?$JK?i?$IB?$JD?e?$KP?$LJ?e?$LK?$JE@ 00474824     maintab.obj
 0002:00006838       ??_C@_06CLKHBOGD@?g?$LD?$LL?g?$LL?$JP@ 00474838     maintab.obj
 0002:00006840       ??_C@_0BH@BNHNABFI@1changeSettingTab?$CIint?$CJ@ 00474840     maintab.obj
 0002:00006858       ??_C@_0BE@JGHJFAF@2buttonClicked?$CIint?$CJ@ 00474858     maintab.obj
 0002:0000686c       ??_C@_03BOJFLAKG@ADD@      0047486c     maintab.obj
 0002:00006870       ??_C@_0BA@LOLLACPK@?e?$KC?$JO?e?$IK?$KA?i?$IH?$IH?i?$JL?$IG?e?$JJ?$KI@ 00474870     maintab.obj
 0002:00006880       ??_C@_0O@DJPCLHNO@1testAddDaq?$CI?$CJ@ 00474880     maintab.obj
 0002:00006890       ??_C@_0L@OELOHDKG@2clicked?$CI?$CJ@ 00474890     maintab.obj
 0002:0000689c       ??_C@_0BG@CBGKNNBI@?e?$IN?$LD?e?$LA?$IG?e?$II?$KA?i?$JJ?$KE?h?$KO?$LO?e?$KE?$IH?o?$LM?$JK@ 0047489c     maintab.obj
 0002:000068b4       ??_C@_0BG@CHPCCKOC@?g?$KB?$KO?h?$KO?$KE?e?$II?$KA?i?$JJ?$KE?f?$KN?$KE?h?$KO?$LO?e?$KE?$IH@ 004748b4     maintab.obj
 0002:000068cc       ??_C@_04EDLMILMO@add?3@    004748cc     maintab.obj
 0002:000068d4       ??_C@_0BD@MPICGIEL@?i?$IA?$IJ?f?$IL?$KJ?d?$LP?$JN?e?$KN?$JI?h?$LH?$KP?e?$LO?$IE@ 004748d4     maintab.obj
 0002:000068e8       ??_C@_0L@HLODIJDH@ws?3?1?1?$CF1?3?$CF2@ 004748e8     maintab.obj
 0002:00006900       __xmm@0000000000000001000000020000000a 00474900     maintab.obj
 0002:00006910       __xmm@0000000000000002000000020000000a 00474910     maintab.obj
 0002:00006920       __xmm@0000000a000000020000000a0000000a 00474920     maintab.obj
 0002:00006930       __xmm@0000002500000025000000250000000a 00474930     maintab.obj
 0002:00006944       ??_SQTextEdit@@6BQObject@@@ 00474944     mainwindow.obj
 0002:00006a20       ??_SQTextEdit@@6BQPaintDevice@@@ 00474a20     mainwindow.obj
 0002:00006a44       ??_SQTextBrowser@@6BQObject@@@ 00474a44     mainwindow.obj
 0002:00006b34       ??_SQTextBrowser@@6BQPaintDevice@@@ 00474b34     mainwindow.obj
 0002:00006b54       ??_SQSqlTableModel@@6B@    00474b54     mainwindow.obj
 0002:00006c48       ??_7CMainWindow@@6BQObject@@@ 00474c48     mainwindow.obj
 0002:00006d04       ??_7CMainWindow@@6BQPaintDevice@@@ 00474d04     mainwindow.obj
 0002:00006d24       ??_SQDockWidget@@6BQObject@@@ 00474d24     mainwindow.obj
 0002:00006ddc       ??_SQDockWidget@@6BQPaintDevice@@@ 00474ddc     mainwindow.obj
 0002:00006dfc       ??_SQStatusBar@@6BQObject@@@ 00474dfc     mainwindow.obj
 0002:00006eb4       ??_SQStatusBar@@6BQPaintDevice@@@ 00474eb4     mainwindow.obj
 0002:00006ed4       ??_SQTreeView@@6BQObject@@@ 00474ed4     mainwindow.obj
 0002:0000703c       ??_SQTreeView@@6BQPaintDevice@@@ 0047503c     mainwindow.obj
 0002:00007058       ??_C@_0L@PKBKLDDM@MainWindow@ 00475058     mainwindow.obj
 0002:00007064       ??_C@_0BO@GOJANJF@?3?1icons?1icons?1stupid_logo?4png@ 00475064     mainwindow.obj
 0002:00007084       ??_C@_0N@IHCFAGCA@actionSaveAs@ 00475084     mainwindow.obj
 0002:00007094       ??_C@_0CI@OMGJIPDP@?3?1icons?1icons?148px?9Document?9sav@ 00475094     mainwindow.obj
 0002:000070bc       ??_C@_0L@BGOHODBB@actionOpen@ 004750bc     mainwindow.obj
 0002:000070c8       ??_C@_0CF@LMCJFBNI@?3?1icons?1icons?148px?9Document?9ope@ 004750c8     mainwindow.obj
 0002:000070f0       ??_C@_0L@KGMGGNIK@actionSave@ 004750f0     mainwindow.obj
 0002:000070fc       ??_C@_0CF@HKDNKHJI@?3?1icons?1icons?148px?9Document?9sav@ 004750fc     mainwindow.obj
 0002:00007124       ??_C@_0M@KNJODEHI@actionScale@ 00475124     mainwindow.obj
 0002:00007130       ??_C@_0BI@KMHFBFIH@?3?1icons?1icons?1Scale?4png@ 00475130     mainwindow.obj
 0002:00007148       ??_C@_0BA@NBNBHMNF@actionPolypaint@ 00475148     mainwindow.obj
 0002:00007158       ??_C@_0CB@OPPFLICH@?3?1icons?1icons?148px?9Polypaint?4pn@ 00475158     mainwindow.obj
 0002:0000717c       ??_C@_0P@LNPANEEI@actionSettings@ 0047517c     mainwindow.obj
 0002:0000718c       ??_C@_0CK@PNCDHCDE@?3?1icons?1icons?148px?9Preferences?9@ 0047518c     mainwindow.obj
 0002:000071b8       ??_C@_0M@PBIOOMKL@actionDummy@ 004751b8     mainwindow.obj
 0002:000071c4       ??_C@_0L@PBIJEMPJ@actionRedo@ 004751c4     mainwindow.obj
 0002:000071d0       ??_C@_0CB@PKHDKEIH@?3?1icons?1icons?148px?9Edit?9redo?4pn@ 004751d0     mainwindow.obj
 0002:000071f4       ??_C@_0L@JEKIBHOI@actionUndo@ 004751f4     mainwindow.obj
 0002:00007200       ??_C@_0CB@MDHINFBI@?3?1icons?1icons?148px?9Edit?9undo?4pn@ 00475200     mainwindow.obj
 0002:00007224       ??_C@_0M@NLLNDCEM@actionClose@ 00475224     mainwindow.obj
 0002:00007230       ??_C@_0BI@JPCDKGHL@?3?1icons?1icons?1close?4png@ 00475230     mainwindow.obj
 0002:00007248       ??_C@_0L@BIJAJMPM@actionHelp@ 00475248     mainwindow.obj
 0002:00007254       ??_C@_0BP@GACPOOOJ@?3?1icons?1icons?1Help?9browser?4png@ 00475254     mainwindow.obj
 0002:00007274       ??_C@_0O@OJPNIIDF@actionDAQmode@ 00475274     mainwindow.obj
 0002:00007284       ??_C@_0N@JIOBBOPD@actionNewDAQ@ 00475284     mainwindow.obj
 0002:00007294       ??_C@_0CE@JPANDDMG@?3?1icons?1icons?148px?9Document?9new@ 00475294     mainwindow.obj
 0002:000072b8       ??_C@_0N@POLJOBBK@actionNewDUT@ 004752b8     mainwindow.obj
 0002:000072c8       ??_C@_0CC@KHFKCEGO@?3?1icons?1icons?148px?9AddTexture?4p@ 004752c8     mainwindow.obj
 0002:000072ec       ??_C@_0BH@LBMPKMGL@actionTcpServerSetting@ 004752ec     mainwindow.obj
 0002:00007304       ??_C@_0BH@MLJAJPFN@actionUdpServerSetting@ 00475304     mainwindow.obj
 0002:0000731c       ??_C@_0BN@DCGGKMDL@?3?1icons?1icons?1light_bulb?4png@ 0047531c     mainwindow.obj
 0002:0000733c       ??_C@_0BC@CGEEMPOG@actionSaveSetting@ 0047533c     mainwindow.obj
 0002:00007350       ??_C@_0O@KCJAGLJO@actionDAQview@ 00475350     mainwindow.obj
 0002:00007360       ??_C@_0CH@OEHBBHAC@?3?1icons?1icons?148px?9Image?9x?9gene@ 00475360     mainwindow.obj
 0002:00007388       ??_C@_0O@GBMMECPA@actionDUTview@ 00475388     mainwindow.obj
 0002:00007398       ??_C@_0P@HLEOGAKG@actionDataView@ 00475398     mainwindow.obj
 0002:000073a8       ??_C@_0BC@FDGEBMMC@actionHistoryData@ 004753a8     mainwindow.obj
 0002:000073bc       ??_C@_0N@COGDCEEN@actionExport@ 004753bc     mainwindow.obj
 0002:000073cc       ??_C@_0BA@OFBCCGOP@actionAutoScale@ 004753cc     mainwindow.obj
 0002:000073dc       ??_C@_0BE@PFNNGCJD@actionCharacterView@ 004753dc     mainwindow.obj
 0002:000073f0       ??_C@_0CK@IAJOGELB@?3?1icons?1icons?148px?9Antialias_Ic@ 004753f0     mainwindow.obj
 0002:0000741c       ??_C@_0P@GNGCBHON@actionAutoWave@ 0047541c     mainwindow.obj
 0002:0000742c       ??_C@_0O@HKNJIMPD@centralWidget@ 0047542c     mainwindow.obj
 0002:0000743c       ??_C@_09CILOEDGO@statusBar@ 0047543c     mainwindow.obj
 0002:00007448       ??_C@_08FGFOJKBH@dockMain@ 00475448     mainwindow.obj
 0002:00007454       ??_C@_0BG@IAHNDAFE@dockWidgetContents_14@ 00475454     mainwindow.obj
 0002:0000746c       ??_C@_0BD@DONPPACK@dockAnalysisOption@ 0047546c     mainwindow.obj
 0002:00007480       ??_C@_0BG@JJGGABBF@dockWidgetContents_15@ 00475480     mainwindow.obj
 0002:00007498       ??_C@_0P@IDJDENPH@dockPlotOption@ 00475498     mainwindow.obj
 0002:000074a8       ??_C@_0BG@LCELFCNG@dockWidgetContents_16@ 004754a8     mainwindow.obj
 0002:000074c0       ??_C@_0L@DFGJANJ@dockLegend@ 004754c0     mainwindow.obj
 0002:000074cc       ??_C@_0BG@KLFAGDJH@dockWidgetContents_17@ 004754cc     mainwindow.obj
 0002:000074e4       ??_C@_0M@IMGNNBDL@dockStatics@ 004754e4     mainwindow.obj
 0002:000074f0       ??_C@_0BG@CMMIHPFI@dockWidgetContents_18@ 004754f0     mainwindow.obj
 0002:00007508       ??_C@_0M@GOOCPDM@dockMessage@ 00475508     mainwindow.obj
 0002:00007514       ??_C@_0BB@MPCHNPIJ@messageContainer@ 00475514     mainwindow.obj
 0002:00007528       ??_C@_0P@ICKECKAH@dockChsettings@ 00475528     mainwindow.obj
 0002:00007538       ??_C@_0BF@BCMODIOD@dockWidgetContents_2@ 00475538     mainwindow.obj
 0002:00007550       ??_C@_0M@KANHMMHC@tabLeftMain@ 00475550     mainwindow.obj
 0002:0000755c       ??_C@_06PKDIJHAK@tabDUT@   0047555c     mainwindow.obj
 0002:00007564       ??_C@_0M@EAMKKKJA@dutTreeView@ 00475564     mainwindow.obj
 0002:00007570       ??_C@_06JMGAGIOD@tabDAQ@   00475570     mainwindow.obj
 0002:00007578       ??_C@_0M@LIMMNGJN@daqTreeView@ 00475578     mainwindow.obj
 0002:00007584       ??_C@_0BA@MMFIAEKK@TabToolbar?5Test@ 00475584     mainwindow.obj
 0002:00007594       ??_C@_07DFGEOHPP@Save?5As@ 00475594     mainwindow.obj
 0002:0000759c       ??_C@_04DNCDCIAE@Open@     0047559c     mainwindow.obj
 0002:000075a4       ??_C@_04INACKGJP@Save@     004755a4     mainwindow.obj
 0002:000075ac       ??_C@_05MAGIBEFI@Scale@    004755ac     mainwindow.obj
 0002:000075b4       ??_C@_09DIELMONF@Polypaint@ 004755b4     mainwindow.obj
 0002:000075c0       ??_C@_08EEOHOBEO@Settings@ 004755c0     mainwindow.obj
 0002:000075cc       ??_C@_05JLNEMJLN@dummy@    004755cc     mainwindow.obj
 0002:000075d4       ??_C@_04BLIMKIOI@redo@     004755d4     mainwindow.obj
 0002:000075dc       ??_C@_04HOKNPDPJ@undo@     004755dc     mainwindow.obj
 0002:000075e4       ??_C@_04DDFEFHOJ@Help@     004755e4     mainwindow.obj
 0002:000075ec       ??_C@_07EHBHOBKJ@DAQmode@  004755ec     mainwindow.obj
 0002:000075f4       ??_C@_06KDOCMIBL@NewDAQ@   004755f4     mainwindow.obj
 0002:000075fc       ??_C@_06MFLKDHPC@NewDUT@   004755fc     mainwindow.obj
 0002:00007604       ??_C@_0BB@NGAMCPBG@TcpServerSetting@ 00475604     mainwindow.obj
 0002:00007618       ??_C@_0BB@KMFDBMCA@UdpServerSetting@ 00475618     mainwindow.obj
 0002:0000762c       ??_C@_0M@DCLPENM@SaveSetting@ 0047562c     mainwindow.obj
 0002:00007638       ??_C@_07MHKACAC@DAQview@   00475638     mainwindow.obj
 0002:00007640       ??_C@_07MPCGCLGM@DUTview@  00475640     mainwindow.obj
 0002:00007648       ??_C@_08ICFJFFKA@DataView@ 00475648     mainwindow.obj
 0002:00007654       ??_C@_0M@HGALCHPI@HistoryData@ 00475654     mainwindow.obj
 0002:00007660       ??_C@_06BFGAPCKF@Export@   00475660     mainwindow.obj
 0002:00007668       ??_C@_09EDNFJHDP@autoScale@ 00475668     mainwindow.obj
 0002:00007674       ??_C@_0BF@OAGGKJLJ@auto?5Fits?5Data?5Range@ 00475674     mainwindow.obj
 0002:0000768c       ??_C@_0O@GBHPHAKB@CharacterView@ 0047568c     mainwindow.obj
 0002:0000769c       ??_C@_08JEHFCCOL@AutoWave@ 0047569c     mainwindow.obj
 0002:000076a8       ??_C@_0BF@FHAKBPBH@dockAnalysissettings@ 004756a8     mainwindow.obj
 0002:000076c0       ??_C@_0L@EBKJBFOC@plotOption@ 004756c0     mainwindow.obj
 0002:000076cc       ??_C@_06BCIOHMBM@legend@   004756cc     mainwindow.obj
 0002:000076d4       ??_C@_07GHHCDPOI@statics@  004756d4     mainwindow.obj
 0002:000076dc       ??_C@_07ONPBMBOP@message@  004756dc     mainwindow.obj
 0002:000076e4       ??_C@_0L@MCGPPALB@chSettings@ 004756e4     mainwindow.obj
 0002:000076f0       ??_C@_0N@MEKELCKI@?h?$KO?$LO?e?$KE?$IH?e?$II?$JH?h?$KB?$KI@ 004756f0     mainwindow.obj
 0002:00007700       ??_C@_0BA@JAAJAOOG@?i?$IH?$IH?i?$JL?$IG?e?$JJ?$KI?e?$II?$JH?h?$KB?$KI@ 00475700     mainwindow.obj
 0002:00007710       ??_C@_04HKFDNBLD@init@     00475710     mainwindow.obj
 0002:00007718       ??_C@_08ELIEPNPM@textEdit@ 00475718     mainwindow.obj
 0002:00007724       ??_C@_08FDGKFKIB@checkBox@ 00475724     mainwindow.obj
 0002:00007730       ??_C@_0BF@PBOAIEEH@?3?1tt?1tabtoolbar?4json@ 00475730     mainwindow.obj
 0002:00007748       ??_C@_0BK@HFLJKGNN@QTextBrowser?$HLborder?30px?$DL?$HN@ 00475748     mainwindow.obj
 0002:00007764       ??_C@_0P@NKDKBAPO@192?4168?499?4102@ 00475764     mainwindow.obj
 0002:00007774       ??_C@_0BE@HAPPMMON@yyyy?9MM?9dd?5HH?3mm?3ss@ 00475774     mainwindow.obj
 0002:00007788       ??_C@_05GLAHCKBE@?5IP?3?5@ 00475788     mainwindow.obj
 0002:00007790       ??_C@_0BF@IFHGAJAH@?f?$JG?$LA?h?$KO?$LO?e?$KE?$IH?h?$LP?$JO?f?$IO?$KF?0SN?3?5@ 00475790     mainwindow.obj
 0002:000077a8       ??_C@_05KBOMEDGA@total@    004757a8     mainwindow.obj
 0002:000077b0       ??_C@_07ELBKGEGF@QSQLITE@  004757b0     mainwindow.obj
 0002:000077b8       ??_C@_08BLFAGDGE@?1conf?4db@ 004757b8     mainwindow.obj
 0002:000077c4       ??_C@_0BA@BMKMIIHG@?3?1icons?1conf?4db@ 004757c4     mainwindow.obj
 0002:000077d4       ??_C@_0DK@EGBKDLLO@?f?$JH?$KA?f?$LD?$JF?f?$IJ?$JD?e?$LM?$IA?i?$IF?$IN?g?$LN?$KO?f?$JG?$IH?d?$LL?$LG?o?$LM?$IM?h?$KP?$LH?f@ 004757d4     mainwindow.obj
 0002:00007810       ??_C@_05NPAPGJEJ@basic@    00475810     mainwindow.obj
 0002:00007818       ??_C@_0BB@JBNAGKJB@localTcpServerIP@ 00475818     mainwindow.obj
 0002:0000782c       ??_C@_0BD@BMKDLPAF@localTcpServerPort@ 0047582c     mainwindow.obj
 0002:00007840       ??_C@_0BB@CDEODDHN@localUdpServerIP@ 00475840     mainwindow.obj
 0002:00007854       ??_C@_0BD@PMNPFICL@localUdpServerPort@ 00475854     mainwindow.obj
 0002:00007868       ??_C@_0BE@BHLOEFBO@localModbusServerIP@ 00475868     mainwindow.obj
 0002:0000787c       ??_C@_0BG@LGJIALG@localModbusServerPort@ 0047587c     mainwindow.obj
 0002:00007894       ??_C@_0BD@CACOKDON@remoteHttpServerIP@ 00475894     mainwindow.obj
 0002:000078a8       ??_C@_0BF@HNJBECBF@remoteHttpServerPort@ 004758a8     mainwindow.obj
 0002:000078c0       ??_C@_0N@OIJIBHGO@saveAutoWave@ 004758c0     mainwindow.obj
 0002:000078d0       ??_C@_0BC@MDOJIHGO@localHttpServerIP@ 004758d0     mainwindow.obj
 0002:000078e4       ??_C@_0BE@FBDMIOIL@localHttpServerPort@ 004758e4     mainwindow.obj
 0002:000078f8       ??_C@_0BC@NBGNOINH@showOrignalPacket@ 004758f8     mainwindow.obj
 0002:0000790c       ??_C@_0BJ@IAEOIBPJ@autoStartWebSocketServer@ 0047590c     mainwindow.obj
 0002:00007928       ??_C@_0BH@NAFMEIEL@localWebSocketServerIP@ 00475928     mainwindow.obj
 0002:00007940       ??_C@_0BJ@LCBEJCPI@localWebSocketServerPort@ 00475940     mainwindow.obj
 0002:0000795c       ??_C@_0BC@DFPPPLBJ@remoteTcpServerIP@ 0047595c     mainwindow.obj
 0002:00007970       ??_C@_0BE@GIPBKKLL@remoteTcpServerPort@ 00475970     mainwindow.obj
 0002:00007984       ??_C@_0BA@GOODEBMH@enableTcpClient@ 00475984     mainwindow.obj
 0002:00007994       ??_C@_0BB@BDHFFFMP@enableHttpClient@ 00475994     mainwindow.obj
 0002:000079a8       ??_C@_0BF@DPMIPKGF@enableLocalTcpServer@ 004759a8     mainwindow.obj
 0002:000079c0       ??_C@_0BF@LEGLPMJC@enableLocalUdpServer@ 004759c0     mainwindow.obj
 0002:000079d8       ??_C@_0BG@BAEAPHHC@enableLocalHttpServer@ 004759d8     mainwindow.obj
 0002:000079f0       ??_C@_0BL@LMMEKCED@enableLocalWebsocketServer@ 004759f0     mainwindow.obj
 0002:00007a0c       ??_C@_0BI@HKNIEMJG@enableLocalModbusServer@ 00475a0c     mainwindow.obj
 0002:00007a24       ??_C@_0BI@GADMKEBE@remoteWebsocketServerIP@ 00475a24     mainwindow.obj
 0002:00007a3c       ??_C@_0BK@CGILMNFA@remoteWebsocketServerPort@ 00475a3c     mainwindow.obj
 0002:00007a58       ??_C@_0BG@CBELBGAI@enableRemoteWebsocket@ 00475a58     mainwindow.obj
 0002:00007a70       ??_C@_0BP@IMKPMOLJ@autoStartRemoteWebsocketServer@ 00475a70     mainwindow.obj
 0002:00007ae8       ??_SQRegExpValidator@@6B@  00475ae8     settingwifijunyue.obj
 0002:00007b20       ??_7settingWifiJunyue@@6BQObject@@@ 00475b20     settingwifijunyue.obj
 0002:00007bec       ??_7settingWifiJunyue@@6BQPaintDevice@@@ 00475bec     settingwifijunyue.obj
 0002:00007c0c       ??_SQGroupBox@@6BQObject@@@ 00475c0c     settingwifijunyue.obj
 0002:00007cc4       ??_SQGroupBox@@6BQPaintDevice@@@ 00475cc4     settingwifijunyue.obj
 0002:00007ce0       ??_C@_0BC@GMNJKAMO@settingWifiJunyue@ 00475ce0     settingwifijunyue.obj
 0002:00007cf4       ??_C@_06CEGKLGFM@tabNet@   00475cf4     settingwifijunyue.obj
 0002:00007cfc       ??_C@_0N@PBNLJLML@lblCurrentAP@ 00475cfc     settingwifijunyue.obj
 0002:00007d0c       ??_C@_0M@NGLBGFMN@btnChangeAP@ 00475d0c     settingwifijunyue.obj
 0002:00007d18       ??_C@_0L@OJMAGHND@groupBox_2@ 00475d18     settingwifijunyue.obj
 0002:00007d24       ??_C@_0N@BGHEJMPN@chkEnableWWW@ 00475d24     settingwifijunyue.obj
 0002:00007d34       ??_C@_0M@LMFFHBDJ@tcpServerIP@ 00475d34     settingwifijunyue.obj
 0002:00007d40       ??_C@_0M@MGBABPHF@lblPortName@ 00475d40     settingwifijunyue.obj
 0002:00007d4c       ??_C@_0O@PABIGNIN@tcpServerPort@ 00475d4c     settingwifijunyue.obj
 0002:00007d5c       ??_C@_0L@BHNCJGPF@wwwAddress@ 00475d5c     settingwifijunyue.obj
 0002:00007d68       ??_C@_0BA@GCPAJCKB@btnChangeServer@ 00475d68     settingwifijunyue.obj
 0002:00007d78       ??_C@_08IFDCDODF@groupBox@ 00475d78     settingwifijunyue.obj
 0002:00007d84       ??_C@_0O@ENLEAGFO@chkEnableDHCP@ 00475d84     settingwifijunyue.obj
 0002:00007d94       ??_C@_05HCOPPHG@devIP@     00475d94     settingwifijunyue.obj
 0002:00007d9c       ??_C@_07DJMOGLLC@devMask@  00475d9c     settingwifijunyue.obj
 0002:00007da4       ??_C@_0L@EOPKBOAA@devGateway@ 00475da4     settingwifijunyue.obj
 0002:00007db0       ??_C@_06MIJPFDDK@lblDNS@   00475db0     settingwifijunyue.obj
 0002:00007db8       ??_C@_06MMCFKCMG@devDNS@   00475db8     settingwifijunyue.obj
 0002:00007dc0       ??_C@_0M@LNDHFPOC@btnApplyNet@ 00475dc0     settingwifijunyue.obj
 0002:00007dcc       ??_C@_06DBKJAKKB@tabDaq@   00475dcc     settingwifijunyue.obj
 0002:00007dd4       ??_C@_0L@PANLFGJC@groupBox_3@ 00475dd4     settingwifijunyue.obj
 0002:00007de0       ??_C@_05NKIMFBFD@daqFs@    00475de0     settingwifijunyue.obj
 0002:00007de8       ??_C@_0N@GAECEEHH@sampleReriod@ 00475de8     settingwifijunyue.obj
 0002:00007df8       ??_C@_0L@HOCJKIAN@sampleSpan@ 00475df8     settingwifijunyue.obj
 0002:00007e04       ??_C@_0BC@CKHDHHEI@chkEnableAutoWave@ 00475e04     settingwifijunyue.obj
 0002:00007e18       ??_C@_08KJFLNHGH@label_34@ 00475e18     settingwifijunyue.obj
 0002:00007e24       ??_C@_0N@IKAEDHBF@autoWaveSpan@ 00475e24     settingwifijunyue.obj
 0002:00007e34       ??_C@_0BH@FLCEGICB@chkEnableAutoCharacter@ 00475e34     settingwifijunyue.obj
 0002:00007e4c       ??_C@_07LHLBJAFB@daqMode@  00475e4c     settingwifijunyue.obj
 0002:00007e54       ??_C@_0M@JGGGPPK@enableHeart@ 00475e54     settingwifijunyue.obj
 0002:00007e60       ??_C@_09JJFDMLKP@heartSpan@ 00475e60     settingwifijunyue.obj
 0002:00007e6c       ??_C@_08JLGNLFOF@label_36@ 00475e6c     settingwifijunyue.obj
 0002:00007e78       ??_C@_08GEADNJPL@IEPEtime@ 00475e78     settingwifijunyue.obj
 0002:00007e84       ??_C@_08FOOJIGL@label_38@  00475e84     settingwifijunyue.obj
 0002:00007e90       ??_C@_08OGBKEBKA@label_33@ 00475e90     settingwifijunyue.obj
 0002:00007e9c       ??_C@_09MEGFIMNG@powerMode@ 00475e9c     settingwifijunyue.obj
 0002:00007ea8       ??_C@_0M@BCAANANK@scanChannel@ 00475ea8     settingwifijunyue.obj
 0002:00007eb4       ??_C@_08MMNALFJK@waitTime@ 00475eb4     settingwifijunyue.obj
 0002:00007ec0       ??_C@_08NBGDDFKH@label_41@ 00475ec0     settingwifijunyue.obj
 0002:00007ecc       ??_C@_0L@PKPDBAN@tempAdjust@ 00475ecc     settingwifijunyue.obj
 0002:00007ed8       ??_C@_08PKEOGGGE@label_42@ 00475ed8     settingwifijunyue.obj
 0002:00007ee4       ??_C@_0BB@CCOCLKOB@groupBox_Factory@ 00475ee4     settingwifijunyue.obj
 0002:00007ef8       ??_C@_06KFOPHPCN@snEdit@   00475ef8     settingwifijunyue.obj
 0002:00007f00       ??_C@_0M@BNFCCNAM@btnChangeSN@ 00475f00     settingwifijunyue.obj
 0002:00007f0c       ??_C@_0L@LEJMOBGG@btnPrepare@ 00475f0c     settingwifijunyue.obj
 0002:00007f18       ??_C@_08FIINAICG@btnADch1@ 00475f18     settingwifijunyue.obj
 0002:00007f24       ??_C@_08HDKAFLOF@btnADch2@ 00475f24     settingwifijunyue.obj
 0002:00007f30       ??_C@_08GKLLGKKE@btnADch3@ 00475f30     settingwifijunyue.obj
 0002:00007f3c       ??_C@_08CFPKPMGD@btnADch4@ 00475f3c     settingwifijunyue.obj
 0002:00007f48       ??_C@_08DMOBMNCC@btnADch5@ 00475f48     settingwifijunyue.obj
 0002:00007f54       ??_C@_08BHMMJOOB@btnADch6@ 00475f54     settingwifijunyue.obj
 0002:00007f60       ??_C@_08ONHKPKA@btnADch7@  00475f60     settingwifijunyue.obj
 0002:00007f6c       ??_C@_08IJEPLDGP@btnADch8@ 00475f6c     settingwifijunyue.obj
 0002:00007f78       ??_C@_0M@FMCLFLPJ@btnTempZero@ 00475f78     settingwifijunyue.obj
 0002:00007f84       ??_C@_07IMJBFCPN@btnTemp@  00475f84     settingwifijunyue.obj
 0002:00007f8c       ??_C@_0M@KIPEODBP@btnApplyDaq@ 00475f8c     settingwifijunyue.obj
 0002:00007f98       ??_C@_05DEALKCMI@tabCh@    00475f98     settingwifijunyue.obj
 0002:00007fa0       ??_C@_08FIMGMNAE@widget_5@ 00475fa0     settingwifijunyue.obj
 0002:00007fac       ??_C@_08ECMPCFM@label_28@  00475fac     settingwifijunyue.obj
 0002:00007fb8       ??_C@_08BNDHMDBN@label_29@ 00475fb8     settingwifijunyue.obj
 0002:00007fc4       ??_C@_08MNDHBCGD@label_30@ 00475fc4     settingwifijunyue.obj
 0002:00007fd0       ??_C@_08NECMCDCC@label_31@ 00475fd0     settingwifijunyue.obj
 0002:00007fdc       ??_C@_08PPABHAOB@label_32@ 00475fdc     settingwifijunyue.obj
 0002:00007fe8       ??_C@_08BMPFKJCK@label_39@ 00475fe8     settingwifijunyue.obj
 0002:00007ff4       ??_C@_0M@MFIGBPDO@chContainer@ 00475ff4     settingwifijunyue.obj
 0002:00008000       ??_C@_0L@GALDKGML@btnApplyCh@ 00476000     settingwifijunyue.obj
 0002:0000800c       ??_C@_08DMMJMABJ@tabAlert@ 0047600c     settingwifijunyue.obj
 0002:00008018       ??_C@_08MIHIAEOG@label_40@ 00476018     settingwifijunyue.obj
 0002:00008024       ??_C@_0BF@JEHNMMBL@widgetAlertContainer@ 00476024     settingwifijunyue.obj
 0002:0000803c       ??_C@_09NKLNFHLJ@tempAlert@ 0047603c     settingwifijunyue.obj
 0002:00008048       ??_C@_0N@JFODHBBK@batteryAlert@ 00476048     settingwifijunyue.obj
 0002:00008058       ??_C@_08LAEAOGCG@label_35@ 00476058     settingwifijunyue.obj
 0002:00008064       ??_C@_09ENKPFIME@alertSpan@ 00476064     settingwifijunyue.obj
 0002:00008070       ??_C@_08ICHGIEKE@label_37@ 00476070     settingwifijunyue.obj
 0002:0000807c       ??_C@_0O@JPFJIAKO@btnApplyAlert@ 0047607c     settingwifijunyue.obj
 0002:0000808c       ??_C@_0N@BIOPIODG@?e?$IP?$IC?f?$JF?$LA?h?$KO?$LO?g?$LN?$KO@ 0047608c     settingwifijunyue.obj
 0002:0000809c       ??_C@_0M@KGKLOOJ@?e?$LN?$JD?e?$IJ?$INAP?o?$LM?$JK@ 0047609c     settingwifijunyue.obj
 0002:000080a8       ??_C@_08LJAIBCNI@?f?$JL?$LE?f?$JE?$LJAP@ 004760a8     settingwifijunyue.obj
 0002:000080b4       ??_C@_0BG@CFKKNCHN@TCP?f?$JM?$IN?e?$IK?$KB?e?$JJ?$KI?e?$JM?$LA?e?$JN?$IA?o?$LM?$JK@ 004760b4     settingwifijunyue.obj
 0002:000080cc       ??_C@_0N@PPBHHFPF@?d?$LN?$LP?g?$JE?$KI?e?$JP?$JP?e?$JA?$IN@ 004760cc     settingwifijunyue.obj
 0002:000080dc       ??_C@_07BFLHPLMD@?g?$KL?$KP?e?$IP?$KD?3@ 004760dc     settingwifijunyue.obj
 0002:000080e4       ??_C@_0N@HDDOBLHN@?f?$JL?$LE?f?$JE?$LJserver@ 004760e4     settingwifijunyue.obj
 0002:000080f4       ??_C@_08CBMFNPBP@?h?$KO?$LO?e?$KE?$IHIP@ 004760f4     settingwifijunyue.obj
 0002:00008100       ??_C@_04CGJOIHE@DHCP@      00476100     settingwifijunyue.obj
 0002:00008108       ??_C@_0N@DFGNALEA@?5IP?e?$JM?$LA?e?$JN?$IA?o?$LM?$JK@ 00476108     settingwifijunyue.obj
 0002:00008118       ??_C@_0BA@EJBMJHHE@?e?$KN?$JA?g?$LN?$JB?f?$IO?$KJ?g?$KA?$IB?o?$LM?$JK@ 00476118     settingwifijunyue.obj
 0002:00008128       ??_C@_09BCDOFILB@?g?$LN?$JB?e?$IF?$LD?o?$LM?$JK@ 00476128     settingwifijunyue.obj
 0002:00008134       ??_C@_06FBMAJLGG@DNS?o?$LM?$JK@ 00476134     settingwifijunyue.obj
 0002:0000813c       ??_C@_0BD@FKLMNGID@?d?$LI?$IL?e?$IP?$JB?g?$LN?$JB?g?$LL?$JM?e?$IP?$IC?f?$JF?$LA@ 0047613c     settingwifijunyue.obj
 0002:00008150       ??_C@_0N@CPMINJAM@?g?$LN?$JB?g?$LL?$JM?e?$IP?$IC?f?$JF?$LA@ 00476150     settingwifijunyue.obj
 0002:00008160       ??_C@_0N@KFBFKENF@?g?$JE?$KI?f?$II?$LH?e?$IP?$IC?f?$JF?$LA@ 00476160     settingwifijunyue.obj
 0002:00008170       ??_C@_0N@LJOEHPPC@?i?$IH?$IH?f?$KA?$LH?g?$IO?$IH?o?$LM?$JK@ 00476170     settingwifijunyue.obj
 0002:00008180       ??_C@_02KLOHGLOJ@Hz@       00476180     settingwifijunyue.obj
 0002:00008184       ??_C@_0BA@HNHIDCCH@?i?$IH?$IH?f?$KA?$LH?e?$JB?$KI?f?$JM?$JP?o?$LM?$JK@ 00476184     settingwifijunyue.obj
 0002:00008194       ??_C@_01LKDEMHDF@s@        00476194     settingwifijunyue.obj
 0002:00008198       ??_C@_0BA@GIILCNKC@?i?$IH?$IH?f?$KA?$LH?i?$JH?$LE?i?$JK?$JE?o?$LM?$JK@ 00476198     settingwifijunyue.obj
 0002:000081a8       ??_C@_0BD@LCDOBHNO@?h?$IH?$KK?e?$IK?$KI?e?$IP?$JB?i?$IA?$IB?f?$LD?$KC?e?$LN?$KC@ 004761a8     settingwifijunyue.obj
 0002:000081bc       ??_C@_0BG@NFPCLPMF@?f?$LD?$KC?e?$LN?$KC?e?$IP?$JB?i?$IA?$IB?i?$JH?$LE?i?$JK?$JE?o?$LM?$JK@ 004761bc     settingwifijunyue.obj
 0002:000081d4       ??_C@_0BG@HOOIOBPO@?h?$IH?$KK?e?$IK?$KI?e?$IP?$JB?i?$IA?$IB?g?$IJ?$LJ?e?$LO?$IB?e?$IA?$LM@ 004761d4     settingwifijunyue.obj
 0002:000081ec       ??_C@_0BA@ENOPPDAJ@?e?$LH?$KF?d?$LN?$JM?f?$KI?$KB?e?$LM?$IP?o?$LM?$JK@ 004761ec     settingwifijunyue.obj
 0002:000081fc       ??_C@_0BG@DOLIPNCI@?f?$JH?$LG?e?$JP?$JP?g?$IJ?$LJ?e?$LO?$IB?e?$IA?$LM?f?$KI?$KB?e?$LM?$IP@ 004761fc     settingwifijunyue.obj
 0002:00008214       ??_C@_0N@CKEPCPEP@?f?$JH?$LG?e?$JP?$JP?f?$KI?$KB?e?$LM?$IP@ 00476214     settingwifijunyue.obj
 0002:00008224       ??_C@_09LKLDODKN@FFT?f?$KI?$KB?e?$LM?$IP@ 00476224     settingwifijunyue.obj
 0002:00008230       ??_C@_0BG@EIJFKDOB@?i?$KC?$JB?e?$JP?$JP?g?$IJ?$LJ?e?$LO?$IB?e?$IA?$LM?f?$KI?$KB?e?$LM?$IP@ 00476230     settingwifijunyue.obj
 0002:00008248       ??_C@_0N@MDEMLEAG@?g?$KJ?$LK?i?$JH?$LC?f?$KI?$KB?e?$LM?$IP@ 00476248     settingwifijunyue.obj
 0002:00008258       ??_C@_0N@NOPHNCPP@?d?$LN?$LP?h?$ID?$LN?e?$LP?$ID?h?$LH?$LD@ 00476258     settingwifijunyue.obj
 0002:00008268       ??_C@_0BA@PCGHHIOD@?e?$LP?$ID?h?$LH?$LD?e?$JB?$KI?f?$JM?$JP?o?$LM?$JK@ 00476268     settingwifijunyue.obj
 0002:00008278       ??_C@_0BE@JBNCKJCH@IEPE?g?$KI?$LD?e?$KO?$JK?f?$JH?$LG?i?$JH?$LE?o?$LM?$JK@ 00476278     settingwifijunyue.obj
 0002:0000828c       ??_C@_0BA@DHLKLHKO@?e?$IK?$JP?h?$IA?$JH?f?$KI?$KB?e?$LM?$IP?o?$LM?$JK@ 0047628c     settingwifijunyue.obj
 0002:0000829c       ??_C@_0N@BONDBNIG@?f?$KN?$KD?e?$LI?$LI?f?$KI?$KB?e?$LM?$IP@ 0047629c     settingwifijunyue.obj
 0002:000082ac       ??_C@_0BA@MJAFLLED@?d?$LN?$IO?e?$IK?$JP?h?$IA?$JH?f?$KI?$KB?e?$LM?$IP@ 004762ac     settingwifijunyue.obj
 0002:000082bc       ??_C@_0BA@OLODCEFM@?f?$IJ?$KL?f?$IP?$IP?i?$IA?$JK?i?$IB?$JD?o?$LM?$JK@ 004762bc     settingwifijunyue.obj
 0002:000082cc       ??_C@_0BA@IKMMANNK@?g?$KN?$IJ?e?$LO?$IF?f?$JH?$LG?i?$JH?$LE?o?$LM?$JK@ 004762cc     settingwifijunyue.obj
 0002:000082dc       ??_C@_0BD@GJNEHJAN@?f?$LI?$KJ?e?$LK?$KG?f?$KA?$KB?e?$IH?$IG?e?$IA?$LM?o?$LM?$JK@ 004762dc     settingwifijunyue.obj
 0002:000082f0       ??_C@_0N@BNFFMMAI@?e?$IH?$LK?e?$IO?$IC?e?$IP?$IC?f?$JF?$LA@ 004762f0     settingwifijunyue.obj
 0002:00008300       ??_C@_05OKBCPGKH@SN?o?$LM?$JK@ 00476300     settingwifijunyue.obj
 0002:00008308       ??_C@_0BC@KGIGKDEC@?h?$KP?$LH?h?$LO?$JD?e?$IF?$KF?f?$JG?$LA?g?$JK?$IESN@ 00476308     settingwifijunyue.obj
 0002:0000831c       ??_C@_08HCOLFKBJ@?f?$JL?$LE?f?$JE?$LJSN@ 0047631c     settingwifijunyue.obj
 0002:00008328       ??_C@_0N@KFGCKCKF@?e?$IH?$IG?e?$KE?$IH?f?$KA?$KB?e?$IH?$IG@ 00476328     settingwifijunyue.obj
 0002:00008338       ??_C@_09PJDEELLK@?f?$KA?$KB?e?$IH?$IGCH1@ 00476338     settingwifijunyue.obj
 0002:00008344       ??_C@_09NCBJBIHJ@?f?$KA?$KB?e?$IH?$IGCH2@ 00476344     settingwifijunyue.obj
 0002:00008350       ??_C@_09MLACCJDI@?f?$KA?$KB?e?$IH?$IGCH3@ 00476350     settingwifijunyue.obj
 0002:0000835c       ??_C@_09IEEDLPPP@?f?$KA?$KB?e?$IH?$IGCH4@ 0047635c     settingwifijunyue.obj
 0002:00008368       ??_C@_09JNFIIOLO@?f?$KA?$KB?e?$IH?$IGCH5@ 00476368     settingwifijunyue.obj
 0002:00008374       ??_C@_09LGHFNNHN@?f?$KA?$KB?e?$IH?$IGCH6@ 00476374     settingwifijunyue.obj
 0002:00008380       ??_C@_09KPGOOMDM@?f?$KA?$KB?e?$IH?$IGCH7@ 00476380     settingwifijunyue.obj
 0002:0000838c       ??_C@_09CIPGPAPD@?f?$KA?$KB?e?$IH?$IGCH8@ 0047638c     settingwifijunyue.obj
 0002:00008398       ??_C@_0BD@LBJNMAAJ@?f?$LI?$KJ?e?$LK?$KG?i?$JL?$LG?g?$IC?$LJ?f?$KA?$KB?e?$IH?$IG@ 00476398     settingwifijunyue.obj
 0002:000083ac       ??_C@_0BD@JFNJLLEB@?f?$LI?$KJ?e?$LK?$KG?e?$KC?$JO?g?$JL?$IK?f?$KA?$KB?e?$IH?$IG@ 004763ac     settingwifijunyue.obj
 0002:000083c0       ??_C@_0BG@FODDHBKI@?d?$LI?$IL?e?$IP?$JB?i?$IH?$IH?i?$JL?$IG?e?$JJ?$KI?e?$IP?$IC?f?$JF?$LA@ 004763c0     settingwifijunyue.obj
 0002:000083d8       ??_C@_0BA@GEKKIEIK@?i?$IH?$IH?i?$JL?$IG?e?$JJ?$KI?e?$IP?$IC?f?$JF?$LA@ 004763d8     settingwifijunyue.obj
 0002:000083e8       ??_C@_06GAEBEOPA@?i?$IA?$JK?i?$IB?$JD@ 004763e8     settingwifijunyue.obj
 0002:000083f0       ??_C@_0M@NDOGLKAB@?i?$IH?$IH?f?$KA?$LH?g?$IO?$IHHz@ 004763f0     settingwifijunyue.obj
 0002:000083fc       ??_C@_09OJCLKPHD@?g?$IB?$LF?f?$JF?$IP?e?$LK?$KG@ 004763fc     settingwifijunyue.obj
 0002:00008408       ??_C@_09HFABAOCH@?f?$IK?$KF?h?$KN?$KG?i?$JJ?$JA@ 00476408     settingwifijunyue.obj
 0002:00008414       ??_C@_06IABMPELP@?i?$IH?$IP?g?$KI?$IL@ 00476414     settingwifijunyue.obj
 0002:0000841c       ??_C@_0M@JPBHMBAO@?e?$JA?$KP?g?$JE?$KI?5?5?5?5?5@ 0047641c     settingwifijunyue.obj
 0002:00008428       ??_C@_0BD@HFALACMO@?d?$LI?$IL?e?$IP?$JB?i?$IA?$JK?i?$IB?$JD?e?$IP?$IC?f?$JF?$LA@ 00476428     settingwifijunyue.obj
 0002:0000843c       ??_C@_0N@HPANEB@?i?$IA?$JK?i?$IB?$JD?e?$IP?$IC?f?$JF?$LA@ 0047643c     settingwifijunyue.obj
 0002:0000844c       ??_C@_0N@NDGJGLPD@?5?5?5?5?5?5?f?$LI?$KJ?e?$LK?$KG@ 0047644c     settingwifijunyue.obj
 0002:0000845c       ??_C@_06JFCOMBK@?g?$JE?$LF?i?$IH?$IP@ 0047645c     settingwifijunyue.obj
 0002:00008464       ??_C@_0BM@PMEBCAL@?f?$IK?$KF?h?$KN?$KG?f?$LD?$KC?e?$LN?$KC?e?$IP?$JB?i?$IA?$IB?i?$JH?$LE?i?$JK?$JE?o?$LM?$JK@ 00476464     settingwifijunyue.obj
 0002:00008480       ??_C@_0BD@EFPEMHNA@?d?$LI?$IL?e?$IP?$JB?f?$IK?$KF?h?$KN?$KG?e?$IP?$IC?f?$JF?$LA@ 00476480     settingwifijunyue.obj
 0002:00008494       ??_C@_0N@DAIAMIFP@?f?$IK?$KF?h?$KN?$KG?e?$IP?$IC?f?$JF?$LA@ 00476494     settingwifijunyue.obj
 0002:000084a4       ??_C@_0BO@EDANLIKP@1changeAPinside?$CIWifiApParas?$CK?$CJ@ 004764a4     settingwifijunyue.obj
 0002:000084c4       ??_C@_0BI@HFNNFDL@2changeAP?$CIWifiApParas?$CK?$CJ@ 004764c4     settingwifijunyue.obj
 0002:000084dc       ??_C@_07NBGGDJJD@?$FL0?99?$FN?$CL$@ 004764dc     settingwifijunyue.obj
 0002:000084e4       ??_C@_0BC@IKACNMMJ@1enabledFac?$CIbool?$CJ@ 004764e4     settingwifijunyue.obj
 0002:000084f8       ??_C@_0BB@CGDKPOPA@2triggered?$CIbool?$CJ@ 004764f8     settingwifijunyue.obj
 0002:0000850c       ??_C@_07HLJMGDHJ@?h?$KO?$LO?g?$LN?$KO?9@ 0047650c     settingwifijunyue.obj
 0002:00008514       ??_C@_0N@KAHFCLKK@?f?$IM?$KP?e?$IK?$KI?i?$IA?$JK?i?$IB?$JD@ 00476514     settingwifijunyue.obj
 0002:00008524       ??_C@_0N@GEFEDOHC@?f?$LI?$KJ?e?$LK?$KG?i?$IA?$JK?i?$IB?$JD@ 00476524     settingwifijunyue.obj
 0002:00008534       ??_C@_0BH@FFDKKPEJ@SN?i?$JF?$LP?e?$LK?$KG?e?$LP?$IF?i?$KB?$LL?d?$LI?$LK16?o?$LM?$IB@ 00476534     settingwifijunyue.obj
 0002:0000854c       ??_C@_0P@MPNIOLHM@SN?f?$KA?$LM?e?$LM?$IP?i?$JE?$JJ?h?$KP?$KP@ 0047654c     settingwifijunyue.obj
 0002:00008560       __real@4024000000000000    00476560     settingwifijunyue.obj
 0002:00008568       __real@40e86a0000000000    00476568     settingwifijunyue.obj
 0002:00008570       __real@416312d000000000    00476570     settingwifijunyue.obj
 0002:00008578       __real@c16312d000000000    00476578     settingwifijunyue.obj
 0002:00008580       ??_C@_01MMEEDKFM@X@        00476580     tcpclient.obj
 0002:00008584       ??_C@_01NFFPALBN@Y@        00476584     tcpclient.obj
 0002:00008588       ??_C@_01POHCFINO@Z@        00476588     tcpclient.obj
 0002:00008590       ??_7tcpClient@@6B@         00476590     tcpclient.obj
 0002:000085bc       ??_C@_0L@LAPNHMFE@CreateTime@ 004765bc     tcpclient.obj
 0002:000085c8       ??_C@_06KLBDMJOP@Values@   004765c8     tcpclient.obj
 0002:000085d0       ??_C@_04GPMDFGEJ@type@     004765d0     tcpclient.obj
 0002:000085d8       ??_C@_05BJKDBEGO@myObj@    004765d8     tcpclient.obj
 0002:000085e0       ??_C@_01GBGANLPD@0@        004765e0     tcpclient.obj
 0002:000085e4       ??_C@_05LPIJGKJ@Value@     004765e4     tcpclient.obj
 0002:000085ec       ??_C@_08BFOPGFLN@DateTime@ 004765ec     tcpclient.obj
 0002:000085f8       ??_C@_0BN@JPAPCPBM@tcp?5not?5connected?0data?5abort@ 004765f8     tcpclient.obj
 0002:00008618       ??_C@_04BLOJIGAO@m?1s2@    00476618     tcpclient.obj
 0002:00008620       ??_C@_06CGMNKLGA@Symbol@   00476620     tcpclient.obj
 0002:00008628       ??_C@_06CPODCDOI@Signal@   00476628     tcpclient.obj
 0002:00008630       __xmm@4058c00000000000c049000000000000 00476630     tcpclient.obj
 0002:00008640       ??_C@_0BN@GAIPNHLC@QAbstractSocket?3?3SocketState@ 00476640     wsclient.obj
 0002:00008664       ??_SQWebSocket@@6B@        00476664     wsclient.obj
 0002:00008694       ??_7wsClient@@6B@          00476694     wsclient.obj
 0002:000086c0       ??_C@_03KCHOJKKI@set@      004766c0     wsclient.obj
 0002:0002e7f0       ??_7netParas@@6B@          0049c7f0     moc_daqinfo.obj
 0002:0002fb68       ?staticMetaObject@QHttpServer@@2UQMetaObject@@B 0049db68     moc_qhttpserver.obj
 0002:0003021c       ?staticMetaObject@StaticFileController@@2UQMetaObject@@B 0049e21c     moc_staticfilecontroller.obj
 0002:00034cd8       ??_7type_info@@6B@         004a2cd8     MSVCRT:std_type_info_static.obj
 0002:00034ce0       ??_C@_1EC@JIJBPKFM@?$AAa?$AAp?$AAi?$AA?9?$AAm?$AAs?$AA?9?$AAw?$AAi?$AAn?$AA?9?$AAc?$AAo?$AAr?$AAe@ 004a2ce0     MSVCRT:thread_safe_statics.obj
 0002:00034d24       ??_C@_0BJ@JEBJOJFJ@SleepConditionVariableCS@ 004a2d24     MSVCRT:thread_safe_statics.obj
 0002:00034d40       ??_C@_0BJ@PGPPEPCC@WakeAllConditionVariable@ 004a2d40     MSVCRT:thread_safe_statics.obj
 0002:00034d7c       ??_7exception@std@@6B@     004a2d7c     MSVCRT:throw_bad_alloc.obj
 0002:00034d84       ??_C@_0BC@EOODALEL@Unknown?5exception@ 004a2d84     MSVCRT:throw_bad_alloc.obj
 0002:00034d9c       ??_7bad_alloc@std@@6B@     004a2d9c     MSVCRT:throw_bad_alloc.obj
 0002:00034da4       ??_C@_0P@GHFPNOJB@bad?5allocation@ 004a2da4     MSVCRT:throw_bad_alloc.obj
 0002:00034db8       ??_7bad_array_new_length@std@@6B@ 004a2db8     MSVCRT:throw_bad_alloc.obj
 0002:00034dc0       ??_C@_0BF@KINCDENJ@bad?5array?5new?5length@ 004a2dc0     MSVCRT:throw_bad_alloc.obj
 0002:00034e38       __load_config_used         004a2e38     MSVCRT:loadcfg.obj
 0002:00034edc       __tls_used                 004a2edc     MSVCRT:tlssup.obj
 0002:00034ef4       ??_R4QFile@@6B@            004a2ef4     mysave.obj
 0002:00034f08       ??_R3QFile@@8              004a2f08     mysave.obj
 0002:00034f18       ??_R2QFile@@8              004a2f18     mysave.obj
 0002:00034f2c       ??_R1A@?0A@EA@QFile@@8     004a2f2c     mysave.obj
 0002:00034f48       ??_R1A@?0A@EA@QFileDevice@@8 004a2f48     mysave.obj
 0002:00034f64       ??_R3QFileDevice@@8        004a2f64     mysave.obj
 0002:00034f74       ??_R2QFileDevice@@8        004a2f74     mysave.obj
 0002:00034f84       ??_R1A@?0A@EA@QIODevice@@8 004a2f84     mysave.obj
 0002:00034fa0       ??_R3QIODevice@@8          004a2fa0     mysave.obj
 0002:00034fb0       ??_R2QIODevice@@8          004a2fb0     mysave.obj
 0002:00034fbc       ??_R1A@?0A@EA@QObject@@8   004a2fbc     mysave.obj
 0002:00034fd8       ??_R3QObject@@8            004a2fd8     mysave.obj
 0002:00034fe8       ??_R2QObject@@8            004a2fe8     mysave.obj
 0002:00034ff0       ??_R4QTextStream@@6B@      004a2ff0     mysave.obj
 0002:00035004       ??_R3QTextStream@@8        004a3004     mysave.obj
 0002:00035014       ??_R2QTextStream@@8        004a3014     mysave.obj
 0002:0003501c       ??_R1A@?0A@EA@QTextStream@@8 004a301c     mysave.obj
 0002:00035038       ??_R4MySocket@@6B@         004a3038     mysocket.obj
 0002:0003504c       ??_R3MySocket@@8           004a304c     mysocket.obj
 0002:0003505c       ??_R2MySocket@@8           004a305c     mysocket.obj
 0002:00035074       ??_R1A@?0A@EA@MySocket@@8  004a3074     mysocket.obj
 0002:00035090       ??_R1A@?0A@EA@QTcpSocket@@8 004a3090     mysocket.obj
 0002:000350ac       ??_R3QTcpSocket@@8         004a30ac     mysocket.obj
 0002:000350bc       ??_R2QTcpSocket@@8         004a30bc     mysocket.obj
 0002:000350d0       ??_R1A@?0A@EA@QAbstractSocket@@8 004a30d0     mysocket.obj
 0002:000350ec       ??_R3QAbstractSocket@@8    004a30ec     mysocket.obj
 0002:000350fc       ??_R2QAbstractSocket@@8    004a30fc     mysocket.obj
 0002:0003510c       ??_R1A@?0A@EA@QThread@@8   004a310c     savedatathread.obj
 0002:00035128       ??_R3QThread@@8            004a3128     savedatathread.obj
 0002:00035138       ??_R2QThread@@8            004a3138     savedatathread.obj
 0002:00035144       ??_R4tcpDataAnalysis@@6B@  004a3144     tcpdataanalysis.obj
 0002:00035158       ??_R3tcpDataAnalysis@@8    004a3158     tcpdataanalysis.obj
 0002:00035168       ??_R2tcpDataAnalysis@@8    004a3168     tcpdataanalysis.obj
 0002:00035174       ??_R1A@?0A@EA@tcpDataAnalysis@@8 004a3174     tcpdataanalysis.obj
 0002:00035190       ??_R4tcpServer@@6B@        004a3190     tcpserver.obj
 0002:000351a4       ??_R3tcpServer@@8          004a31a4     tcpserver.obj
 0002:000351b4       ??_R2tcpServer@@8          004a31b4     tcpserver.obj
 0002:000351c4       ??_R1A@?0A@EA@tcpServer@@8 004a31c4     tcpserver.obj
 0002:000351e0       ??_R1A@?0A@EA@QTcpServer@@8 004a31e0     tcpserver.obj
 0002:000351fc       ??_R3QTcpServer@@8         004a31fc     tcpserver.obj
 0002:0003520c       ??_R2QTcpServer@@8         004a320c     tcpserver.obj
 0002:00035218       ??_R4tcpServerThread@@6B@  004a3218     tcpserverthread.obj
 0002:0003522c       ??_R3tcpServerThread@@8    004a322c     tcpserverthread.obj
 0002:0003523c       ??_R2tcpServerThread@@8    004a323c     tcpserverthread.obj
 0002:0003524c       ??_R1A@?0A@EA@tcpServerThread@@8 004a324c     tcpserverthread.obj
 0002:00035268       ??_R4virbValue@@6B@        004a3268     virbvalue.obj
 0002:0003527c       ??_R3virbValue@@8          004a327c     virbvalue.obj
 0002:0003528c       ??_R2virbValue@@8          004a328c     virbvalue.obj
 0002:00035298       ??_R1A@?0A@EA@virbValue@@8 004a3298     virbvalue.obj
 0002:000352b4       ??_R4WifiChParas@@6B@      004a32b4     wifichparas.obj
 0002:000352c8       ??_R3WifiChParas@@8        004a32c8     wifichparas.obj
 0002:000352d8       ??_R2WifiChParas@@8        004a32d8     wifichparas.obj
 0002:000352e4       ??_R1A@?0A@EA@WifiChParas@@8 004a32e4     wifichparas.obj
 0002:00035300       ??_R4QDoubleSpinBox@@6BQObject@@@ 004a3300     alertchjunyue.obj
 0002:00035314       ??_R3QDoubleSpinBox@@8     004a3314     alertchjunyue.obj
 0002:00035324       ??_R2QDoubleSpinBox@@8     004a3324     alertchjunyue.obj
 0002:0003533c       ??_R1A@?0A@EA@QDoubleSpinBox@@8 004a333c     alertchjunyue.obj
 0002:00035358       ??_R1A@?0A@EA@QAbstractSpinBox@@8 004a3358     alertchjunyue.obj
 0002:00035374       ??_R3QAbstractSpinBox@@8   004a3374     alertchjunyue.obj
 0002:00035384       ??_R2QAbstractSpinBox@@8   004a3384     alertchjunyue.obj
 0002:00035398       ??_R1A@?0A@EA@QWidget@@8   004a3398     alertchjunyue.obj
 0002:000353b4       ??_R3QWidget@@8            004a33b4     alertchjunyue.obj
 0002:000353c4       ??_R2QWidget@@8            004a33c4     alertchjunyue.obj
 0002:000353d4       ??_R17?0A@EA@QPaintDevice@@8 004a33d4     alertchjunyue.obj
 0002:000353f0       ??_R3QPaintDevice@@8       004a33f0     alertchjunyue.obj
 0002:00035400       ??_R2QPaintDevice@@8       004a3400     alertchjunyue.obj
 0002:00035408       ??_R1A@?0A@EA@QPaintDevice@@8 004a3408     alertchjunyue.obj
 0002:00035424       ??_R4QDoubleSpinBox@@6BQPaintDevice@@@ 004a3424     alertchjunyue.obj
